;
; Definition file of bitsperf.dll
; Automatic generated by gendef
; written by Kai Tietz 2008
;
LIBRARY "bitsperf.dll"
EXPORTS
; public: __thiscall CPerfMon::CPerfMon(unsigned short *,struct CPerfMon::_PERF_ITEM *)
??0CPerfMon@@QAE@PAGPAU_PERF_ITEM@0@@Z ; has WINAPI (@8)
; public: __thiscall CPerfMon::~CPerfMon(void)
??1CPerfMon@@QAE@XZ ; has WINAPI (@0)
; public: class CPerfMon &__thiscall CPerfMon::operator =(class CPerfMon const &)
??4CPerfMon@@QAEAAV0@ABV0@@Z ; has WINAPI (@4)
; private: unsigned long __thiscall CPerfMon::CalcBytesForPerfObject(struct CPerfMon::__OBJECT_ORD *)const 
?CalcBytesForPerfObject@CPerfMon@@ABEKPAU__OBJECT_ORD@1@@Z ; has WINAPI (@4)
; private: void __thiscall CPerfMon::CalcPerfMetrics(struct CPerfMon::__OBJECT_ORD *,struct CPerfMon::__INSTANCE_ID *,struct CPerfMon::_PERF_METRICS *,struct CPerfMon::_PERF_ITEM **)const 
?CalcPerfMetrics@CPerfMon@@ABEXPAU__OBJECT_ORD@1@PAU__INSTANCE_ID@1@PAU_PERF_METRICS@1@PAPAU_PERF_ITEM@1@@Z ; has WINAPI (@16)
; public: unsigned long __thiscall CPerfMon::Collect(unsigned short *,unsigned char **,unsigned long *,unsigned long *)
?Collect@CPerfMon@@QAEKPAGPAPAEPAK2@Z ; has WINAPI (@16)
; private: unsigned long __thiscall CPerfMon::CollectAllObjects(unsigned short *,unsigned char **,unsigned long *,unsigned long *)const 
?CollectAllObjects@CPerfMon@@ABEKPAGPAPAEPAK2@Z ; has WINAPI (@16)
; private: unsigned long __thiscall CPerfMon::CollectAnObject(struct CPerfMon::__OBJECT_ORD *,unsigned char **)const 
?CollectAnObject@CPerfMon@@ABEKPAU__OBJECT_ORD@1@PAPAE@Z ; has WINAPI (@8)
; private: int __thiscall CPerfMon::ConvertInstIdToInUseInstId(struct CPerfMon::__OBJECT_ORD *,struct CPerfMon::__INSTANCE_ID *)const 
?ConvertInstIdToInUseInstId@CPerfMon@@ABEHPAU__OBJECT_ORD@1@PAU__INSTANCE_ID@1@@Z ; has WINAPI (@8)
; private: struct CPerfMon::__OBJECT_ORD *__thiscall CPerfMon::CounterIdToObjectOrd(struct CPerfMon::__COUNTER_ID *,int *)const 
?CounterIdToObjectOrd@CPerfMon@@ABEPAU__OBJECT_ORD@1@PAU__COUNTER_ID@1@PAH@Z ; has WINAPI (@8)
; private: struct CPerfMon::_PERF_ITEM *__thiscall CPerfMon::CounterIdToPerfItem(struct CPerfMon::__COUNTER_ID *)const 
?CounterIdToPerfItem@CPerfMon@@ABEPAU_PERF_ITEM@1@PAU__COUNTER_ID@1@@Z ; has WINAPI (@4)
; private: int __thiscall CPerfMon::CounterIdToPerfItemIndex(struct CPerfMon::__COUNTER_ID *,int *)const 
?CounterIdToPerfItemIndex@CPerfMon@@ABEHPAU__COUNTER_ID@1@PAH@Z ; has WINAPI (@8)
; private: struct CPerfMon::_PERF_ITEM *__thiscall CPerfMon::CounterOrdToPerfItem(struct CPerfMon::__OBJECT_ORD *,struct CPerfMon::__COUNTER_ORD *)const 
?CounterOrdToPerfItem@CPerfMon@@ABEPAU_PERF_ITEM@1@PAU__OBJECT_ORD@1@PAU__COUNTER_ORD@1@@Z ; has WINAPI (@8)
; private: void __thiscall CPerfMon::DetermineObjectsToCollect(struct CPerfMon::__OBJECT_ORD *)const 
?DetermineObjectsToCollect@CPerfMon@@ABEXPAU__OBJECT_ORD@1@@Z ; has WINAPI (@4)
; public: long *__thiscall CPerfMon::GetCounter32(struct CPerfMon::__COUNTER_ID *,struct CPerfMon::__INSTANCE_ID *)
?GetCounter32@CPerfMon@@QAEPAJPAU__COUNTER_ID@1@PAU__INSTANCE_ID@1@@Z ; has WINAPI (@8)
; public: __int64 *__thiscall CPerfMon::GetCounter64(struct CPerfMon::__COUNTER_ID *,struct CPerfMon::__INSTANCE_ID *)
?GetCounter64@CPerfMon@@QAEPA_JPAU__COUNTER_ID@1@PAU__INSTANCE_ID@1@@Z ; has WINAPI (@8)
; private: unsigned char *__thiscall CPerfMon::GetCounter(struct CPerfMon::__COUNTER_ID *,struct CPerfMon::__INSTANCE_ID *)
?GetCounter@CPerfMon@@AAEPAEPAU__COUNTER_ID@1@PAU__INSTANCE_ID@1@@Z ; has WINAPI (@8)
; private: int __thiscall CPerfMon::HowManyInstancesAreInUse(struct CPerfMon::__OBJECT_ORD *)const 
?HowManyInstancesAreInUse@CPerfMon@@ABEHPAU__OBJECT_ORD@1@@Z ; has WINAPI (@4)
; private: int __thiscall CPerfMon::IdToPerfItemIndex(int,unsigned long)const 
?IdToPerfItemIndex@CPerfMon@@ABEHHK@Z ; has WINAPI (@8)
; public: unsigned long __thiscall CPerfMon::Initialize(int)
?Initialize@CPerfMon@@QAEKH@Z ; has WINAPI (@4)
; private: unsigned long __thiscall CPerfMon::InitializePerfMon(int)
?InitializePerfMon@CPerfMon@@AAEKH@Z ; has WINAPI (@4)
; private: int __thiscall CPerfMon::IsValidInstId(struct CPerfMon::__OBJECT_ORD *,struct CPerfMon::__INSTANCE_ID *)const 
?IsValidInstId@CPerfMon@@ABEHPAU__OBJECT_ORD@1@PAU__INSTANCE_ID@1@@Z ; has WINAPI (@8)
; private: int __thiscall CPerfMon::IsValidObjOrd(struct CPerfMon::__OBJECT_ORD *)const 
?IsValidObjOrd@CPerfMon@@ABEHPAU__OBJECT_ORD@1@@Z ; has WINAPI (@4)
; private: struct CPerfMon::__OBJECT_ORD *__thiscall CPerfMon::ObjectIdToObjectOrd(struct CPerfMon::__OBJECT_ID *)const 
?ObjectIdToObjectOrd@CPerfMon@@ABEPAU__OBJECT_ORD@1@PAU__OBJECT_ID@1@@Z ; has WINAPI (@4)
; private: struct CPerfMon::_PERF_ITEM *__thiscall CPerfMon::ObjectIdToPerfItem(struct CPerfMon::__OBJECT_ID *)const 
?ObjectIdToPerfItem@CPerfMon@@ABEPAU_PERF_ITEM@1@PAU__OBJECT_ID@1@@Z ; has WINAPI (@4)
; private: int __thiscall CPerfMon::ObjectIdToPerfItemIndex(struct CPerfMon::__OBJECT_ID *)const 
?ObjectIdToPerfItemIndex@CPerfMon@@ABEHPAU__OBJECT_ID@1@@Z ; has WINAPI (@4)
; private: struct CPerfMon::_PERF_ITEM *__thiscall CPerfMon::ObjectOrdToPerfItem(struct CPerfMon::__OBJECT_ORD *)const 
?ObjectOrdToPerfItem@CPerfMon@@ABEPAU_PERF_ITEM@1@PAU__OBJECT_ORD@1@@Z ; has WINAPI (@4)
; private: int __thiscall CPerfMon::ObjectOrdToPerfItemIndex(struct CPerfMon::__OBJECT_ORD *)const 
?ObjectOrdToPerfItemIndex@CPerfMon@@ABEHPAU__OBJECT_ORD@1@@Z ; has WINAPI (@4)
; private: unsigned long __thiscall CPerfMon::VerifyPerfItemTable(void)
?VerifyPerfItemTable@CPerfMon@@AAEKXZ ; has WINAPI (@0)
PerfMon_Close@0
PerfMon_Collect@16
PerfMon_Open@4
