;
; Definition file of UNTFS.dll
; Automatic generated by gendef
; written by Kai Tietz 2008
;
LIBRARY "UNTFS.dll"
EXPORTS
; public: __thiscall NTFS_ATTRIBUTE::NTFS_ATTRIBUTE(void)
??0NTFS_ATTRIBUTE@@QAE@XZ ; has WINAPI (@0)
; public: __thiscall NTFS_ATTRIBUTE_DEFINITION_TABLE::NTFS_ATTRIBUTE_DEFINITION_TABLE(void)
??0NTFS_ATTRIBUTE_DEFINITION_TABLE@@QAE@XZ ; has WINAPI (@0)
; public: __thiscall NTFS_ATTRIBUTE_LIST::NTFS_ATTRIBUTE_LIST(void)
??0NTFS_ATTRIBUTE_LIST@@QAE@XZ ; has WINAPI (@0)
; public: __thiscall NTFS_ATTRIBUTE_RECORD::NTFS_ATTRIBUTE_RECORD(void)
??0NTFS_ATTRIBUTE_RECORD@@QAE@XZ ; has WINAPI (@0)
; public: __thiscall NTFS_BAD_CLUSTER_FILE::NTFS_BAD_CLUSTER_FILE(void)
??0NTFS_BAD_CLUSTER_FILE@@QAE@XZ ; has WINAPI (@0)
; public: __thiscall NTFS_BITMAP::NTFS_BITMAP(void)
??0NTFS_BITMAP@@QAE@XZ ; has WINAPI (@0)
; public: __thiscall NTFS_BITMAP_FILE::NTFS_BITMAP_FILE(void)
??0NTFS_BITMAP_FILE@@QAE@XZ ; has WINAPI (@0)
; public: __thiscall NTFS_BOOT_FILE::NTFS_BOOT_FILE(void)
??0NTFS_BOOT_FILE@@QAE@XZ ; has WINAPI (@0)
; public: __thiscall NTFS_CLUSTER_RUN::NTFS_CLUSTER_RUN(void)
??0NTFS_CLUSTER_RUN@@QAE@XZ ; has WINAPI (@0)
; public: __thiscall NTFS_EXTENT_LIST::NTFS_EXTENT_LIST(void)
??0NTFS_EXTENT_LIST@@QAE@XZ ; has WINAPI (@0)
; public: __thiscall NTFS_FILE_RECORD_SEGMENT::NTFS_FILE_RECORD_SEGMENT(void)
??0NTFS_FILE_RECORD_SEGMENT@@QAE@XZ ; has WINAPI (@0)
; public: __thiscall NTFS_FRS_STRUCTURE::NTFS_FRS_STRUCTURE(void)
??0NTFS_FRS_STRUCTURE@@QAE@XZ ; has WINAPI (@0)
; public: __thiscall NTFS_INDEX_TREE::NTFS_INDEX_TREE(void)
??0NTFS_INDEX_TREE@@QAE@XZ ; has WINAPI (@0)
; public: __thiscall NTFS_LOG_FILE::NTFS_LOG_FILE(void)
??0NTFS_LOG_FILE@@QAE@XZ ; has WINAPI (@0)
; public: __thiscall NTFS_MFT_FILE::NTFS_MFT_FILE(void)
??0NTFS_MFT_FILE@@QAE@XZ ; has WINAPI (@0)
; public: __thiscall NTFS_MFT_INFO::NTFS_MFT_INFO(void)
??0NTFS_MFT_INFO@@QAE@XZ ; has WINAPI (@0)
; public: __thiscall NTFS_REFLECTED_MASTER_FILE_TABLE::NTFS_REFLECTED_MASTER_FILE_TABLE(void)
??0NTFS_REFLECTED_MASTER_FILE_TABLE@@QAE@XZ ; has WINAPI (@0)
; public: __thiscall NTFS_SA::NTFS_SA(void)
??0NTFS_SA@@QAE@XZ ; has WINAPI (@0)
; public: __thiscall NTFS_UPCASE_FILE::NTFS_UPCASE_FILE(void)
??0NTFS_UPCASE_FILE@@QAE@XZ ; has WINAPI (@0)
; public: __thiscall NTFS_UPCASE_TABLE::NTFS_UPCASE_TABLE(void)
??0NTFS_UPCASE_TABLE@@QAE@XZ ; has WINAPI (@0)
; public: __thiscall NTFS_VOLUME_FILE::NTFS_VOLUME_FILE(void)
??0NTFS_VOLUME_FILE@@QAE@XZ ; has WINAPI (@0)
; public: virtual __thiscall NTFS_ATTRIBUTE::~NTFS_ATTRIBUTE(void)
??1NTFS_ATTRIBUTE@@UAE@XZ ; has WINAPI (@0)
; public: virtual __thiscall NTFS_ATTRIBUTE_DEFINITION_TABLE::~NTFS_ATTRIBUTE_DEFINITION_TABLE(void)
??1NTFS_ATTRIBUTE_DEFINITION_TABLE@@UAE@XZ ; has WINAPI (@0)
; public: virtual __thiscall NTFS_ATTRIBUTE_LIST::~NTFS_ATTRIBUTE_LIST(void)
??1NTFS_ATTRIBUTE_LIST@@UAE@XZ ; has WINAPI (@0)
; public: virtual __thiscall NTFS_ATTRIBUTE_RECORD::~NTFS_ATTRIBUTE_RECORD(void)
??1NTFS_ATTRIBUTE_RECORD@@UAE@XZ ; has WINAPI (@0)
; public: virtual __thiscall NTFS_BAD_CLUSTER_FILE::~NTFS_BAD_CLUSTER_FILE(void)
??1NTFS_BAD_CLUSTER_FILE@@UAE@XZ ; has WINAPI (@0)
; public: virtual __thiscall NTFS_BITMAP::~NTFS_BITMAP(void)
??1NTFS_BITMAP@@UAE@XZ ; has WINAPI (@0)
; public: virtual __thiscall NTFS_BITMAP_FILE::~NTFS_BITMAP_FILE(void)
??1NTFS_BITMAP_FILE@@UAE@XZ ; has WINAPI (@0)
; public: virtual __thiscall NTFS_BOOT_FILE::~NTFS_BOOT_FILE(void)
??1NTFS_BOOT_FILE@@UAE@XZ ; has WINAPI (@0)
; public: virtual __thiscall NTFS_CLUSTER_RUN::~NTFS_CLUSTER_RUN(void)
??1NTFS_CLUSTER_RUN@@UAE@XZ ; has WINAPI (@0)
; public: virtual __thiscall NTFS_EXTENT_LIST::~NTFS_EXTENT_LIST(void)
??1NTFS_EXTENT_LIST@@UAE@XZ ; has WINAPI (@0)
; public: virtual __thiscall NTFS_FILE_RECORD_SEGMENT::~NTFS_FILE_RECORD_SEGMENT(void)
??1NTFS_FILE_RECORD_SEGMENT@@UAE@XZ ; has WINAPI (@0)
; public: virtual __thiscall NTFS_FRS_STRUCTURE::~NTFS_FRS_STRUCTURE(void)
??1NTFS_FRS_STRUCTURE@@UAE@XZ ; has WINAPI (@0)
; public: virtual __thiscall NTFS_INDEX_TREE::~NTFS_INDEX_TREE(void)
??1NTFS_INDEX_TREE@@UAE@XZ ; has WINAPI (@0)
; public: virtual __thiscall NTFS_LOG_FILE::~NTFS_LOG_FILE(void)
??1NTFS_LOG_FILE@@UAE@XZ ; has WINAPI (@0)
; public: virtual __thiscall NTFS_MFT_FILE::~NTFS_MFT_FILE(void)
??1NTFS_MFT_FILE@@UAE@XZ ; has WINAPI (@0)
; public: virtual __thiscall NTFS_MFT_INFO::~NTFS_MFT_INFO(void)
??1NTFS_MFT_INFO@@UAE@XZ ; has WINAPI (@0)
; public: virtual __thiscall NTFS_REFLECTED_MASTER_FILE_TABLE::~NTFS_REFLECTED_MASTER_FILE_TABLE(void)
??1NTFS_REFLECTED_MASTER_FILE_TABLE@@UAE@XZ ; has WINAPI (@0)
; public: virtual __thiscall NTFS_SA::~NTFS_SA(void)
??1NTFS_SA@@UAE@XZ ; has WINAPI (@0)
; public: virtual __thiscall NTFS_UPCASE_FILE::~NTFS_UPCASE_FILE(void)
??1NTFS_UPCASE_FILE@@UAE@XZ ; has WINAPI (@0)
; public: virtual __thiscall NTFS_UPCASE_TABLE::~NTFS_UPCASE_TABLE(void)
??1NTFS_UPCASE_TABLE@@UAE@XZ ; has WINAPI (@0)
; public: virtual __thiscall NTFS_VOLUME_FILE::~NTFS_VOLUME_FILE(void)
??1NTFS_VOLUME_FILE@@UAE@XZ ; has WINAPI (@0)
; public: unsigned char __thiscall NTFS_EXTENT_LIST::AddExtent(class BIG_INT,class BIG_INT,class BIG_INT)
?AddExtent@NTFS_EXTENT_LIST@@QAEEVBIG_INT@@00@Z ; has WINAPI (@24)
; public: unsigned char __thiscall NTFS_FILE_RECORD_SEGMENT::AddFileNameAttribute(struct _FILE_NAME *)
?AddFileNameAttribute@NTFS_FILE_RECORD_SEGMENT@@QAEEPAU_FILE_NAME@@@Z ; has WINAPI (@4)
; public: unsigned char __thiscall NTFS_FILE_RECORD_SEGMENT::AddSecurityDescriptor(enum _CANNED_SECURITY_TYPE,class NTFS_BITMAP *)
?AddSecurityDescriptor@NTFS_FILE_RECORD_SEGMENT@@QAEEW4_CANNED_SECURITY_TYPE@@PAVNTFS_BITMAP@@@Z ; has WINAPI (@8)
; public: unsigned char __thiscall NTFS_FILE_RECORD_SEGMENT::AddSecurityDescriptorData(class NTFS_ATTRIBUTE *,void *,struct _SECURITY_ENTRY **,unsigned long,enum _CANNED_SECURITY_TYPE,class NTFS_BITMAP *,unsigned char)
?AddSecurityDescriptorData@NTFS_FILE_RECORD_SEGMENT@@QAEEPAVNTFS_ATTRIBUTE@@PAXPAPAU_SECURITY_ENTRY@@KW4_CANNED_SECURITY_TYPE@@PAVNTFS_BITMAP@@E@Z ; has WINAPI (@28)
; public: unsigned char __thiscall NTFS_MASTER_FILE_TABLE::AllocateFileRecordSegment(class BIG_INT *,unsigned char)
?AllocateFileRecordSegment@NTFS_MASTER_FILE_TABLE@@QAEEPAVBIG_INT@@E@Z ; has WINAPI (@8)
; public: static unsigned char __stdcall NTFS_MFT_INFO::CompareDupInfo(void *,struct _FILE_NAME *)
?CompareDupInfo@NTFS_MFT_INFO@@SGEPAXPAU_FILE_NAME@@@Z ; has WINAPI (@8)
; public: static unsigned char __stdcall NTFS_MFT_INFO::CompareFileName(void *,unsigned long,struct _FILE_NAME *,unsigned short *)
?CompareFileName@NTFS_MFT_INFO@@SGEPAXKPAU_FILE_NAME@@PAG@Z ; has WINAPI (@16)
; private: static void __stdcall NTFS_MFT_INFO::ComputeDupInfoSignature(struct _DUPLICATED_INFORMATION *,unsigned char *const)
?ComputeDupInfoSignature@NTFS_MFT_INFO@@CGXPAU_DUPLICATED_INFORMATION@@QAE@Z ; has WINAPI (@8)
; private: static void __stdcall NTFS_MFT_INFO::ComputeFileNameSignature(unsigned long,struct _FILE_NAME *,unsigned char *const)
?ComputeFileNameSignature@NTFS_MFT_INFO@@CGXKPAU_FILE_NAME@@QAE@Z ; has WINAPI (@12)
; public: unsigned char __thiscall NTFS_INDEX_TREE::CopyIterator(class NTFS_INDEX_TREE *)
?CopyIterator@NTFS_INDEX_TREE@@QAEEPAV1@@Z ; has WINAPI (@4)
; public: unsigned char __thiscall NTFS_FILE_RECORD_SEGMENT::Create(struct _STANDARD_INFORMATION const *,unsigned short)
?Create@NTFS_FILE_RECORD_SEGMENT@@QAEEPBU_STANDARD_INFORMATION@@G@Z ; has WINAPI (@8)
; public: unsigned char __thiscall NTFS_LOG_FILE::CreateDataAttribute(class BIG_INT,unsigned long,class NTFS_BITMAP *)
?CreateDataAttribute@NTFS_LOG_FILE@@QAEEVBIG_INT@@KPAVNTFS_BITMAP@@@Z ; has WINAPI (@16)
; public: unsigned char __thiscall NTFS_SA::CreateElementaryStructures(class NTFS_BITMAP *,unsigned long,unsigned long,unsigned long,unsigned long,class NUMBER_SET const *,unsigned char,unsigned char,unsigned char,class MESSAGE *,struct BIOS_PARAMETER_BLOCK *,class WSTRING const *)
?CreateElementaryStructures@NTFS_SA@@QAEEPAVNTFS_BITMAP@@KKKKPBVNUMBER_SET@@EEEPAVMESSAGE@@PAUBIOS_PARAMETER_BLOCK@@PBVWSTRING@@@Z ; has WINAPI (@48)
; public: unsigned char __thiscall NTFS_MASTER_FILE_TABLE::Extend(unsigned long)
?Extend@NTFS_MASTER_FILE_TABLE@@QAEEK@Z ; has WINAPI (@4)
; public: unsigned char __thiscall NTFS_FILE_RECORD_SEGMENT::Flush(class NTFS_BITMAP *,class NTFS_INDEX_TREE *,unsigned char)
?Flush@NTFS_FILE_RECORD_SEGMENT@@QAEEPAVNTFS_BITMAP@@PAVNTFS_INDEX_TREE@@E@Z ; has WINAPI (@12)
; public: unsigned char __thiscall NTFS_MFT_FILE::Flush(void)
?Flush@NTFS_MFT_FILE@@QAEEXZ ; has WINAPI (@0)
; public: struct _INDEX_ENTRY const *__thiscall NTFS_INDEX_TREE::GetNext(unsigned long *,unsigned char *,unsigned char)
?GetNext@NTFS_INDEX_TREE@@QAEPBU_INDEX_ENTRY@@PAKPAEE@Z ; has WINAPI (@12)
; public: struct _ATTRIBUTE_LIST_ENTRY const *__thiscall NTFS_ATTRIBUTE_LIST::GetNextAttributeListEntry(struct _ATTRIBUTE_LIST_ENTRY const *)const 
?GetNextAttributeListEntry@NTFS_ATTRIBUTE_LIST@@QBEPBU_ATTRIBUTE_LIST_ENTRY@@PBU2@@Z ; has WINAPI (@4)
; public: void *__thiscall NTFS_FRS_STRUCTURE::GetNextAttributeRecord(void const *,class MESSAGE *,unsigned char *)
?GetNextAttributeRecord@NTFS_FRS_STRUCTURE@@QAEPAXPBXPAVMESSAGE@@PAE@Z ; has WINAPI (@12)
; public: static unsigned char __stdcall NTFS_SA::GetRootFrsIndex(class NTFS_MFT_FILE *,class NTFS_FILE_RECORD_SEGMENT *,class NTFS_INDEX_TREE *)
?GetRootFrsIndex@NTFS_SA@@SGEPAVNTFS_MFT_FILE@@PAVNTFS_FILE_RECORD_SEGMENT@@PAVNTFS_INDEX_TREE@@@Z ; has WINAPI (@12)
; public: unsigned char __thiscall NTFS_ATTRIBUTE::Initialize(class LOG_IO_DP_DRIVE *,unsigned long,class NTFS_EXTENT_LIST const *,class BIG_INT,class BIG_INT,unsigned long,class WSTRING const *,unsigned short)
?Initialize@NTFS_ATTRIBUTE@@QAEEPAVLOG_IO_DP_DRIVE@@KPBVNTFS_EXTENT_LIST@@VBIG_INT@@2KPBVWSTRING@@G@Z ; has WINAPI (@40)
; public: unsigned char __thiscall NTFS_ATTRIBUTE::Initialize(class LOG_IO_DP_DRIVE *,unsigned long,void const *,unsigned long,unsigned long,class WSTRING const *,unsigned short)
?Initialize@NTFS_ATTRIBUTE@@QAEEPAVLOG_IO_DP_DRIVE@@KPBXKKPBVWSTRING@@G@Z ; has WINAPI (@28)
; public: unsigned char __thiscall NTFS_ATTRIBUTE_DEFINITION_TABLE::Initialize(class NTFS_MASTER_FILE_TABLE *,unsigned char)
?Initialize@NTFS_ATTRIBUTE_DEFINITION_TABLE@@QAEEPAVNTFS_MASTER_FILE_TABLE@@E@Z ; has WINAPI (@8)
; public: unsigned char __thiscall NTFS_ATTRIBUTE_RECORD::Initialize(class IO_DP_DRIVE *,void *)
?Initialize@NTFS_ATTRIBUTE_RECORD@@QAEEPAVIO_DP_DRIVE@@PAX@Z ; has WINAPI (@8)
; public: unsigned char __thiscall NTFS_BAD_CLUSTER_FILE::Initialize(class NTFS_MASTER_FILE_TABLE *)
?Initialize@NTFS_BAD_CLUSTER_FILE@@QAEEPAVNTFS_MASTER_FILE_TABLE@@@Z ; has WINAPI (@4)
; public: unsigned char __thiscall NTFS_BITMAP::Initialize(class BIG_INT,unsigned char,class LOG_IO_DP_DRIVE *,unsigned long,unsigned char)
?Initialize@NTFS_BITMAP@@QAEEVBIG_INT@@EPAVLOG_IO_DP_DRIVE@@KE@Z ; has WINAPI (@24)
; public: unsigned char __thiscall NTFS_BITMAP_FILE::Initialize(class NTFS_MASTER_FILE_TABLE *)
?Initialize@NTFS_BITMAP_FILE@@QAEEPAVNTFS_MASTER_FILE_TABLE@@@Z ; has WINAPI (@4)
; public: unsigned char __thiscall NTFS_BOOT_FILE::Initialize(class NTFS_MASTER_FILE_TABLE *)
?Initialize@NTFS_BOOT_FILE@@QAEEPAVNTFS_MASTER_FILE_TABLE@@@Z ; has WINAPI (@4)
; public: unsigned char __thiscall NTFS_CLUSTER_RUN::Initialize(class MEM *,class LOG_IO_DP_DRIVE *,class BIG_INT,unsigned long,unsigned long)
?Initialize@NTFS_CLUSTER_RUN@@QAEEPAVMEM@@PAVLOG_IO_DP_DRIVE@@VBIG_INT@@KK@Z ; has WINAPI (@24)
; public: unsigned char __thiscall NTFS_EXTENT_LIST::Initialize(class BIG_INT,class BIG_INT)
?Initialize@NTFS_EXTENT_LIST@@QAEEVBIG_INT@@0@Z ; has WINAPI (@16)
; public: unsigned char __thiscall NTFS_FILE_RECORD_SEGMENT::Initialize(class NTFS_FRS_STRUCTURE *,class NTFS_MASTER_FILE_TABLE *)
?Initialize@NTFS_FILE_RECORD_SEGMENT@@QAEEPAVNTFS_FRS_STRUCTURE@@PAVNTFS_MASTER_FILE_TABLE@@@Z ; has WINAPI (@8)
; public: unsigned char __thiscall NTFS_FILE_RECORD_SEGMENT::Initialize(class BIG_INT,unsigned long,class NTFS_MASTER_FILE_TABLE *)
?Initialize@NTFS_FILE_RECORD_SEGMENT@@QAEEVBIG_INT@@KPAVNTFS_MASTER_FILE_TABLE@@@Z ; has WINAPI (@16)
; public: unsigned char __thiscall NTFS_FILE_RECORD_SEGMENT::Initialize(class BIG_INT,class NTFS_MASTER_FILE_TABLE *)
?Initialize@NTFS_FILE_RECORD_SEGMENT@@QAEEVBIG_INT@@PAVNTFS_MASTER_FILE_TABLE@@@Z ; has WINAPI (@12)
; public: unsigned char __thiscall NTFS_FILE_RECORD_SEGMENT::Initialize(class BIG_INT,class NTFS_MFT_FILE *)
?Initialize@NTFS_FILE_RECORD_SEGMENT@@QAEEVBIG_INT@@PAVNTFS_MFT_FILE@@@Z ; has WINAPI (@12)
; public: unsigned char __thiscall NTFS_FILE_RECORD_SEGMENT::Initialize(void)
?Initialize@NTFS_FILE_RECORD_SEGMENT@@QAEEXZ ; has WINAPI (@0)
; public: unsigned char __thiscall NTFS_FRS_STRUCTURE::Initialize(struct _FILE_RECORD_SEGMENT_HEADER *,class NTFS_ATTRIBUTE *,class BIG_INT,unsigned long,unsigned long,class BIG_INT,unsigned long,class NTFS_UPCASE_TABLE *)
?Initialize@NTFS_FRS_STRUCTURE@@QAEEPAU_FILE_RECORD_SEGMENT_HEADER@@PAVNTFS_ATTRIBUTE@@VBIG_INT@@KK2KPAVNTFS_UPCASE_TABLE@@@Z ; has WINAPI (@40)
; public: unsigned char __thiscall NTFS_FRS_STRUCTURE::Initialize(class MEM *,class LOG_IO_DP_DRIVE *,class BIG_INT,unsigned long,class BIG_INT,unsigned long,class NTFS_UPCASE_TABLE *,unsigned long)
?Initialize@NTFS_FRS_STRUCTURE@@QAEEPAVMEM@@PAVLOG_IO_DP_DRIVE@@VBIG_INT@@K2KPAVNTFS_UPCASE_TABLE@@K@Z ; has WINAPI (@40)
; public: unsigned char __thiscall NTFS_FRS_STRUCTURE::Initialize(class MEM *,class NTFS_ATTRIBUTE *,class BIG_INT,unsigned long,class BIG_INT,unsigned long,class NTFS_UPCASE_TABLE *)
?Initialize@NTFS_FRS_STRUCTURE@@QAEEPAVMEM@@PAVNTFS_ATTRIBUTE@@VBIG_INT@@K2KPAVNTFS_UPCASE_TABLE@@@Z ; has WINAPI (@36)
; public: unsigned char __thiscall NTFS_FRS_STRUCTURE::Initialize(class MEM *,class NTFS_ATTRIBUTE *,class BIG_INT,unsigned long,unsigned long,class BIG_INT,unsigned long,class NTFS_UPCASE_TABLE *)
?Initialize@NTFS_FRS_STRUCTURE@@QAEEPAVMEM@@PAVNTFS_ATTRIBUTE@@VBIG_INT@@KK2KPAVNTFS_UPCASE_TABLE@@@Z ; has WINAPI (@40)
; public: unsigned char __thiscall NTFS_INDEX_TREE::Initialize(unsigned long,class LOG_IO_DP_DRIVE *,unsigned long,class NTFS_BITMAP *,class NTFS_UPCASE_TABLE *,unsigned long,unsigned long,unsigned long,class WSTRING const *)
?Initialize@NTFS_INDEX_TREE@@QAEEKPAVLOG_IO_DP_DRIVE@@KPAVNTFS_BITMAP@@PAVNTFS_UPCASE_TABLE@@KKKPBVWSTRING@@@Z ; has WINAPI (@36)
; public: unsigned char __thiscall NTFS_INDEX_TREE::Initialize(class LOG_IO_DP_DRIVE *,unsigned long,class NTFS_BITMAP *,class NTFS_UPCASE_TABLE *,unsigned long,class NTFS_FILE_RECORD_SEGMENT *,class WSTRING const *)
?Initialize@NTFS_INDEX_TREE@@QAEEPAVLOG_IO_DP_DRIVE@@KPAVNTFS_BITMAP@@PAVNTFS_UPCASE_TABLE@@KPAVNTFS_FILE_RECORD_SEGMENT@@PBVWSTRING@@@Z ; has WINAPI (@28)
; public: unsigned char __thiscall NTFS_LOG_FILE::Initialize(class NTFS_MASTER_FILE_TABLE *)
?Initialize@NTFS_LOG_FILE@@QAEEPAVNTFS_MASTER_FILE_TABLE@@@Z ; has WINAPI (@4)
; public: unsigned char __thiscall NTFS_MFT_FILE::Initialize(class LOG_IO_DP_DRIVE *,class BIG_INT,unsigned long,unsigned long,class BIG_INT,class NTFS_BITMAP *,class NTFS_UPCASE_TABLE *,class NTFS_ATTRIBUTE *)
?Initialize@NTFS_MFT_FILE@@QAEEPAVLOG_IO_DP_DRIVE@@VBIG_INT@@KK1PAVNTFS_BITMAP@@PAVNTFS_UPCASE_TABLE@@PAVNTFS_ATTRIBUTE@@@Z ; has WINAPI (@40)
; public: unsigned char __thiscall NTFS_MFT_INFO::Initialize(class BIG_INT,class NTFS_UPCASE_TABLE *,unsigned char,unsigned char,unsigned __int64)
?Initialize@NTFS_MFT_INFO@@QAEEVBIG_INT@@PAVNTFS_UPCASE_TABLE@@EE_K@Z ; has WINAPI (@28)
; public: unsigned char __thiscall NTFS_MFT_INFO::Initialize(void)
?Initialize@NTFS_MFT_INFO@@QAEEXZ ; has WINAPI (@0)
; public: unsigned char __thiscall NTFS_REFLECTED_MASTER_FILE_TABLE::Initialize(class NTFS_MASTER_FILE_TABLE *)
?Initialize@NTFS_REFLECTED_MASTER_FILE_TABLE@@QAEEPAVNTFS_MASTER_FILE_TABLE@@@Z ; has WINAPI (@4)
; public: unsigned char __thiscall NTFS_SA::Initialize(class LOG_IO_DP_DRIVE *,class MESSAGE *,class BIG_INT,class BIG_INT)
?Initialize@NTFS_SA@@QAEEPAVLOG_IO_DP_DRIVE@@PAVMESSAGE@@VBIG_INT@@2@Z ; has WINAPI (@24)
; public: unsigned char __thiscall NTFS_UPCASE_FILE::Initialize(class NTFS_MASTER_FILE_TABLE *)
?Initialize@NTFS_UPCASE_FILE@@QAEEPAVNTFS_MASTER_FILE_TABLE@@@Z ; has WINAPI (@4)
; public: unsigned char __thiscall NTFS_UPCASE_TABLE::Initialize(class NTFS_ATTRIBUTE *,unsigned __int64 *)
?Initialize@NTFS_UPCASE_TABLE@@QAEEPAVNTFS_ATTRIBUTE@@PA_K@Z ; has WINAPI (@8)
; public: unsigned char __thiscall NTFS_VOLUME_FILE::Initialize(class LOG_IO_DP_DRIVE *,class NTFS_MASTER_FILE_TABLE *,class NTFS_FILE_RECORD_SEGMENT *,class NTFS_INDEX_TREE *,struct _VOLUME_INFORMATION *,class WSTRING *,enum FIX_LEVEL)
?Initialize@NTFS_VOLUME_FILE@@QAEEPAVLOG_IO_DP_DRIVE@@PAVNTFS_MASTER_FILE_TABLE@@PAVNTFS_FILE_RECORD_SEGMENT@@PAVNTFS_INDEX_TREE@@PAU_VOLUME_INFORMATION@@PAVWSTRING@@W4FIX_LEVEL@@@Z ; has WINAPI (@28)
; public: unsigned char __thiscall NTFS_INDEX_TREE::InsertEntry(unsigned long,void *,struct _MFT_SEGMENT_REFERENCE,unsigned char)
?InsertEntry@NTFS_INDEX_TREE@@QAEEKPAXU_MFT_SEGMENT_REFERENCE@@E@Z ; has WINAPI (@20)
; public: virtual unsigned char __thiscall NTFS_ATTRIBUTE::InsertIntoFile(class NTFS_FILE_RECORD_SEGMENT *,class NTFS_BITMAP *)
?InsertIntoFile@NTFS_ATTRIBUTE@@UAEEPAVNTFS_FILE_RECORD_SEGMENT@@PAVNTFS_BITMAP@@@Z ; has WINAPI (@8)
; public: unsigned char __thiscall NTFS_BITMAP::IsAllocated(class BIG_INT,class BIG_INT)const 
?IsAllocated@NTFS_BITMAP@@QBEEVBIG_INT@@0@Z ; has WINAPI (@16)
; public: unsigned char __thiscall NTFS_FILE_RECORD_SEGMENT::IsAttributePresent(unsigned long,class WSTRING const *,unsigned char)
?IsAttributePresent@NTFS_FILE_RECORD_SEGMENT@@QAEEKPBVWSTRING@@E@Z ; has WINAPI (@12)
; public: static unsigned char __stdcall NTFS_SA::IsDosName(struct _FILE_NAME const *)
?IsDosName@NTFS_SA@@SGEPBU_FILE_NAME@@@Z ; has WINAPI (@4)
; public: unsigned char __thiscall NTFS_BITMAP::IsFree(class BIG_INT,class BIG_INT)const 
?IsFree@NTFS_BITMAP@@QBEEVBIG_INT@@0@Z ; has WINAPI (@16)
; public: static unsigned char __stdcall NTFS_SA::IsNtfsName(struct _FILE_NAME const *)
?IsNtfsName@NTFS_SA@@SGEPBU_FILE_NAME@@@Z ; has WINAPI (@4)
; public: virtual unsigned char __thiscall NTFS_ATTRIBUTE::MakeNonresident(class NTFS_BITMAP *)
?MakeNonresident@NTFS_ATTRIBUTE@@UAEEPAVNTFS_BITMAP@@@Z ; has WINAPI (@4)
; long __stdcall NtfsUpcaseCompare(unsigned short const *,unsigned long,unsigned short const *,unsigned long,class NTFS_UPCASE_TABLE const *,unsigned char)
?NtfsUpcaseCompare@@YGJPBGK0KPBVNTFS_UPCASE_TABLE@@E@Z ; has WINAPI (@24)
; public: unsigned char __thiscall NTFS_ATTRIBUTE::Prefetch(class BIG_INT,unsigned long)
?Prefetch@NTFS_ATTRIBUTE@@QAEEVBIG_INT@@K@Z ; has WINAPI (@12)
; public: unsigned char __thiscall NTFS_FRS_STRUCTURE::Prefetch(class BIG_INT,class BIG_INT)
?Prefetch@NTFS_FRS_STRUCTURE@@QAEEVBIG_INT@@0@Z ; has WINAPI (@16)
; public: unsigned char __thiscall NTFS_FILE_RECORD_SEGMENT::QueryAttribute(class NTFS_ATTRIBUTE *,unsigned char *,unsigned long,class WSTRING const *)
?QueryAttribute@NTFS_FILE_RECORD_SEGMENT@@QAEEPAVNTFS_ATTRIBUTE@@PAEKPBVWSTRING@@@Z ; has WINAPI (@16)
; public: unsigned char __thiscall NTFS_FILE_RECORD_SEGMENT::QueryAttributeByOrdinal(class NTFS_ATTRIBUTE *,unsigned char *,unsigned long,unsigned long)
?QueryAttributeByOrdinal@NTFS_FILE_RECORD_SEGMENT@@QAEEPAVNTFS_ATTRIBUTE@@PAEKK@Z ; has WINAPI (@16)
; public: unsigned char __thiscall NTFS_FRS_STRUCTURE::QueryAttributeList(class NTFS_ATTRIBUTE_LIST *)
?QueryAttributeList@NTFS_FRS_STRUCTURE@@QAEEPAVNTFS_ATTRIBUTE_LIST@@@Z ; has WINAPI (@4)
; public: unsigned char __thiscall NTFS_FILE_RECORD_SEGMENT::QueryAttributeListAttribute(class NTFS_ATTRIBUTE *,unsigned char *)
?QueryAttributeListAttribute@NTFS_FILE_RECORD_SEGMENT@@QAEEPAVNTFS_ATTRIBUTE@@PAE@Z ; has WINAPI (@8)
; public: unsigned char __thiscall NTFS_SA::QueryClusterFactor(void)const 
?QueryClusterFactor@NTFS_SA@@QBEEXZ ; has WINAPI (@0)
; public: static unsigned long __stdcall NTFS_SA::QueryDefaultClustersPerIndexBuffer(class DP_DRIVE const *,unsigned long)
?QueryDefaultClustersPerIndexBuffer@NTFS_SA@@SGKPBVDP_DRIVE@@K@Z ; has WINAPI (@8)
; public: unsigned char __thiscall NTFS_FILE_RECORD_SEGMENT::QueryDuplicatedInformation(struct _DUPLICATED_INFORMATION *)
?QueryDuplicatedInformation@NTFS_FILE_RECORD_SEGMENT@@QAEEPAU_DUPLICATED_INFORMATION@@@Z ; has WINAPI (@4)
; public: unsigned char __thiscall NTFS_INDEX_TREE::QueryEntry(unsigned long,void *,unsigned long,struct _INDEX_ENTRY **,class NTFS_INDEX_BUFFER **,unsigned char *)
?QueryEntry@NTFS_INDEX_TREE@@QAEEKPAXKPAPAU_INDEX_ENTRY@@PAPAVNTFS_INDEX_BUFFER@@PAE@Z ; has WINAPI (@24)
; public: unsigned char __thiscall NTFS_EXTENT_LIST::QueryExtent(unsigned long,class BIG_INT *,class BIG_INT *,class BIG_INT *)const 
?QueryExtent@NTFS_EXTENT_LIST@@QBEEKPAVBIG_INT@@00@Z ; has WINAPI (@16)
; public: unsigned char __thiscall NTFS_ATTRIBUTE_RECORD::QueryExtentList(class NTFS_EXTENT_LIST *)const 
?QueryExtentList@NTFS_ATTRIBUTE_RECORD@@QBEEPAVNTFS_EXTENT_LIST@@@Z ; has WINAPI (@4)
; public: unsigned char __thiscall NTFS_INDEX_TREE::QueryFileReference(unsigned long,void *,unsigned long,struct _MFT_SEGMENT_REFERENCE *,unsigned char *)
?QueryFileReference@NTFS_INDEX_TREE@@QAEEKPAXKPAU_MFT_SEGMENT_REFERENCE@@PAE@Z ; has WINAPI (@20)
; public: unsigned char __thiscall NTFS_FILE_RECORD_SEGMENT::QueryFileSizes(class BIG_INT *,class BIG_INT *,unsigned char *)
?QueryFileSizes@NTFS_FILE_RECORD_SEGMENT@@QAEEPAVBIG_INT@@0PAE@Z ; has WINAPI (@12)
; public: static unsigned char __stdcall NTFS_MFT_INFO::QueryFlags(void *,unsigned short)
?QueryFlags@NTFS_MFT_INFO@@SGEPAXG@Z ; has WINAPI (@8)
; public: unsigned char __thiscall NTFS_SA::QueryFrsFromPath(class WSTRING const *,class NTFS_MASTER_FILE_TABLE *,class NTFS_BITMAP *,class NTFS_FILE_RECORD_SEGMENT *,unsigned char *,unsigned char *)
?QueryFrsFromPath@NTFS_SA@@QAEEPBVWSTRING@@PAVNTFS_MASTER_FILE_TABLE@@PAVNTFS_BITMAP@@PAVNTFS_FILE_RECORD_SEGMENT@@PAE4@Z ; has WINAPI (@24)
; public: unsigned char __thiscall NTFS_EXTENT_LIST::QueryLcnFromVcn(class BIG_INT,class BIG_INT *,class BIG_INT *)const 
?QueryLcnFromVcn@NTFS_EXTENT_LIST@@QBEEVBIG_INT@@PAV2@1@Z ; has WINAPI (@16)
; public: unsigned char __thiscall NTFS_ATTRIBUTE_RECORD::QueryName(class WSTRING *)const 
?QueryName@NTFS_ATTRIBUTE_RECORD@@QBEEPAVWSTRING@@@Z ; has WINAPI (@4)
; public: unsigned char __thiscall NTFS_ATTRIBUTE_LIST::QueryNextEntry(struct _ATTR_LIST_CURR_ENTRY *,unsigned long *,class BIG_INT *,struct _MFT_SEGMENT_REFERENCE *,unsigned short *,class WSTRING *)const 
?QueryNextEntry@NTFS_ATTRIBUTE_LIST@@QBEEPAU_ATTR_LIST_CURR_ENTRY@@PAKPAVBIG_INT@@PAU_MFT_SEGMENT_REFERENCE@@PAGPAVWSTRING@@@Z ; has WINAPI (@24)
; public: unsigned long __thiscall NTFS_EXTENT_LIST::QueryNumberOfExtents(void)const 
?QueryNumberOfExtents@NTFS_EXTENT_LIST@@QBEKXZ ; has WINAPI (@0)
; public: static unsigned long __stdcall NTFS_SA::QuerySectorsInElementaryStructures(class DP_DRIVE *,unsigned long,unsigned long,unsigned long,unsigned long)
?QuerySectorsInElementaryStructures@NTFS_SA@@SGKPAVDP_DRIVE@@KKKK@Z ; has WINAPI (@20)
; public: static struct _MFT_SEGMENT_REFERENCE __stdcall NTFS_MFT_INFO::QuerySegmentReference(void *)
?QuerySegmentReference@NTFS_MFT_INFO@@SG?AU_MFT_SEGMENT_REFERENCE@@PAX@Z ; has WINAPI (@4)
; public: unsigned short __thiscall NTFS_SA::QueryVolumeFlagsAndLabel(unsigned char *,unsigned char *,unsigned char *,class WSTRING *)
?QueryVolumeFlagsAndLabel@NTFS_SA@@QAEGPAE00PAVWSTRING@@@Z ; has WINAPI (@16)
; public: unsigned char __thiscall NTFS_ATTRIBUTE::Read(void *,class BIG_INT,unsigned long,unsigned long *)
?Read@NTFS_ATTRIBUTE@@QAEEPAXVBIG_INT@@KPAK@Z ; has WINAPI (@20)
; public: unsigned char __thiscall NTFS_FRS_STRUCTURE::Read(class BIG_INT)
?Read@NTFS_FRS_STRUCTURE@@QAEEVBIG_INT@@@Z ; has WINAPI (@8)
; public: virtual unsigned char __thiscall NTFS_FRS_STRUCTURE::Read(void)
?Read@NTFS_FRS_STRUCTURE@@UAEEXZ ; has WINAPI (@0)
; public: virtual unsigned char __thiscall NTFS_MFT_FILE::Read(void)
?Read@NTFS_MFT_FILE@@UAEEXZ ; has WINAPI (@0)
; public: unsigned char __thiscall NTFS_SA::Read(class MESSAGE *)
?Read@NTFS_SA@@QAEEPAVMESSAGE@@@Z ; has WINAPI (@4)
; public: virtual unsigned char __thiscall NTFS_SA::Read(void)
?Read@NTFS_SA@@UAEEXZ ; has WINAPI (@0)
; public: unsigned char __thiscall NTFS_FRS_STRUCTURE::ReadAgain(class BIG_INT)
?ReadAgain@NTFS_FRS_STRUCTURE@@QAEEVBIG_INT@@@Z ; has WINAPI (@8)
; public: unsigned char __thiscall NTFS_FRS_STRUCTURE::ReadAt(class BIG_INT)
?ReadAt@NTFS_FRS_STRUCTURE@@QAEEVBIG_INT@@@Z ; has WINAPI (@8)
; public: unsigned char __thiscall NTFS_ATTRIBUTE_LIST::ReadList(void)
?ReadList@NTFS_ATTRIBUTE_LIST@@QAEEXZ ; has WINAPI (@0)
; public: unsigned char __thiscall NTFS_FRS_STRUCTURE::ReadNext(class BIG_INT)
?ReadNext@NTFS_FRS_STRUCTURE@@QAEEVBIG_INT@@@Z ; has WINAPI (@8)
; public: void __thiscall NTFS_CLUSTER_RUN::Relocate(class BIG_INT)
?Relocate@NTFS_CLUSTER_RUN@@QAEXVBIG_INT@@@Z ; has WINAPI (@8)
; public: unsigned char __thiscall NTFS_INDEX_TREE::ResetIterator(unsigned char)
?ResetIterator@NTFS_INDEX_TREE@@QAEEE@Z ; has WINAPI (@4)
; public: virtual unsigned char __thiscall NTFS_ATTRIBUTE::Resize(class BIG_INT,class NTFS_BITMAP *)
?Resize@NTFS_ATTRIBUTE@@UAEEVBIG_INT@@PAVNTFS_BITMAP@@@Z ; has WINAPI (@12)
; public: unsigned char __thiscall NTFS_FRS_STRUCTURE::SafeQueryAttribute(unsigned long,class NTFS_ATTRIBUTE *,class NTFS_ATTRIBUTE *,class WSTRING *)
?SafeQueryAttribute@NTFS_FRS_STRUCTURE@@QAEEKPAVNTFS_ATTRIBUTE@@0PAVWSTRING@@@Z ; has WINAPI (@16)
; public: unsigned char __thiscall NTFS_INDEX_TREE::Save(class NTFS_FILE_RECORD_SEGMENT *)
?Save@NTFS_INDEX_TREE@@QAEEPAVNTFS_FILE_RECORD_SEGMENT@@@Z ; has WINAPI (@4)
SetOriginalVolumeName@4
; public: virtual unsigned char __thiscall NTFS_ATTRIBUTE::SetSparse(class BIG_INT,class NTFS_BITMAP *,unsigned char)
?SetSparse@NTFS_ATTRIBUTE@@UAEEVBIG_INT@@PAVNTFS_BITMAP@@E@Z ; has WINAPI (@16)
; public: unsigned char __thiscall NTFS_SA::SetVolumeFlag(unsigned short,unsigned char *)
?SetVolumeFlag@NTFS_SA@@QAEEGPAE@Z ; has WINAPI (@8)
SetWriteViewCacheVolumeName@4
; public: unsigned char __thiscall NTFS_SA::TakeCensus(class NTFS_MASTER_FILE_TABLE *,unsigned long,struct NTFS_CENSUS_INFO *)
?TakeCensus@NTFS_SA@@QAEEPAVNTFS_MASTER_FILE_TABLE@@KPAUNTFS_CENSUS_INFO@@@Z ; has WINAPI (@12)
; public: virtual unsigned char __thiscall NTFS_ATTRIBUTE::Write(void const *,class BIG_INT,unsigned long,unsigned long *,class NTFS_BITMAP *)
?Write@NTFS_ATTRIBUTE@@UAEEPBXVBIG_INT@@KPAKPAVNTFS_BITMAP@@@Z ; has WINAPI (@24)
; public: unsigned char __thiscall NTFS_BITMAP::Write(class NTFS_ATTRIBUTE *,class NTFS_BITMAP *)
?Write@NTFS_BITMAP@@QAEEPAVNTFS_ATTRIBUTE@@PAV1@@Z ; has WINAPI (@8)
; public: virtual unsigned char __thiscall NTFS_FILE_RECORD_SEGMENT::Write(void)
?Write@NTFS_FILE_RECORD_SEGMENT@@UAEEXZ ; has WINAPI (@0)
; public: unsigned char __thiscall NTFS_FRS_STRUCTURE::Write(void)
?Write@NTFS_FRS_STRUCTURE@@QAEEXZ ; has WINAPI (@0)
; public: unsigned char __thiscall NTFS_BITMAP::WriteModified(class NTFS_ATTRIBUTE *,class NTFS_BITMAP *)
?WriteModified@NTFS_BITMAP@@QAEEPAVNTFS_ATTRIBUTE@@PAV1@@Z ; has WINAPI (@8)
; public: unsigned char __thiscall NTFS_SA::WriteRemainingBootCode(void)
?WriteRemainingBootCode@NTFS_SA@@QAEEXZ ; has WINAPI (@0)
Chkdsk@44
ChkdskEx@20
CreateFormatCorruptionRecordContext@4
DeleteFormatCorruptionRecordContext@4
Extend@12
Format@28
FormatCorruptionRecordA@36
FormatCorruptionRecordW@36
FormatEx@16
GetFilesystemInformation@12
Recover@8
