;
; Definition file of UREG.dll
; Automatic generated by gendef
; written by Kai Tietz 2008
;
LIBRARY "UREG.dll"
EXPORTS
; public: __thiscall REGISTRY::REGISTRY(void)
??0REGISTRY@@QAE@XZ ; has WINAPI (@0)
; public: __thiscall REGISTRY_KEY_INFO::REGISTRY_KEY_INFO(void)
??0REGISTRY_KEY_INFO@@QAE@XZ ; has WINAPI (@0)
; public: __thiscall REGISTRY_VALUE_ENTRY::REGISTRY_VALUE_ENTRY(void)
??0REGISTRY_VALUE_ENTRY@@QAE@XZ ; has WINAPI (@0)
; public: virtual __thiscall REGISTRY::~REGISTRY(void)
??1REGISTRY@@UAE@XZ ; has WINAPI (@0)
; public: unsigned char __thiscall REGISTRY::AddValueEntry(enum _PREDEFINED_KEY,class REGISTRY_KEY_INFO *,class REGISTRY_VALUE_ENTRY const *,unsigned char,unsigned long *)
?AddValueEntry@REGISTRY@@QAEEW4_PREDEFINED_KEY@@PAVREGISTRY_KEY_INFO@@PBVREGISTRY_VALUE_ENTRY@@EPAK@Z ; has WINAPI (@20)
; public: unsigned char __thiscall REGISTRY::CreateKey(enum _PREDEFINED_KEY,class REGISTRY_KEY_INFO *,class REGISTRY_KEY_INFO *,unsigned long *,unsigned char)
?CreateKey@REGISTRY@@QAEEW4_PREDEFINED_KEY@@PAVREGISTRY_KEY_INFO@@1PAKE@Z ; has WINAPI (@20)
; public: unsigned char __thiscall REGISTRY::DeleteKey(enum _PREDEFINED_KEY,class REGISTRY_KEY_INFO *,class WSTRING const *,unsigned long *)
?DeleteKey@REGISTRY@@QAEEW4_PREDEFINED_KEY@@PAVREGISTRY_KEY_INFO@@PBVWSTRING@@PAK@Z ; has WINAPI (@16)
; public: unsigned char __thiscall REGISTRY::DeleteValueEntry(enum _PREDEFINED_KEY,class REGISTRY_KEY_INFO *,class WSTRING const *,unsigned long *)
?DeleteValueEntry@REGISTRY@@QAEEW4_PREDEFINED_KEY@@PAVREGISTRY_KEY_INFO@@PBVWSTRING@@PAK@Z ; has WINAPI (@16)
; public: unsigned char __thiscall REGISTRY::DoesKeyExist(enum _PREDEFINED_KEY,class WSTRING const *,class WSTRING const *,unsigned long *)
?DoesKeyExist@REGISTRY@@QAEEW4_PREDEFINED_KEY@@PBVWSTRING@@1PAK@Z ; has WINAPI (@16)
; public: unsigned char __thiscall REGISTRY::DoesValueExist(enum _PREDEFINED_KEY,class WSTRING const *,class WSTRING const *,class WSTRING const *,unsigned long *)
?DoesValueExist@REGISTRY@@QAEEW4_PREDEFINED_KEY@@PBVWSTRING@@11PAK@Z ; has WINAPI (@20)
; public: unsigned char __thiscall REGISTRY::EnableRootNotification(enum _PREDEFINED_KEY,void *,unsigned long,unsigned char)
?EnableRootNotification@REGISTRY@@QAEEW4_PREDEFINED_KEY@@PAXKE@Z ; has WINAPI (@16)
; public: unsigned char __thiscall REGISTRY::Initialize(class WSTRING const *,unsigned long *)
?Initialize@REGISTRY@@QAEEPBVWSTRING@@PAK@Z ; has WINAPI (@8)
; public: unsigned char __thiscall REGISTRY_KEY_INFO::Initialize(class WSTRING const *,class WSTRING const *,unsigned long,class WSTRING const *,struct _SECURITY_ATTRIBUTES *)
?Initialize@REGISTRY_KEY_INFO@@QAEEPBVWSTRING@@0K0PAU_SECURITY_ATTRIBUTES@@@Z ; has WINAPI (@20)
; public: unsigned char __thiscall REGISTRY_VALUE_ENTRY::Initialize(class WSTRING const *,unsigned long,enum _REG_TYPE,unsigned char const *,unsigned long)
?Initialize@REGISTRY_VALUE_ENTRY@@QAEEPBVWSTRING@@KW4_REG_TYPE@@PBEK@Z ; has WINAPI (@20)
; public: unsigned char __thiscall REGISTRY::IsAccessAllowed(enum _PREDEFINED_KEY,class REGISTRY_KEY_INFO *,unsigned long,unsigned long *)
?IsAccessAllowed@REGISTRY@@QAEEW4_PREDEFINED_KEY@@PAVREGISTRY_KEY_INFO@@KPAK@Z ; has WINAPI (@16)
; public: unsigned char __thiscall REGISTRY::LoadHive(enum _PREDEFINED_KEY,class REGISTRY_KEY_INFO *,class WSTRING const *,unsigned long *)
?LoadHive@REGISTRY@@QAEEW4_PREDEFINED_KEY@@PAVREGISTRY_KEY_INFO@@PBVWSTRING@@PAK@Z ; has WINAPI (@16)
; public: unsigned char __thiscall REGISTRY::QueryKeyInfo(enum _PREDEFINED_KEY,class WSTRING const *,class WSTRING const *,class REGISTRY_KEY_INFO *,unsigned long *)
?QueryKeyInfo@REGISTRY@@QAEEW4_PREDEFINED_KEY@@PBVWSTRING@@1PAVREGISTRY_KEY_INFO@@PAK@Z ; has WINAPI (@20)
; public: unsigned char __thiscall REGISTRY::QueryKeySecurity(enum _PREDEFINED_KEY,class REGISTRY_KEY_INFO const *,unsigned long,void **,unsigned long *)
?QueryKeySecurity@REGISTRY@@QAEEW4_PREDEFINED_KEY@@PBVREGISTRY_KEY_INFO@@KPAPAXPAK@Z ; has WINAPI (@20)
; public: unsigned char __thiscall REGISTRY::QuerySubKeysInfo(enum _PREDEFINED_KEY,class WSTRING const *,class WSTRING const *,class ARRAY *,unsigned long *)
?QuerySubKeysInfo@REGISTRY@@QAEEW4_PREDEFINED_KEY@@PBVWSTRING@@1PAVARRAY@@PAK@Z ; has WINAPI (@20)
; public: unsigned char __thiscall REGISTRY::QueryValues(enum _PREDEFINED_KEY,class WSTRING const *,class WSTRING const *,class ARRAY *,unsigned long *)
?QueryValues@REGISTRY@@QAEEW4_PREDEFINED_KEY@@PBVWSTRING@@1PAVARRAY@@PAK@Z ; has WINAPI (@20)
; public: unsigned char __thiscall REGISTRY::RestoreKeyFromFile(enum _PREDEFINED_KEY,class REGISTRY_KEY_INFO *,class WSTRING const *,unsigned char,unsigned long *)
?RestoreKeyFromFile@REGISTRY@@QAEEW4_PREDEFINED_KEY@@PAVREGISTRY_KEY_INFO@@PBVWSTRING@@EPAK@Z ; has WINAPI (@20)
; public: unsigned char __thiscall REGISTRY::SaveKeyToFile(enum _PREDEFINED_KEY,class REGISTRY_KEY_INFO *,class WSTRING const *,unsigned long *)
?SaveKeyToFile@REGISTRY@@QAEEW4_PREDEFINED_KEY@@PAVREGISTRY_KEY_INFO@@PBVWSTRING@@PAK@Z ; has WINAPI (@16)
; public: unsigned char __thiscall REGISTRY::SetKeySecurity(enum _PREDEFINED_KEY,class REGISTRY_KEY_INFO *,unsigned long,void *,unsigned long *,unsigned char)
?SetKeySecurity@REGISTRY@@QAEEW4_PREDEFINED_KEY@@PAVREGISTRY_KEY_INFO@@KPAXPAKE@Z ; has WINAPI (@24)
; public: unsigned char __thiscall REGISTRY::UnLoadHive(enum _PREDEFINED_KEY,class REGISTRY_KEY_INFO *,unsigned long *)
?UnLoadHive@REGISTRY@@QAEEW4_PREDEFINED_KEY@@PAVREGISTRY_KEY_INFO@@PAK@Z ; has WINAPI (@12)
; public: unsigned char __thiscall REGISTRY::UpdateKeyInfo(enum _PREDEFINED_KEY,class REGISTRY_KEY_INFO *,unsigned long *)
?UpdateKeyInfo@REGISTRY@@QAEEW4_PREDEFINED_KEY@@PAVREGISTRY_KEY_INFO@@PAK@Z ; has WINAPI (@12)
