;
; Definition file of UXLIB.DLL
; Automatic generated by gendef
; written by Kai Tietz 2008
;
LIBRARY "UXLIB.DLL"
EXPORTS
; public: __thiscall ATL::<struct _BLOCKED_REASON *,class ATL::<struct _BLOCKED_REASON *>>::<struct _BLOCKED_REASON *,class ATL::<struct _BLOCKED_REASON *>>(class ATL::<struct _BLOCKED_REASON *,class ATL::<struct _BLOCKED_REASON *>> const &)
??0?$CSimpleArray@PAU_BLOCKED_REASON@@V?$CSimpleArrayEqualHelper@PAU_BLOCKED_REASON@@@ATL@@@ATL@@QAE@ABV01@@Z ; has WINAPI (@4)
; public: __thiscall ATL::<struct _BLOCKED_REASON *,class ATL::<struct _BLOCKED_REASON *>>::<struct _BLOCKED_REASON *,class ATL::<struct _BLOCKED_REASON *>>(void)
??0?$CSimpleArray@PAU_BLOCKED_REASON@@V?$CSimpleArrayEqualHelper@PAU_BLOCKED_REASON@@@ATL@@@ATL@@QAE@XZ ; has WINAPI (@0)
; public: __thiscall ATL::<class CLocale *,class ATL::<class CLocale *>>::<class CLocale *,class ATL::<class CLocale *>>(class ATL::<class CLocale *,class ATL::<class CLocale *>> const &)
??0?$CSimpleArray@PAVCLocale@@V?$CSimpleArrayEqualHelper@PAVCLocale@@@ATL@@@ATL@@QAE@ABV01@@Z ; has WINAPI (@4)
; public: __thiscall ATL::<class CLocale *,class ATL::<class CLocale *>>::<class CLocale *,class ATL::<class CLocale *>>(void)
??0?$CSimpleArray@PAVCLocale@@V?$CSimpleArrayEqualHelper@PAVCLocale@@@ATL@@@ATL@@QAE@XZ ; has WINAPI (@0)
; public: __thiscall ATL::<class CDriverItem,class ATL::<class CDriverItem>>::<class CDriverItem,class ATL::<class CDriverItem>>(class ATL::<class CDriverItem,class ATL::<class CDriverItem>> const &)
??0?$CSimpleArray@VCDriverItem@@V?$CSimpleArrayEqualHelper@VCDriverItem@@@ATL@@@ATL@@QAE@ABV01@@Z ; has WINAPI (@4)
; public: __thiscall ATL::<class CDriverItem,class ATL::<class CDriverItem>>::<class CDriverItem,class ATL::<class CDriverItem>>(void)
??0?$CSimpleArray@VCDriverItem@@V?$CSimpleArrayEqualHelper@VCDriverItem@@@ATL@@@ATL@@QAE@XZ ; has WINAPI (@0)
; public: __thiscall ATL::<class CLanguageItem,class ATL::<class CLanguageItem>>::<class CLanguageItem,class ATL::<class CLanguageItem>>(class ATL::<class CLanguageItem,class ATL::<class CLanguageItem>> const &)
??0?$CSimpleArray@VCLanguageItem@@V?$CSimpleArrayEqualHelper@VCLanguageItem@@@ATL@@@ATL@@QAE@ABV01@@Z ; has WINAPI (@4)
; public: __thiscall ATL::<class CLanguageItem,class ATL::<class CLanguageItem>>::<class CLanguageItem,class ATL::<class CLanguageItem>>(void)
??0?$CSimpleArray@VCLanguageItem@@V?$CSimpleArrayEqualHelper@VCLanguageItem@@@ATL@@@ATL@@QAE@XZ ; has WINAPI (@0)
; public: __thiscall ATL::<unsigned short,0x0ULL>::<unsigned short,0x0ULL>(class ATL::<unsigned short,0x0ULL> const &)
??0?$CSimpleStringT@G$0A@@ATL@@QAE@ABV01@@Z ; has WINAPI (@4)
; public: __thiscall ATL::<unsigned short,0x0ULL>::<unsigned short,0x0ULL>(class ATL::<unsigned short,0x1ULL> const &)
??0?$CSimpleStringT@G$0A@@ATL@@QAE@ABV?$CSimpleStringT@G$00@1@@Z ; has WINAPI (@4)
; public: __thiscall ATL::<unsigned short,0x0ULL>::<unsigned short,0x0ULL>(struct ATL::IAtlStringMgr *)
??0?$CSimpleStringT@G$0A@@ATL@@QAE@PAUIAtlStringMgr@1@@Z ; has WINAPI (@4)
; public: __thiscall ATL::<unsigned short,0x0ULL>::<unsigned short,0x0ULL>(unsigned short const *,int,struct ATL::IAtlStringMgr *)
??0?$CSimpleStringT@G$0A@@ATL@@QAE@PBGHPAUIAtlStringMgr@1@@Z ; has WINAPI (@12)
; public: __thiscall ATL::<unsigned short,0x0ULL>::<unsigned short,0x0ULL>(unsigned short const *,struct ATL::IAtlStringMgr *)
??0?$CSimpleStringT@G$0A@@ATL@@QAE@PBGPAUIAtlStringMgr@1@@Z ; has WINAPI (@8)
; public: __thiscall ATL::<unsigned short,class ATL::<unsigned short,class ATL::<unsigned short>>>::<unsigned short,class ATL::<unsigned short,class ATL::<unsigned short>>>(struct tagVARIANT const &)
??0?$CStringT@GV?$StrTraitATL@GV?$ChTraitsCRT@G@ATL@@@ATL@@@ATL@@QAE@ABUtagVARIANT@@@Z ; has WINAPI (@4)
; public: __thiscall ATL::<unsigned short,class ATL::<unsigned short,class ATL::<unsigned short>>>::<unsigned short,class ATL::<unsigned short,class ATL::<unsigned short>>>(struct tagVARIANT const &,struct ATL::IAtlStringMgr *)
??0?$CStringT@GV?$StrTraitATL@GV?$ChTraitsCRT@G@ATL@@@ATL@@@ATL@@QAE@ABUtagVARIANT@@PAUIAtlStringMgr@1@@Z ; has WINAPI (@8)
; public: __thiscall ATL::<unsigned short,class ATL::<unsigned short,class ATL::<unsigned short>>>::<unsigned short,class ATL::<unsigned short,class ATL::<unsigned short>>>(class ATL::<unsigned short,class ATL::<unsigned short,class ATL::<unsigned short>>> const &)
??0?$CStringT@GV?$StrTraitATL@GV?$ChTraitsCRT@G@ATL@@@ATL@@@ATL@@QAE@ABV01@@Z ; has WINAPI (@4)
; public: __thiscall ATL::<unsigned short,class ATL::<unsigned short,class ATL::<unsigned short>>>::<unsigned short,class ATL::<unsigned short,class ATL::<unsigned short>>>(char,int)
??0?$CStringT@GV?$StrTraitATL@GV?$ChTraitsCRT@G@ATL@@@ATL@@@ATL@@QAE@DH@Z ; has WINAPI (@8)
; public: __thiscall ATL::<unsigned short,class ATL::<unsigned short,class ATL::<unsigned short>>>::<unsigned short,class ATL::<unsigned short,class ATL::<unsigned short>>>(unsigned short,int)
??0?$CStringT@GV?$StrTraitATL@GV?$ChTraitsCRT@G@ATL@@@ATL@@@ATL@@QAE@GH@Z ; has WINAPI (@8)
; public: __thiscall ATL::<unsigned short,class ATL::<unsigned short,class ATL::<unsigned short>>>::<unsigned short,class ATL::<unsigned short,class ATL::<unsigned short>>>(struct ATL::IAtlStringMgr *)
??0?$CStringT@GV?$StrTraitATL@GV?$ChTraitsCRT@G@ATL@@@ATL@@@ATL@@QAE@PAUIAtlStringMgr@1@@Z ; has WINAPI (@4)
; public: __thiscall ATL::<unsigned short,class ATL::<unsigned short,class ATL::<unsigned short>>>::<unsigned short,class ATL::<unsigned short,class ATL::<unsigned short>>>(char const *)
??0?$CStringT@GV?$StrTraitATL@GV?$ChTraitsCRT@G@ATL@@@ATL@@@ATL@@QAE@PBD@Z ; has WINAPI (@4)
; public: __thiscall ATL::<unsigned short,class ATL::<unsigned short,class ATL::<unsigned short>>>::<unsigned short,class ATL::<unsigned short,class ATL::<unsigned short>>>(char const *,int)
??0?$CStringT@GV?$StrTraitATL@GV?$ChTraitsCRT@G@ATL@@@ATL@@@ATL@@QAE@PBDH@Z ; has WINAPI (@8)
; public: __thiscall ATL::<unsigned short,class ATL::<unsigned short,class ATL::<unsigned short>>>::<unsigned short,class ATL::<unsigned short,class ATL::<unsigned short>>>(char const *,int,struct ATL::IAtlStringMgr *)
??0?$CStringT@GV?$StrTraitATL@GV?$ChTraitsCRT@G@ATL@@@ATL@@@ATL@@QAE@PBDHPAUIAtlStringMgr@1@@Z ; has WINAPI (@12)
; public: __thiscall ATL::<unsigned short,class ATL::<unsigned short,class ATL::<unsigned short>>>::<unsigned short,class ATL::<unsigned short,class ATL::<unsigned short>>>(char const *,struct ATL::IAtlStringMgr *)
??0?$CStringT@GV?$StrTraitATL@GV?$ChTraitsCRT@G@ATL@@@ATL@@@ATL@@QAE@PBDPAUIAtlStringMgr@1@@Z ; has WINAPI (@8)
; public: __thiscall ATL::<unsigned short,class ATL::<unsigned short,class ATL::<unsigned short>>>::<unsigned short,class ATL::<unsigned short,class ATL::<unsigned short>>>(unsigned char const *)
??0?$CStringT@GV?$StrTraitATL@GV?$ChTraitsCRT@G@ATL@@@ATL@@@ATL@@QAE@PBE@Z ; has WINAPI (@4)
; public: __thiscall ATL::<unsigned short,class ATL::<unsigned short,class ATL::<unsigned short>>>::<unsigned short,class ATL::<unsigned short,class ATL::<unsigned short>>>(unsigned char const *,struct ATL::IAtlStringMgr *)
??0?$CStringT@GV?$StrTraitATL@GV?$ChTraitsCRT@G@ATL@@@ATL@@@ATL@@QAE@PBEPAUIAtlStringMgr@1@@Z ; has WINAPI (@8)
; public: __thiscall ATL::<unsigned short,class ATL::<unsigned short,class ATL::<unsigned short>>>::<unsigned short,class ATL::<unsigned short,class ATL::<unsigned short>>>(unsigned short const *)
??0?$CStringT@GV?$StrTraitATL@GV?$ChTraitsCRT@G@ATL@@@ATL@@@ATL@@QAE@PBG@Z ; has WINAPI (@4)
; public: __thiscall ATL::<unsigned short,class ATL::<unsigned short,class ATL::<unsigned short>>>::<unsigned short,class ATL::<unsigned short,class ATL::<unsigned short>>>(unsigned short const *,int)
??0?$CStringT@GV?$StrTraitATL@GV?$ChTraitsCRT@G@ATL@@@ATL@@@ATL@@QAE@PBGH@Z ; has WINAPI (@8)
; public: __thiscall ATL::<unsigned short,class ATL::<unsigned short,class ATL::<unsigned short>>>::<unsigned short,class ATL::<unsigned short,class ATL::<unsigned short>>>(unsigned short const *,int,struct ATL::IAtlStringMgr *)
??0?$CStringT@GV?$StrTraitATL@GV?$ChTraitsCRT@G@ATL@@@ATL@@@ATL@@QAE@PBGHPAUIAtlStringMgr@1@@Z ; has WINAPI (@12)
; public: __thiscall ATL::<unsigned short,class ATL::<unsigned short,class ATL::<unsigned short>>>::<unsigned short,class ATL::<unsigned short,class ATL::<unsigned short>>>(unsigned short const *,struct ATL::IAtlStringMgr *)
??0?$CStringT@GV?$StrTraitATL@GV?$ChTraitsCRT@G@ATL@@@ATL@@@ATL@@QAE@PBGPAUIAtlStringMgr@1@@Z ; has WINAPI (@8)
; public: __thiscall ATL::<unsigned short,class ATL::<unsigned short,class ATL::<unsigned short>>>::<unsigned short,class ATL::<unsigned short,class ATL::<unsigned short>>>(void)
??0?$CStringT@GV?$StrTraitATL@GV?$ChTraitsCRT@G@ATL@@@ATL@@@ATL@@QAE@XZ ; has WINAPI (@0)
; private: __thiscall CImageData::CImageData(void)
??0CImageData@@AAE@XZ ; has WINAPI (@0)
; public: __thiscall CImageData::CImageData(class CImageData const &)
??0CImageData@@QAE@ABV0@@Z ; has WINAPI (@4)
; public: __thiscall CInternationalUtils::CInternationalUtils(void)
??0CInternationalUtils@@QAE@XZ ; has WINAPI (@0)
; public: __thiscall CKeyboardLayout::CKeyboardLayout(class CKeyboardLayout const &)
??0CKeyboardLayout@@QAE@ABV0@@Z ; has WINAPI (@4)
; public: __thiscall CKeyboardLayout::CKeyboardLayout(class ATL::<unsigned short,class ATL::<unsigned short,class ATL::<unsigned short>>>,class ATL::<unsigned short,class ATL::<unsigned short,class ATL::<unsigned short>>>)
??0CKeyboardLayout@@QAE@V?$CStringT@GV?$StrTraitATL@GV?$ChTraitsCRT@G@ATL@@@ATL@@@ATL@@0@Z ; has WINAPI (@8)
; public: __thiscall CKeyboardLayouts::CKeyboardLayouts(class CKeyboardLayouts const &)
??0CKeyboardLayouts@@QAE@ABV0@@Z ; has WINAPI (@4)
; public: __thiscall CKeyboardLayouts::CKeyboardLayouts(void)
??0CKeyboardLayouts@@QAE@XZ ; has WINAPI (@0)
; public: __thiscall CLanguage::CLanguage(class CLanguage const &)
??0CLanguage@@QAE@ABV0@@Z ; has WINAPI (@4)
; public: __thiscall CLanguage::CLanguage(class ATL::<unsigned short,class ATL::<unsigned short,class ATL::<unsigned short>>>,class ATL::<unsigned short,class ATL::<unsigned short,class ATL::<unsigned short>>>,class ATL::<unsigned short,class ATL::<unsigned short,class ATL::<unsigned short>>>,class ATL::<unsigned short,class ATL::<unsigned short,class ATL::<unsigned short>>>)
??0CLanguage@@QAE@V?$CStringT@GV?$StrTraitATL@GV?$ChTraitsCRT@G@ATL@@@ATL@@@ATL@@000@Z ; has WINAPI (@16)
; public: __thiscall CLanguages::CLanguages(class CLanguages const &)
??0CLanguages@@QAE@ABV0@@Z ; has WINAPI (@4)
; public: __thiscall CLanguages::CLanguages(void)
??0CLanguages@@QAE@XZ ; has WINAPI (@0)
; public: __thiscall CLayeredDriver::CLayeredDriver(class CLayeredDriver const &)
??0CLayeredDriver@@QAE@ABV0@@Z ; has WINAPI (@4)
; public: __thiscall CLayeredDriver::CLayeredDriver(class ATL::<unsigned short,class ATL::<unsigned short,class ATL::<unsigned short>>>,class ATL::<unsigned short,class ATL::<unsigned short,class ATL::<unsigned short>>>)
??0CLayeredDriver@@QAE@V?$CStringT@GV?$StrTraitATL@GV?$ChTraitsCRT@G@ATL@@@ATL@@@ATL@@0@Z ; has WINAPI (@8)
; public: __thiscall CLayeredDrivers::CLayeredDrivers(class CLayeredDrivers const &)
??0CLayeredDrivers@@QAE@ABV0@@Z ; has WINAPI (@4)
; public: __thiscall CLayeredDrivers::CLayeredDrivers(void)
??0CLayeredDrivers@@QAE@XZ ; has WINAPI (@0)
; private: __thiscall CLoadDriver::CLoadDriver(void)
??0CLoadDriver@@AAE@XZ ; has WINAPI (@0)
; public: __thiscall CLoadDriver::CLoadDriver(class CLoadDriver const &)
??0CLoadDriver@@QAE@ABV0@@Z ; has WINAPI (@4)
; public: __thiscall CLocale::CLocale(class CLocale const &)
??0CLocale@@QAE@ABV0@@Z ; has WINAPI (@4)
; public: __thiscall CLocale::CLocale(class ATL::<unsigned short,class ATL::<unsigned short,class ATL::<unsigned short>>>,class ATL::<unsigned short,class ATL::<unsigned short,class ATL::<unsigned short>>>)
??0CLocale@@QAE@V?$CStringT@GV?$StrTraitATL@GV?$ChTraitsCRT@G@ATL@@@ATL@@@ATL@@0@Z ; has WINAPI (@8)
; public: __thiscall CLocales::CLocales(class CLocales const &)
??0CLocales@@QAE@ABV0@@Z ; has WINAPI (@4)
; public: __thiscall CLocales::CLocales(void)
??0CLocales@@QAE@XZ ; has WINAPI (@0)
; public: __thiscall COSK::COSK(void)
??0COSK@@QAE@XZ ; has WINAPI (@0)
; public: __thiscall CProductKeyModule::CProductKeyModule(class CProductKeyModule const &)
??0CProductKeyModule@@QAE@ABV0@@Z ; has WINAPI (@4)
; public: __thiscall CProductKeyModule::CProductKeyModule(void)
??0CProductKeyModule@@QAE@XZ ; has WINAPI (@0)
; public: __thiscall IImageData::IImageData(class IImageData const &)
??0IImageData@@QAE@ABV0@@Z ; has WINAPI (@4)
; public: __thiscall IImageData::IImageData(void)
??0IImageData@@QAE@XZ ; has WINAPI (@0)
; public: __thiscall IProductKeyModule::IProductKeyModule(class IProductKeyModule const &)
??0IProductKeyModule@@QAE@ABV0@@Z ; has WINAPI (@4)
; public: __thiscall IProductKeyModule::IProductKeyModule(void)
??0IProductKeyModule@@QAE@XZ ; has WINAPI (@0)
; public: __thiscall MyUtilString::MyUtilString(void)
??0MyUtilString@@QAE@XZ ; has WINAPI (@0)
; public: __thiscall PIDUtilStringView::PIDUtilStringView(class PIDUtilStringView const &)
??0PIDUtilStringView@@QAE@ABV0@@Z ; has WINAPI (@4)
; public: __thiscall PIDUtilStringView::PIDUtilStringView(void)
??0PIDUtilStringView@@QAE@XZ ; has WINAPI (@0)
; public: __thiscall ATL::<struct _BLOCKED_REASON *,class ATL::<struct _BLOCKED_REASON *>>::~<struct _BLOCKED_REASON *,class ATL::<struct _BLOCKED_REASON *>>(void)
??1?$CSimpleArray@PAU_BLOCKED_REASON@@V?$CSimpleArrayEqualHelper@PAU_BLOCKED_REASON@@@ATL@@@ATL@@QAE@XZ ; has WINAPI (@0)
; public: __thiscall ATL::<class CLocale *,class ATL::<class CLocale *>>::~<class CLocale *,class ATL::<class CLocale *>>(void)
??1?$CSimpleArray@PAVCLocale@@V?$CSimpleArrayEqualHelper@PAVCLocale@@@ATL@@@ATL@@QAE@XZ ; has WINAPI (@0)
; public: __thiscall ATL::<class CDriverItem,class ATL::<class CDriverItem>>::~<class CDriverItem,class ATL::<class CDriverItem>>(void)
??1?$CSimpleArray@VCDriverItem@@V?$CSimpleArrayEqualHelper@VCDriverItem@@@ATL@@@ATL@@QAE@XZ ; has WINAPI (@0)
; public: __thiscall ATL::<class CLanguageItem,class ATL::<class CLanguageItem>>::~<class CLanguageItem,class ATL::<class CLanguageItem>>(void)
??1?$CSimpleArray@VCLanguageItem@@V?$CSimpleArrayEqualHelper@VCLanguageItem@@@ATL@@@ATL@@QAE@XZ ; has WINAPI (@0)
; public: __thiscall ATL::<unsigned short,0x0ULL>::~<unsigned short,0x0ULL>(void)
??1?$CSimpleStringT@G$0A@@ATL@@QAE@XZ ; has WINAPI (@0)
; public: __thiscall ATL::<unsigned short,class ATL::<unsigned short,class ATL::<unsigned short>>>::~<unsigned short,class ATL::<unsigned short,class ATL::<unsigned short>>>(void)
??1?$CStringT@GV?$StrTraitATL@GV?$ChTraitsCRT@G@ATL@@@ATL@@@ATL@@QAE@XZ ; has WINAPI (@0)
; private: virtual __thiscall CImageData::~CImageData(void)
??1CImageData@@EAE@XZ ; has WINAPI (@0)
; public: __thiscall CInternationalUtils::~CInternationalUtils(void)
??1CInternationalUtils@@QAE@XZ ; has WINAPI (@0)
; public: __thiscall CKeyboardLayout::~CKeyboardLayout(void)
??1CKeyboardLayout@@QAE@XZ ; has WINAPI (@0)
; public: __thiscall CKeyboardLayouts::~CKeyboardLayouts(void)
??1CKeyboardLayouts@@QAE@XZ ; has WINAPI (@0)
; public: __thiscall CLanguage::~CLanguage(void)
??1CLanguage@@QAE@XZ ; has WINAPI (@0)
; public: __thiscall CLanguages::~CLanguages(void)
??1CLanguages@@QAE@XZ ; has WINAPI (@0)
; public: __thiscall CLayeredDriver::~CLayeredDriver(void)
??1CLayeredDriver@@QAE@XZ ; has WINAPI (@0)
; public: __thiscall CLayeredDrivers::~CLayeredDrivers(void)
??1CLayeredDrivers@@QAE@XZ ; has WINAPI (@0)
; private: virtual __thiscall CLoadDriver::~CLoadDriver(void)
??1CLoadDriver@@EAE@XZ ; has WINAPI (@0)
; public: __thiscall CLocale::~CLocale(void)
??1CLocale@@QAE@XZ ; has WINAPI (@0)
; public: __thiscall CLocales::~CLocales(void)
??1CLocales@@QAE@XZ ; has WINAPI (@0)
; public: __thiscall COSK::~COSK(void)
??1COSK@@QAE@XZ ; has WINAPI (@0)
; public: virtual __thiscall PIDUtilStringView::~PIDUtilStringView(void)
??1PIDUtilStringView@@UAE@XZ ; has WINAPI (@0)
; public: class ATL::<struct _BLOCKED_REASON *,class ATL::<struct _BLOCKED_REASON *>> &__thiscall ATL::<struct _BLOCKED_REASON *,class ATL::<struct _BLOCKED_REASON *>>::operator =(class ATL::<struct _BLOCKED_REASON *,class ATL::<struct _BLOCKED_REASON *>> const &)
??4?$CSimpleArray@PAU_BLOCKED_REASON@@V?$CSimpleArrayEqualHelper@PAU_BLOCKED_REASON@@@ATL@@@ATL@@QAEAAV01@ABV01@@Z ; has WINAPI (@4)
; public: class ATL::<class CLocale *,class ATL::<class CLocale *>> &__thiscall ATL::<class CLocale *,class ATL::<class CLocale *>>::operator =(class ATL::<class CLocale *,class ATL::<class CLocale *>> const &)
??4?$CSimpleArray@PAVCLocale@@V?$CSimpleArrayEqualHelper@PAVCLocale@@@ATL@@@ATL@@QAEAAV01@ABV01@@Z ; has WINAPI (@4)
; public: class ATL::<class CDriverItem,class ATL::<class CDriverItem>> &__thiscall ATL::<class CDriverItem,class ATL::<class CDriverItem>>::operator =(class ATL::<class CDriverItem,class ATL::<class CDriverItem>> const &)
??4?$CSimpleArray@VCDriverItem@@V?$CSimpleArrayEqualHelper@VCDriverItem@@@ATL@@@ATL@@QAEAAV01@ABV01@@Z ; has WINAPI (@4)
; public: class ATL::<class CLanguageItem,class ATL::<class CLanguageItem>> &__thiscall ATL::<class CLanguageItem,class ATL::<class CLanguageItem>>::operator =(class ATL::<class CLanguageItem,class ATL::<class CLanguageItem>> const &)
??4?$CSimpleArray@VCLanguageItem@@V?$CSimpleArrayEqualHelper@VCLanguageItem@@@ATL@@@ATL@@QAEAAV01@ABV01@@Z ; has WINAPI (@4)
; public: class ATL::<unsigned short,0x0ULL> &__thiscall ATL::<unsigned short,0x0ULL>::operator =(class ATL::<unsigned short,0x0ULL> const &)
??4?$CSimpleStringT@G$0A@@ATL@@QAEAAV01@ABV01@@Z ; has WINAPI (@4)
; public: class ATL::<unsigned short,0x0ULL> &__thiscall ATL::<unsigned short,0x0ULL>::operator =(class ATL::<unsigned short,0x1ULL> const &)
??4?$CSimpleStringT@G$0A@@ATL@@QAEAAV01@ABV?$CSimpleStringT@G$00@1@@Z ; has WINAPI (@4)
; public: class ATL::<unsigned short,0x0ULL> &__thiscall ATL::<unsigned short,0x0ULL>::operator =(unsigned short const *)
??4?$CSimpleStringT@G$0A@@ATL@@QAEAAV01@PBG@Z ; has WINAPI (@4)
; public: class ATL::<unsigned short,class ATL::<unsigned short,class ATL::<unsigned short>>> &__thiscall ATL::<unsigned short,class ATL::<unsigned short,class ATL::<unsigned short>>>::operator =(struct tagVARIANT const &)
??4?$CStringT@GV?$StrTraitATL@GV?$ChTraitsCRT@G@ATL@@@ATL@@@ATL@@QAEAAV01@ABUtagVARIANT@@@Z ; has WINAPI (@4)
; public: class ATL::<unsigned short,class ATL::<unsigned short,class ATL::<unsigned short>>> &__thiscall ATL::<unsigned short,class ATL::<unsigned short,class ATL::<unsigned short>>>::operator =(class ATL::<unsigned short,class ATL::<unsigned short,class ATL::<unsigned short>>> const &)
??4?$CStringT@GV?$StrTraitATL@GV?$ChTraitsCRT@G@ATL@@@ATL@@@ATL@@QAEAAV01@ABV01@@Z ; has WINAPI (@4)
; public: class ATL::<unsigned short,class ATL::<unsigned short,class ATL::<unsigned short>>> &__thiscall ATL::<unsigned short,class ATL::<unsigned short,class ATL::<unsigned short>>>::operator =(char)
??4?$CStringT@GV?$StrTraitATL@GV?$ChTraitsCRT@G@ATL@@@ATL@@@ATL@@QAEAAV01@D@Z ; has WINAPI (@4)
; public: class ATL::<unsigned short,class ATL::<unsigned short,class ATL::<unsigned short>>> &__thiscall ATL::<unsigned short,class ATL::<unsigned short,class ATL::<unsigned short>>>::operator =(unsigned short)
??4?$CStringT@GV?$StrTraitATL@GV?$ChTraitsCRT@G@ATL@@@ATL@@@ATL@@QAEAAV01@G@Z ; has WINAPI (@4)
; public: class ATL::<unsigned short,class ATL::<unsigned short,class ATL::<unsigned short>>> &__thiscall ATL::<unsigned short,class ATL::<unsigned short,class ATL::<unsigned short>>>::operator =(char const *)
??4?$CStringT@GV?$StrTraitATL@GV?$ChTraitsCRT@G@ATL@@@ATL@@@ATL@@QAEAAV01@PBD@Z ; has WINAPI (@4)
; public: class ATL::<unsigned short,class ATL::<unsigned short,class ATL::<unsigned short>>> &__thiscall ATL::<unsigned short,class ATL::<unsigned short,class ATL::<unsigned short>>>::operator =(unsigned char const *)
??4?$CStringT@GV?$StrTraitATL@GV?$ChTraitsCRT@G@ATL@@@ATL@@@ATL@@QAEAAV01@PBE@Z ; has WINAPI (@4)
; public: class ATL::<unsigned short,class ATL::<unsigned short,class ATL::<unsigned short>>> &__thiscall ATL::<unsigned short,class ATL::<unsigned short,class ATL::<unsigned short>>>::operator =(unsigned short const *)
??4?$CStringT@GV?$StrTraitATL@GV?$ChTraitsCRT@G@ATL@@@ATL@@@ATL@@QAEAAV01@PBG@Z ; has WINAPI (@4)
; public: class CImageData &__thiscall CImageData::operator =(class CImageData const &)
??4CImageData@@QAEAAV0@ABV0@@Z ; has WINAPI (@4)
; public: class CInternationalUtils &__thiscall CInternationalUtils::operator =(class CInternationalUtils const &)
??4CInternationalUtils@@QAEAAV0@ABV0@@Z ; has WINAPI (@4)
; public: class CKeyboardLayout &__thiscall CKeyboardLayout::operator =(class CKeyboardLayout const &)
??4CKeyboardLayout@@QAEAAV0@ABV0@@Z ; has WINAPI (@4)
; public: class CKeyboardLayouts &__thiscall CKeyboardLayouts::operator =(class CKeyboardLayouts const &)
??4CKeyboardLayouts@@QAEAAV0@ABV0@@Z ; has WINAPI (@4)
; public: class CLanguage &__thiscall CLanguage::operator =(class CLanguage const &)
??4CLanguage@@QAEAAV0@ABV0@@Z ; has WINAPI (@4)
; public: class CLanguages &__thiscall CLanguages::operator =(class CLanguages const &)
??4CLanguages@@QAEAAV0@ABV0@@Z ; has WINAPI (@4)
; public: class CLayeredDriver &__thiscall CLayeredDriver::operator =(class CLayeredDriver const &)
??4CLayeredDriver@@QAEAAV0@ABV0@@Z ; has WINAPI (@4)
; public: class CLayeredDrivers &__thiscall CLayeredDrivers::operator =(class CLayeredDrivers const &)
??4CLayeredDrivers@@QAEAAV0@ABV0@@Z ; has WINAPI (@4)
; public: class CLoadDriver &__thiscall CLoadDriver::operator =(class CLoadDriver const &)
??4CLoadDriver@@QAEAAV0@ABV0@@Z ; has WINAPI (@4)
; public: class CLocale &__thiscall CLocale::operator =(class CLocale const &)
??4CLocale@@QAEAAV0@ABV0@@Z ; has WINAPI (@4)
; public: class CLocales &__thiscall CLocales::operator =(class CLocales const &)
??4CLocales@@QAEAAV0@ABV0@@Z ; has WINAPI (@4)
; public: class COSK &__thiscall COSK::operator =(class COSK const &)
??4COSK@@QAEAAV0@ABV0@@Z ; has WINAPI (@4)
; public: class CProductKeyModule &__thiscall CProductKeyModule::operator =(class CProductKeyModule const &)
??4CProductKeyModule@@QAEAAV0@ABV0@@Z ; has WINAPI (@4)
; public: class IImageData &__thiscall IImageData::operator =(class IImageData const &)
??4IImageData@@QAEAAV0@ABV0@@Z ; has WINAPI (@4)
; public: class IProductKeyModule &__thiscall IProductKeyModule::operator =(class IProductKeyModule const &)
??4IProductKeyModule@@QAEAAV0@ABV0@@Z ; has WINAPI (@4)
; public: class MyUtilString &__thiscall MyUtilString::operator =(class MyUtilString const &)
??4MyUtilString@@QAEAAV0@ABV0@@Z ; has WINAPI (@4)
; public: class PIDUtilStringView &__thiscall PIDUtilStringView::operator =(class PIDUtilStringView const &)
??4PIDUtilStringView@@QAEAAV0@ABV0@@Z ; has WINAPI (@4)
; public: struct _BLOCKED_REASON *&__thiscall ATL::<struct _BLOCKED_REASON *,class ATL::<struct _BLOCKED_REASON *>>::operator[](int)
??A?$CSimpleArray@PAU_BLOCKED_REASON@@V?$CSimpleArrayEqualHelper@PAU_BLOCKED_REASON@@@ATL@@@ATL@@QAEAAPAU_BLOCKED_REASON@@H@Z ; has WINAPI (@4)
; public: struct _BLOCKED_REASON *const &__thiscall ATL::<struct _BLOCKED_REASON *,class ATL::<struct _BLOCKED_REASON *>>::operator[](int)const 
??A?$CSimpleArray@PAU_BLOCKED_REASON@@V?$CSimpleArrayEqualHelper@PAU_BLOCKED_REASON@@@ATL@@@ATL@@QBEABQAU_BLOCKED_REASON@@H@Z ; has WINAPI (@4)
; public: class CLocale *&__thiscall ATL::<class CLocale *,class ATL::<class CLocale *>>::operator[](int)
??A?$CSimpleArray@PAVCLocale@@V?$CSimpleArrayEqualHelper@PAVCLocale@@@ATL@@@ATL@@QAEAAPAVCLocale@@H@Z ; has WINAPI (@4)
; public: class CLocale *const &__thiscall ATL::<class CLocale *,class ATL::<class CLocale *>>::operator[](int)const 
??A?$CSimpleArray@PAVCLocale@@V?$CSimpleArrayEqualHelper@PAVCLocale@@@ATL@@@ATL@@QBEABQAVCLocale@@H@Z ; has WINAPI (@4)
; public: class CDriverItem &__thiscall ATL::<class CDriverItem,class ATL::<class CDriverItem>>::operator[](int)
??A?$CSimpleArray@VCDriverItem@@V?$CSimpleArrayEqualHelper@VCDriverItem@@@ATL@@@ATL@@QAEAAVCDriverItem@@H@Z ; has WINAPI (@4)
; public: class CDriverItem const &__thiscall ATL::<class CDriverItem,class ATL::<class CDriverItem>>::operator[](int)const 
??A?$CSimpleArray@VCDriverItem@@V?$CSimpleArrayEqualHelper@VCDriverItem@@@ATL@@@ATL@@QBEABVCDriverItem@@H@Z ; has WINAPI (@4)
; public: class CLanguageItem &__thiscall ATL::<class CLanguageItem,class ATL::<class CLanguageItem>>::operator[](int)
??A?$CSimpleArray@VCLanguageItem@@V?$CSimpleArrayEqualHelper@VCLanguageItem@@@ATL@@@ATL@@QAEAAVCLanguageItem@@H@Z ; has WINAPI (@4)
; public: class CLanguageItem const &__thiscall ATL::<class CLanguageItem,class ATL::<class CLanguageItem>>::operator[](int)const 
??A?$CSimpleArray@VCLanguageItem@@V?$CSimpleArrayEqualHelper@VCLanguageItem@@@ATL@@@ATL@@QBEABVCLanguageItem@@H@Z ; has WINAPI (@4)
; public: unsigned short __thiscall ATL::<unsigned short,0x0ULL>::operator[](int)const 
??A?$CSimpleStringT@G$0A@@ATL@@QBEGH@Z ; has WINAPI (@4)
; public: virtual class CLanguageItem &__thiscall CImageData::operator[](unsigned int)
??ACImageData@@UAEAAVCLanguageItem@@I@Z ; has WINAPI (@4)
; public: virtual class CKeyboardLayout __thiscall CKeyboardLayouts::operator[](int)
??ACKeyboardLayouts@@UAE?AVCKeyboardLayout@@H@Z ; has WINAPI (@8)
; public: virtual class CLanguage __thiscall CLanguages::operator[](int)
??ACLanguages@@UAE?AVCLanguage@@H@Z ; has WINAPI (@8)
; public: virtual class CLayeredDriver __thiscall CLayeredDrivers::operator[](int)
??ACLayeredDrivers@@UAE?AVCLayeredDriver@@H@Z ; has WINAPI (@8)
; public: virtual class CDriverItem &__thiscall CLoadDriver::operator[](unsigned int)
??ACLoadDriver@@UAEAAVCDriverItem@@I@Z ; has WINAPI (@4)
; public: virtual class CLocale __thiscall CLocales::operator[](int)
??ACLocales@@UAE?AVCLocale@@H@Z ; has WINAPI (@8)
; public: void __thiscall ATL::<unsigned short,0x0ULL>::operator class ATL::<unsigned short,0x1ULL> &(...)throw()
??B?$CSimpleStringT@G$0A@@ATL@@QAEAAV?$CSimpleStringT@G$00@1@XZ ; has WINAPI (@0)
; public: void __thiscall ATL::<unsigned short,0x0ULL>::operator unsigned short const *(...)const throw()
??B?$CSimpleStringT@G$0A@@ATL@@QBEPBGXZ ; has WINAPI (@0)
; public: void __thiscall ATL::<unsigned short,class ATL::<unsigned short,class ATL::<unsigned short>>>::operator class ATL::<unsigned short,0x1ULL> &(...)throw()
??B?$CStringT@GV?$StrTraitATL@GV?$ChTraitsCRT@G@ATL@@@ATL@@@ATL@@QAEAAV?$CSimpleStringT@G$00@1@XZ ; has WINAPI (@0)
; public: class ATL::<unsigned short,0x0ULL> &__thiscall ATL::<unsigned short,0x0ULL>::operator +=(class ATL::<unsigned short,0x0ULL> const &)
??Y?$CSimpleStringT@G$0A@@ATL@@QAEAAV01@ABV01@@Z ; has WINAPI (@4)
; public: class ATL::<unsigned short,0x0ULL> &__thiscall ATL::<unsigned short,0x0ULL>::operator +=(char)
??Y?$CSimpleStringT@G$0A@@ATL@@QAEAAV01@D@Z ; has WINAPI (@4)
; public: class ATL::<unsigned short,0x0ULL> &__thiscall ATL::<unsigned short,0x0ULL>::operator +=(unsigned char)
??Y?$CSimpleStringT@G$0A@@ATL@@QAEAAV01@E@Z ; has WINAPI (@4)
; public: class ATL::<unsigned short,0x0ULL> &__thiscall ATL::<unsigned short,0x0ULL>::operator +=(unsigned short)
??Y?$CSimpleStringT@G$0A@@ATL@@QAEAAV01@G@Z ; has WINAPI (@4)
; public: class ATL::<unsigned short,0x0ULL> &__thiscall ATL::<unsigned short,0x0ULL>::operator +=(unsigned short const *)
??Y?$CSimpleStringT@G$0A@@ATL@@QAEAAV01@PBG@Z ; has WINAPI (@4)
; public: class ATL::<unsigned short,class ATL::<unsigned short,class ATL::<unsigned short>>> &__thiscall ATL::<unsigned short,class ATL::<unsigned short,class ATL::<unsigned short>>>::operator +=(struct tagVARIANT const &)
??Y?$CStringT@GV?$StrTraitATL@GV?$ChTraitsCRT@G@ATL@@@ATL@@@ATL@@QAEAAV01@ABUtagVARIANT@@@Z ; has WINAPI (@4)
; public: class ATL::<unsigned short,class ATL::<unsigned short,class ATL::<unsigned short>>> &__thiscall ATL::<unsigned short,class ATL::<unsigned short,class ATL::<unsigned short>>>::operator +=(class ATL::<unsigned short,0x0ULL> const &)
??Y?$CStringT@GV?$StrTraitATL@GV?$ChTraitsCRT@G@ATL@@@ATL@@@ATL@@QAEAAV01@ABV?$CSimpleStringT@G$0A@@1@@Z ; has WINAPI (@4)
; public: class ATL::<unsigned short,class ATL::<unsigned short,class ATL::<unsigned short>>> &__thiscall ATL::<unsigned short,class ATL::<unsigned short,class ATL::<unsigned short>>>::operator +=(char)
??Y?$CStringT@GV?$StrTraitATL@GV?$ChTraitsCRT@G@ATL@@@ATL@@@ATL@@QAEAAV01@D@Z ; has WINAPI (@4)
; public: class ATL::<unsigned short,class ATL::<unsigned short,class ATL::<unsigned short>>> &__thiscall ATL::<unsigned short,class ATL::<unsigned short,class ATL::<unsigned short>>>::operator +=(unsigned char)
??Y?$CStringT@GV?$StrTraitATL@GV?$ChTraitsCRT@G@ATL@@@ATL@@@ATL@@QAEAAV01@E@Z ; has WINAPI (@4)
; public: class ATL::<unsigned short,class ATL::<unsigned short,class ATL::<unsigned short>>> &__thiscall ATL::<unsigned short,class ATL::<unsigned short,class ATL::<unsigned short>>>::operator +=(unsigned short)
??Y?$CStringT@GV?$StrTraitATL@GV?$ChTraitsCRT@G@ATL@@@ATL@@@ATL@@QAEAAV01@G@Z ; has WINAPI (@4)
; public: class ATL::<unsigned short,class ATL::<unsigned short,class ATL::<unsigned short>>> &__thiscall ATL::<unsigned short,class ATL::<unsigned short,class ATL::<unsigned short>>>::operator +=(char const *)
??Y?$CStringT@GV?$StrTraitATL@GV?$ChTraitsCRT@G@ATL@@@ATL@@@ATL@@QAEAAV01@PBD@Z ; has WINAPI (@4)
; public: class ATL::<unsigned short,class ATL::<unsigned short,class ATL::<unsigned short>>> &__thiscall ATL::<unsigned short,class ATL::<unsigned short,class ATL::<unsigned short>>>::operator +=(unsigned short const *)
??Y?$CStringT@GV?$StrTraitATL@GV?$ChTraitsCRT@G@ATL@@@ATL@@@ATL@@QAEAAV01@PBG@Z ; has WINAPI (@4)
; const CImageData::$vftable
??_7CImageData@@6B@ DATA
; const CKeyboardLayouts::$vftable
??_7CKeyboardLayouts@@6B@ DATA
; const CLanguages::$vftable
??_7CLanguages@@6B@ DATA
; const CLayeredDrivers::$vftable
??_7CLayeredDrivers@@6B@ DATA
; const CLoadDriver::$vftable
??_7CLoadDriver@@6B@ DATA
; const CLocales::$vftable
??_7CLocales@@6B@ DATA
; const CProductKeyModule::$vftable
??_7CProductKeyModule@@6B@ DATA
; const IImageData::$vftable
??_7IImageData@@6B@ DATA
; const IProductKeyModule::$vftable
??_7IProductKeyModule@@6B@ DATA
; const PIDUtilStringView::$vftable
??_7PIDUtilStringView@@6B@ DATA
; public: int __thiscall ATL::<struct _BLOCKED_REASON *,class ATL::<struct _BLOCKED_REASON *>>::Add(struct _BLOCKED_REASON *const &)
?Add@?$CSimpleArray@PAU_BLOCKED_REASON@@V?$CSimpleArrayEqualHelper@PAU_BLOCKED_REASON@@@ATL@@@ATL@@QAEHABQAU_BLOCKED_REASON@@@Z ; has WINAPI (@4)
; public: int __thiscall ATL::<class CLocale *,class ATL::<class CLocale *>>::Add(class CLocale *const &)
?Add@?$CSimpleArray@PAVCLocale@@V?$CSimpleArrayEqualHelper@PAVCLocale@@@ATL@@@ATL@@QAEHABQAVCLocale@@@Z ; has WINAPI (@4)
; public: int __thiscall ATL::<class CDriverItem,class ATL::<class CDriverItem>>::Add(class CDriverItem const &)
?Add@?$CSimpleArray@VCDriverItem@@V?$CSimpleArrayEqualHelper@VCDriverItem@@@ATL@@@ATL@@QAEHABVCDriverItem@@@Z ; has WINAPI (@4)
; public: int __thiscall ATL::<class CLanguageItem,class ATL::<class CLanguageItem>>::Add(class CLanguageItem const &)
?Add@?$CSimpleArray@VCLanguageItem@@V?$CSimpleArrayEqualHelper@VCLanguageItem@@@ATL@@@ATL@@QAEHABVCLanguageItem@@@Z ; has WINAPI (@4)
; public: unsigned short *__thiscall ATL::<unsigned short,class ATL::<unsigned short,class ATL::<unsigned short>>>::AllocSysString(void)const 
?AllocSysString@?$CStringT@GV?$StrTraitATL@GV?$ChTraitsCRT@G@ATL@@@ATL@@@ATL@@QBEPAGXZ ; has WINAPI (@0)
; public: void __thiscall ATL::<unsigned short,0x0ULL>::Append(class ATL::<unsigned short,0x0ULL> const &)
?Append@?$CSimpleStringT@G$0A@@ATL@@QAEXABV12@@Z ; has WINAPI (@4)
; public: void __thiscall ATL::<unsigned short,0x0ULL>::Append(unsigned short const *)
?Append@?$CSimpleStringT@G$0A@@ATL@@QAEXPBG@Z ; has WINAPI (@4)
; public: void __thiscall ATL::<unsigned short,0x0ULL>::Append(unsigned short const *,int)
?Append@?$CSimpleStringT@G$0A@@ATL@@QAEXPBGH@Z ; has WINAPI (@8)
; public: void __thiscall ATL::<unsigned short,0x0ULL>::AppendChar(unsigned short)
?AppendChar@?$CSimpleStringT@G$0A@@ATL@@QAEXG@Z ; has WINAPI (@4)
; public: void __cdecl ATL::<unsigned short,class ATL::<unsigned short,class ATL::<unsigned short>>>::AppendFormat(unsigned int,...)
?AppendFormat@?$CStringT@GV?$StrTraitATL@GV?$ChTraitsCRT@G@ATL@@@ATL@@@ATL@@QAAXIZZ ; has WINAPI (@0)
; public: void __cdecl ATL::<unsigned short,class ATL::<unsigned short,class ATL::<unsigned short>>>::AppendFormat(unsigned short const *,...)
?AppendFormat@?$CStringT@GV?$StrTraitATL@GV?$ChTraitsCRT@G@ATL@@@ATL@@@ATL@@QAAXPBGZZ ; has WINAPI (@0)
; public: void __thiscall ATL::<unsigned short,class ATL::<unsigned short,class ATL::<unsigned short>>>::AppendFormatV(unsigned short const *,char *)
?AppendFormatV@?$CStringT@GV?$StrTraitATL@GV?$ChTraitsCRT@G@ATL@@@ATL@@@ATL@@QAEXPBGPAD@Z ; has WINAPI (@8)
; private: void __thiscall ATL::<unsigned short,0x0ULL>::Attach(struct ATL::CStringData *)
?Attach@?$CSimpleStringT@G$0A@@ATL@@AAEXPAUCStringData@2@@Z ; has WINAPI (@4)
; public: virtual int __thiscall CLoadDriver::CanReadMedia(void)
?CanReadMedia@CLoadDriver@@UAEHXZ ; has WINAPI (@0)
; public: void __thiscall ATL::<unsigned short,class ATL::<unsigned short,class ATL::<unsigned short>>>::CharToOemA(void)
?CharToOemA@?$CStringT@GV?$StrTraitATL@GV?$ChTraitsCRT@G@ATL@@@ATL@@@ATL@@QAEXXZ ; Check!!! Couldn't determine function argument count. Function doesn't return. 
; private: bool __thiscall ATL::<unsigned short,class ATL::<unsigned short,class ATL::<unsigned short>>>::CheckImplicitLoad(void const *)
?CheckImplicitLoad@?$CStringT@GV?$StrTraitATL@GV?$ChTraitsCRT@G@ATL@@@ATL@@@ATL@@AAE_NPBX@Z ; has WINAPI (@4)
; public: virtual void __thiscall CLoadDriver::ClearDriverList(void)
?ClearDriverList@CLoadDriver@@UAEXXZ ; has WINAPI (@0)
; public: void __thiscall MyUtilString::ClearString(void)
?ClearString@MyUtilString@@QAEXXZ ; has WINAPI (@0)
; public: void __thiscall PIDUtilStringView::ClearString(void)
?ClearString@PIDUtilStringView@@QAEXXZ ; has WINAPI (@0)
; private: static struct ATL::CStringData *__cdecl ATL::<unsigned short,0x0ULL>::CloneData(struct ATL::CStringData *)
?CloneData@?$CSimpleStringT@G$0A@@ATL@@CAPAUCStringData@2@PAU32@@Z ; has WINAPI (@0)
; public: int __thiscall COSK::CloseOSK(void *)
?CloseOSK@COSK@@QAEHPAX@Z ; has WINAPI (@4)
; public: int __thiscall ATL::<unsigned short,class ATL::<unsigned short,class ATL::<unsigned short>>>::Collate(unsigned short const *)const 
?Collate@?$CStringT@GV?$StrTraitATL@GV?$ChTraitsCRT@G@ATL@@@ATL@@@ATL@@QBEHPBG@Z ; has WINAPI (@4)
; public: int __thiscall ATL::<unsigned short,class ATL::<unsigned short,class ATL::<unsigned short>>>::CollateNoCase(unsigned short const *)const 
?CollateNoCase@?$CStringT@GV?$StrTraitATL@GV?$ChTraitsCRT@G@ATL@@@ATL@@@ATL@@QBEHPBG@Z ; has WINAPI (@4)
; public: int __thiscall ATL::<unsigned short,class ATL::<unsigned short,class ATL::<unsigned short>>>::Compare(unsigned short const *)const 
?Compare@?$CStringT@GV?$StrTraitATL@GV?$ChTraitsCRT@G@ATL@@@ATL@@@ATL@@QBEHPBG@Z ; has WINAPI (@4)
; public: int __thiscall ATL::<unsigned short,class ATL::<unsigned short,class ATL::<unsigned short>>>::CompareNoCase(unsigned short const *)const 
?CompareNoCase@?$CStringT@GV?$StrTraitATL@GV?$ChTraitsCRT@G@ATL@@@ATL@@@ATL@@QBEHPBG@Z ; has WINAPI (@4)
; protected: static void __cdecl ATL::<unsigned short,0x0ULL>::Concatenate(class ATL::<unsigned short,0x0ULL> &,unsigned short const *,int,unsigned short const *,int)
?Concatenate@?$CSimpleStringT@G$0A@@ATL@@KAXAAV12@PBGH1H@Z ; has WINAPI (@0)
; public: static void __cdecl ATL::<unsigned short,class ATL::<unsigned short,class ATL::<unsigned short>>>::Construct(class ATL::<unsigned short,class ATL::<unsigned short,class ATL::<unsigned short>>> *)
?Construct@?$CStringT@GV?$StrTraitATL@GV?$ChTraitsCRT@G@ATL@@@ATL@@@ATL@@SAXPAV12@@Z ; has WINAPI (@0)
; public: static void __cdecl ATL::<unsigned short,0x0ULL>::CopyChars(unsigned short *,unsigned int,unsigned short const *,int)
?CopyChars@?$CSimpleStringT@G$0A@@ATL@@SAXPAGIPBGH@Z ; has WINAPI (@0)
; public: static void __cdecl ATL::<unsigned short,0x0ULL>::CopyChars(unsigned short *,unsigned short const *,int)
?CopyChars@?$CSimpleStringT@G$0A@@ATL@@SAXPAGPBGH@Z ; has WINAPI (@0)
; public: static void __cdecl ATL::<unsigned short,0x0ULL>::CopyCharsOverlapped(unsigned short *,unsigned int,unsigned short const *,int)
?CopyCharsOverlapped@?$CSimpleStringT@G$0A@@ATL@@SAXPAGIPBGH@Z ; has WINAPI (@0)
; public: static void __cdecl ATL::<unsigned short,0x0ULL>::CopyCharsOverlapped(unsigned short *,unsigned short const *,int)
?CopyCharsOverlapped@?$CSimpleStringT@G$0A@@ATL@@SAXPAGPBGH@Z ; has WINAPI (@0)
; public: int __thiscall ATL::<unsigned short,class ATL::<unsigned short,class ATL::<unsigned short>>>::Delete(int,int)
?Delete@?$CStringT@GV?$StrTraitATL@GV?$ChTraitsCRT@G@ATL@@@ATL@@@ATL@@QAEHHH@Z ; has WINAPI (@8)
; public: void __thiscall ATL::<unsigned short,0x0ULL>::Empty(void)
?Empty@?$CSimpleStringT@G$0A@@ATL@@QAEXXZ ; has WINAPI (@0)
; public: int __thiscall ATL::<struct _BLOCKED_REASON *,class ATL::<struct _BLOCKED_REASON *>>::Find(struct _BLOCKED_REASON *const &)const 
?Find@?$CSimpleArray@PAU_BLOCKED_REASON@@V?$CSimpleArrayEqualHelper@PAU_BLOCKED_REASON@@@ATL@@@ATL@@QBEHABQAU_BLOCKED_REASON@@@Z ; has WINAPI (@4)
; public: int __thiscall ATL::<class CLocale *,class ATL::<class CLocale *>>::Find(class CLocale *const &)const 
?Find@?$CSimpleArray@PAVCLocale@@V?$CSimpleArrayEqualHelper@PAVCLocale@@@ATL@@@ATL@@QBEHABQAVCLocale@@@Z ; has WINAPI (@4)
; public: int __thiscall ATL::<class CDriverItem,class ATL::<class CDriverItem>>::Find(class CDriverItem const &)const 
?Find@?$CSimpleArray@VCDriverItem@@V?$CSimpleArrayEqualHelper@VCDriverItem@@@ATL@@@ATL@@QBEHABVCDriverItem@@@Z ; has WINAPI (@4)
; public: int __thiscall ATL::<class CLanguageItem,class ATL::<class CLanguageItem>>::Find(class CLanguageItem const &)const 
?Find@?$CSimpleArray@VCLanguageItem@@V?$CSimpleArrayEqualHelper@VCLanguageItem@@@ATL@@@ATL@@QBEHABVCLanguageItem@@@Z ; has WINAPI (@4)
; public: int __thiscall ATL::<unsigned short,class ATL::<unsigned short,class ATL::<unsigned short>>>::Find(unsigned short,int)const 
?Find@?$CStringT@GV?$StrTraitATL@GV?$ChTraitsCRT@G@ATL@@@ATL@@@ATL@@QBEHGH@Z ; has WINAPI (@8)
; public: int __thiscall ATL::<unsigned short,class ATL::<unsigned short,class ATL::<unsigned short>>>::Find(unsigned short const *,int)const 
?Find@?$CStringT@GV?$StrTraitATL@GV?$ChTraitsCRT@G@ATL@@@ATL@@@ATL@@QBEHPBGH@Z ; has WINAPI (@8)
; public: int __thiscall ATL::<unsigned short,class ATL::<unsigned short,class ATL::<unsigned short>>>::FindOneOf(unsigned short const *)const 
?FindOneOf@?$CStringT@GV?$StrTraitATL@GV?$ChTraitsCRT@G@ATL@@@ATL@@@ATL@@QBEHPBG@Z ; has WINAPI (@4)
; private: void __thiscall ATL::<unsigned short,0x0ULL>::Fork(int)
?Fork@?$CSimpleStringT@G$0A@@ATL@@AAEXH@Z ; has WINAPI (@4)
; public: void __cdecl ATL::<unsigned short,class ATL::<unsigned short,class ATL::<unsigned short>>>::Format(unsigned int,...)
?Format@?$CStringT@GV?$StrTraitATL@GV?$ChTraitsCRT@G@ATL@@@ATL@@@ATL@@QAAXIZZ ; has WINAPI (@0)
; public: void __cdecl ATL::<unsigned short,class ATL::<unsigned short,class ATL::<unsigned short>>>::Format(unsigned short const *,...)
?Format@?$CStringT@GV?$StrTraitATL@GV?$ChTraitsCRT@G@ATL@@@ATL@@@ATL@@QAAXPBGZZ ; has WINAPI (@0)
; public: void __thiscall ATL::<unsigned short,class ATL::<unsigned short,class ATL::<unsigned short>>>::FormatMessageV(unsigned short const *,char **)
?FormatMessageV@?$CStringT@GV?$StrTraitATL@GV?$ChTraitsCRT@G@ATL@@@ATL@@@ATL@@QAEXPBGPAPAD@Z ; has WINAPI (@8)
; public: void __cdecl ATL::<unsigned short,class ATL::<unsigned short,class ATL::<unsigned short>>>::FormatMessageW(unsigned int,...)
?FormatMessageW@?$CStringT@GV?$StrTraitATL@GV?$ChTraitsCRT@G@ATL@@@ATL@@@ATL@@QAAXIZZ ; has WINAPI (@0)
; public: void __cdecl ATL::<unsigned short,class ATL::<unsigned short,class ATL::<unsigned short>>>::FormatMessageW(unsigned short const *,...)
?FormatMessageW@?$CStringT@GV?$StrTraitATL@GV?$ChTraitsCRT@G@ATL@@@ATL@@@ATL@@QAAXPBGZZ ; has WINAPI (@0)
; public: void __thiscall ATL::<unsigned short,class ATL::<unsigned short,class ATL::<unsigned short>>>::FormatV(unsigned short const *,char *)
?FormatV@?$CStringT@GV?$StrTraitATL@GV?$ChTraitsCRT@G@ATL@@@ATL@@@ATL@@QAEXPBGPAD@Z ; has WINAPI (@8)
; public: void __thiscall ATL::<unsigned short,0x0ULL>::FreeExtra(void)
?FreeExtra@?$CSimpleStringT@G$0A@@ATL@@QAEXXZ ; has WINAPI (@0)
; public: virtual void __thiscall CImageData::FreeInstance(void)
?FreeInstance@CImageData@@UAEXXZ ; has WINAPI (@0)
; public: class ATL::<unsigned short,class ATL::<unsigned short,class ATL::<unsigned short>>> __thiscall CLanguage::GetAbbrevName(void)
?GetAbbrevName@CLanguage@@QAE?AV?$CStringT@GV?$StrTraitATL@GV?$ChTraitsCRT@G@ATL@@@ATL@@@ATL@@XZ ; has WINAPI (@4)
; public: class ATL::<unsigned short,class ATL::<unsigned short,class ATL::<unsigned short>>> __thiscall CLocale::GetAbbrevName(void)
?GetAbbrevName@CLocale@@QAE?AV?$CStringT@GV?$StrTraitATL@GV?$ChTraitsCRT@G@ATL@@@ATL@@@ATL@@XZ ; has WINAPI (@4)
; public: int __thiscall ATL::<unsigned short,0x0ULL>::GetAllocLength(void)const 
?GetAllocLength@?$CSimpleStringT@G$0A@@ATL@@QBEHXZ ; has WINAPI (@0)
; public: unsigned short __thiscall ATL::<unsigned short,0x0ULL>::GetAt(int)const 
?GetAt@?$CSimpleStringT@G$0A@@ATL@@QBEGH@Z ; has WINAPI (@4)
; public: unsigned short *__thiscall ATL::<unsigned short,0x0ULL>::GetBuffer(int)
?GetBuffer@?$CSimpleStringT@G$0A@@ATL@@QAEPAGH@Z ; has WINAPI (@4)
; public: unsigned short *__thiscall ATL::<unsigned short,0x0ULL>::GetBuffer(void)
?GetBuffer@?$CSimpleStringT@G$0A@@ATL@@QAEPAGXZ ; has WINAPI (@0)
; public: unsigned short *__thiscall ATL::<unsigned short,0x0ULL>::GetBufferSetLength(int)
?GetBufferSetLength@?$CSimpleStringT@G$0A@@ATL@@QAEPAGH@Z ; has WINAPI (@4)
; public: virtual unsigned short *__thiscall CImageData::GetColumnDataAtIndex(unsigned int)
?GetColumnDataAtIndex@CImageData@@UAEPAGI@Z ; has WINAPI (@4)
; public: virtual unsigned int __thiscall CImageData::GetCount(void)
?GetCount@CImageData@@UAEIXZ ; has WINAPI (@0)
; public: virtual unsigned int __thiscall CLoadDriver::GetCount(void)
?GetCount@CLoadDriver@@UAEIXZ ; has WINAPI (@0)
; public: struct _BLOCKED_REASON **__thiscall ATL::<struct _BLOCKED_REASON *,class ATL::<struct _BLOCKED_REASON *>>::GetData(void)const 
?GetData@?$CSimpleArray@PAU_BLOCKED_REASON@@V?$CSimpleArrayEqualHelper@PAU_BLOCKED_REASON@@@ATL@@@ATL@@QBEPAPAU_BLOCKED_REASON@@XZ ; has WINAPI (@0)
; public: class CLocale **__thiscall ATL::<class CLocale *,class ATL::<class CLocale *>>::GetData(void)const 
?GetData@?$CSimpleArray@PAVCLocale@@V?$CSimpleArrayEqualHelper@PAVCLocale@@@ATL@@@ATL@@QBEPAPAVCLocale@@XZ ; has WINAPI (@0)
; public: class CDriverItem *__thiscall ATL::<class CDriverItem,class ATL::<class CDriverItem>>::GetData(void)const 
?GetData@?$CSimpleArray@VCDriverItem@@V?$CSimpleArrayEqualHelper@VCDriverItem@@@ATL@@@ATL@@QBEPAVCDriverItem@@XZ ; has WINAPI (@0)
; public: class CLanguageItem *__thiscall ATL::<class CLanguageItem,class ATL::<class CLanguageItem>>::GetData(void)const 
?GetData@?$CSimpleArray@VCLanguageItem@@V?$CSimpleArrayEqualHelper@VCLanguageItem@@@ATL@@@ATL@@QBEPAVCLanguageItem@@XZ ; has WINAPI (@0)
; private: struct ATL::CStringData *__thiscall ATL::<unsigned short,0x0ULL>::GetData(void)const 
?GetData@?$CSimpleStringT@G$0A@@ATL@@ABEPAUCStringData@2@XZ ; has WINAPI (@0)
; public: virtual int __thiscall CLoadDriver::GetDefault(void)
?GetDefault@CLoadDriver@@UAEHXZ ; has WINAPI (@0)
; public: virtual class CLanguage __thiscall CLanguages::GetDefaultFallbackLanguage(void)
?GetDefaultFallbackLanguage@CLanguages@@UAE?AVCLanguage@@XZ ; has WINAPI (@4)
; public: virtual unsigned short *__thiscall CImageData::GetDefaultLanguage(void)
?GetDefaultLanguage@CImageData@@UAEPAGXZ ; has WINAPI (@0)
; public: class CKeyboardLayout __thiscall CKeyboardLayouts::GetDefaultLayout(void)
?GetDefaultLayout@CKeyboardLayouts@@QAE?AVCKeyboardLayout@@XZ ; has WINAPI (@4)
; public: virtual unsigned short *__thiscall CImageData::GetDescription(void)
?GetDescription@CImageData@@UAEPAGXZ ; has WINAPI (@0)
; public: virtual int __thiscall CLoadDriver::GetDriverListAsync(class ATL::<unsigned short,class ATL::<unsigned short,class ATL::<unsigned short>>>,int,void(__stdcall *)(void *,int),void *)
?GetDriverListAsync@CLoadDriver@@UAEHV?$CStringT@GV?$StrTraitATL@GV?$ChTraitsCRT@G@ATL@@@ATL@@@ATL@@HP6GXPAXH@Z1@Z ; has WINAPI (@16)
; public: virtual unsigned short *__thiscall CImageData::GetEditionName(void)
?GetEditionName@CImageData@@UAEPAGXZ ; has WINAPI (@0)
; public: int __thiscall ATL::<unsigned short,class ATL::<unsigned short,class ATL::<unsigned short>>>::GetEnvironmentVariableW(unsigned short const *)
?GetEnvironmentVariableW@?$CStringT@GV?$StrTraitATL@GV?$ChTraitsCRT@G@ATL@@@ATL@@@ATL@@QAEHPBG@Z ; has WINAPI (@4)
; public: virtual int __thiscall CImageData::GetFoundationFlag(void)
?GetFoundationFlag@CImageData@@UAEHXZ ; has WINAPI (@0)
; public: virtual int __thiscall CLoadDriver::GetHardwareFilter(void)
?GetHardwareFilter@CLoadDriver@@UAEHXZ ; has WINAPI (@0)
; public: class ATL::<unsigned short,class ATL::<unsigned short,class ATL::<unsigned short>>> __thiscall CLayeredDriver::GetID(void)
?GetID@CLayeredDriver@@QAE?AV?$CStringT@GV?$StrTraitATL@GV?$ChTraitsCRT@G@ATL@@@ATL@@@ATL@@XZ ; has WINAPI (@4)
; public: virtual unsigned short *__thiscall CImageData::GetImageIdentifier(void)
?GetImageIdentifier@CImageData@@UAEPAGXZ ; has WINAPI (@0)
; public: static class IImageData *__stdcall CImageData::GetInstance(void)
?GetInstance@CImageData@@SGPAVIImageData@@XZ ; has WINAPI (@0)
; public: static class ILoadDriver *__stdcall CLoadDriver::GetInstance(void)
?GetInstance@CLoadDriver@@SGPAVILoadDriver@@XZ ; has WINAPI (@0)
; public: static class ATL::<unsigned short,class ATL::<unsigned short,class ATL::<unsigned short>>> __stdcall CInternationalUtils::GetKeyboard(void)
?GetKeyboard@CInternationalUtils@@SG?AV?$CStringT@GV?$StrTraitATL@GV?$ChTraitsCRT@G@ATL@@@ATL@@@ATL@@XZ ; has WINAPI (@4)
; public: static class ATL::<unsigned short,class ATL::<unsigned short,class ATL::<unsigned short>>> __stdcall CInternationalUtils::GetLanguage(void)
?GetLanguage@CInternationalUtils@@SG?AV?$CStringT@GV?$StrTraitATL@GV?$ChTraitsCRT@G@ATL@@@ATL@@@ATL@@XZ ; has WINAPI (@4)
; public: virtual class CLanguage __thiscall CLanguages::GetLanguage(int)
?GetLanguage@CLanguages@@UAE?AVCLanguage@@H@Z ; has WINAPI (@8)
; public: virtual int __thiscall CLanguages::GetLanguageCount(void)
?GetLanguageCount@CLanguages@@UAEHXZ ; has WINAPI (@0)
; public: virtual class CLanguage __thiscall CLanguages::GetLanguageFromLocalizedName(class ATL::<unsigned short,class ATL::<unsigned short,class ATL::<unsigned short>>>)
?GetLanguageFromLocalizedName@CLanguages@@UAE?AVCLanguage@@V?$CStringT@GV?$StrTraitATL@GV?$ChTraitsCRT@G@ATL@@@ATL@@@ATL@@@Z ; has WINAPI (@8)
; public: virtual class CLanguage __thiscall CLanguages::GetLanguageFromNativeDisplayName(class ATL::<unsigned short,class ATL::<unsigned short,class ATL::<unsigned short>>>)
?GetLanguageFromNativeDisplayName@CLanguages@@UAE?AVCLanguage@@V?$CStringT@GV?$StrTraitATL@GV?$ChTraitsCRT@G@ATL@@@ATL@@@ATL@@@Z ; has WINAPI (@8)
; public: virtual class CLanguage __thiscall CLanguages::GetLanguageFromNativeName(class ATL::<unsigned short,class ATL::<unsigned short,class ATL::<unsigned short>>>)
?GetLanguageFromNativeName@CLanguages@@UAE?AVCLanguage@@V?$CStringT@GV?$StrTraitATL@GV?$ChTraitsCRT@G@ATL@@@ATL@@@ATL@@@Z ; has WINAPI (@8)
; public: int __thiscall CLanguages::GetLanguageNativeDisplayNameCount(void)
?GetLanguageNativeDisplayNameCount@CLanguages@@QAEHXZ ; has WINAPI (@0)
; public: virtual class CLayeredDriver __thiscall CLayeredDrivers::GetLayeredDriver(int)
?GetLayeredDriver@CLayeredDrivers@@UAE?AVCLayeredDriver@@H@Z ; has WINAPI (@8)
; public: virtual class CLayeredDriver __thiscall CLayeredDrivers::GetLayeredDriver(class ATL::<unsigned short,class ATL::<unsigned short,class ATL::<unsigned short>>>)
?GetLayeredDriver@CLayeredDrivers@@UAE?AVCLayeredDriver@@V?$CStringT@GV?$StrTraitATL@GV?$ChTraitsCRT@G@ATL@@@ATL@@@ATL@@@Z ; has WINAPI (@8)
; public: virtual int __thiscall CLayeredDrivers::GetLayeredDriverCount(void)
?GetLayeredDriverCount@CLayeredDrivers@@UAEHXZ ; has WINAPI (@0)
; public: virtual class CKeyboardLayout __thiscall CKeyboardLayouts::GetLayout(int)
?GetLayout@CKeyboardLayouts@@UAE?AVCKeyboardLayout@@H@Z ; has WINAPI (@8)
; public: virtual class CKeyboardLayout __thiscall CKeyboardLayouts::GetLayout(class ATL::<unsigned short,class ATL::<unsigned short,class ATL::<unsigned short>>>)
?GetLayout@CKeyboardLayouts@@UAE?AVCKeyboardLayout@@V?$CStringT@GV?$StrTraitATL@GV?$ChTraitsCRT@G@ATL@@@ATL@@@ATL@@@Z ; has WINAPI (@8)
; public: virtual int __thiscall CKeyboardLayouts::GetLayoutCount(void)
?GetLayoutCount@CKeyboardLayouts@@UAEHXZ ; has WINAPI (@0)
; public: class ATL::<unsigned short,class ATL::<unsigned short,class ATL::<unsigned short>>> __thiscall CKeyboardLayout::GetLayoutID(void)
?GetLayoutID@CKeyboardLayout@@QAE?AV?$CStringT@GV?$StrTraitATL@GV?$ChTraitsCRT@G@ATL@@@ATL@@@ATL@@XZ ; has WINAPI (@4)
; public: class ATL::<unsigned short,class ATL::<unsigned short,class ATL::<unsigned short>>> __thiscall CKeyboardLayout::GetLayoutName(void)
?GetLayoutName@CKeyboardLayout@@QAE?AV?$CStringT@GV?$StrTraitATL@GV?$ChTraitsCRT@G@ATL@@@ATL@@@ATL@@XZ ; has WINAPI (@4)
; public: int __thiscall ATL::<unsigned short,0x0ULL>::GetLength(void)const 
?GetLength@?$CSimpleStringT@G$0A@@ATL@@QBEHXZ ; has WINAPI (@0)
; public: static class ATL::<unsigned short,class ATL::<unsigned short,class ATL::<unsigned short>>> __stdcall CInternationalUtils::GetLocale(void)
?GetLocale@CInternationalUtils@@SG?AV?$CStringT@GV?$StrTraitATL@GV?$ChTraitsCRT@G@ATL@@@ATL@@@ATL@@XZ ; has WINAPI (@4)
; public: virtual class CLocale __thiscall CLocales::GetLocale(int)
?GetLocale@CLocales@@UAE?AVCLocale@@H@Z ; has WINAPI (@8)
; public: virtual class CLocale __thiscall CLocales::GetLocale(class ATL::<unsigned short,class ATL::<unsigned short,class ATL::<unsigned short>>>)
?GetLocale@CLocales@@UAE?AVCLocale@@V?$CStringT@GV?$StrTraitATL@GV?$ChTraitsCRT@G@ATL@@@ATL@@@ATL@@@Z ; has WINAPI (@8)
; public: virtual int __thiscall CLocales::GetLocaleCount(void)
?GetLocaleCount@CLocales@@UAEHXZ ; has WINAPI (@0)
; public: class ATL::<unsigned short,class ATL::<unsigned short,class ATL::<unsigned short>>> __thiscall CLocale::GetLocaleName(void)
?GetLocaleName@CLocale@@QAE?AV?$CStringT@GV?$StrTraitATL@GV?$ChTraitsCRT@G@ATL@@@ATL@@@ATL@@XZ ; has WINAPI (@4)
; public: class ATL::<unsigned short,class ATL::<unsigned short,class ATL::<unsigned short>>> __thiscall CLanguage::GetLocalizedName(void)
?GetLocalizedName@CLanguage@@QAE?AV?$CStringT@GV?$StrTraitATL@GV?$ChTraitsCRT@G@ATL@@@ATL@@@ATL@@XZ ; has WINAPI (@4)
; public: struct ATL::IAtlStringMgr *__thiscall ATL::<unsigned short,0x0ULL>::GetManager(void)const 
?GetManager@?$CSimpleStringT@G$0A@@ATL@@QBEPAUIAtlStringMgr@2@XZ ; has WINAPI (@0)
; public: struct ATL::IAtlStringMgr *__thiscall ATL::<unsigned short,class ATL::<unsigned short,class ATL::<unsigned short>>>::GetManager(void)const 
?GetManager@?$CStringT@GV?$StrTraitATL@GV?$ChTraitsCRT@G@ATL@@@ATL@@@ATL@@QBEPAUIAtlStringMgr@2@XZ ; has WINAPI (@0)
; public: class ATL::<unsigned short,class ATL::<unsigned short,class ATL::<unsigned short>>> __thiscall CLayeredDriver::GetName(void)
?GetName@CLayeredDriver@@QAE?AV?$CStringT@GV?$StrTraitATL@GV?$ChTraitsCRT@G@ATL@@@ATL@@@ATL@@XZ ; has WINAPI (@4)
; public: class ATL::<unsigned short,class ATL::<unsigned short,class ATL::<unsigned short>>> __thiscall CLanguage::GetNativeDisplayName(void)
?GetNativeDisplayName@CLanguage@@QAE?AV?$CStringT@GV?$StrTraitATL@GV?$ChTraitsCRT@G@ATL@@@ATL@@@ATL@@XZ ; has WINAPI (@4)
; public: class ATL::<unsigned short,class ATL::<unsigned short,class ATL::<unsigned short>>> __thiscall CLanguage::GetNativeName(void)
?GetNativeName@CLanguage@@QAE?AV?$CStringT@GV?$StrTraitATL@GV?$ChTraitsCRT@G@ATL@@@ATL@@@ATL@@XZ ; has WINAPI (@4)
; public: unsigned short const *__thiscall PIDUtilStringView::GetPidStr(void)
?GetPidStr@PIDUtilStringView@@QAEPBGXZ ; has WINAPI (@0)
; public: virtual int __thiscall CProductKeyModule::GetShowFlag(void)
?GetShowFlag@CProductKeyModule@@UAEHXZ ; has WINAPI (@0)
; public: virtual int __thiscall CLoadDriver::GetShowFlagEarlyF6(void)
?GetShowFlagEarlyF6@CLoadDriver@@UAEHXZ ; has WINAPI (@0)
; public: static int __stdcall CInternationalUtils::GetShowLangKeyboard(void)
?GetShowLangKeyboard@CInternationalUtils@@SGHXZ ; has WINAPI (@0)
; public: static int __stdcall CInternationalUtils::GetShowLangNeutral(void)
?GetShowLangNeutral@CInternationalUtils@@SGHXZ ; has WINAPI (@0)
; public: int __thiscall ATL::<struct _BLOCKED_REASON *,class ATL::<struct _BLOCKED_REASON *>>::GetSize(void)const 
?GetSize@?$CSimpleArray@PAU_BLOCKED_REASON@@V?$CSimpleArrayEqualHelper@PAU_BLOCKED_REASON@@@ATL@@@ATL@@QBEHXZ ; has WINAPI (@0)
; public: int __thiscall ATL::<class CLocale *,class ATL::<class CLocale *>>::GetSize(void)const 
?GetSize@?$CSimpleArray@PAVCLocale@@V?$CSimpleArrayEqualHelper@PAVCLocale@@@ATL@@@ATL@@QBEHXZ ; has WINAPI (@0)
; public: int __thiscall ATL::<class CDriverItem,class ATL::<class CDriverItem>>::GetSize(void)const 
?GetSize@?$CSimpleArray@VCDriverItem@@V?$CSimpleArrayEqualHelper@VCDriverItem@@@ATL@@@ATL@@QBEHXZ ; has WINAPI (@0)
; public: int __thiscall ATL::<class CLanguageItem,class ATL::<class CLanguageItem>>::GetSize(void)const 
?GetSize@?$CSimpleArray@VCLanguageItem@@V?$CSimpleArrayEqualHelper@VCLanguageItem@@@ATL@@@ATL@@QBEHXZ ; has WINAPI (@0)
; public: unsigned short const *__thiscall ATL::<unsigned short,0x0ULL>::GetString(void)const 
?GetString@?$CSimpleStringT@G$0A@@ATL@@QBEPBGXZ ; has WINAPI (@0)
; public: unsigned short const *__thiscall MyUtilString::GetString(void)
?GetString@MyUtilString@@QAEPBGXZ ; has WINAPI (@0)
; public: virtual int __thiscall CImageData::Initialize(void *)
?Initialize@CImageData@@UAEHPAX@Z ; has WINAPI (@4)
; public: virtual int __thiscall CKeyboardLayouts::Initialize(class ATL::<unsigned short,class ATL::<unsigned short,class ATL::<unsigned short>>>,class ATL::<unsigned short,class ATL::<unsigned short,class ATL::<unsigned short>>>)
?Initialize@CKeyboardLayouts@@UAEHV?$CStringT@GV?$StrTraitATL@GV?$ChTraitsCRT@G@ATL@@@ATL@@@ATL@@0@Z ; has WINAPI (@8)
; public: virtual int __thiscall CLanguages::Initialize(void)
?Initialize@CLanguages@@UAEHXZ ; has WINAPI (@0)
; public: virtual int __thiscall CLayeredDrivers::Initialize(class ATL::<unsigned short,class ATL::<unsigned short,class ATL::<unsigned short>>>,class ATL::<unsigned short,class ATL::<unsigned short,class ATL::<unsigned short>>>)
?Initialize@CLayeredDrivers@@UAEHV?$CStringT@GV?$StrTraitATL@GV?$ChTraitsCRT@G@ATL@@@ATL@@@ATL@@0@Z ; has WINAPI (@8)
; public: virtual int __thiscall CLoadDriver::Initialize(void *)
?Initialize@CLoadDriver@@UAEHPAX@Z ; has WINAPI (@4)
; public: virtual int __thiscall CLocales::Initialize(class ATL::<unsigned short,class ATL::<unsigned short,class ATL::<unsigned short>>>)
?Initialize@CLocales@@UAEHV?$CStringT@GV?$StrTraitATL@GV?$ChTraitsCRT@G@ATL@@@ATL@@@ATL@@@Z ; has WINAPI (@4)
; public: virtual int __thiscall CProductKeyModule::Initialize(void *)
?Initialize@CProductKeyModule@@UAEHPAX@Z ; has WINAPI (@4)
; public: int __thiscall ATL::<unsigned short,class ATL::<unsigned short,class ATL::<unsigned short>>>::Insert(int,unsigned short)
?Insert@?$CStringT@GV?$StrTraitATL@GV?$ChTraitsCRT@G@ATL@@@ATL@@@ATL@@QAEHHG@Z ; has WINAPI (@8)
; public: int __thiscall ATL::<unsigned short,class ATL::<unsigned short,class ATL::<unsigned short>>>::Insert(int,unsigned short const *)
?Insert@?$CStringT@GV?$StrTraitATL@GV?$ChTraitsCRT@G@ATL@@@ATL@@@ATL@@QAEHHPBG@Z ; has WINAPI (@8)
; public: int __thiscall MyUtilString::InsertChar(int,unsigned short)
?InsertChar@MyUtilString@@QAEHHG@Z ; has WINAPI (@8)
; public: int __thiscall MyUtilString::InsertString(int,unsigned short const *)
?InsertString@MyUtilString@@QAEHHPBG@Z ; has WINAPI (@8)
; public: int __thiscall PIDUtilStringView::InsertString(int,unsigned short const *)
?InsertString@PIDUtilStringView@@QAEHHPBG@Z ; has WINAPI (@8)
; public: virtual int __thiscall CLoadDriver::InstallDriver(long,void(__stdcall *)(void *,int),void *)
?InstallDriver@CLoadDriver@@UAEHJP6GXPAXH@Z0@Z ; has WINAPI (@12)
; public: void __thiscall ATL::<struct _BLOCKED_REASON *,class ATL::<struct _BLOCKED_REASON *>>::InternalSetAtIndex(int,struct _BLOCKED_REASON *const &)
?InternalSetAtIndex@?$CSimpleArray@PAU_BLOCKED_REASON@@V?$CSimpleArrayEqualHelper@PAU_BLOCKED_REASON@@@ATL@@@ATL@@QAEXHABQAU_BLOCKED_REASON@@@Z ; has WINAPI (@8)
; public: void __thiscall ATL::<class CLocale *,class ATL::<class CLocale *>>::InternalSetAtIndex(int,class CLocale *const &)
?InternalSetAtIndex@?$CSimpleArray@PAVCLocale@@V?$CSimpleArrayEqualHelper@PAVCLocale@@@ATL@@@ATL@@QAEXHABQAVCLocale@@@Z ; has WINAPI (@8)
; public: void __thiscall ATL::<class CDriverItem,class ATL::<class CDriverItem>>::InternalSetAtIndex(int,class CDriverItem const &)
?InternalSetAtIndex@?$CSimpleArray@VCDriverItem@@V?$CSimpleArrayEqualHelper@VCDriverItem@@@ATL@@@ATL@@QAEXHABVCDriverItem@@@Z ; has WINAPI (@8)
; public: void __thiscall ATL::<class CLanguageItem,class ATL::<class CLanguageItem>>::InternalSetAtIndex(int,class CLanguageItem const &)
?InternalSetAtIndex@?$CSimpleArray@VCLanguageItem@@V?$CSimpleArrayEqualHelper@VCLanguageItem@@@ATL@@@ATL@@QAEXHABVCLanguageItem@@@Z ; has WINAPI (@8)
; private: int __thiscall CProductKeyModule::IsDigitalMarkerKeyValid(void)
?IsDigitalMarkerKeyValid@CProductKeyModule@@AAEHXZ ; has WINAPI (@0)
; public: bool __thiscall ATL::<unsigned short,0x0ULL>::IsEmpty(void)const 
?IsEmpty@?$CSimpleStringT@G$0A@@ATL@@QBE_NXZ ; has WINAPI (@0)
; public: static int __stdcall CInternationalUtils::IsLanguageEnabled(class ATL::<unsigned short,class ATL::<unsigned short,class ATL::<unsigned short>>>,class ATL::<unsigned short,class ATL::<unsigned short,class ATL::<unsigned short>>>)
?IsLanguageEnabled@CInternationalUtils@@SGHV?$CStringT@GV?$StrTraitATL@GV?$ChTraitsCRT@G@ATL@@@ATL@@@ATL@@0@Z ; has WINAPI (@8)
; private: int __thiscall CProductKeyModule::IsVolumeLicensingKeyValid(void)
?IsVolumeLicensingKeyValid@CProductKeyModule@@AAEHXZ ; has WINAPI (@0)
; public: class ATL::<unsigned short,class ATL::<unsigned short,class ATL::<unsigned short>>> __thiscall ATL::<unsigned short,class ATL::<unsigned short,class ATL::<unsigned short>>>::Left(int)const 
?Left@?$CStringT@GV?$StrTraitATL@GV?$ChTraitsCRT@G@ATL@@@ATL@@@ATL@@QBE?AV12@H@Z ; has WINAPI (@8)
; public: int __thiscall ATL::<unsigned short,class ATL::<unsigned short,class ATL::<unsigned short>>>::LoadStringW(unsigned int)
?LoadStringW@?$CStringT@GV?$StrTraitATL@GV?$ChTraitsCRT@G@ATL@@@ATL@@@ATL@@QAEHI@Z ; has WINAPI (@4)
; public: int __thiscall ATL::<unsigned short,class ATL::<unsigned short,class ATL::<unsigned short>>>::LoadStringW(struct HINSTANCE__ *,unsigned int)
?LoadStringW@?$CStringT@GV?$StrTraitATL@GV?$ChTraitsCRT@G@ATL@@@ATL@@@ATL@@QAEHPAUHINSTANCE__@@I@Z ; has WINAPI (@8)
; public: int __thiscall ATL::<unsigned short,class ATL::<unsigned short,class ATL::<unsigned short>>>::LoadStringW(struct HINSTANCE__ *,unsigned int,unsigned short)
?LoadStringW@?$CStringT@GV?$StrTraitATL@GV?$ChTraitsCRT@G@ATL@@@ATL@@@ATL@@QAEHPAUHINSTANCE__@@IG@Z ; has WINAPI (@12)
; public: unsigned short *__thiscall ATL::<unsigned short,0x0ULL>::LockBuffer(void)
?LockBuffer@?$CSimpleStringT@G$0A@@ATL@@QAEPAGXZ ; has WINAPI (@0)
; public: class ATL::<unsigned short,class ATL::<unsigned short,class ATL::<unsigned short>>> &__thiscall ATL::<unsigned short,class ATL::<unsigned short,class ATL::<unsigned short>>>::MakeLower(void)
?MakeLower@?$CStringT@GV?$StrTraitATL@GV?$ChTraitsCRT@G@ATL@@@ATL@@@ATL@@QAEAAV12@XZ ; has WINAPI (@0)
; public: class ATL::<unsigned short,class ATL::<unsigned short,class ATL::<unsigned short>>> &__thiscall ATL::<unsigned short,class ATL::<unsigned short,class ATL::<unsigned short>>>::MakeReverse(void)
?MakeReverse@?$CStringT@GV?$StrTraitATL@GV?$ChTraitsCRT@G@ATL@@@ATL@@@ATL@@QAEAAV12@XZ ; has WINAPI (@0)
; public: class ATL::<unsigned short,class ATL::<unsigned short,class ATL::<unsigned short>>> &__thiscall ATL::<unsigned short,class ATL::<unsigned short,class ATL::<unsigned short>>>::MakeUpper(void)
?MakeUpper@?$CStringT@GV?$StrTraitATL@GV?$ChTraitsCRT@G@ATL@@@ATL@@@ATL@@QAEAAV12@XZ ; has WINAPI (@0)
; public: class ATL::<unsigned short,class ATL::<unsigned short,class ATL::<unsigned short>>> __thiscall ATL::<unsigned short,class ATL::<unsigned short,class ATL::<unsigned short>>>::Mid(int)const 
?Mid@?$CStringT@GV?$StrTraitATL@GV?$ChTraitsCRT@G@ATL@@@ATL@@@ATL@@QBE?AV12@H@Z ; has WINAPI (@8)
; public: class ATL::<unsigned short,class ATL::<unsigned short,class ATL::<unsigned short>>> __thiscall ATL::<unsigned short,class ATL::<unsigned short,class ATL::<unsigned short>>>::Mid(int,int)const 
?Mid@?$CStringT@GV?$StrTraitATL@GV?$ChTraitsCRT@G@ATL@@@ATL@@@ATL@@QBE?AV12@HH@Z ; has WINAPI (@12)
; public: void __thiscall ATL::<unsigned short,class ATL::<unsigned short,class ATL::<unsigned short>>>::OemToCharA(void)
?OemToCharA@?$CStringT@GV?$StrTraitATL@GV?$ChTraitsCRT@G@ATL@@@ATL@@@ATL@@QAEXXZ ; Check!!! Couldn't determine function argument count. Function doesn't return. 
; public: virtual unsigned int __thiscall CProductKeyModule::OnCallback(struct WDS_DATA const *)
?OnCallback@CProductKeyModule@@UAEIPBUWDS_DATA@@@Z ; has WINAPI (@4)
; private: int __thiscall CLoadDriver::PopulateDriverList(void)
?PopulateDriverList@CLoadDriver@@AAEHXZ ; has WINAPI (@0)
; public: virtual int __thiscall CImageData::PopulateImageData(unsigned short const *,unsigned short *,int,struct HINSTANCE__ *)
?PopulateImageData@CImageData@@UAEHPBGPAGHPAUHINSTANCE__@@@Z ; has WINAPI (@16)
; public: void __thiscall ATL::<unsigned short,0x0ULL>::Preallocate(int)
?Preallocate@?$CSimpleStringT@G$0A@@ATL@@QAEXH@Z ; has WINAPI (@4)
; private: void __thiscall ATL::<unsigned short,0x0ULL>::PrepareWrite2(int)
?PrepareWrite2@?$CSimpleStringT@G$0A@@ATL@@AAEXH@Z ; has WINAPI (@4)
; private: unsigned short *__thiscall ATL::<unsigned short,0x0ULL>::PrepareWrite(int)
?PrepareWrite@?$CSimpleStringT@G$0A@@ATL@@AAEPAGH@Z ; has WINAPI (@4)
; public: static long __stdcall CInternationalUtils::PublishLanguageGatherEvent(void *)
?PublishLanguageGatherEvent@CInternationalUtils@@SGJPAX@Z ; has WINAPI (@4)
; private: void __thiscall ATL::<unsigned short,0x0ULL>::Reallocate(int)
?Reallocate@?$CSimpleStringT@G$0A@@ATL@@AAEXH@Z ; has WINAPI (@4)
; public: void __thiscall ATL::<unsigned short,0x0ULL>::ReleaseBuffer(int)
?ReleaseBuffer@?$CSimpleStringT@G$0A@@ATL@@QAEXH@Z ; has WINAPI (@4)
; public: void __thiscall ATL::<unsigned short,0x0ULL>::ReleaseBufferSetLength(int)
?ReleaseBufferSetLength@?$CSimpleStringT@G$0A@@ATL@@QAEXH@Z ; has WINAPI (@4)
; public: int __thiscall ATL::<struct _BLOCKED_REASON *,class ATL::<struct _BLOCKED_REASON *>>::Remove(struct _BLOCKED_REASON *const &)
?Remove@?$CSimpleArray@PAU_BLOCKED_REASON@@V?$CSimpleArrayEqualHelper@PAU_BLOCKED_REASON@@@ATL@@@ATL@@QAEHABQAU_BLOCKED_REASON@@@Z ; has WINAPI (@4)
; public: int __thiscall ATL::<class CLocale *,class ATL::<class CLocale *>>::Remove(class CLocale *const &)
?Remove@?$CSimpleArray@PAVCLocale@@V?$CSimpleArrayEqualHelper@PAVCLocale@@@ATL@@@ATL@@QAEHABQAVCLocale@@@Z ; has WINAPI (@4)
; public: int __thiscall ATL::<class CDriverItem,class ATL::<class CDriverItem>>::Remove(class CDriverItem const &)
?Remove@?$CSimpleArray@VCDriverItem@@V?$CSimpleArrayEqualHelper@VCDriverItem@@@ATL@@@ATL@@QAEHABVCDriverItem@@@Z ; has WINAPI (@4)
; public: int __thiscall ATL::<class CLanguageItem,class ATL::<class CLanguageItem>>::Remove(class CLanguageItem const &)
?Remove@?$CSimpleArray@VCLanguageItem@@V?$CSimpleArrayEqualHelper@VCLanguageItem@@@ATL@@@ATL@@QAEHABVCLanguageItem@@@Z ; has WINAPI (@4)
; public: int __thiscall ATL::<unsigned short,class ATL::<unsigned short,class ATL::<unsigned short>>>::Remove(unsigned short)
?Remove@?$CStringT@GV?$StrTraitATL@GV?$ChTraitsCRT@G@ATL@@@ATL@@@ATL@@QAEHG@Z ; has WINAPI (@4)
; public: void __thiscall ATL::<struct _BLOCKED_REASON *,class ATL::<struct _BLOCKED_REASON *>>::RemoveAll(void)
?RemoveAll@?$CSimpleArray@PAU_BLOCKED_REASON@@V?$CSimpleArrayEqualHelper@PAU_BLOCKED_REASON@@@ATL@@@ATL@@QAEXXZ ; has WINAPI (@0)
; public: void __thiscall ATL::<class CLocale *,class ATL::<class CLocale *>>::RemoveAll(void)
?RemoveAll@?$CSimpleArray@PAVCLocale@@V?$CSimpleArrayEqualHelper@PAVCLocale@@@ATL@@@ATL@@QAEXXZ ; has WINAPI (@0)
; public: void __thiscall ATL::<class CDriverItem,class ATL::<class CDriverItem>>::RemoveAll(void)
?RemoveAll@?$CSimpleArray@VCDriverItem@@V?$CSimpleArrayEqualHelper@VCDriverItem@@@ATL@@@ATL@@QAEXXZ ; has WINAPI (@0)
; public: void __thiscall ATL::<class CLanguageItem,class ATL::<class CLanguageItem>>::RemoveAll(void)
?RemoveAll@?$CSimpleArray@VCLanguageItem@@V?$CSimpleArrayEqualHelper@VCLanguageItem@@@ATL@@@ATL@@QAEXXZ ; has WINAPI (@0)
; public: int __thiscall ATL::<struct _BLOCKED_REASON *,class ATL::<struct _BLOCKED_REASON *>>::RemoveAt(int)
?RemoveAt@?$CSimpleArray@PAU_BLOCKED_REASON@@V?$CSimpleArrayEqualHelper@PAU_BLOCKED_REASON@@@ATL@@@ATL@@QAEHH@Z ; has WINAPI (@4)
; public: int __thiscall ATL::<class CLocale *,class ATL::<class CLocale *>>::RemoveAt(int)
?RemoveAt@?$CSimpleArray@PAVCLocale@@V?$CSimpleArrayEqualHelper@PAVCLocale@@@ATL@@@ATL@@QAEHH@Z ; has WINAPI (@4)
; public: int __thiscall ATL::<class CDriverItem,class ATL::<class CDriverItem>>::RemoveAt(int)
?RemoveAt@?$CSimpleArray@VCDriverItem@@V?$CSimpleArrayEqualHelper@VCDriverItem@@@ATL@@@ATL@@QAEHH@Z ; has WINAPI (@4)
; public: int __thiscall ATL::<class CLanguageItem,class ATL::<class CLanguageItem>>::RemoveAt(int)
?RemoveAt@?$CSimpleArray@VCLanguageItem@@V?$CSimpleArrayEqualHelper@VCLanguageItem@@@ATL@@@ATL@@QAEHH@Z ; has WINAPI (@4)
; public: int __thiscall MyUtilString::RemoveChar(int)
?RemoveChar@MyUtilString@@QAEHH@Z ; has WINAPI (@4)
; public: int __thiscall MyUtilString::RemoveString(int,int)
?RemoveString@MyUtilString@@QAEHHH@Z ; has WINAPI (@8)
; public: int __thiscall PIDUtilStringView::RemoveString(int,int,int)
?RemoveString@PIDUtilStringView@@QAEHHHH@Z ; has WINAPI (@12)
; public: int __thiscall ATL::<unsigned short,class ATL::<unsigned short,class ATL::<unsigned short>>>::Replace(unsigned short,unsigned short)
?Replace@?$CStringT@GV?$StrTraitATL@GV?$ChTraitsCRT@G@ATL@@@ATL@@@ATL@@QAEHGG@Z ; has WINAPI (@8)
; public: int __thiscall ATL::<unsigned short,class ATL::<unsigned short,class ATL::<unsigned short>>>::Replace(unsigned short const *,unsigned short const *)
?Replace@?$CStringT@GV?$StrTraitATL@GV?$ChTraitsCRT@G@ATL@@@ATL@@@ATL@@QAEHPBG0@Z ; has WINAPI (@8)
; public: int __thiscall PIDUtilStringView::ReplaceString(int,int,unsigned short const *)
?ReplaceString@PIDUtilStringView@@QAEHHHPBG@Z ; has WINAPI (@12)
; public: int __thiscall ATL::<unsigned short,class ATL::<unsigned short,class ATL::<unsigned short>>>::ReverseFind(unsigned short)const 
?ReverseFind@?$CStringT@GV?$StrTraitATL@GV?$ChTraitsCRT@G@ATL@@@ATL@@@ATL@@QBEHG@Z ; has WINAPI (@4)
; public: class ATL::<unsigned short,class ATL::<unsigned short,class ATL::<unsigned short>>> __thiscall ATL::<unsigned short,class ATL::<unsigned short,class ATL::<unsigned short>>>::Right(int)const 
?Right@?$CStringT@GV?$StrTraitATL@GV?$ChTraitsCRT@G@ATL@@@ATL@@@ATL@@QBE?AV12@H@Z ; has WINAPI (@8)
; public: virtual int __thiscall CProductKeyModule::SetActivation(unsigned long)
?SetActivation@CProductKeyModule@@UAEHK@Z ; has WINAPI (@4)
; public: void __thiscall ATL::<unsigned short,0x0ULL>::SetAt(int,unsigned short)
?SetAt@?$CSimpleStringT@G$0A@@ATL@@QAEXHG@Z ; has WINAPI (@8)
; public: int __thiscall ATL::<struct _BLOCKED_REASON *,class ATL::<struct _BLOCKED_REASON *>>::SetAtIndex(int,struct _BLOCKED_REASON *const &)
?SetAtIndex@?$CSimpleArray@PAU_BLOCKED_REASON@@V?$CSimpleArrayEqualHelper@PAU_BLOCKED_REASON@@@ATL@@@ATL@@QAEHHABQAU_BLOCKED_REASON@@@Z ; has WINAPI (@8)
; public: int __thiscall ATL::<class CLocale *,class ATL::<class CLocale *>>::SetAtIndex(int,class CLocale *const &)
?SetAtIndex@?$CSimpleArray@PAVCLocale@@V?$CSimpleArrayEqualHelper@PAVCLocale@@@ATL@@@ATL@@QAEHHABQAVCLocale@@@Z ; has WINAPI (@8)
; public: int __thiscall ATL::<class CDriverItem,class ATL::<class CDriverItem>>::SetAtIndex(int,class CDriverItem const &)
?SetAtIndex@?$CSimpleArray@VCDriverItem@@V?$CSimpleArrayEqualHelper@VCDriverItem@@@ATL@@@ATL@@QAEHHABVCDriverItem@@@Z ; has WINAPI (@8)
; public: int __thiscall ATL::<class CLanguageItem,class ATL::<class CLanguageItem>>::SetAtIndex(int,class CLanguageItem const &)
?SetAtIndex@?$CSimpleArray@VCLanguageItem@@V?$CSimpleArrayEqualHelper@VCLanguageItem@@@ATL@@@ATL@@QAEHHABVCLanguageItem@@@Z ; has WINAPI (@8)
; public: virtual void __thiscall CImageData::SetEditionName(unsigned short *)
?SetEditionName@CImageData@@UAEXPAG@Z ; has WINAPI (@4)
; public: virtual void __thiscall CImageData::SetFoundationFlag(int)
?SetFoundationFlag@CImageData@@UAEXH@Z ; has WINAPI (@4)
; public: virtual int __thiscall CLoadDriver::SetHardwareFilter(int)
?SetHardwareFilter@CLoadDriver@@UAEHH@Z ; has WINAPI (@4)
; public: static int __stdcall CInternationalUtils::SetHideOOBELang(class ATL::<unsigned short,class ATL::<unsigned short,class ATL::<unsigned short>>>)
?SetHideOOBELang@CInternationalUtils@@SGHV?$CStringT@GV?$StrTraitATL@GV?$ChTraitsCRT@G@ATL@@@ATL@@@ATL@@@Z ; has WINAPI (@4)
; public: static void __stdcall CImageData::SetInstance(class IImageData *)
?SetInstance@CImageData@@SGXPAVIImageData@@@Z ; has WINAPI (@4)
; public: static void __stdcall CLoadDriver::SetInstance(class ILoadDriver *)
?SetInstance@CLoadDriver@@SGXPAVILoadDriver@@@Z ; has WINAPI (@4)
; private: void __thiscall ATL::<unsigned short,0x0ULL>::SetLength(int)
?SetLength@?$CSimpleStringT@G$0A@@ATL@@AAEXH@Z ; has WINAPI (@4)
; public: virtual int __thiscall CLayeredDrivers::SetLocale(class ATL::<unsigned short,class ATL::<unsigned short,class ATL::<unsigned short>>>)
?SetLocale@CLayeredDrivers@@UAEHV?$CStringT@GV?$StrTraitATL@GV?$ChTraitsCRT@G@ATL@@@ATL@@@ATL@@@Z ; has WINAPI (@4)
; public: void __thiscall ATL::<unsigned short,0x0ULL>::SetManager(struct ATL::IAtlStringMgr *)
?SetManager@?$CSimpleStringT@G$0A@@ATL@@QAEXPAUIAtlStringMgr@2@@Z ; has WINAPI (@4)
; private: void __thiscall CProductKeyModule::SetProductKey(class ATL::<unsigned short,class ATL::<unsigned short,class ATL::<unsigned short>>>)
?SetProductKey@CProductKeyModule@@AAEXV?$CStringT@GV?$StrTraitATL@GV?$ChTraitsCRT@G@ATL@@@ATL@@@ATL@@@Z ; has WINAPI (@4)
; public: void __thiscall ATL::<unsigned short,0x0ULL>::SetString(unsigned short const *)
?SetString@?$CSimpleStringT@G$0A@@ATL@@QAEXPBG@Z ; has WINAPI (@4)
; public: void __thiscall ATL::<unsigned short,0x0ULL>::SetString(unsigned short const *,int)
?SetString@?$CSimpleStringT@G$0A@@ATL@@QAEXPBGH@Z ; has WINAPI (@8)
; public: unsigned short *__thiscall ATL::<unsigned short,class ATL::<unsigned short,class ATL::<unsigned short>>>::SetSysString(unsigned short **)const 
?SetSysString@?$CStringT@GV?$StrTraitATL@GV?$ChTraitsCRT@G@ATL@@@ATL@@@ATL@@QBEPAGPAPAG@Z ; has WINAPI (@4)
; public: static int __stdcall CInternationalUtils::SetTargetKeyboard(class ATL::<unsigned short,class ATL::<unsigned short,class ATL::<unsigned short>>>)
?SetTargetKeyboard@CInternationalUtils@@SGHV?$CStringT@GV?$StrTraitATL@GV?$ChTraitsCRT@G@ATL@@@ATL@@@ATL@@@Z ; has WINAPI (@4)
; public: static int __stdcall CInternationalUtils::SetTargetLanguage(class ATL::<unsigned short,class ATL::<unsigned short,class ATL::<unsigned short>>>)
?SetTargetLanguage@CInternationalUtils@@SGHV?$CStringT@GV?$StrTraitATL@GV?$ChTraitsCRT@G@ATL@@@ATL@@@ATL@@@Z ; has WINAPI (@4)
; public: static int __stdcall CInternationalUtils::SetTargetLayeredDriver(class ATL::<unsigned short,class ATL::<unsigned short,class ATL::<unsigned short>>>)
?SetTargetLayeredDriver@CInternationalUtils@@SGHV?$CStringT@GV?$StrTraitATL@GV?$ChTraitsCRT@G@ATL@@@ATL@@@ATL@@@Z ; has WINAPI (@4)
; public: static int __stdcall CInternationalUtils::SetTargetLocale(class ATL::<unsigned short,class ATL::<unsigned short,class ATL::<unsigned short>>>)
?SetTargetLocale@CInternationalUtils@@SGHV?$CStringT@GV?$StrTraitATL@GV?$ChTraitsCRT@G@ATL@@@ATL@@@ATL@@@Z ; has WINAPI (@4)
; public: static int __stdcall CInternationalUtils::SetUILanguage(class ATL::<unsigned short,class ATL::<unsigned short,class ATL::<unsigned short>>>)
?SetUILanguage@CInternationalUtils@@SGHV?$CStringT@GV?$StrTraitATL@GV?$ChTraitsCRT@G@ATL@@@ATL@@@ATL@@@Z ; has WINAPI (@4)
; public: virtual int __thiscall CKeyboardLayouts::SetUILanguage(class ATL::<unsigned short,class ATL::<unsigned short,class ATL::<unsigned short>>>)
?SetUILanguage@CKeyboardLayouts@@UAEHV?$CStringT@GV?$StrTraitATL@GV?$ChTraitsCRT@G@ATL@@@ATL@@@ATL@@@Z ; has WINAPI (@4)
; public: virtual int __thiscall CLanguages::SetUILanguage(class ATL::<unsigned short,class ATL::<unsigned short,class ATL::<unsigned short>>>)
?SetUILanguage@CLanguages@@UAEHV?$CStringT@GV?$StrTraitATL@GV?$ChTraitsCRT@G@ATL@@@ATL@@@ATL@@@Z ; has WINAPI (@4)
; public: virtual int __thiscall CLayeredDrivers::SetUILanguage(class ATL::<unsigned short,class ATL::<unsigned short,class ATL::<unsigned short>>>)
?SetUILanguage@CLayeredDrivers@@UAEHV?$CStringT@GV?$StrTraitATL@GV?$ChTraitsCRT@G@ATL@@@ATL@@@ATL@@@Z ; has WINAPI (@4)
; public: virtual int __thiscall CLocales::SetUILanguage(class ATL::<unsigned short,class ATL::<unsigned short,class ATL::<unsigned short>>>)
?SetUILanguage@CLocales@@UAEHV?$CStringT@GV?$StrTraitATL@GV?$ChTraitsCRT@G@ATL@@@ATL@@@ATL@@@Z ; has WINAPI (@4)
; public: void *__thiscall COSK::ShowOSK(int,unsigned short *,unsigned short *)
?ShowOSK@COSK@@QAEPAXHPAG0@Z ; has WINAPI (@12)
; public: class ATL::<unsigned short,class ATL::<unsigned short,class ATL::<unsigned short>>> __thiscall ATL::<unsigned short,class ATL::<unsigned short,class ATL::<unsigned short>>>::SpanExcluding(unsigned short const *)const 
?SpanExcluding@?$CStringT@GV?$StrTraitATL@GV?$ChTraitsCRT@G@ATL@@@ATL@@@ATL@@QBE?AV12@PBG@Z ; has WINAPI (@8)
; public: class ATL::<unsigned short,class ATL::<unsigned short,class ATL::<unsigned short>>> __thiscall ATL::<unsigned short,class ATL::<unsigned short,class ATL::<unsigned short>>>::SpanIncluding(unsigned short const *)const 
?SpanIncluding@?$CStringT@GV?$StrTraitATL@GV?$ChTraitsCRT@G@ATL@@@ATL@@@ATL@@QBE?AV12@PBG@Z ; has WINAPI (@8)
; private: static void __stdcall CLoadDriver::StaticInstallCallback(enum WDS_EVENT_RESULT,struct WDS_DATA const *,void *)
?StaticInstallCallback@CLoadDriver@@CGXW4WDS_EVENT_RESULT@@PBUWDS_DATA@@PAX@Z ; has WINAPI (@12)
; private: static void __stdcall CLoadDriver::StaticScanCallback(enum WDS_EVENT_RESULT,struct WDS_DATA const *,void *)
?StaticScanCallback@CLoadDriver@@CGXW4WDS_EVENT_RESULT@@PBUWDS_DATA@@PAX@Z ; has WINAPI (@12)
; public: static int __cdecl ATL::<unsigned short,0x0ULL>::StringLength(char const *)
?StringLength@?$CSimpleStringT@G$0A@@ATL@@SAHPBD@Z ; has WINAPI (@0)
; public: static int __cdecl ATL::<unsigned short,0x0ULL>::StringLength(unsigned short const *)
?StringLength@?$CSimpleStringT@G$0A@@ATL@@SAHPBG@Z ; has WINAPI (@0)
; protected: static void __cdecl ATL::<unsigned short,0x0ULL>::ThrowMemoryException(void)
?ThrowMemoryException@?$CSimpleStringT@G$0A@@ATL@@KAXXZ ; Check!!! Couldn't determine function argument count. Function doesn't return. 
; public: class ATL::<unsigned short,class ATL::<unsigned short,class ATL::<unsigned short>>> __thiscall ATL::<unsigned short,class ATL::<unsigned short,class ATL::<unsigned short>>>::Tokenize(unsigned short const *,int &)const 
?Tokenize@?$CStringT@GV?$StrTraitATL@GV?$ChTraitsCRT@G@ATL@@@ATL@@@ATL@@QBE?AV12@PBGAAH@Z ; has WINAPI (@12)
; public: class ATL::<unsigned short,class ATL::<unsigned short,class ATL::<unsigned short>>> &__thiscall ATL::<unsigned short,class ATL::<unsigned short,class ATL::<unsigned short>>>::Trim(unsigned short)
?Trim@?$CStringT@GV?$StrTraitATL@GV?$ChTraitsCRT@G@ATL@@@ATL@@@ATL@@QAEAAV12@G@Z ; has WINAPI (@4)
; public: class ATL::<unsigned short,class ATL::<unsigned short,class ATL::<unsigned short>>> &__thiscall ATL::<unsigned short,class ATL::<unsigned short,class ATL::<unsigned short>>>::Trim(unsigned short const *)
?Trim@?$CStringT@GV?$StrTraitATL@GV?$ChTraitsCRT@G@ATL@@@ATL@@@ATL@@QAEAAV12@PBG@Z ; has WINAPI (@4)
; public: class ATL::<unsigned short,class ATL::<unsigned short,class ATL::<unsigned short>>> &__thiscall ATL::<unsigned short,class ATL::<unsigned short,class ATL::<unsigned short>>>::Trim(void)
?Trim@?$CStringT@GV?$StrTraitATL@GV?$ChTraitsCRT@G@ATL@@@ATL@@@ATL@@QAEAAV12@XZ ; has WINAPI (@0)
; public: class ATL::<unsigned short,class ATL::<unsigned short,class ATL::<unsigned short>>> &__thiscall ATL::<unsigned short,class ATL::<unsigned short,class ATL::<unsigned short>>>::TrimLeft(unsigned short)
?TrimLeft@?$CStringT@GV?$StrTraitATL@GV?$ChTraitsCRT@G@ATL@@@ATL@@@ATL@@QAEAAV12@G@Z ; has WINAPI (@4)
; public: class ATL::<unsigned short,class ATL::<unsigned short,class ATL::<unsigned short>>> &__thiscall ATL::<unsigned short,class ATL::<unsigned short,class ATL::<unsigned short>>>::TrimLeft(unsigned short const *)
?TrimLeft@?$CStringT@GV?$StrTraitATL@GV?$ChTraitsCRT@G@ATL@@@ATL@@@ATL@@QAEAAV12@PBG@Z ; has WINAPI (@4)
; public: class ATL::<unsigned short,class ATL::<unsigned short,class ATL::<unsigned short>>> &__thiscall ATL::<unsigned short,class ATL::<unsigned short,class ATL::<unsigned short>>>::TrimLeft(void)
?TrimLeft@?$CStringT@GV?$StrTraitATL@GV?$ChTraitsCRT@G@ATL@@@ATL@@@ATL@@QAEAAV12@XZ ; has WINAPI (@0)
; public: class ATL::<unsigned short,class ATL::<unsigned short,class ATL::<unsigned short>>> &__thiscall ATL::<unsigned short,class ATL::<unsigned short,class ATL::<unsigned short>>>::TrimRight(unsigned short)
?TrimRight@?$CStringT@GV?$StrTraitATL@GV?$ChTraitsCRT@G@ATL@@@ATL@@@ATL@@QAEAAV12@G@Z ; has WINAPI (@4)
; public: class ATL::<unsigned short,class ATL::<unsigned short,class ATL::<unsigned short>>> &__thiscall ATL::<unsigned short,class ATL::<unsigned short,class ATL::<unsigned short>>>::TrimRight(unsigned short const *)
?TrimRight@?$CStringT@GV?$StrTraitATL@GV?$ChTraitsCRT@G@ATL@@@ATL@@@ATL@@QAEAAV12@PBG@Z ; has WINAPI (@4)
; public: class ATL::<unsigned short,class ATL::<unsigned short,class ATL::<unsigned short>>> &__thiscall ATL::<unsigned short,class ATL::<unsigned short,class ATL::<unsigned short>>>::TrimRight(void)
?TrimRight@?$CStringT@GV?$StrTraitATL@GV?$ChTraitsCRT@G@ATL@@@ATL@@@ATL@@QAEAAV12@XZ ; has WINAPI (@0)
; public: void __thiscall ATL::<unsigned short,0x0ULL>::Truncate(int)
?Truncate@?$CSimpleStringT@G$0A@@ATL@@QAEXH@Z ; has WINAPI (@4)
; public: void __thiscall ATL::<unsigned short,0x0ULL>::UnlockBuffer(void)
?UnlockBuffer@?$CSimpleStringT@G$0A@@ATL@@QAEXXZ ; has WINAPI (@0)
; private: long __thiscall CProductKeyModule::ValidatePid(void)
?ValidatePid@CProductKeyModule@@AAEJXZ ; has WINAPI (@0)
; public: virtual int __thiscall CProductKeyModule::ValidateProductKey(void *,unsigned short *,void(__stdcall *)(void *,unsigned int))
?ValidateProductKey@CProductKeyModule@@UAEHPAXPAGP6GX0I@Z@Z ; has WINAPI (@12)
; private: static class IImageData *CImageData::s_Instance
?s_Instance@CImageData@@0PAVIImageData@@A DATA
; private: static class ILoadDriver *CLoadDriver::s_Instance
?s_Instance@CLoadDriver@@0PAVILoadDriver@@A DATA
; private: void __thiscall CImageData::v_AddBlockedReason(unsigned short const *,unsigned short const *)
?v_AddBlockedReason@CImageData@@AAEXPBG0@Z ; has WINAPI (@8)
; private: void __thiscall CImageData::v_AddLanguage(unsigned short const *,unsigned short const *,int)
?v_AddLanguage@CImageData@@AAEXPBG0H@Z ; has WINAPI (@12)
; private: unsigned short *__thiscall CImageData::v_BuildKey(unsigned short const *,unsigned short const *)
?v_BuildKey@CImageData@@AAEPAGPBG0@Z ; has WINAPI (@8)
; private: unsigned short *__thiscall CImageData::v_CopyStr(unsigned short const *)
?v_CopyStr@CImageData@@AAEPAGPBG@Z ; has WINAPI (@4)
; private: void __thiscall CKeyboardLayouts::v_DeleteKeyboardLayouts(void)
?v_DeleteKeyboardLayouts@CKeyboardLayouts@@AAEXXZ ; has WINAPI (@0)
; private: void __thiscall CLanguages::v_DeleteLanguages(void)
?v_DeleteLanguages@CLanguages@@AAEXXZ ; has WINAPI (@0)
; private: void __thiscall CLayeredDrivers::v_DeleteLayeredDrivers(void)
?v_DeleteLayeredDrivers@CLayeredDrivers@@AAEXXZ ; has WINAPI (@0)
; private: static int __stdcall CLocales::v_EnumLocalesProc(unsigned short *,unsigned long,long)
?v_EnumLocalesProc@CLocales@@CGHPAGKJ@Z ; has WINAPI (@12)
; private: void __thiscall CImageData::v_FreeLanguages(void)
?v_FreeLanguages@CImageData@@AAEXXZ ; has WINAPI (@0)
; private: void __thiscall CImageData::v_FreeReasons(void)
?v_FreeReasons@CImageData@@AAEXXZ ; has WINAPI (@0)
; private: unsigned short *__thiscall CImageData::v_GetArchitectureName(struct HINSTANCE__ *,unsigned long)
?v_GetArchitectureName@CImageData@@AAEPAGPAUHINSTANCE__@@K@Z ; has WINAPI (@8)
; private: void __thiscall CImageData::v_GetAvailableLanguages(unsigned short const *)
?v_GetAvailableLanguages@CImageData@@AAEXPBG@Z ; has WINAPI (@4)
; private: unsigned short *__thiscall CImageData::v_GetBBStr(unsigned short const *,unsigned short const *)
?v_GetBBStr@CImageData@@AAEPAGPBG0@Z ; has WINAPI (@8)
; private: unsigned long __thiscall CImageData::v_GetBBVal(unsigned short const *,unsigned short const *,unsigned long)
?v_GetBBVal@CImageData@@AAEKPBG0K@Z ; has WINAPI (@12)
; private: void __thiscall CImageData::v_GetBlockedReasons(unsigned short const *)
?v_GetBlockedReasons@CImageData@@AAEXPBG@Z ; has WINAPI (@4)
; private: class ATL::<unsigned short,class ATL::<unsigned short,class ATL::<unsigned short>>> __thiscall CLanguages::v_GetLangIniPath(void)
?v_GetLangIniPath@CLanguages@@AAE?AV?$CStringT@GV?$StrTraitATL@GV?$ChTraitsCRT@G@ATL@@@ATL@@@ATL@@XZ ; has WINAPI (@4)
; private: int __thiscall CKeyboardLayouts::v_InitInputProcs(void)
?v_InitInputProcs@CKeyboardLayouts@@AAEHXZ ; has WINAPI (@0)
; private: class CLanguage *__thiscall CLanguages::v_InitLanguage(class ATL::<unsigned short,class ATL::<unsigned short,class ATL::<unsigned short>>>)
?v_InitLanguage@CLanguages@@AAEPAVCLanguage@@V?$CStringT@GV?$StrTraitATL@GV?$ChTraitsCRT@G@ATL@@@ATL@@@ATL@@@Z ; has WINAPI (@4)
; private: int __thiscall PIDUtilStringView::v_IsValid(unsigned short)
?v_IsValid@PIDUtilStringView@@AAEHG@Z ; has WINAPI (@4)
; private: int __thiscall CKeyboardLayouts::v_LoadInputProcs(void)
?v_LoadInputProcs@CKeyboardLayouts@@AAEHXZ ; has WINAPI (@0)
; private: int __thiscall PIDUtilStringView::v_MakePidString(void)
?v_MakePidString@PIDUtilStringView@@AAEHXZ ; has WINAPI (@0)
; private: class ATL::<unsigned short,class ATL::<unsigned short,class ATL::<unsigned short>>> __thiscall PIDUtilStringView::v_MakeValidString(unsigned short const *)
?v_MakeValidString@PIDUtilStringView@@AAE?AV?$CStringT@GV?$StrTraitATL@GV?$ChTraitsCRT@G@ATL@@@ATL@@@ATL@@PBG@Z ; has WINAPI (@8)
; private: int __thiscall CKeyboardLayouts::v_PopulateKeyboardLayouts(void)
?v_PopulateKeyboardLayouts@CKeyboardLayouts@@AAEHXZ ; has WINAPI (@0)
; private: int __thiscall CLanguages::v_PopulateLanguages(void)
?v_PopulateLanguages@CLanguages@@AAEHXZ ; has WINAPI (@0)
; private: int __thiscall CLayeredDrivers::v_PopulateLayeredDrivers(void)
?v_PopulateLayeredDrivers@CLayeredDrivers@@AAEHXZ ; has WINAPI (@0)
; private: int __thiscall CLocales::v_PopulateLocales(void)
?v_PopulateLocales@CLocales@@AAEHXZ ; has WINAPI (@0)
