;
; Definition file of wsmandisp.dll
; Automatic generated by gendef
; written by Kai Tietz 2008
;
LIBRARY "wsmandisp.dll"
EXPORTS
; public: __thiscall <class <class Locale::Resources>,class Locale::Resources *>::<class <class Locale::Resources>,class Locale::Resources *>(class Locale::Resources *)
??0?$AutoCleanup@V?$AutoDelete@VResources@Locale@@@@PAVResources@Locale@@@@QAE@PAVResources@Locale@@@Z ; has WINAPI (@4)
; public: __thiscall <class <unsigned char>,unsigned char *>::<class <unsigned char>,unsigned char *>(unsigned char *)
??0?$AutoCleanup@V?$AutoDeleteVector@E@@PAE@@QAE@PAE@Z ; has WINAPI (@4)
; public: __thiscall <class <unsigned short>,unsigned short *>::<class <unsigned short>,unsigned short *>(unsigned short *)
??0?$AutoCleanup@V?$AutoDeleteVector@G@@PAG@@QAE@PAG@Z ; has WINAPI (@4)
; public: __thiscall <class <unsigned char>,unsigned char *>::<class <unsigned char>,unsigned char *>(unsigned char *)
??0?$AutoCleanup@V?$AutoFree@E@@PAE@@QAE@PAE@Z ; has WINAPI (@4)
; public: __thiscall <class <class CRequestContext>,class CRequestContext *>::<class <class CRequestContext>,class CRequestContext *>(class CRequestContext *)
??0?$AutoCleanup@V?$AutoRelease@VCRequestContext@@@@PAVCRequestContext@@@@QAE@PAVCRequestContext@@@Z ; has WINAPI (@4)
; public: __thiscall <class <class CWSManSecurityUI>,class CWSManSecurityUI *>::<class <class CWSManSecurityUI>,class CWSManSecurityUI *>(class CWSManSecurityUI *)
??0?$AutoCleanup@V?$AutoRelease@VCWSManSecurityUI@@@@PAVCWSManSecurityUI@@@@QAE@PAVCWSManSecurityUI@@@Z ; has WINAPI (@4)
; public: __thiscall <class AutoBstr,unsigned short *>::<class AutoBstr,unsigned short *>(unsigned short *)
??0?$AutoCleanup@VAutoBstr@@PAG@@QAE@PAG@Z ; has WINAPI (@4)
; public: __thiscall <class AutoBstr,unsigned short *>::<class AutoBstr,unsigned short *>(void)
??0?$AutoCleanup@VAutoBstr@@PAG@@QAE@XZ ; has WINAPI (@0)
; public: __thiscall <class AutoBstrNoAlloc,unsigned short *>::<class AutoBstrNoAlloc,unsigned short *>(unsigned short *)
??0?$AutoCleanup@VAutoBstrNoAlloc@@PAG@@QAE@PAG@Z ; has WINAPI (@4)
; public: __thiscall <class AutoBstrNoAlloc,unsigned short *>::<class AutoBstrNoAlloc,unsigned short *>(void)
??0?$AutoCleanup@VAutoBstrNoAlloc@@PAG@@QAE@XZ ; has WINAPI (@0)
; public: __thiscall <class AutoCertContext,struct _CERT_CONTEXT const *>::<class AutoCertContext,struct _CERT_CONTEXT const *>(struct _CERT_CONTEXT const *)
??0?$AutoCleanup@VAutoCertContext@@PBU_CERT_CONTEXT@@@@QAE@PBU_CERT_CONTEXT@@@Z ; has WINAPI (@4)
; public: __thiscall <class AutoCertContext,struct _CERT_CONTEXT const *>::<class AutoCertContext,struct _CERT_CONTEXT const *>(void)
??0?$AutoCleanup@VAutoCertContext@@PBU_CERT_CONTEXT@@@@QAE@XZ ; has WINAPI (@0)
; public: __thiscall <class AutoChainContext,struct _CERT_CHAIN_CONTEXT const *>::<class AutoChainContext,struct _CERT_CHAIN_CONTEXT const *>(struct _CERT_CHAIN_CONTEXT const *)
??0?$AutoCleanup@VAutoChainContext@@PBU_CERT_CHAIN_CONTEXT@@@@QAE@PBU_CERT_CHAIN_CONTEXT@@@Z ; has WINAPI (@4)
; public: __thiscall <class AutoChainContext,struct _CERT_CHAIN_CONTEXT const *>::<class AutoChainContext,struct _CERT_CHAIN_CONTEXT const *>(void)
??0?$AutoCleanup@VAutoChainContext@@PBU_CERT_CHAIN_CONTEXT@@@@QAE@XZ ; has WINAPI (@0)
; public: __thiscall <class AutoCoTaskMemFree,void *>::<class AutoCoTaskMemFree,void *>(void *)
??0?$AutoCleanup@VAutoCoTaskMemFree@@PAX@@QAE@PAX@Z ; has WINAPI (@4)
; public: __thiscall <class AutoCoTaskMemFree,void *>::<class AutoCoTaskMemFree,void *>(void)
??0?$AutoCleanup@VAutoCoTaskMemFree@@PAX@@QAE@XZ ; has WINAPI (@0)
; public: __thiscall <class AutoEnvironmentBlock,void *>::<class AutoEnvironmentBlock,void *>(void *)
??0?$AutoCleanup@VAutoEnvironmentBlock@@PAX@@QAE@PAX@Z ; has WINAPI (@4)
; public: __thiscall <class AutoEnvironmentBlock,void *>::<class AutoEnvironmentBlock,void *>(void)
??0?$AutoCleanup@VAutoEnvironmentBlock@@PAX@@QAE@XZ ; has WINAPI (@0)
; public: __thiscall <class AutoFwXmlCloseParser,void *>::<class AutoFwXmlCloseParser,void *>(void *)
??0?$AutoCleanup@VAutoFwXmlCloseParser@@PAX@@QAE@PAX@Z ; has WINAPI (@4)
; public: __thiscall <class AutoFwXmlCloseParser,void *>::<class AutoFwXmlCloseParser,void *>(void)
??0?$AutoCleanup@VAutoFwXmlCloseParser@@PAX@@QAE@XZ ; has WINAPI (@0)
; public: __thiscall <class AutoHandle,void *>::<class AutoHandle,void *>(void *)
??0?$AutoCleanup@VAutoHandle@@PAX@@QAE@PAX@Z ; has WINAPI (@4)
; public: __thiscall <class AutoHandle,void *>::<class AutoHandle,void *>(void)
??0?$AutoCleanup@VAutoHandle@@PAX@@QAE@XZ ; has WINAPI (@0)
; public: __thiscall <class AutoImpersonateUser,void *>::<class AutoImpersonateUser,void *>(void *)
??0?$AutoCleanup@VAutoImpersonateUser@@PAX@@QAE@PAX@Z ; has WINAPI (@4)
; public: __thiscall <class AutoImpersonateUser,void *>::<class AutoImpersonateUser,void *>(void)
??0?$AutoCleanup@VAutoImpersonateUser@@PAX@@QAE@XZ ; has WINAPI (@0)
; public: __thiscall <class AutoLibrary,struct HINSTANCE__ *>::<class AutoLibrary,struct HINSTANCE__ *>(struct HINSTANCE__ *)
??0?$AutoCleanup@VAutoLibrary@@PAUHINSTANCE__@@@@QAE@PAUHINSTANCE__@@@Z ; has WINAPI (@4)
; public: __thiscall <class AutoLibrary,struct HINSTANCE__ *>::<class AutoLibrary,struct HINSTANCE__ *>(void)
??0?$AutoCleanup@VAutoLibrary@@PAUHINSTANCE__@@@@QAE@XZ ; has WINAPI (@0)
; public: __thiscall <class AutoLocalFree,void *>::<class AutoLocalFree,void *>(void *)
??0?$AutoCleanup@VAutoLocalFree@@PAX@@QAE@PAX@Z ; has WINAPI (@4)
; public: __thiscall <class AutoLocalFree,void *>::<class AutoLocalFree,void *>(void)
??0?$AutoCleanup@VAutoLocalFree@@PAX@@QAE@XZ ; has WINAPI (@0)
; public: __thiscall <class AutoMIClass,struct _MI_Class *>::<class AutoMIClass,struct _MI_Class *>(struct _MI_Class *)
??0?$AutoCleanup@VAutoMIClass@@PAU_MI_Class@@@@QAE@PAU_MI_Class@@@Z ; has WINAPI (@4)
; public: __thiscall <class AutoMIClass,struct _MI_Class *>::<class AutoMIClass,struct _MI_Class *>(void)
??0?$AutoCleanup@VAutoMIClass@@PAU_MI_Class@@@@QAE@XZ ; has WINAPI (@0)
; public: __thiscall <class AutoMIInstance,struct _MI_Instance *>::<class AutoMIInstance,struct _MI_Instance *>(struct _MI_Instance *)
??0?$AutoCleanup@VAutoMIInstance@@PAU_MI_Instance@@@@QAE@PAU_MI_Instance@@@Z ; has WINAPI (@4)
; public: __thiscall <class AutoMIInstance,struct _MI_Instance *>::<class AutoMIInstance,struct _MI_Instance *>(void)
??0?$AutoCleanup@VAutoMIInstance@@PAU_MI_Instance@@@@QAE@XZ ; has WINAPI (@0)
; public: __thiscall <class AutoObject,struct WSMAN_OBJECT *>::<class AutoObject,struct WSMAN_OBJECT *>(struct WSMAN_OBJECT *)
??0?$AutoCleanup@VAutoObject@@PAUWSMAN_OBJECT@@@@QAE@PAUWSMAN_OBJECT@@@Z ; has WINAPI (@4)
; public: __thiscall <class AutoObject,struct WSMAN_OBJECT *>::<class AutoObject,struct WSMAN_OBJECT *>(void)
??0?$AutoCleanup@VAutoObject@@PAUWSMAN_OBJECT@@@@QAE@XZ ; has WINAPI (@0)
; public: __thiscall <class AutoRegKey,struct HKEY__ *>::<class AutoRegKey,struct HKEY__ *>(struct HKEY__ *)
??0?$AutoCleanup@VAutoRegKey@@PAUHKEY__@@@@QAE@PAUHKEY__@@@Z ; has WINAPI (@4)
; public: __thiscall <class AutoRegKey,struct HKEY__ *>::<class AutoRegKey,struct HKEY__ *>(void)
??0?$AutoCleanup@VAutoRegKey@@PAUHKEY__@@@@QAE@XZ ; has WINAPI (@0)
; public: __thiscall <class AutoSecurityDescriptor,void *>::<class AutoSecurityDescriptor,void *>(void *)
??0?$AutoCleanup@VAutoSecurityDescriptor@@PAX@@QAE@PAX@Z ; has WINAPI (@4)
; public: __thiscall <class AutoSecurityDescriptor,void *>::<class AutoSecurityDescriptor,void *>(void)
??0?$AutoCleanup@VAutoSecurityDescriptor@@PAX@@QAE@XZ ; has WINAPI (@0)
; public: __thiscall <class AutoWaitHandle,void *>::<class AutoWaitHandle,void *>(void *)
??0?$AutoCleanup@VAutoWaitHandle@@PAX@@QAE@PAX@Z ; has WINAPI (@4)
; public: __thiscall <class AutoWaitHandle,void *>::<class AutoWaitHandle,void *>(void)
??0?$AutoCleanup@VAutoWaitHandle@@PAX@@QAE@XZ ; has WINAPI (@0)
; public: __thiscall <class Locale::Resources>::<class Locale::Resources>(class Locale::Resources *)
??0?$AutoDelete@VResources@Locale@@@@QAE@PAVResources@Locale@@@Z ; has WINAPI (@4)
; public: __thiscall <unsigned char>::<unsigned char>(void)
??0?$AutoDeleteVector@E@@QAE@XZ ; has WINAPI (@0)
; public: __thiscall <unsigned short>::<unsigned short>(unsigned short *)
??0?$AutoDeleteVector@G@@QAE@PAG@Z ; has WINAPI (@4)
; public: __thiscall <unsigned short>::<unsigned short>(void)
??0?$AutoDeleteVector@G@@QAE@XZ ; has WINAPI (@0)
; public: __thiscall <unsigned char>::<unsigned char>(unsigned char *)
??0?$AutoFree@E@@QAE@PAE@Z ; has WINAPI (@4)
; public: __thiscall <class CRequestContext>::<class CRequestContext>(class CRequestContext *)
??0?$AutoRelease@VCRequestContext@@@@QAE@PAVCRequestContext@@@Z ; has WINAPI (@4)
; public: __thiscall <class CWSManSecurityUI>::<class CWSManSecurityUI>(void)
??0?$AutoRelease@VCWSManSecurityUI@@@@QAE@XZ ; has WINAPI (@0)
; public: __thiscall <class Locale::Resources>::<class Locale::Resources>(bool(__thiscall Locale::Resources::*)(class IRequestContext &),bool(__thiscall Locale::Resources::*)(class IRequestContext &))
??0?$ILoader@VResources@Locale@@@@QAE@P8Resources@Locale@@AE_NAAVIRequestContext@@@Z1@Z ; has WINAPI (@8)
; public: __thiscall <class Locale::Resources,0x0ULL>::<class Locale::Resources,0x0ULL>(bool(__thiscall Locale::Resources::*)(class IRequestContext &),bool(__thiscall Locale::Resources::*)(class IRequestContext &))
??0?$LoaderSerializer@VResources@Locale@@$0A@@@QAE@P8Resources@Locale@@AE_NAAVIRequestContext@@@Z1@Z ; has WINAPI (@8)
; public: __thiscall <class Locale::Key,unsigned long,class <class Locale::Key,unsigned long>>::<class Locale::Key,unsigned long,class <class Locale::Key,unsigned long>>(void)
??0?$SafeMap@VKey@Locale@@KV?$SafeMap_Iterator@VKey@Locale@@K@@@@QAE@XZ ; has WINAPI (@0)
; public: __thiscall <class Locale::Key,unsigned long>::<class Locale::Key,unsigned long>(class <class Locale::Key,unsigned long,class <class Locale::Key,unsigned long>> &,bool)
??0?$SafeMap_Iterator@VKey@Locale@@K@@QAE@AAV?$SafeMap@VKey@Locale@@KV?$SafeMap_Iterator@VKey@Locale@@K@@@@_N@Z ; has WINAPI (@8)
; public: __thiscall <class Locale::Key,unsigned long,class <class Locale::Key,unsigned long>>::<class Locale::Key,unsigned long,class <class Locale::Key,unsigned long>>(class <class Locale::Key,unsigned long,class <class Locale::Key,unsigned long>> const &,bool)
??0?$SafeMap_Lock@VKey@Locale@@KV?$SafeMap_Iterator@VKey@Locale@@K@@@@QAE@ABV?$SafeMap@VKey@Locale@@KV?$SafeMap_Iterator@VKey@Locale@@K@@@@_N@Z ; has WINAPI (@8)
; public: __thiscall <union _LARGE_INTEGER>::<union _LARGE_INTEGER>(void)
??0?$SimpleQueue@T_LARGE_INTEGER@@@@QAE@XZ ; has WINAPI (@0)
; public: __thiscall AutoBstr::AutoBstr(unsigned short *)
??0AutoBstr@@QAE@PAG@Z ; has WINAPI (@4)
; public: __thiscall AutoBstr::AutoBstr(void)
??0AutoBstr@@QAE@XZ ; has WINAPI (@0)
; public: __thiscall AutoBstrNoAlloc::AutoBstrNoAlloc(unsigned short *)
??0AutoBstrNoAlloc@@QAE@PAG@Z ; has WINAPI (@4)
; public: __thiscall AutoBstrNoAlloc::AutoBstrNoAlloc(void)
??0AutoBstrNoAlloc@@QAE@XZ ; has WINAPI (@0)
; public: __thiscall AutoCertContext::AutoCertContext(struct _CERT_CONTEXT const *)
??0AutoCertContext@@QAE@PBU_CERT_CONTEXT@@@Z ; has WINAPI (@4)
; public: __thiscall AutoCertContext::AutoCertContext(void)
??0AutoCertContext@@QAE@XZ ; has WINAPI (@0)
; public: __thiscall AutoChainContext::AutoChainContext(struct _CERT_CHAIN_CONTEXT const *)
??0AutoChainContext@@QAE@PBU_CERT_CHAIN_CONTEXT@@@Z ; has WINAPI (@4)
; public: __thiscall AutoChainContext::AutoChainContext(void)
??0AutoChainContext@@QAE@XZ ; has WINAPI (@0)
; public: __thiscall AutoCoTaskMemFree::AutoCoTaskMemFree(void *)
??0AutoCoTaskMemFree@@QAE@PAX@Z ; has WINAPI (@4)
; public: __thiscall AutoCoTaskMemFree::AutoCoTaskMemFree(void)
??0AutoCoTaskMemFree@@QAE@XZ ; has WINAPI (@0)
; public: __thiscall AutoEnvironmentBlock::AutoEnvironmentBlock(void *)
??0AutoEnvironmentBlock@@QAE@PAX@Z ; has WINAPI (@4)
; public: __thiscall AutoEnvironmentBlock::AutoEnvironmentBlock(void)
??0AutoEnvironmentBlock@@QAE@XZ ; has WINAPI (@0)
; public: __thiscall AutoFwXmlCloseParser::AutoFwXmlCloseParser(void *)
??0AutoFwXmlCloseParser@@QAE@PAX@Z ; has WINAPI (@4)
; public: __thiscall AutoFwXmlCloseParser::AutoFwXmlCloseParser(void)
??0AutoFwXmlCloseParser@@QAE@XZ ; has WINAPI (@0)
; public: __thiscall AutoHandle::AutoHandle(void *)
??0AutoHandle@@QAE@PAX@Z ; has WINAPI (@4)
; public: __thiscall AutoHandle::AutoHandle(void)
??0AutoHandle@@QAE@XZ ; has WINAPI (@0)
; public: __thiscall AutoImpersonateUser::AutoImpersonateUser(void *)
??0AutoImpersonateUser@@QAE@PAX@Z ; has WINAPI (@4)
; public: __thiscall AutoImpersonateUser::AutoImpersonateUser(void)
??0AutoImpersonateUser@@QAE@XZ ; has WINAPI (@0)
; public: __thiscall AutoLibrary::AutoLibrary(struct HINSTANCE__ *)
??0AutoLibrary@@QAE@PAUHINSTANCE__@@@Z ; has WINAPI (@4)
; public: __thiscall AutoLibrary::AutoLibrary(void)
??0AutoLibrary@@QAE@XZ ; has WINAPI (@0)
; public: __thiscall AutoLocalFree::AutoLocalFree(void *)
??0AutoLocalFree@@QAE@PAX@Z ; has WINAPI (@4)
; public: __thiscall AutoLocalFree::AutoLocalFree(void)
??0AutoLocalFree@@QAE@XZ ; has WINAPI (@0)
; public: __thiscall AutoMIClass::AutoMIClass(struct _MI_Class *)
??0AutoMIClass@@QAE@PAU_MI_Class@@@Z ; has WINAPI (@4)
; public: __thiscall AutoMIClass::AutoMIClass(void)
??0AutoMIClass@@QAE@XZ ; has WINAPI (@0)
; public: __thiscall AutoMIInstance::AutoMIInstance(struct _MI_Instance *)
??0AutoMIInstance@@QAE@PAU_MI_Instance@@@Z ; has WINAPI (@4)
; public: __thiscall AutoMIInstance::AutoMIInstance(void)
??0AutoMIInstance@@QAE@XZ ; has WINAPI (@0)
; public: __thiscall AutoObject::AutoObject(struct WSMAN_OBJECT *)
??0AutoObject@@QAE@PAUWSMAN_OBJECT@@@Z ; has WINAPI (@4)
; public: __thiscall AutoObject::AutoObject(void)
??0AutoObject@@QAE@XZ ; has WINAPI (@0)
; public: __thiscall AutoRegKey::AutoRegKey(struct HKEY__ *)
??0AutoRegKey@@QAE@PAUHKEY__@@@Z ; has WINAPI (@4)
; public: __thiscall AutoRegKey::AutoRegKey(void)
??0AutoRegKey@@QAE@XZ ; has WINAPI (@0)
; public: __thiscall AutoSecurityDescriptor::AutoSecurityDescriptor(void *)
??0AutoSecurityDescriptor@@QAE@PAX@Z ; has WINAPI (@4)
; public: __thiscall AutoSecurityDescriptor::AutoSecurityDescriptor(void)
??0AutoSecurityDescriptor@@QAE@XZ ; has WINAPI (@0)
; public: __thiscall AutoWaitHandle::AutoWaitHandle(void *)
??0AutoWaitHandle@@QAE@PAX@Z ; has WINAPI (@4)
; public: __thiscall AutoWaitHandle::AutoWaitHandle(void)
??0AutoWaitHandle@@QAE@XZ ; has WINAPI (@0)
; public: __thiscall BufferFormatter::BufferFormatter(unsigned char *,unsigned long)
??0BufferFormatter@@QAE@PAEK@Z ; has WINAPI (@8)
; public: __thiscall BufferFormatter::BufferFormatter(void)
??0BufferFormatter@@QAE@XZ ; has WINAPI (@0)
; public: __thiscall CWSManResource::CWSManResource(int)
??0CWSManResource@@QAE@H@Z ; has WINAPI (@4)
; public: __thiscall ChildLifeTimeManager::ChildLifeTimeManager(void)
??0ChildLifeTimeManager@@QAE@XZ ; has WINAPI (@0)
; public: __thiscall CircularBufferFormatter::CircularBufferFormatter(void)
??0CircularBufferFormatter@@QAE@XZ ; has WINAPI (@0)
; public: __thiscall EtwCorrelationHelper::EtwCorrelationHelper(class EtwCorrelationHelper const &)
??0EtwCorrelationHelper@@QAE@ABV0@@Z ; has WINAPI (@4)
; public: __thiscall FastLock::FastLock(void)
??0FastLock@@QAE@XZ ; has WINAPI (@0)
; public: __thiscall ILifeTimeMgmt::ILifeTimeMgmt(class ILifeTimeMgmt const &)
??0ILifeTimeMgmt@@QAE@ABV0@@Z ; has WINAPI (@4)
; public: __thiscall ILifeTimeMgmt::ILifeTimeMgmt(void)
??0ILifeTimeMgmt@@QAE@XZ ; has WINAPI (@0)
; protected: __thiscall IRequestContext::IRequestContext(void)
??0IRequestContext@@IAE@XZ ; has WINAPI (@0)
; public: __thiscall OwnLock::OwnLock(class FastLock &)
??0OwnLock@@QAE@AAVFastLock@@@Z ; has WINAPI (@4)
; public: __thiscall ShareLock::ShareLock(class FastLock &)
??0ShareLock@@QAE@AAVFastLock@@@Z ; has WINAPI (@4)
; public: __thiscall <class <unsigned short>,unsigned short *>::~<class <unsigned short>,unsigned short *>(void)
??1?$AutoCleanup@V?$AutoDelete@G@@PAG@@QAE@XZ ; has WINAPI (@0)
; public: __thiscall <class <class Locale::Resources>,class Locale::Resources *>::~<class <class Locale::Resources>,class Locale::Resources *>(void)
??1?$AutoCleanup@V?$AutoDelete@VResources@Locale@@@@PAVResources@Locale@@@@QAE@XZ ; has WINAPI (@0)
; public: __thiscall <class <unsigned char>,unsigned char *>::~<class <unsigned char>,unsigned char *>(void)
??1?$AutoCleanup@V?$AutoDeleteVector@E@@PAE@@QAE@XZ ; has WINAPI (@0)
; public: __thiscall <class <unsigned short>,unsigned short *>::~<class <unsigned short>,unsigned short *>(void)
??1?$AutoCleanup@V?$AutoDeleteVector@G@@PAG@@QAE@XZ ; has WINAPI (@0)
; public: __thiscall <class <unsigned short const *>,unsigned short const **>::~<class <unsigned short const *>,unsigned short const **>(void)
??1?$AutoCleanup@V?$AutoDeleteVector@PBG@@PAPBG@@QAE@XZ ; has WINAPI (@0)
; public: __thiscall <class <struct _WSMAN_OPTION>,struct _WSMAN_OPTION *>::~<class <struct _WSMAN_OPTION>,struct _WSMAN_OPTION *>(void)
??1?$AutoCleanup@V?$AutoDeleteVector@U_WSMAN_OPTION@@@@PAU_WSMAN_OPTION@@@@QAE@XZ ; has WINAPI (@0)
; public: __thiscall <class <unsigned char>,unsigned char *>::~<class <unsigned char>,unsigned char *>(void)
??1?$AutoCleanup@V?$AutoFree@E@@PAE@@QAE@XZ ; has WINAPI (@0)
; public: __thiscall <class <class CRequestContext>,class CRequestContext *>::~<class <class CRequestContext>,class CRequestContext *>(void)
??1?$AutoCleanup@V?$AutoRelease@VCRequestContext@@@@PAVCRequestContext@@@@QAE@XZ ; has WINAPI (@0)
; public: __thiscall <class <class CWSManSecurityUI>,class CWSManSecurityUI *>::~<class <class CWSManSecurityUI>,class CWSManSecurityUI *>(void)
??1?$AutoCleanup@V?$AutoRelease@VCWSManSecurityUI@@@@PAVCWSManSecurityUI@@@@QAE@XZ ; has WINAPI (@0)
; public: __thiscall <class AutoBstr,unsigned short *>::~<class AutoBstr,unsigned short *>(void)
??1?$AutoCleanup@VAutoBstr@@PAG@@QAE@XZ ; has WINAPI (@0)
; public: __thiscall <class AutoBstrNoAlloc,unsigned short *>::~<class AutoBstrNoAlloc,unsigned short *>(void)
??1?$AutoCleanup@VAutoBstrNoAlloc@@PAG@@QAE@XZ ; has WINAPI (@0)
; public: __thiscall <class AutoCertContext,struct _CERT_CONTEXT const *>::~<class AutoCertContext,struct _CERT_CONTEXT const *>(void)
??1?$AutoCleanup@VAutoCertContext@@PBU_CERT_CONTEXT@@@@QAE@XZ ; has WINAPI (@0)
; public: __thiscall <class AutoChainContext,struct _CERT_CHAIN_CONTEXT const *>::~<class AutoChainContext,struct _CERT_CHAIN_CONTEXT const *>(void)
??1?$AutoCleanup@VAutoChainContext@@PBU_CERT_CHAIN_CONTEXT@@@@QAE@XZ ; has WINAPI (@0)
; public: __thiscall <class AutoCoTaskMemFree,void *>::~<class AutoCoTaskMemFree,void *>(void)
??1?$AutoCleanup@VAutoCoTaskMemFree@@PAX@@QAE@XZ ; has WINAPI (@0)
; public: __thiscall <class AutoEnvironmentBlock,void *>::~<class AutoEnvironmentBlock,void *>(void)
??1?$AutoCleanup@VAutoEnvironmentBlock@@PAX@@QAE@XZ ; has WINAPI (@0)
; public: __thiscall <class AutoFwXmlCloseParser,void *>::~<class AutoFwXmlCloseParser,void *>(void)
??1?$AutoCleanup@VAutoFwXmlCloseParser@@PAX@@QAE@XZ ; has WINAPI (@0)
; public: __thiscall <class AutoHandle,void *>::~<class AutoHandle,void *>(void)
??1?$AutoCleanup@VAutoHandle@@PAX@@QAE@XZ ; has WINAPI (@0)
; public: __thiscall <class AutoImpersonateUser,void *>::~<class AutoImpersonateUser,void *>(void)
??1?$AutoCleanup@VAutoImpersonateUser@@PAX@@QAE@XZ ; has WINAPI (@0)
; public: __thiscall <class AutoLibrary,struct HINSTANCE__ *>::~<class AutoLibrary,struct HINSTANCE__ *>(void)
??1?$AutoCleanup@VAutoLibrary@@PAUHINSTANCE__@@@@QAE@XZ ; has WINAPI (@0)
; public: __thiscall <class AutoLocalFree,void *>::~<class AutoLocalFree,void *>(void)
??1?$AutoCleanup@VAutoLocalFree@@PAX@@QAE@XZ ; has WINAPI (@0)
; public: __thiscall <class AutoMIClass,struct _MI_Class *>::~<class AutoMIClass,struct _MI_Class *>(void)
??1?$AutoCleanup@VAutoMIClass@@PAU_MI_Class@@@@QAE@XZ ; has WINAPI (@0)
; public: __thiscall <class AutoMIInstance,struct _MI_Instance *>::~<class AutoMIInstance,struct _MI_Instance *>(void)
??1?$AutoCleanup@VAutoMIInstance@@PAU_MI_Instance@@@@QAE@XZ ; has WINAPI (@0)
; public: __thiscall <class AutoObject,struct WSMAN_OBJECT *>::~<class AutoObject,struct WSMAN_OBJECT *>(void)
??1?$AutoCleanup@VAutoObject@@PAUWSMAN_OBJECT@@@@QAE@XZ ; has WINAPI (@0)
; public: __thiscall <class AutoRegKey,struct HKEY__ *>::~<class AutoRegKey,struct HKEY__ *>(void)
??1?$AutoCleanup@VAutoRegKey@@PAUHKEY__@@@@QAE@XZ ; has WINAPI (@0)
; public: __thiscall <class AutoSecurityDescriptor,void *>::~<class AutoSecurityDescriptor,void *>(void)
??1?$AutoCleanup@VAutoSecurityDescriptor@@PAX@@QAE@XZ ; has WINAPI (@0)
; public: __thiscall <class AutoWaitHandle,void *>::~<class AutoWaitHandle,void *>(void)
??1?$AutoCleanup@VAutoWaitHandle@@PAX@@QAE@XZ ; has WINAPI (@0)
; public: __thiscall <unsigned short>::~<unsigned short>(void)
??1?$AutoDelete@G@@QAE@XZ ; has WINAPI (@0)
; public: __thiscall <class Locale::Resources>::~<class Locale::Resources>(void)
??1?$AutoDelete@VResources@Locale@@@@QAE@XZ ; has WINAPI (@0)
; public: __thiscall <unsigned char>::~<unsigned char>(void)
??1?$AutoDeleteVector@E@@QAE@XZ ; has WINAPI (@0)
; public: __thiscall <unsigned short>::~<unsigned short>(void)
??1?$AutoDeleteVector@G@@QAE@XZ ; has WINAPI (@0)
; public: __thiscall <unsigned short const *>::~<unsigned short const *>(void)
??1?$AutoDeleteVector@PBG@@QAE@XZ ; has WINAPI (@0)
; public: __thiscall <struct _WSMAN_OPTION>::~<struct _WSMAN_OPTION>(void)
??1?$AutoDeleteVector@U_WSMAN_OPTION@@@@QAE@XZ ; has WINAPI (@0)
; public: __thiscall <unsigned char>::~<unsigned char>(void)
??1?$AutoFree@E@@QAE@XZ ; has WINAPI (@0)
; public: __thiscall <class CRequestContext>::~<class CRequestContext>(void)
??1?$AutoRelease@VCRequestContext@@@@QAE@XZ ; has WINAPI (@0)
; public: __thiscall <class CWSManSecurityUI>::~<class CWSManSecurityUI>(void)
??1?$AutoRelease@VCWSManSecurityUI@@@@QAE@XZ ; has WINAPI (@0)
; public: __thiscall <class Locale::Resources>::~<class Locale::Resources>(void)
??1?$ILoader@VResources@Locale@@@@QAE@XZ ; has WINAPI (@0)
; public: __thiscall <class Locale::Resources,0x0ULL>::~<class Locale::Resources,0x0ULL>(void)
??1?$Loader@VResources@Locale@@$0A@@@QAE@XZ ; has WINAPI (@0)
; public: __thiscall <class Locale::Resources,0x0ULL>::~<class Locale::Resources,0x0ULL>(void)
??1?$LoaderSerializer@VResources@Locale@@$0A@@@QAE@XZ ; has WINAPI (@0)
; public: __thiscall <class Locale::Key,unsigned long,class <class Locale::Key,unsigned long>>::~<class Locale::Key,unsigned long,class <class Locale::Key,unsigned long>>(void)
??1?$SafeMap@VKey@Locale@@KV?$SafeMap_Iterator@VKey@Locale@@K@@@@QAE@XZ ; has WINAPI (@0)
; public: __thiscall <class Locale::Key,unsigned long>::~<class Locale::Key,unsigned long>(void)
??1?$SafeMap_Iterator@VKey@Locale@@K@@QAE@XZ ; has WINAPI (@0)
; public: __thiscall <class Locale::Key,unsigned long,class <class Locale::Key,unsigned long>>::~<class Locale::Key,unsigned long,class <class Locale::Key,unsigned long>>(void)
??1?$SafeMap_Lock@VKey@Locale@@KV?$SafeMap_Iterator@VKey@Locale@@K@@@@QAE@XZ ; has WINAPI (@0)
; public: __thiscall <union _LARGE_INTEGER>::~<union _LARGE_INTEGER>(void)
??1?$SimpleQueue@T_LARGE_INTEGER@@@@QAE@XZ ; has WINAPI (@0)
; public: __thiscall AutoBstr::~AutoBstr(void)
??1AutoBstr@@QAE@XZ ; has WINAPI (@0)
; public: __thiscall AutoBstrNoAlloc::~AutoBstrNoAlloc(void)
??1AutoBstrNoAlloc@@QAE@XZ ; has WINAPI (@0)
; public: __thiscall AutoCertContext::~AutoCertContext(void)
??1AutoCertContext@@QAE@XZ ; has WINAPI (@0)
; public: __thiscall AutoChainContext::~AutoChainContext(void)
??1AutoChainContext@@QAE@XZ ; has WINAPI (@0)
; public: __thiscall AutoCoTaskMemFree::~AutoCoTaskMemFree(void)
??1AutoCoTaskMemFree@@QAE@XZ ; has WINAPI (@0)
; public: __thiscall AutoEnvironmentBlock::~AutoEnvironmentBlock(void)
??1AutoEnvironmentBlock@@QAE@XZ ; has WINAPI (@0)
; public: __thiscall AutoFwXmlCloseParser::~AutoFwXmlCloseParser(void)
??1AutoFwXmlCloseParser@@QAE@XZ ; has WINAPI (@0)
; public: __thiscall AutoHandle::~AutoHandle(void)
??1AutoHandle@@QAE@XZ ; has WINAPI (@0)
; public: __thiscall AutoImpersonateUser::~AutoImpersonateUser(void)
??1AutoImpersonateUser@@QAE@XZ ; has WINAPI (@0)
; public: __thiscall AutoLibrary::~AutoLibrary(void)
??1AutoLibrary@@QAE@XZ ; has WINAPI (@0)
; public: __thiscall AutoLocalFree::~AutoLocalFree(void)
??1AutoLocalFree@@QAE@XZ ; has WINAPI (@0)
; public: __thiscall AutoMIClass::~AutoMIClass(void)
??1AutoMIClass@@QAE@XZ ; has WINAPI (@0)
; public: __thiscall AutoMIInstance::~AutoMIInstance(void)
??1AutoMIInstance@@QAE@XZ ; has WINAPI (@0)
; public: __thiscall AutoObject::~AutoObject(void)
??1AutoObject@@QAE@XZ ; has WINAPI (@0)
; public: __thiscall AutoRegKey::~AutoRegKey(void)
??1AutoRegKey@@QAE@XZ ; has WINAPI (@0)
; public: __thiscall AutoSecurityDescriptor::~AutoSecurityDescriptor(void)
??1AutoSecurityDescriptor@@QAE@XZ ; has WINAPI (@0)
; public: __thiscall AutoWaitHandle::~AutoWaitHandle(void)
??1AutoWaitHandle@@QAE@XZ ; has WINAPI (@0)
; public: virtual __thiscall BufferFormatter::~BufferFormatter(void)
??1BufferFormatter@@UAE@XZ ; has WINAPI (@0)
; public: __thiscall CWSManCriticalSectionWithConditionVar::~CWSManCriticalSectionWithConditionVar(void)
??1CWSManCriticalSectionWithConditionVar@@QAE@XZ ; has WINAPI (@0)
; public: virtual __thiscall CWSManResource::~CWSManResource(void)
??1CWSManResource@@UAE@XZ ; has WINAPI (@0)
; public: __thiscall ChildLifeTimeManager::~ChildLifeTimeManager(void)
??1ChildLifeTimeManager@@QAE@XZ ; has WINAPI (@0)
; public: virtual __thiscall CircularBufferFormatter::~CircularBufferFormatter(void)
??1CircularBufferFormatter@@UAE@XZ ; has WINAPI (@0)
; public: virtual __thiscall EtwCorrelationHelper::~EtwCorrelationHelper(void)
??1EtwCorrelationHelper@@UAE@XZ ; has WINAPI (@0)
; public: virtual __thiscall ILifeTimeMgmt::~ILifeTimeMgmt(void)
??1ILifeTimeMgmt@@UAE@XZ ; has WINAPI (@0)
; public: virtual __thiscall IRequestContext::~IRequestContext(void)
??1IRequestContext@@UAE@XZ ; has WINAPI (@0)
; public: __thiscall OwnLock::~OwnLock(void)
??1OwnLock@@QAE@XZ ; has WINAPI (@0)
; public: __thiscall ShareLock::~ShareLock(void)
??1ShareLock@@QAE@XZ ; has WINAPI (@0)
; public: class <unsigned short> &__thiscall <class <unsigned short>,unsigned short *>::operator =(unsigned short *)
??4?$AutoCleanup@V?$AutoDeleteVector@G@@PAG@@QAEAAV?$AutoDeleteVector@G@@PAG@Z ; has WINAPI (@4)
; public: class <class CWSManSecurityUI> &__thiscall <class <class CWSManSecurityUI>,class CWSManSecurityUI *>::operator =(class CWSManSecurityUI *)
??4?$AutoCleanup@V?$AutoRelease@VCWSManSecurityUI@@@@PAVCWSManSecurityUI@@@@QAEAAV?$AutoRelease@VCWSManSecurityUI@@@@PAVCWSManSecurityUI@@@Z ; has WINAPI (@4)
; public: class AutoBstr &__thiscall <class AutoBstr,unsigned short *>::operator =(unsigned short *)
??4?$AutoCleanup@VAutoBstr@@PAG@@QAEAAVAutoBstr@@PAG@Z ; has WINAPI (@4)
; public: class AutoBstrNoAlloc &__thiscall <class AutoBstrNoAlloc,unsigned short *>::operator =(unsigned short *)
??4?$AutoCleanup@VAutoBstrNoAlloc@@PAG@@QAEAAVAutoBstrNoAlloc@@PAG@Z ; has WINAPI (@4)
; public: class AutoCertContext &__thiscall <class AutoCertContext,struct _CERT_CONTEXT const *>::operator =(struct _CERT_CONTEXT const *)
??4?$AutoCleanup@VAutoCertContext@@PBU_CERT_CONTEXT@@@@QAEAAVAutoCertContext@@PBU_CERT_CONTEXT@@@Z ; has WINAPI (@4)
; public: class AutoChainContext &__thiscall <class AutoChainContext,struct _CERT_CHAIN_CONTEXT const *>::operator =(struct _CERT_CHAIN_CONTEXT const *)
??4?$AutoCleanup@VAutoChainContext@@PBU_CERT_CHAIN_CONTEXT@@@@QAEAAVAutoChainContext@@PBU_CERT_CHAIN_CONTEXT@@@Z ; has WINAPI (@4)
; public: class AutoCoTaskMemFree &__thiscall <class AutoCoTaskMemFree,void *>::operator =(void *)
??4?$AutoCleanup@VAutoCoTaskMemFree@@PAX@@QAEAAVAutoCoTaskMemFree@@PAX@Z ; has WINAPI (@4)
; public: class AutoEnvironmentBlock &__thiscall <class AutoEnvironmentBlock,void *>::operator =(void *)
??4?$AutoCleanup@VAutoEnvironmentBlock@@PAX@@QAEAAVAutoEnvironmentBlock@@PAX@Z ; has WINAPI (@4)
; public: class AutoFwXmlCloseParser &__thiscall <class AutoFwXmlCloseParser,void *>::operator =(void *)
??4?$AutoCleanup@VAutoFwXmlCloseParser@@PAX@@QAEAAVAutoFwXmlCloseParser@@PAX@Z ; has WINAPI (@4)
; public: class AutoHandle &__thiscall <class AutoHandle,void *>::operator =(void *)
??4?$AutoCleanup@VAutoHandle@@PAX@@QAEAAVAutoHandle@@PAX@Z ; has WINAPI (@4)
; public: class AutoImpersonateUser &__thiscall <class AutoImpersonateUser,void *>::operator =(void *)
??4?$AutoCleanup@VAutoImpersonateUser@@PAX@@QAEAAVAutoImpersonateUser@@PAX@Z ; has WINAPI (@4)
; public: class AutoLibrary &__thiscall <class AutoLibrary,struct HINSTANCE__ *>::operator =(struct HINSTANCE__ *)
??4?$AutoCleanup@VAutoLibrary@@PAUHINSTANCE__@@@@QAEAAVAutoLibrary@@PAUHINSTANCE__@@@Z ; has WINAPI (@4)
; public: class AutoLocalFree &__thiscall <class AutoLocalFree,void *>::operator =(void *)
??4?$AutoCleanup@VAutoLocalFree@@PAX@@QAEAAVAutoLocalFree@@PAX@Z ; has WINAPI (@4)
; public: class AutoMIClass &__thiscall <class AutoMIClass,struct _MI_Class *>::operator =(struct _MI_Class *)
??4?$AutoCleanup@VAutoMIClass@@PAU_MI_Class@@@@QAEAAVAutoMIClass@@PAU_MI_Class@@@Z ; has WINAPI (@4)
; public: class AutoMIInstance &__thiscall <class AutoMIInstance,struct _MI_Instance *>::operator =(struct _MI_Instance *)
??4?$AutoCleanup@VAutoMIInstance@@PAU_MI_Instance@@@@QAEAAVAutoMIInstance@@PAU_MI_Instance@@@Z ; has WINAPI (@4)
; public: class AutoObject &__thiscall <class AutoObject,struct WSMAN_OBJECT *>::operator =(struct WSMAN_OBJECT *)
??4?$AutoCleanup@VAutoObject@@PAUWSMAN_OBJECT@@@@QAEAAVAutoObject@@PAUWSMAN_OBJECT@@@Z ; has WINAPI (@4)
; public: class AutoRegKey &__thiscall <class AutoRegKey,struct HKEY__ *>::operator =(struct HKEY__ *)
??4?$AutoCleanup@VAutoRegKey@@PAUHKEY__@@@@QAEAAVAutoRegKey@@PAUHKEY__@@@Z ; has WINAPI (@4)
; public: class AutoSecurityDescriptor &__thiscall <class AutoSecurityDescriptor,void *>::operator =(void *)
??4?$AutoCleanup@VAutoSecurityDescriptor@@PAX@@QAEAAVAutoSecurityDescriptor@@PAX@Z ; has WINAPI (@4)
; public: class AutoWaitHandle &__thiscall <class AutoWaitHandle,void *>::operator =(void *)
??4?$AutoCleanup@VAutoWaitHandle@@PAX@@QAEAAVAutoWaitHandle@@PAX@Z ; has WINAPI (@4)
; public: class <unsigned short> &__thiscall <unsigned short>::operator =(unsigned short *)
??4?$AutoDeleteVector@G@@QAEAAV0@PAG@Z ; has WINAPI (@4)
; public: class <class CWSManSecurityUI> &__thiscall <class CWSManSecurityUI>::operator =(class CWSManSecurityUI *)
??4?$AutoRelease@VCWSManSecurityUI@@@@QAEAAV0@PAVCWSManSecurityUI@@@Z ; has WINAPI (@4)
; public: class <union _LARGE_INTEGER> &__thiscall <union _LARGE_INTEGER>::operator =(class <union _LARGE_INTEGER> const &)
??4?$SimpleQueue@T_LARGE_INTEGER@@@@QAEAAV0@ABV0@@Z ; has WINAPI (@4)
; public: class AutoBstr &__thiscall AutoBstr::operator =(unsigned short *)
??4AutoBstr@@QAEAAV0@PAG@Z ; has WINAPI (@4)
; public: class AutoBstrNoAlloc &__thiscall AutoBstrNoAlloc::operator =(unsigned short *)
??4AutoBstrNoAlloc@@QAEAAV0@PAG@Z ; has WINAPI (@4)
; public: class AutoCertContext &__thiscall AutoCertContext::operator =(struct _CERT_CONTEXT const *)
??4AutoCertContext@@QAEAAV0@PBU_CERT_CONTEXT@@@Z ; has WINAPI (@4)
; public: class AutoChainContext &__thiscall AutoChainContext::operator =(struct _CERT_CHAIN_CONTEXT const *)
??4AutoChainContext@@QAEAAV0@PBU_CERT_CHAIN_CONTEXT@@@Z ; has WINAPI (@4)
; public: class AutoCoTaskMemFree &__thiscall AutoCoTaskMemFree::operator =(void *)
??4AutoCoTaskMemFree@@QAEAAV0@PAX@Z ; has WINAPI (@4)
; public: class AutoEnvironmentBlock &__thiscall AutoEnvironmentBlock::operator =(void *)
??4AutoEnvironmentBlock@@QAEAAV0@PAX@Z ; has WINAPI (@4)
; public: class AutoFwXmlCloseParser &__thiscall AutoFwXmlCloseParser::operator =(void *)
??4AutoFwXmlCloseParser@@QAEAAV0@PAX@Z ; has WINAPI (@4)
; public: class AutoHandle &__thiscall AutoHandle::operator =(void *)
??4AutoHandle@@QAEAAV0@PAX@Z ; has WINAPI (@4)
; public: class AutoImpersonateUser &__thiscall AutoImpersonateUser::operator =(void *)
??4AutoImpersonateUser@@QAEAAV0@PAX@Z ; has WINAPI (@4)
; public: class AutoLibrary &__thiscall AutoLibrary::operator =(struct HINSTANCE__ *)
??4AutoLibrary@@QAEAAV0@PAUHINSTANCE__@@@Z ; has WINAPI (@4)
; public: class AutoLocalFree &__thiscall AutoLocalFree::operator =(void *)
??4AutoLocalFree@@QAEAAV0@PAX@Z ; has WINAPI (@4)
; public: class AutoMIClass &__thiscall AutoMIClass::operator =(struct _MI_Class *)
??4AutoMIClass@@QAEAAV0@PAU_MI_Class@@@Z ; has WINAPI (@4)
; public: class AutoMIInstance &__thiscall AutoMIInstance::operator =(struct _MI_Instance *)
??4AutoMIInstance@@QAEAAV0@PAU_MI_Instance@@@Z ; has WINAPI (@4)
; public: class AutoObject &__thiscall AutoObject::operator =(struct WSMAN_OBJECT *)
??4AutoObject@@QAEAAV0@PAUWSMAN_OBJECT@@@Z ; has WINAPI (@4)
; public: class AutoRegKey &__thiscall AutoRegKey::operator =(struct HKEY__ *)
??4AutoRegKey@@QAEAAV0@PAUHKEY__@@@Z ; has WINAPI (@4)
; public: class AutoSecurityDescriptor &__thiscall AutoSecurityDescriptor::operator =(void *)
??4AutoSecurityDescriptor@@QAEAAV0@PAX@Z ; has WINAPI (@4)
; public: class AutoWaitHandle &__thiscall AutoWaitHandle::operator =(void *)
??4AutoWaitHandle@@QAEAAV0@PAX@Z ; has WINAPI (@4)
; public: class ChildLifeTimeManager &__thiscall ChildLifeTimeManager::operator =(class ChildLifeTimeManager const &)
??4ChildLifeTimeManager@@QAEAAV0@ABV0@@Z ; has WINAPI (@4)
; public: class EtwCorrelationHelper &__thiscall EtwCorrelationHelper::operator =(class EtwCorrelationHelper const &)
??4EtwCorrelationHelper@@QAEAAV0@ABV0@@Z ; has WINAPI (@4)
; public: class EventLog &__thiscall EventLog::operator =(class EventLog const &)
??4EventLog@@QAEAAV0@ABV0@@Z ; has WINAPI (@4)
; public: class FastLock &__thiscall FastLock::operator =(class FastLock const &)
??4FastLock@@QAEAAV0@ABV0@@Z ; has WINAPI (@4)
; public: class ILifeTimeMgmt &__thiscall ILifeTimeMgmt::operator =(class ILifeTimeMgmt const &)
??4ILifeTimeMgmt@@QAEAAV0@ABV0@@Z ; has WINAPI (@4)
; public: class PacketFormatter &__thiscall PacketFormatter::operator =(class PacketFormatter const &)
??4PacketFormatter@@QAEAAV0@ABV0@@Z ; has WINAPI (@4)
; public: bool __thiscall <class <unsigned short>,unsigned short *>::operator !(void)const 
??7?$AutoCleanup@V?$AutoDeleteVector@G@@PAG@@QBE_NXZ ; has WINAPI (@0)
; public: bool __thiscall <class <class CRequestContext>,class CRequestContext *>::operator !(void)const 
??7?$AutoCleanup@V?$AutoRelease@VCRequestContext@@@@PAVCRequestContext@@@@QBE_NXZ ; has WINAPI (@0)
; public: bool __thiscall <class <class CWSManSecurityUI>,class CWSManSecurityUI *>::operator !(void)const 
??7?$AutoCleanup@V?$AutoRelease@VCWSManSecurityUI@@@@PAVCWSManSecurityUI@@@@QBE_NXZ ; has WINAPI (@0)
; public: void __thiscall <class <class Locale::Resources>,class Locale::Resources *>::operator class Locale::Resources *(...)throw()
??B?$AutoCleanup@V?$AutoDelete@VResources@Locale@@@@PAVResources@Locale@@@@QAEPAVResources@Locale@@XZ ; has WINAPI (@0)
; public: void __thiscall <class <unsigned char>,unsigned char *>::operator unsigned char *(...)throw()
??B?$AutoCleanup@V?$AutoDeleteVector@E@@PAE@@QAEPAEXZ ; has WINAPI (@0)
; public: void __thiscall <class <unsigned short>,unsigned short *>::operator unsigned short *(...)throw()
??B?$AutoCleanup@V?$AutoDeleteVector@G@@PAG@@QAEPAGXZ ; has WINAPI (@0)
; public: void __thiscall <class <unsigned short const *>,unsigned short const **>::operator unsigned short const **(...)throw()
??B?$AutoCleanup@V?$AutoDeleteVector@PBG@@PAPBG@@QAEPAPBGXZ ; has WINAPI (@0)
; public: void __thiscall <class <struct _WSMAN_OPTION>,struct _WSMAN_OPTION *>::operator struct _WSMAN_OPTION *(...)throw()
??B?$AutoCleanup@V?$AutoDeleteVector@U_WSMAN_OPTION@@@@PAU_WSMAN_OPTION@@@@QAEPAU_WSMAN_OPTION@@XZ ; has WINAPI (@0)
; public: void __thiscall <class <unsigned char>,unsigned char *>::operator unsigned char *(...)throw()
??B?$AutoCleanup@V?$AutoFree@E@@PAE@@QAEPAEXZ ; has WINAPI (@0)
; public: void __thiscall <class <unsigned char>,unsigned char *>::operator unsigned char *const(...)const throw()
??B?$AutoCleanup@V?$AutoFree@E@@PAE@@QBEQAEXZ ; has WINAPI (@0)
; public: void __thiscall <class <class CWSManSecurityUI>,class CWSManSecurityUI *>::operator class CWSManSecurityUI *(...)throw()
??B?$AutoCleanup@V?$AutoRelease@VCWSManSecurityUI@@@@PAVCWSManSecurityUI@@@@QAEPAVCWSManSecurityUI@@XZ ; has WINAPI (@0)
; public: void __thiscall <class AutoLocalFree,void *>::operator void *(...)throw()
??B?$AutoCleanup@VAutoLocalFree@@PAX@@QAEPAXXZ ; has WINAPI (@0)
; public: class CRequestContext *__thiscall <class <class CRequestContext>,class CRequestContext *>::operator ->(void)
??C?$AutoCleanup@V?$AutoRelease@VCRequestContext@@@@PAVCRequestContext@@@@QAEPAVCRequestContext@@XZ ; has WINAPI (@0)
; public: class CWSManSecurityUI *__thiscall <class <class CWSManSecurityUI>,class CWSManSecurityUI *>::operator ->(void)
??C?$AutoCleanup@V?$AutoRelease@VCWSManSecurityUI@@@@PAVCWSManSecurityUI@@@@QAEPAVCWSManSecurityUI@@XZ ; has WINAPI (@0)
; const <class Locale::Key,unsigned long,class <class Locale::Key,unsigned long>>::$vftable
??_7?$SafeMap@VKey@Locale@@KV?$SafeMap_Iterator@VKey@Locale@@K@@@@6B@ DATA
; const BufferFormatter::$vftable
??_7BufferFormatter@@6B@ DATA
; const CWSManResource::$vftable
??_7CWSManResource@@6B@ DATA
; const CircularBufferFormatter::$vftable
??_7CircularBufferFormatter@@6B@ DATA
; const EtwCorrelationHelper::$vftable
??_7EtwCorrelationHelper@@6B@ DATA
; const ILifeTimeMgmt::$vftable
??_7ILifeTimeMgmt@@6B@ DATA
; const IRequestContext::$vftable
??_7IRequestContext@@6B@ DATA
; public: void __thiscall CErrorContext::__dflt_ctor_closure(void)
??_FCErrorContext@@QAEXXZ ; has WINAPI (@0)
; public: virtual void __thiscall <class Locale::Key,unsigned long,class <class Locale::Key,unsigned long>>::Acquire(void)const 
?Acquire@?$SafeMap@VKey@Locale@@KV?$SafeMap_Iterator@VKey@Locale@@K@@@@UBEXXZ ; has WINAPI (@0)
; public: void __thiscall <class Locale::Key,unsigned long,class <class Locale::Key,unsigned long>>::Acquire(void)
?Acquire@?$SafeMap_Lock@VKey@Locale@@KV?$SafeMap_Iterator@VKey@Locale@@K@@@@QAEXXZ ; has WINAPI (@0)
; public: void __thiscall FastLock::AcquireExclusive(void)
?AcquireExclusive@FastLock@@QAEXXZ ; has WINAPI (@0)
; public: void __thiscall FastLock::AcquireShared(void)
?AcquireShared@FastLock@@QAEXXZ ; has WINAPI (@0)
; public: bool __thiscall <class Locale::Key,unsigned long,class <class Locale::Key,unsigned long>>::Acquired(void)
?Acquired@?$SafeMap_Lock@VKey@Locale@@KV?$SafeMap_Iterator@VKey@Locale@@K@@@@QAE_NXZ ; has WINAPI (@0)
; public: virtual long __thiscall ILifeTimeMgmt::AddRef(void)
?AddRef@ILifeTimeMgmt@@UAEJXZ ; has WINAPI (@0)
; public: class <class Locale::Key,unsigned long,class <class Locale::Key,unsigned long>> &__thiscall <class Locale::Key,unsigned long,class <class Locale::Key,unsigned long>>::AsReference(void)
?AsReference@?$SafeMap@VKey@Locale@@KV?$SafeMap_Iterator@VKey@Locale@@K@@@@QAEAAV1@XZ ; has WINAPI (@0)
; protected: bool __thiscall <class Locale::Resources>::CreateInstance(class IRequestContext &)
?CreateInstance@?$ILoader@VResources@Locale@@@@IAE_NAAVIRequestContext@@@Z ; has WINAPI (@4)
; protected: class <class Locale::Key,unsigned long> &__thiscall <class Locale::Key,unsigned long>::Data(void)const 
?Data@?$SafeMap_Iterator@VKey@Locale@@K@@IBEAAV?$STLMap@VKey@Locale@@K@@XZ ; has WINAPI (@0)
; public: virtual bool __thiscall <class Locale::Key,unsigned long,class <class Locale::Key,unsigned long>>::DeInitialize(class IRequestContext &)
?DeInitialize@?$SafeMap@VKey@Locale@@KV?$SafeMap_Iterator@VKey@Locale@@K@@@@UAE_NAAVIRequestContext@@@Z ; has WINAPI (@4)
; public: class Locale::Resources *__thiscall <class <class Locale::Resources>,class Locale::Resources *>::Detach(void)
?Detach@?$AutoCleanup@V?$AutoDelete@VResources@Locale@@@@PAVResources@Locale@@@@QAEPAVResources@Locale@@XZ ; has WINAPI (@0)
; public: unsigned short *__thiscall <class <unsigned short>,unsigned short *>::Detach(void)
?Detach@?$AutoCleanup@V?$AutoDeleteVector@G@@PAG@@QAEPAGXZ ; has WINAPI (@0)
; public: unsigned char *__thiscall <class <unsigned char>,unsigned char *>::Detach(void)
?Detach@?$AutoCleanup@V?$AutoFree@E@@PAE@@QAEPAEXZ ; has WINAPI (@0)
; public: unsigned char *__thiscall BufferFormatter::Detach(void)
?Detach@BufferFormatter@@QAEPAEXZ ; has WINAPI (@0)
; public: bool __thiscall <class Locale::Resources>::FreeInstance(class IRequestContext &,bool)
?FreeInstance@?$ILoader@VResources@Locale@@@@QAE_NAAVIRequestContext@@_N@Z ; has WINAPI (@8)
; public: enum PacketFormatter::Charset __thiscall PacketFormatter::GetBomIndex(void)const 
?GetBomIndex@PacketFormatter@@QBE?AW4Charset@1@XZ ; has WINAPI (@0)
; public: virtual unsigned char *__thiscall BufferFormatter::GetBuffer(void)
?GetBuffer@BufferFormatter@@UAEPAEXZ ; has WINAPI (@0)
; public: virtual unsigned char const *__thiscall BufferFormatter::GetBuffer(void)const 
?GetBuffer@BufferFormatter@@UBEPBEXZ ; has WINAPI (@0)
; public: virtual unsigned char const *__thiscall CircularBufferFormatter::GetBuffer(void)const 
?GetBuffer@CircularBufferFormatter@@UBEPBEXZ ; has WINAPI (@0)
; public: unsigned short const *__thiscall XmlReader::GetBuffer(void)
?GetBuffer@XmlReader@@QAEPBGXZ ; has WINAPI (@0)
; public: unsigned long __thiscall BufferFormatter::GetBufferSize(void)const 
?GetBufferSize@BufferFormatter@@QBEKXZ ; has WINAPI (@0)
; public: virtual unsigned long __thiscall BufferFormatter::GetCalculationSize(bool)const 
?GetCalculationSize@BufferFormatter@@UBEK_N@Z ; has WINAPI (@4)
; public: enum PacketFormatter::Charset __thiscall PacketFormatter::GetCharset(void)const 
?GetCharset@PacketFormatter@@QBE?AW4Charset@1@XZ ; has WINAPI (@0)
; public: long __thiscall ChildLifeTimeManager::GetChildCount(void)const 
?GetChildCount@ChildLifeTimeManager@@QBEJXZ ; has WINAPI (@0)
; public: unsigned long __thiscall BufferFormatter::GetError(void)const 
?GetError@BufferFormatter@@QBEKXZ ; has WINAPI (@0)
; public: virtual unsigned long __thiscall CErrorContext::GetErrorCode(void)const 
?GetErrorCode@CErrorContext@@UBEKXZ ; has WINAPI (@0)
; public: virtual unsigned short const *__thiscall CErrorContext::GetFaultXML(void)const 
?GetFaultXML@CErrorContext@@UBEPBGXZ ; has WINAPI (@0)
; public: virtual unsigned short const *__thiscall CRequestContext::GetFaultXML(void)const 
?GetFaultXML@CRequestContext@@UBEPBGXZ ; has WINAPI (@0)
; public: enum PacketFormatter::Charset __thiscall BufferFormatter::GetFormatterMode(void)
?GetFormatterMode@BufferFormatter@@QAE?AW4Charset@PacketFormatter@@XZ ; has WINAPI (@0)
; public: unsigned long __thiscall CWSManCriticalSection::GetInitError(void)const 
?GetInitError@CWSManCriticalSection@@QBEKXZ ; has WINAPI (@0)
; public: class Locale::Resources *__thiscall <class Locale::Resources,0x0ULL>::GetInstance(class IRequestContext &)
?GetInstance@?$LoaderSerializer@VResources@Locale@@$0A@@@QAEPAVResources@Locale@@AAVIRequestContext@@@Z ; has WINAPI (@4)
; public: unsigned long __thiscall Locale::GetLCID(void)
?GetLCID@Locale@@QAEKXZ ; has WINAPI (@0)
; public: unsigned int __thiscall XmlReader::GetLength(void)
?GetLength@XmlReader@@QAEIXZ ; has WINAPI (@0)
; public: class Locale &__thiscall CRequestContext::GetLocale(void)
?GetLocale@CRequestContext@@QAEAAVLocale@@XZ ; has WINAPI (@0)
; public: unsigned short const *__thiscall CRequestContext::GetLocaleString(void)
?GetLocaleString@CRequestContext@@QAEPBGXZ ; has WINAPI (@0)
; public: class <class Locale::Key,unsigned long,class <class Locale::Key,unsigned long>> &__thiscall <class Locale::Key,unsigned long>::GetMap(void)const 
?GetMap@?$SafeMap_Iterator@VKey@Locale@@K@@QBEAAV?$SafeMap@VKey@Locale@@KV?$SafeMap_Iterator@VKey@Locale@@K@@@@XZ ; has WINAPI (@0)
; public: class <class Locale::Key,unsigned long,class <class Locale::Key,unsigned long>> const &__thiscall <class Locale::Key,unsigned long,class <class Locale::Key,unsigned long>>::GetMap(void)const 
?GetMap@?$SafeMap_Lock@VKey@Locale@@KV?$SafeMap_Iterator@VKey@Locale@@K@@@@QBEABV?$SafeMap@VKey@Locale@@KV?$SafeMap_Iterator@VKey@Locale@@K@@@@XZ ; has WINAPI (@0)
; public: virtual unsigned long __thiscall CErrorContext::GetMessageId(void)const 
?GetMessageId@CErrorContext@@UBEKXZ ; has WINAPI (@0)
; public: virtual unsigned long __thiscall CRequestContext::GetMessageId(void)const 
?GetMessageId@CRequestContext@@UBEKXZ ; has WINAPI (@0)
; protected: class Locale::Resources *__thiscall <class Locale::Resources>::GetObjectW(void)const 
?GetObjectW@?$ILoader@VResources@Locale@@@@IBEPAVResources@Locale@@XZ ; has WINAPI (@0)
; public: unsigned long __thiscall CWSManResourceNoResourceUri::GetOptionCount(void)
?GetOptionCount@CWSManResourceNoResourceUri@@QAEKXZ ; has WINAPI (@0)
; public: unsigned short const **__thiscall CWSManResourceNoResourceUri::GetOptionTypes(void)
?GetOptionTypes@CWSManResourceNoResourceUri@@QAEPAPBGXZ ; has WINAPI (@0)
; public: struct _WSMAN_OPTION *__thiscall CWSManResourceNoResourceUri::GetOptions(void)
?GetOptions@CWSManResourceNoResourceUri@@QAEPAU_WSMAN_OPTION@@XZ ; has WINAPI (@0)
; public: int __thiscall CWSManResourceNoResourceUri::GetOptionsMustUnderstandValue(void)
?GetOptionsMustUnderstandValue@CWSManResourceNoResourceUri@@QAEHXZ ; has WINAPI (@0)
; public: void *__thiscall XmlReader::GetParser(void)
?GetParser@XmlReader@@QAEPAXXZ ; has WINAPI (@0)
; public: long __thiscall ILifeTimeMgmt::GetRefCount(void)
?GetRefCount@ILifeTimeMgmt@@QAEJXZ ; has WINAPI (@0)
; public: virtual unsigned long __thiscall BufferFormatter::GetSpaceUsed(bool)const 
?GetSpaceUsed@BufferFormatter@@UBEK_N@Z ; has WINAPI (@4)
; public: int __thiscall CRequestContext::HasFaultXML(void)const 
?HasFaultXML@CRequestContext@@QBEHXZ ; has WINAPI (@0)
; private: int __thiscall CRequestContext::HasHtmlError(void)const 
?HasHtmlError@CRequestContext@@ABEHXZ ; has WINAPI (@0)
; public: virtual bool __thiscall <class Locale::Key,unsigned long,class <class Locale::Key,unsigned long>>::Initialize(class IRequestContext &)
?Initialize@?$SafeMap@VKey@Locale@@KV?$SafeMap_Iterator@VKey@Locale@@K@@@@UAE_NAAVIRequestContext@@@Z ; has WINAPI (@4)
; public: bool __thiscall ChildLifeTimeManager::IsActive(void)
?IsActive@ChildLifeTimeManager@@QAE_NXZ ; has WINAPI (@0)
; public: int __thiscall CRequestContext::IsCIM_Error(void)
?IsCIM_Error@CRequestContext@@QAEHXZ ; has WINAPI (@0)
; public: bool __thiscall <class Locale::Resources>::IsEmpty(void)const 
?IsEmpty@?$ILoader@VResources@Locale@@@@QBE_NXZ ; has WINAPI (@0)
; public: virtual bool __thiscall CErrorContext::IsGeneratingError(void)const 
?IsGeneratingError@CErrorContext@@UBE_NXZ ; has WINAPI (@0)
; public: bool __thiscall BufferFormatter::IsInCommitMode(void)
?IsInCommitMode@BufferFormatter@@QAE_NXZ ; has WINAPI (@0)
; public: bool __thiscall <class Locale::Key,unsigned long>::IsValid(void)const 
?IsValid@?$SafeMap_Iterator@VKey@Locale@@K@@QBE_NXZ ; has WINAPI (@0)
; public: void __thiscall CRequestContext::LogErrorCode(void)
?LogErrorCode@CRequestContext@@QAEXXZ ; has WINAPI (@0)
; private: class <unsigned short> &__thiscall <class <unsigned short>,unsigned short *>::Me(void)
?Me@?$AutoCleanup@V?$AutoDelete@G@@PAG@@AAEAAV?$AutoDelete@G@@XZ ; has WINAPI (@0)
; private: class <class Locale::Resources> &__thiscall <class <class Locale::Resources>,class Locale::Resources *>::Me(void)
?Me@?$AutoCleanup@V?$AutoDelete@VResources@Locale@@@@PAVResources@Locale@@@@AAEAAV?$AutoDelete@VResources@Locale@@@@XZ ; has WINAPI (@0)
; private: class <unsigned char> &__thiscall <class <unsigned char>,unsigned char *>::Me(void)
?Me@?$AutoCleanup@V?$AutoDeleteVector@E@@PAE@@AAEAAV?$AutoDeleteVector@E@@XZ ; has WINAPI (@0)
; private: class <unsigned short> &__thiscall <class <unsigned short>,unsigned short *>::Me(void)
?Me@?$AutoCleanup@V?$AutoDeleteVector@G@@PAG@@AAEAAV?$AutoDeleteVector@G@@XZ ; has WINAPI (@0)
; private: class <unsigned short const *> &__thiscall <class <unsigned short const *>,unsigned short const **>::Me(void)
?Me@?$AutoCleanup@V?$AutoDeleteVector@PBG@@PAPBG@@AAEAAV?$AutoDeleteVector@PBG@@XZ ; has WINAPI (@0)
; private: class <struct _WSMAN_OPTION> &__thiscall <class <struct _WSMAN_OPTION>,struct _WSMAN_OPTION *>::Me(void)
?Me@?$AutoCleanup@V?$AutoDeleteVector@U_WSMAN_OPTION@@@@PAU_WSMAN_OPTION@@@@AAEAAV?$AutoDeleteVector@U_WSMAN_OPTION@@@@XZ ; has WINAPI (@0)
; private: class <unsigned char> &__thiscall <class <unsigned char>,unsigned char *>::Me(void)
?Me@?$AutoCleanup@V?$AutoFree@E@@PAE@@AAEAAV?$AutoFree@E@@XZ ; has WINAPI (@0)
; private: class <class CRequestContext> &__thiscall <class <class CRequestContext>,class CRequestContext *>::Me(void)
?Me@?$AutoCleanup@V?$AutoRelease@VCRequestContext@@@@PAVCRequestContext@@@@AAEAAV?$AutoRelease@VCRequestContext@@@@XZ ; has WINAPI (@0)
; private: class <class CWSManSecurityUI> &__thiscall <class <class CWSManSecurityUI>,class CWSManSecurityUI *>::Me(void)
?Me@?$AutoCleanup@V?$AutoRelease@VCWSManSecurityUI@@@@PAVCWSManSecurityUI@@@@AAEAAV?$AutoRelease@VCWSManSecurityUI@@@@XZ ; has WINAPI (@0)
; private: class AutoBstr &__thiscall <class AutoBstr,unsigned short *>::Me(void)
?Me@?$AutoCleanup@VAutoBstr@@PAG@@AAEAAVAutoBstr@@XZ ; has WINAPI (@0)
; private: class AutoBstrNoAlloc &__thiscall <class AutoBstrNoAlloc,unsigned short *>::Me(void)
?Me@?$AutoCleanup@VAutoBstrNoAlloc@@PAG@@AAEAAVAutoBstrNoAlloc@@XZ ; has WINAPI (@0)
; private: class AutoCertContext &__thiscall <class AutoCertContext,struct _CERT_CONTEXT const *>::Me(void)
?Me@?$AutoCleanup@VAutoCertContext@@PBU_CERT_CONTEXT@@@@AAEAAVAutoCertContext@@XZ ; has WINAPI (@0)
; private: class AutoChainContext &__thiscall <class AutoChainContext,struct _CERT_CHAIN_CONTEXT const *>::Me(void)
?Me@?$AutoCleanup@VAutoChainContext@@PBU_CERT_CHAIN_CONTEXT@@@@AAEAAVAutoChainContext@@XZ ; has WINAPI (@0)
; private: class AutoCoTaskMemFree &__thiscall <class AutoCoTaskMemFree,void *>::Me(void)
?Me@?$AutoCleanup@VAutoCoTaskMemFree@@PAX@@AAEAAVAutoCoTaskMemFree@@XZ ; has WINAPI (@0)
; private: class AutoEnvironmentBlock &__thiscall <class AutoEnvironmentBlock,void *>::Me(void)
?Me@?$AutoCleanup@VAutoEnvironmentBlock@@PAX@@AAEAAVAutoEnvironmentBlock@@XZ ; has WINAPI (@0)
; private: class AutoFwXmlCloseParser &__thiscall <class AutoFwXmlCloseParser,void *>::Me(void)
?Me@?$AutoCleanup@VAutoFwXmlCloseParser@@PAX@@AAEAAVAutoFwXmlCloseParser@@XZ ; has WINAPI (@0)
; private: class AutoHandle &__thiscall <class AutoHandle,void *>::Me(void)
?Me@?$AutoCleanup@VAutoHandle@@PAX@@AAEAAVAutoHandle@@XZ ; has WINAPI (@0)
; private: class AutoImpersonateUser &__thiscall <class AutoImpersonateUser,void *>::Me(void)
?Me@?$AutoCleanup@VAutoImpersonateUser@@PAX@@AAEAAVAutoImpersonateUser@@XZ ; has WINAPI (@0)
; private: class AutoLibrary &__thiscall <class AutoLibrary,struct HINSTANCE__ *>::Me(void)
?Me@?$AutoCleanup@VAutoLibrary@@PAUHINSTANCE__@@@@AAEAAVAutoLibrary@@XZ ; has WINAPI (@0)
; private: class AutoLocalFree &__thiscall <class AutoLocalFree,void *>::Me(void)
?Me@?$AutoCleanup@VAutoLocalFree@@PAX@@AAEAAVAutoLocalFree@@XZ ; has WINAPI (@0)
; private: class AutoMIClass &__thiscall <class AutoMIClass,struct _MI_Class *>::Me(void)
?Me@?$AutoCleanup@VAutoMIClass@@PAU_MI_Class@@@@AAEAAVAutoMIClass@@XZ ; has WINAPI (@0)
; private: class AutoMIInstance &__thiscall <class AutoMIInstance,struct _MI_Instance *>::Me(void)
?Me@?$AutoCleanup@VAutoMIInstance@@PAU_MI_Instance@@@@AAEAAVAutoMIInstance@@XZ ; has WINAPI (@0)
; private: class AutoObject &__thiscall <class AutoObject,struct WSMAN_OBJECT *>::Me(void)
?Me@?$AutoCleanup@VAutoObject@@PAUWSMAN_OBJECT@@@@AAEAAVAutoObject@@XZ ; has WINAPI (@0)
; private: class AutoRegKey &__thiscall <class AutoRegKey,struct HKEY__ *>::Me(void)
?Me@?$AutoCleanup@VAutoRegKey@@PAUHKEY__@@@@AAEAAVAutoRegKey@@XZ ; has WINAPI (@0)
; private: class AutoSecurityDescriptor &__thiscall <class AutoSecurityDescriptor,void *>::Me(void)
?Me@?$AutoCleanup@VAutoSecurityDescriptor@@PAX@@AAEAAVAutoSecurityDescriptor@@XZ ; has WINAPI (@0)
; private: class AutoWaitHandle &__thiscall <class AutoWaitHandle,void *>::Me(void)
?Me@?$AutoCleanup@VAutoWaitHandle@@PAX@@AAEAAVAutoWaitHandle@@XZ ; has WINAPI (@0)
; public: virtual int __thiscall CErrorContext::Passed(void)const 
?Passed@CErrorContext@@UBEHXZ ; has WINAPI (@0)
; public: virtual unsigned long __thiscall CircularBufferFormatter::PrepareToCommitWithSize(unsigned long)
?PrepareToCommitWithSize@CircularBufferFormatter@@UAEKK@Z ; has WINAPI (@4)
; public: int __thiscall CRequestContext::ProcessContext(int,struct _WSMAN_ENUMERATOR_RESULT *)
?ProcessContext@CRequestContext@@QAEHHPAU_WSMAN_ENUMERATOR_RESULT@@@Z ; has WINAPI (@8)
; public: int __thiscall CRequestContext::ProcessContext(int,struct _WSMAN_EVENTS_RESULT *)
?ProcessContext@CRequestContext@@QAEHHPAU_WSMAN_EVENTS_RESULT@@@Z ; has WINAPI (@8)
; public: int __thiscall CRequestContext::ProcessContext(int,struct _WSMAN_RESULT *)
?ProcessContext@CRequestContext@@QAEHHPAU_WSMAN_RESULT@@@Z ; has WINAPI (@8)
; public: int __thiscall CRequestContext::ProcessContext(int,struct _WSMAN_STATUS *)
?ProcessContext@CRequestContext@@QAEHHPAU_WSMAN_STATUS@@@Z ; has WINAPI (@8)
; public: virtual int __thiscall CErrorContext::ProviderFailure(void)const 
?ProviderFailure@CErrorContext@@UBEHXZ ; has WINAPI (@0)
; public: virtual void __thiscall CRequestContext::RecordAccessDenied(void)
?RecordAccessDenied@CRequestContext@@UAEXXZ ; has WINAPI (@0)
; public: virtual void __thiscall CRequestContext::RecordFailure(unsigned long)
?RecordFailure@CRequestContext@@UAEXK@Z ; has WINAPI (@4)
; public: int __thiscall CRequestContext::RecordHtmlError(unsigned long,struct _FWXML_ELEMENT *)
?RecordHtmlError@CRequestContext@@QAEHKPAU_FWXML_ELEMENT@@@Z ; has WINAPI (@8)
; public: int __thiscall CRequestContext::RecordHtmlError(unsigned long,unsigned short const *,unsigned long)
?RecordHtmlError@CRequestContext@@QAEHKPBGK@Z ; has WINAPI (@12)
; public: void __thiscall IRequestContext::RecordMIFailure(enum _MI_Result,unsigned long)
?RecordMIFailure@IRequestContext@@QAEXW4_MI_Result@@K@Z ; has WINAPI (@8)
; public: virtual void __thiscall CRequestContext::RecordOutOfMemory(void)
?RecordOutOfMemory@CRequestContext@@UAEXXZ ; has WINAPI (@0)
; public: void __thiscall CRequestContext::RecordProviderFailure(unsigned long,int,unsigned short const *,unsigned short const *,unsigned short const *)
?RecordProviderFailure@CRequestContext@@QAEXKHPBG00@Z ; has WINAPI (@20)
; public: int __thiscall CRequestContext::RecordSoapError(unsigned long,struct _FWXML_ELEMENT *)
?RecordSoapError@CRequestContext@@QAEHKPAU_FWXML_ELEMENT@@@Z ; has WINAPI (@8)
; public: virtual int __thiscall CRequestContext::RecordSoapError(unsigned long,unsigned short const *)
?RecordSoapError@CRequestContext@@UAEHKPBG@Z ; has WINAPI (@8)
; public: bool __thiscall ChildLifeTimeManager::RegisterChild(void)
?RegisterChild@ChildLifeTimeManager@@QAE_NXZ ; has WINAPI (@0)
; public: virtual void __thiscall <class Locale::Key,unsigned long,class <class Locale::Key,unsigned long>>::Release(void)const 
?Release@?$SafeMap@VKey@Locale@@KV?$SafeMap_Iterator@VKey@Locale@@K@@@@UBEXXZ ; has WINAPI (@0)
; public: virtual long __thiscall ILifeTimeMgmt::Release(void(__stdcall *)(void *),void *)
?Release@ILifeTimeMgmt@@UAEJP6GXPAX@Z0@Z ; has WINAPI (@8)
; public: void __thiscall FastLock::ReleaseExclusive(void)
?ReleaseExclusive@FastLock@@QAEXXZ ; has WINAPI (@0)
; private: void __thiscall <class <unsigned short>,unsigned short *>::ReleasePtr(void)
?ReleasePtr@?$AutoCleanup@V?$AutoDelete@G@@PAG@@AAEXXZ ; has WINAPI (@0)
; private: void __thiscall <class <class Locale::Resources>,class Locale::Resources *>::ReleasePtr(void)
?ReleasePtr@?$AutoCleanup@V?$AutoDelete@VResources@Locale@@@@PAVResources@Locale@@@@AAEXXZ ; has WINAPI (@0)
; private: void __thiscall <class <unsigned char>,unsigned char *>::ReleasePtr(void)
?ReleasePtr@?$AutoCleanup@V?$AutoDeleteVector@E@@PAE@@AAEXXZ ; has WINAPI (@0)
; private: void __thiscall <class <unsigned short>,unsigned short *>::ReleasePtr(void)
?ReleasePtr@?$AutoCleanup@V?$AutoDeleteVector@G@@PAG@@AAEXXZ ; has WINAPI (@0)
; private: void __thiscall <class <unsigned short const *>,unsigned short const **>::ReleasePtr(void)
?ReleasePtr@?$AutoCleanup@V?$AutoDeleteVector@PBG@@PAPBG@@AAEXXZ ; has WINAPI (@0)
; private: void __thiscall <class <struct _WSMAN_OPTION>,struct _WSMAN_OPTION *>::ReleasePtr(void)
?ReleasePtr@?$AutoCleanup@V?$AutoDeleteVector@U_WSMAN_OPTION@@@@PAU_WSMAN_OPTION@@@@AAEXXZ ; has WINAPI (@0)
; private: void __thiscall <class <unsigned char>,unsigned char *>::ReleasePtr(void)
?ReleasePtr@?$AutoCleanup@V?$AutoFree@E@@PAE@@AAEXXZ ; has WINAPI (@0)
; private: void __thiscall <class <class CRequestContext>,class CRequestContext *>::ReleasePtr(void)
?ReleasePtr@?$AutoCleanup@V?$AutoRelease@VCRequestContext@@@@PAVCRequestContext@@@@AAEXXZ ; has WINAPI (@0)
; private: void __thiscall <class <class CWSManSecurityUI>,class CWSManSecurityUI *>::ReleasePtr(void)
?ReleasePtr@?$AutoCleanup@V?$AutoRelease@VCWSManSecurityUI@@@@PAVCWSManSecurityUI@@@@AAEXXZ ; has WINAPI (@0)
; private: void __thiscall <class AutoBstr,unsigned short *>::ReleasePtr(void)
?ReleasePtr@?$AutoCleanup@VAutoBstr@@PAG@@AAEXXZ ; has WINAPI (@0)
; private: void __thiscall <class AutoBstrNoAlloc,unsigned short *>::ReleasePtr(void)
?ReleasePtr@?$AutoCleanup@VAutoBstrNoAlloc@@PAG@@AAEXXZ ; has WINAPI (@0)
; private: void __thiscall <class AutoCertContext,struct _CERT_CONTEXT const *>::ReleasePtr(void)
?ReleasePtr@?$AutoCleanup@VAutoCertContext@@PBU_CERT_CONTEXT@@@@AAEXXZ ; has WINAPI (@0)
; private: void __thiscall <class AutoChainContext,struct _CERT_CHAIN_CONTEXT const *>::ReleasePtr(void)
?ReleasePtr@?$AutoCleanup@VAutoChainContext@@PBU_CERT_CHAIN_CONTEXT@@@@AAEXXZ ; has WINAPI (@0)
; private: void __thiscall <class AutoCoTaskMemFree,void *>::ReleasePtr(void)
?ReleasePtr@?$AutoCleanup@VAutoCoTaskMemFree@@PAX@@AAEXXZ ; has WINAPI (@0)
; private: void __thiscall <class AutoEnvironmentBlock,void *>::ReleasePtr(void)
?ReleasePtr@?$AutoCleanup@VAutoEnvironmentBlock@@PAX@@AAEXXZ ; has WINAPI (@0)
; private: void __thiscall <class AutoFwXmlCloseParser,void *>::ReleasePtr(void)
?ReleasePtr@?$AutoCleanup@VAutoFwXmlCloseParser@@PAX@@AAEXXZ ; has WINAPI (@0)
; private: void __thiscall <class AutoHandle,void *>::ReleasePtr(void)
?ReleasePtr@?$AutoCleanup@VAutoHandle@@PAX@@AAEXXZ ; has WINAPI (@0)
; private: void __thiscall <class AutoImpersonateUser,void *>::ReleasePtr(void)
?ReleasePtr@?$AutoCleanup@VAutoImpersonateUser@@PAX@@AAEXXZ ; has WINAPI (@0)
; private: void __thiscall <class AutoLibrary,struct HINSTANCE__ *>::ReleasePtr(void)
?ReleasePtr@?$AutoCleanup@VAutoLibrary@@PAUHINSTANCE__@@@@AAEXXZ ; has WINAPI (@0)
; private: void __thiscall <class AutoLocalFree,void *>::ReleasePtr(void)
?ReleasePtr@?$AutoCleanup@VAutoLocalFree@@PAX@@AAEXXZ ; has WINAPI (@0)
; private: void __thiscall <class AutoMIClass,struct _MI_Class *>::ReleasePtr(void)
?ReleasePtr@?$AutoCleanup@VAutoMIClass@@PAU_MI_Class@@@@AAEXXZ ; has WINAPI (@0)
; private: void __thiscall <class AutoMIInstance,struct _MI_Instance *>::ReleasePtr(void)
?ReleasePtr@?$AutoCleanup@VAutoMIInstance@@PAU_MI_Instance@@@@AAEXXZ ; has WINAPI (@0)
; private: void __thiscall <class AutoObject,struct WSMAN_OBJECT *>::ReleasePtr(void)
?ReleasePtr@?$AutoCleanup@VAutoObject@@PAUWSMAN_OBJECT@@@@AAEXXZ ; has WINAPI (@0)
; private: void __thiscall <class AutoRegKey,struct HKEY__ *>::ReleasePtr(void)
?ReleasePtr@?$AutoCleanup@VAutoRegKey@@PAUHKEY__@@@@AAEXXZ ; has WINAPI (@0)
; private: void __thiscall <class AutoSecurityDescriptor,void *>::ReleasePtr(void)
?ReleasePtr@?$AutoCleanup@VAutoSecurityDescriptor@@PAX@@AAEXXZ ; has WINAPI (@0)
; private: void __thiscall <class AutoWaitHandle,void *>::ReleasePtr(void)
?ReleasePtr@?$AutoCleanup@VAutoWaitHandle@@PAX@@AAEXXZ ; has WINAPI (@0)
; public: void __thiscall FastLock::ReleaseShared(void)
?ReleaseShared@FastLock@@QAEXXZ ; has WINAPI (@0)
; public: void __thiscall <class Locale::Key,unsigned long>::Reset(void)
?Reset@?$SafeMap_Iterator@VKey@Locale@@K@@QAEXXZ ; has WINAPI (@0)
; public: virtual void __thiscall BufferFormatter::Reset(void)
?Reset@BufferFormatter@@UAEXXZ ; has WINAPI (@0)
; public: virtual void __thiscall CircularBufferFormatter::Reset(void)
?Reset@CircularBufferFormatter@@UAEXXZ ; has WINAPI (@0)
; public: virtual void __thiscall CErrorContext::SetCIM_Error(void)
?SetCIM_Error@CErrorContext@@UAEXXZ ; has WINAPI (@0)
; public: virtual void __thiscall CRequestContext::SetCIM_Error(void)
?SetCIM_Error@CRequestContext@@UAEXXZ ; has WINAPI (@0)
; public: void __thiscall CErrorContext::SetExtraLogInfo(unsigned short const *,unsigned short const *,unsigned short const *,unsigned short const *)
?SetExtraLogInfo@CErrorContext@@QAEXPBG000@Z ; has WINAPI (@16)
; public: void __thiscall BufferFormatter::SetFormatterMode(enum PacketFormatter::Charset,enum PacketFormatter::Charset)
?SetFormatterMode@BufferFormatter@@QAEXW4Charset@PacketFormatter@@0@Z ; has WINAPI (@8)
; public: virtual void __thiscall CErrorContext::SetGeneratingError(void)
?SetGeneratingError@CErrorContext@@UAEXXZ ; has WINAPI (@0)
; public: bool __thiscall CRequestContext::SetLocale(unsigned short const *,unsigned long)
?SetLocale@CRequestContext@@QAE_NPBGK@Z ; has WINAPI (@8)
; public: unsigned long __thiscall CRequestContext::SetMachineName(unsigned short const *)
?SetMachineName@CRequestContext@@QAEKPBG@Z ; has WINAPI (@4)
; public: void __thiscall CircularBufferFormatter::SetMaxEnvelopeSize(unsigned long)
?SetMaxEnvelopeSize@CircularBufferFormatter@@QAEXK@Z ; has WINAPI (@4)
; public: void __thiscall CWSManResourceNoResourceUri::SetOptionsMustUnderstandValue(int)
?SetOptionsMustUnderstandValue@CWSManResourceNoResourceUri@@QAEXH@Z ; has WINAPI (@4)
; public: virtual void __thiscall BufferFormatter::SetUpdateMode(enum BufferFormatter::Mode)
?SetUpdateMode@BufferFormatter@@UAEXW4Mode@1@@Z ; has WINAPI (@4)
; public: virtual void __thiscall CircularBufferFormatter::SetUpdateMode(enum BufferFormatter::Mode)
?SetUpdateMode@CircularBufferFormatter@@UAEXW4Mode@BufferFormatter@@@Z ; has WINAPI (@4)
; public: void __thiscall ChildLifeTimeManager::Shutdown(void)
?Shutdown@ChildLifeTimeManager@@QAEXXZ ; has WINAPI (@0)
; protected: void __thiscall <class Locale::Key,unsigned long>::SkipOrphans(void)
?SkipOrphans@?$SafeMap_Iterator@VKey@Locale@@K@@IAEXXZ ; has WINAPI (@0)
; public: void __thiscall ChildLifeTimeManager::UnregisterChild(void)
?UnregisterChild@ChildLifeTimeManager@@QAEXXZ ; has WINAPI (@0)
; public: virtual int __thiscall CErrorContext::UseDefaultConfig(void)const 
?UseDefaultConfig@CErrorContext@@UBEHXZ ; has WINAPI (@0)
; public: bool __thiscall Locale::UsingDefaultLCID(void)
?UsingDefaultLCID@Locale@@QAE_NXZ ; has WINAPI (@0)
; public: void __thiscall ChildLifeTimeManager::WaitForAllChildrenToUnregister(unsigned long)
?WaitForAllChildrenToUnregister@ChildLifeTimeManager@@QAEXK@Z ; has WINAPI (@4)
; private: void __thiscall ChildLifeTimeManager::WakeAllWaitingOnNoOfChildren(void)
?WakeAllWaitingOnNoOfChildren@ChildLifeTimeManager@@AAEXXZ ; has WINAPI (@0)
; public: bool __thiscall <union _LARGE_INTEGER>::empty(void)const 
?empty@?$SimpleQueue@T_LARGE_INTEGER@@@@QBE_NXZ ; has WINAPI (@0)
; public: void __thiscall <union _LARGE_INTEGER>::pop(void)
?pop@?$SimpleQueue@T_LARGE_INTEGER@@@@QAEXXZ ; has WINAPI (@0)
DllCanUnloadNow@0
DllGetClassObject@12
DllRegisterServer@0
DllUnregisterServer@0
