;
; Definition file of WsmSvc.DLL
; Automatic generated by gendef
; written by Kai Tietz 2008
;
LIBRARY "WsmSvc.DLL"
EXPORTS
; public: __thiscall <class <char>,char *>::<class <char>,char *>(char *)
??0?$AutoCleanup@V?$AutoDelete@D@@PAD@@QAE@PAD@Z ; has WINAPI (@4)
; public: __thiscall <class <unsigned short>,unsigned short *>::<class <unsigned short>,unsigned short *>(unsigned short *)
??0?$AutoCleanup@V?$AutoDelete@G@@PAG@@QAE@PAG@Z ; has WINAPI (@4)
; public: __thiscall <class <struct CWSManIPFilter::IPRange>,struct CWSManIPFilter::IPRange *>::<class <struct CWSManIPFilter::IPRange>,struct CWSManIPFilter::IPRange *>(struct CWSManIPFilter::IPRange *)
??0?$AutoCleanup@V?$AutoDelete@UIPRange@CWSManIPFilter@@@@PAUIPRange@CWSManIPFilter@@@@QAE@PAUIPRange@CWSManIPFilter@@@Z ; has WINAPI (@4)
; public: __thiscall <class <struct _SID>,struct _SID *>::<class <struct _SID>,struct _SID *>(struct _SID *)
??0?$AutoCleanup@V?$AutoDelete@U_SID@@@@PAU_SID@@@@QAE@PAU_SID@@@Z ; has WINAPI (@4)
; public: __thiscall <class <struct _WSMAN_STREAM_ID_SET>,struct _WSMAN_STREAM_ID_SET *>::<class <struct _WSMAN_STREAM_ID_SET>,struct _WSMAN_STREAM_ID_SET *>(struct _WSMAN_STREAM_ID_SET *)
??0?$AutoCleanup@V?$AutoDelete@U_WSMAN_STREAM_ID_SET@@@@PAU_WSMAN_STREAM_ID_SET@@@@QAE@PAU_WSMAN_STREAM_ID_SET@@@Z ; has WINAPI (@4)
; public: __thiscall <class <class <class ISubscription>>,class <class ISubscription> *>::<class <class <class ISubscription>>,class <class ISubscription> *>(class <class ISubscription> *)
??0?$AutoCleanup@V?$AutoDelete@V?$Handle@VISubscription@@@@@@PAV?$Handle@VISubscription@@@@@@QAE@PAV?$Handle@VISubscription@@@@@Z ; has WINAPI (@4)
; public: __thiscall <class <class <class StringKeyCI,unsigned long>>,class <class StringKeyCI,unsigned long> *>::<class <class <class StringKeyCI,unsigned long>>,class <class StringKeyCI,unsigned long> *>(class <class StringKeyCI,unsigned long> *)
??0?$AutoCleanup@V?$AutoDelete@V?$SafeMap_Iterator@VStringKeyCI@@K@@@@PAV?$SafeMap_Iterator@VStringKeyCI@@K@@@@QAE@PAV?$SafeMap_Iterator@VStringKeyCI@@K@@@Z ; has WINAPI (@4)
; public: __thiscall <class <class <enum WSManSessionOption,class WSMan::Client::SessionOptions::OptionValue *>>,class <enum WSManSessionOption,class WSMan::Client::SessionOptions::OptionValue *> *>::<class <class <enum WSManSessionOption,class WSMan::Client::SessionOptions::OptionValue *>>,class <enum WSManSessionOption,class WSMan::Client::SessionOptions::OptionValue *> *>(class <enum WSManSessionOption,class WSMan::Client::SessionOptions::OptionValue *> *)
??0?$AutoCleanup@V?$AutoDelete@V?$SafeMap_Iterator@W4WSManSessionOption@@PAVOptionValue@SessionOptions@Client@WSMan@@@@@@PAV?$SafeMap_Iterator@W4WSManSessionOption@@PAVOptionValue@SessionOptions@Client@WSMan@@@@@@QAE@PAV?$SafeMap_Iterator@W4WSManSessionOption@@PAVOptionValue@SessionOptions@Client@WSMan@@@@@Z ; has WINAPI (@4)
; public: __thiscall <class <class <class CCertMapping *>>,class <class CCertMapping *> *>::<class <class <class CCertMapping *>>,class <class CCertMapping *> *>(class <class CCertMapping *> *)
??0?$AutoCleanup@V?$AutoDelete@V?$SafeSet@PAVCCertMapping@@@@@@PAV?$SafeSet@PAVCCertMapping@@@@@@QAE@PAV?$SafeSet@PAVCCertMapping@@@@@Z ; has WINAPI (@4)
; public: __thiscall <class <class <class CShellUriSettings *>>,class <class CShellUriSettings *> *>::<class <class <class CShellUriSettings *>>,class <class CShellUriSettings *> *>(class <class CShellUriSettings *> *)
??0?$AutoCleanup@V?$AutoDelete@V?$SafeSet@PAVCShellUriSettings@@@@@@PAV?$SafeSet@PAVCShellUriSettings@@@@@@QAE@PAV?$SafeSet@PAVCShellUriSettings@@@@@Z ; has WINAPI (@4)
; public: __thiscall <class <class <class CListenerOperation *>>,class <class CListenerOperation *> *>::<class <class <class CListenerOperation *>>,class <class CListenerOperation *> *>(class <class CListenerOperation *> *)
??0?$AutoCleanup@V?$AutoDelete@V?$SafeSet_Iterator@PAVCListenerOperation@@@@@@PAV?$SafeSet_Iterator@PAVCListenerOperation@@@@@@QAE@PAV?$SafeSet_Iterator@PAVCListenerOperation@@@@@Z ; has WINAPI (@4)
; public: __thiscall <class <class <class CListenerOperation>>,class <class CListenerOperation> *>::<class <class <class CListenerOperation>>,class <class CListenerOperation> *>(class <class CListenerOperation> *)
??0?$AutoCleanup@V?$AutoDelete@V?$SimpleStack@VCListenerOperation@@@@@@PAV?$SimpleStack@VCListenerOperation@@@@@@QAE@PAV?$SimpleStack@VCListenerOperation@@@@@Z ; has WINAPI (@4)
; public: __thiscall <class <class <class ShellHostEntry>>,class <class ShellHostEntry> *>::<class <class <class ShellHostEntry>>,class <class ShellHostEntry> *>(class <class ShellHostEntry> *)
??0?$AutoCleanup@V?$AutoDelete@V?$SimpleStack@VShellHostEntry@@@@@@PAV?$SimpleStack@VShellHostEntry@@@@@@QAE@PAV?$SimpleStack@VShellHostEntry@@@@@Z ; has WINAPI (@4)
; public: __thiscall <class <class std::<class CListenerSettings *,class CServiceConfigSettings::CListenerSettingsLessFunctor,class <class CListenerSettings *>>>,class std::<class CListenerSettings *,class CServiceConfigSettings::CListenerSettingsLessFunctor,class <class CListenerSettings *>> *>::<class <class std::<class CListenerSettings *,class CServiceConfigSettings::CListenerSettingsLessFunctor,class <class CListenerSettings *>>>,class std::<class CListenerSettings *,class CServiceConfigSettings::CListenerSettingsLessFunctor,class <class CListenerSettings *>> *>(class std::<class CListenerSettings *,class CServiceConfigSettings::CListenerSettingsLessFunctor,class <class CListenerSettings *>> *)
??0?$AutoCleanup@V?$AutoDelete@V?$set@PAVCListenerSettings@@VCListenerSettingsLessFunctor@CServiceConfigSettings@@V?$transport_allocator@PAVCListenerSettings@@@@@std@@@@PAV?$set@PAVCListenerSettings@@VCListenerSettingsLessFunctor@CServiceConfigSettings@@V?$transport_allocator@PAVCListenerSettings@@@@@std@@@@QAE@PAV?$set@PAVCListenerSettings@@VCListenerSettingsLessFunctor@CServiceConfigSettings@@V?$transport_allocator@PAVCListenerSettings@@@@@std@@@Z ; has WINAPI (@4)
; public: __thiscall <class <class std::<struct sockaddr_storage,class CListenerSettings::SockAddrLessFunctor,class <struct sockaddr_storage>>>,class std::<struct sockaddr_storage,class CListenerSettings::SockAddrLessFunctor,class <struct sockaddr_storage>> *>::<class <class std::<struct sockaddr_storage,class CListenerSettings::SockAddrLessFunctor,class <struct sockaddr_storage>>>,class std::<struct sockaddr_storage,class CListenerSettings::SockAddrLessFunctor,class <struct sockaddr_storage>> *>(class std::<struct sockaddr_storage,class CListenerSettings::SockAddrLessFunctor,class <struct sockaddr_storage>> *)
??0?$AutoCleanup@V?$AutoDelete@V?$set@Usockaddr_storage@@VSockAddrLessFunctor@CListenerSettings@@V?$transport_allocator@Usockaddr_storage@@@@@std@@@@PAV?$set@Usockaddr_storage@@VSockAddrLessFunctor@CListenerSettings@@V?$transport_allocator@Usockaddr_storage@@@@@std@@@@QAE@PAV?$set@Usockaddr_storage@@VSockAddrLessFunctor@CListenerSettings@@V?$transport_allocator@Usockaddr_storage@@@@@std@@@Z ; has WINAPI (@4)
; public: __thiscall <class <class std::<class WSMan::Client::HandleImpl *,class <class WSMan::Client::HandleImpl *>>>,class std::<class WSMan::Client::HandleImpl *,class <class WSMan::Client::HandleImpl *>> *>::<class <class std::<class WSMan::Client::HandleImpl *,class <class WSMan::Client::HandleImpl *>>>,class std::<class WSMan::Client::HandleImpl *,class <class WSMan::Client::HandleImpl *>> *>(class std::<class WSMan::Client::HandleImpl *,class <class WSMan::Client::HandleImpl *>> *)
??0?$AutoCleanup@V?$AutoDelete@V?$vector@PAVHandleImpl@Client@WSMan@@V?$transport_allocator@PAVHandleImpl@Client@WSMan@@@@@std@@@@PAV?$vector@PAVHandleImpl@Client@WSMan@@V?$transport_allocator@PAVHandleImpl@Client@WSMan@@@@@std@@@@QAE@PAV?$vector@PAVHandleImpl@Client@WSMan@@V?$transport_allocator@PAVHandleImpl@Client@WSMan@@@@@std@@@Z ; has WINAPI (@4)
; public: __thiscall <class <class std::<class IServiceConfigObserver *,class <class IServiceConfigObserver *>>>,class std::<class IServiceConfigObserver *,class <class IServiceConfigObserver *>> *>::<class <class std::<class IServiceConfigObserver *,class <class IServiceConfigObserver *>>>,class std::<class IServiceConfigObserver *,class <class IServiceConfigObserver *>> *>(class std::<class IServiceConfigObserver *,class <class IServiceConfigObserver *>> *)
??0?$AutoCleanup@V?$AutoDelete@V?$vector@PAVIServiceConfigObserver@@V?$transport_allocator@PAVIServiceConfigObserver@@@@@std@@@@PAV?$vector@PAVIServiceConfigObserver@@V?$transport_allocator@PAVIServiceConfigObserver@@@@@std@@@@QAE@PAV?$vector@PAVIServiceConfigObserver@@V?$transport_allocator@PAVIServiceConfigObserver@@@@@std@@@Z ; has WINAPI (@4)
; public: __thiscall <class <class CSecurity::AdminSid>,class CSecurity::AdminSid *>::<class <class CSecurity::AdminSid>,class CSecurity::AdminSid *>(class CSecurity::AdminSid *)
??0?$AutoCleanup@V?$AutoDelete@VAdminSid@CSecurity@@@@PAVAdminSid@CSecurity@@@@QAE@PAVAdminSid@CSecurity@@@Z ; has WINAPI (@4)
; public: __thiscall <class <class BlockedRecord>,class BlockedRecord *>::<class <class BlockedRecord>,class BlockedRecord *>(class BlockedRecord *)
??0?$AutoCleanup@V?$AutoDelete@VBlockedRecord@@@@PAVBlockedRecord@@@@QAE@PAVBlockedRecord@@@Z ; has WINAPI (@4)
; public: __thiscall <class <class CBaseConfigCache>,class CBaseConfigCache *>::<class <class CBaseConfigCache>,class CBaseConfigCache *>(class CBaseConfigCache *)
??0?$AutoCleanup@V?$AutoDelete@VCBaseConfigCache@@@@PAVCBaseConfigCache@@@@QAE@PAVCBaseConfigCache@@@Z ; has WINAPI (@4)
; public: __thiscall <class <class CCertMapping>,class CCertMapping *>::<class <class CCertMapping>,class CCertMapping *>(class CCertMapping *)
??0?$AutoCleanup@V?$AutoDelete@VCCertMapping@@@@PAVCCertMapping@@@@QAE@PAVCCertMapping@@@Z ; has WINAPI (@4)
; public: __thiscall <class <class CConfigChangeSource>,class CConfigChangeSource *>::<class <class CConfigChangeSource>,class CConfigChangeSource *>(class CConfigChangeSource *)
??0?$AutoCleanup@V?$AutoDelete@VCConfigChangeSource@@@@PAVCConfigChangeSource@@@@QAE@PAVCConfigChangeSource@@@Z ; has WINAPI (@4)
; public: __thiscall <class <class CListenerSettings>,class CListenerSettings *>::<class <class CListenerSettings>,class CListenerSettings *>(class CListenerSettings *)
??0?$AutoCleanup@V?$AutoDelete@VCListenerSettings@@@@PAVCListenerSettings@@@@QAE@PAVCListenerSettings@@@Z ; has WINAPI (@4)
; public: __thiscall <class <class CObserverConfigChangeErrors>,class CObserverConfigChangeErrors *>::<class <class CObserverConfigChangeErrors>,class CObserverConfigChangeErrors *>(class CObserverConfigChangeErrors *)
??0?$AutoCleanup@V?$AutoDelete@VCObserverConfigChangeErrors@@@@PAVCObserverConfigChangeErrors@@@@QAE@PAVCObserverConfigChangeErrors@@@Z ; has WINAPI (@4)
; public: __thiscall <class <class CServiceConfigCache::CServiceWatcher>,class CServiceConfigCache::CServiceWatcher *>::<class <class CServiceConfigCache::CServiceWatcher>,class CServiceConfigCache::CServiceWatcher *>(class CServiceConfigCache::CServiceWatcher *)
??0?$AutoCleanup@V?$AutoDelete@VCServiceWatcher@CServiceConfigCache@@@@PAVCServiceWatcher@CServiceConfigCache@@@@QAE@PAVCServiceWatcher@CServiceConfigCache@@@Z ; has WINAPI (@4)
; public: __thiscall <class <class CShellUriSettings>,class CShellUriSettings *>::<class <class CShellUriSettings>,class CShellUriSettings *>(class CShellUriSettings *)
??0?$AutoCleanup@V?$AutoDelete@VCShellUriSettings@@@@PAVCShellUriSettings@@@@QAE@PAVCShellUriSettings@@@Z ; has WINAPI (@4)
; public: __thiscall <class <class CWSManEPR>,class CWSManEPR *>::<class <class CWSManEPR>,class CWSManEPR *>(class CWSManEPR *)
??0?$AutoCleanup@V?$AutoDelete@VCWSManEPR@@@@PAVCWSManEPR@@@@QAE@PAVCWSManEPR@@@Z ; has WINAPI (@4)
; public: __thiscall <class <class CWSManResource>,class CWSManResource *>::<class <class CWSManResource>,class CWSManResource *>(class CWSManResource *)
??0?$AutoCleanup@V?$AutoDelete@VCWSManResource@@@@PAVCWSManResource@@@@QAE@PAVCWSManResource@@@Z ; has WINAPI (@4)
; public: __thiscall <class <class CertHash>,class CertHash *>::<class <class CertHash>,class CertHash *>(class CertHash *)
??0?$AutoCleanup@V?$AutoDelete@VCertHash@@@@PAVCertHash@@@@QAE@PAVCertHash@@@Z ; has WINAPI (@4)
; public: __thiscall <class <class ConfigUpdate>,class ConfigUpdate *>::<class <class ConfigUpdate>,class ConfigUpdate *>(class ConfigUpdate *)
??0?$AutoCleanup@V?$AutoDelete@VConfigUpdate@@@@PAVConfigUpdate@@@@QAE@PAVConfigUpdate@@@Z ; has WINAPI (@4)
; public: __thiscall <class <class CredUIDllLoader>,class CredUIDllLoader *>::<class <class CredUIDllLoader>,class CredUIDllLoader *>(class CredUIDllLoader *)
??0?$AutoCleanup@V?$AutoDelete@VCredUIDllLoader@@@@PAVCredUIDllLoader@@@@QAE@PAVCredUIDllLoader@@@Z ; has WINAPI (@4)
; public: __thiscall <class <class EnumSinkEx>,class EnumSinkEx *>::<class <class EnumSinkEx>,class EnumSinkEx *>(class EnumSinkEx *)
??0?$AutoCleanup@V?$AutoDelete@VEnumSinkEx@@@@PAVEnumSinkEx@@@@QAE@PAVEnumSinkEx@@@Z ; has WINAPI (@4)
; public: __thiscall <class <class EnumSinkEx>,class EnumSinkEx *>::<class <class EnumSinkEx>,class EnumSinkEx *>(void)
??0?$AutoCleanup@V?$AutoDelete@VEnumSinkEx@@@@PAVEnumSinkEx@@@@QAE@XZ ; has WINAPI (@0)
; public: __thiscall <class <class WSMan::EventHandler>,class WSMan::EventHandler *>::<class <class WSMan::EventHandler>,class WSMan::EventHandler *>(class WSMan::EventHandler *)
??0?$AutoCleanup@V?$AutoDelete@VEventHandler@WSMan@@@@PAVEventHandler@WSMan@@@@QAE@PAVEventHandler@WSMan@@@Z ; has WINAPI (@4)
; public: __thiscall <class <class ExpiredOperationIdRecord>,class ExpiredOperationIdRecord *>::<class <class ExpiredOperationIdRecord>,class ExpiredOperationIdRecord *>(class ExpiredOperationIdRecord *)
??0?$AutoCleanup@V?$AutoDelete@VExpiredOperationIdRecord@@@@PAVExpiredOperationIdRecord@@@@QAE@PAVExpiredOperationIdRecord@@@Z ; has WINAPI (@4)
; public: __thiscall <class <class GPApiManager>,class GPApiManager *>::<class <class GPApiManager>,class GPApiManager *>(class GPApiManager *)
??0?$AutoCleanup@V?$AutoDelete@VGPApiManager@@@@PAVGPApiManager@@@@QAE@PAVGPApiManager@@@Z ; has WINAPI (@4)
; public: __thiscall <class <class GeneralSinkEx>,class GeneralSinkEx *>::<class <class GeneralSinkEx>,class GeneralSinkEx *>(class GeneralSinkEx *)
??0?$AutoCleanup@V?$AutoDelete@VGeneralSinkEx@@@@PAVGeneralSinkEx@@@@QAE@PAVGeneralSinkEx@@@Z ; has WINAPI (@4)
; public: __thiscall <class <class GeneralSinkEx>,class GeneralSinkEx *>::<class <class GeneralSinkEx>,class GeneralSinkEx *>(void)
??0?$AutoCleanup@V?$AutoDelete@VGeneralSinkEx@@@@PAVGeneralSinkEx@@@@QAE@XZ ; has WINAPI (@0)
; public: __thiscall <class <class IChannelObserverFactory>,class IChannelObserverFactory *>::<class <class IChannelObserverFactory>,class IChannelObserverFactory *>(class IChannelObserverFactory *)
??0?$AutoCleanup@V?$AutoDelete@VIChannelObserverFactory@@@@PAVIChannelObserverFactory@@@@QAE@PAVIChannelObserverFactory@@@Z ; has WINAPI (@4)
; public: __thiscall <class <class IQueryDASHSMASHInterface>,class IQueryDASHSMASHInterface *>::<class <class IQueryDASHSMASHInterface>,class IQueryDASHSMASHInterface *>(class IQueryDASHSMASHInterface *)
??0?$AutoCleanup@V?$AutoDelete@VIQueryDASHSMASHInterface@@@@PAVIQueryDASHSMASHInterface@@@@QAE@PAVIQueryDASHSMASHInterface@@@Z ; has WINAPI (@4)
; public: __thiscall <class <class IQueryDASHSMASHInterface>,class IQueryDASHSMASHInterface *>::<class <class IQueryDASHSMASHInterface>,class IQueryDASHSMASHInterface *>(void)
??0?$AutoCleanup@V?$AutoDelete@VIQueryDASHSMASHInterface@@@@PAVIQueryDASHSMASHInterface@@@@QAE@XZ ; has WINAPI (@0)
; public: __thiscall <class <class ISpecification>,class ISpecification *>::<class <class ISpecification>,class ISpecification *>(class ISpecification *)
??0?$AutoCleanup@V?$AutoDelete@VISpecification@@@@PAVISpecification@@@@QAE@PAVISpecification@@@Z ; has WINAPI (@4)
; public: __thiscall <class <class ISpecification>,class ISpecification *>::<class <class ISpecification>,class ISpecification *>(void)
??0?$AutoCleanup@V?$AutoDelete@VISpecification@@@@PAVISpecification@@@@QAE@XZ ; has WINAPI (@0)
; public: __thiscall <class <class CSecurity::InteractiveSid>,class CSecurity::InteractiveSid *>::<class <class CSecurity::InteractiveSid>,class CSecurity::InteractiveSid *>(class CSecurity::InteractiveSid *)
??0?$AutoCleanup@V?$AutoDelete@VInteractiveSid@CSecurity@@@@PAVInteractiveSid@CSecurity@@@@QAE@PAVInteractiveSid@CSecurity@@@Z ; has WINAPI (@4)
; public: __thiscall <class <class IpHlpApiDllLoader>,class IpHlpApiDllLoader *>::<class <class IpHlpApiDllLoader>,class IpHlpApiDllLoader *>(class IpHlpApiDllLoader *)
??0?$AutoCleanup@V?$AutoDelete@VIpHlpApiDllLoader@@@@PAVIpHlpApiDllLoader@@@@QAE@PAVIpHlpApiDllLoader@@@Z ; has WINAPI (@4)
; public: __thiscall <class <class MachineName>,class MachineName *>::<class <class MachineName>,class MachineName *>(class MachineName *)
??0?$AutoCleanup@V?$AutoDelete@VMachineName@@@@PAVMachineName@@@@QAE@PAVMachineName@@@Z ; has WINAPI (@4)
; public: __thiscall <class <class CSecurity::NetworkServiceSid>,class CSecurity::NetworkServiceSid *>::<class <class CSecurity::NetworkServiceSid>,class CSecurity::NetworkServiceSid *>(class CSecurity::NetworkServiceSid *)
??0?$AutoCleanup@V?$AutoDelete@VNetworkServiceSid@CSecurity@@@@PAVNetworkServiceSid@CSecurity@@@@QAE@PAVNetworkServiceSid@CSecurity@@@Z ; has WINAPI (@4)
; public: __thiscall <class <class NtDsApiDllLoader>,class NtDsApiDllLoader *>::<class <class NtDsApiDllLoader>,class NtDsApiDllLoader *>(class NtDsApiDllLoader *)
??0?$AutoCleanup@V?$AutoDelete@VNtDsApiDllLoader@@@@PAVNtDsApiDllLoader@@@@QAE@PAVNtDsApiDllLoader@@@Z ; has WINAPI (@4)
; public: __thiscall <class <class WSMan::Client::SessionOptions::OptionValue>,class WSMan::Client::SessionOptions::OptionValue *>::<class <class WSMan::Client::SessionOptions::OptionValue>,class WSMan::Client::SessionOptions::OptionValue *>(class WSMan::Client::SessionOptions::OptionValue *)
??0?$AutoCleanup@V?$AutoDelete@VOptionValue@SessionOptions@Client@WSMan@@@@PAVOptionValue@SessionOptions@Client@WSMan@@@@QAE@PAVOptionValue@SessionOptions@Client@WSMan@@@Z ; has WINAPI (@4)
; public: __thiscall <class <class PacketCreator>,class PacketCreator *>::<class <class PacketCreator>,class PacketCreator *>(class PacketCreator *)
??0?$AutoCleanup@V?$AutoDelete@VPacketCreator@@@@PAVPacketCreator@@@@QAE@PAVPacketCreator@@@Z ; has WINAPI (@4)
; public: __thiscall <class <class PacketParser>,class PacketParser *>::<class <class PacketParser>,class PacketParser *>(class PacketParser *)
??0?$AutoCleanup@V?$AutoDelete@VPacketParser@@@@PAVPacketParser@@@@QAE@PAVPacketParser@@@Z ; has WINAPI (@4)
; public: __thiscall <class <class Locale::Resources>,class Locale::Resources *>::<class <class Locale::Resources>,class Locale::Resources *>(class Locale::Resources *)
??0?$AutoCleanup@V?$AutoDelete@VResources@Locale@@@@PAVResources@Locale@@@@QAE@PAVResources@Locale@@@Z ; has WINAPI (@4)
; public: __thiscall <class <class RunAsConfiguration>,class RunAsConfiguration *>::<class <class RunAsConfiguration>,class RunAsConfiguration *>(class RunAsConfiguration *)
??0?$AutoCleanup@V?$AutoDelete@VRunAsConfiguration@@@@PAVRunAsConfiguration@@@@QAE@PAVRunAsConfiguration@@@Z ; has WINAPI (@4)
; public: __thiscall <class <class Catalog::SecurityEntry>,class Catalog::SecurityEntry *>::<class <class Catalog::SecurityEntry>,class Catalog::SecurityEntry *>(class Catalog::SecurityEntry *)
??0?$AutoCleanup@V?$AutoDelete@VSecurityEntry@Catalog@@@@PAVSecurityEntry@Catalog@@@@QAE@PAVSecurityEntry@Catalog@@@Z ; has WINAPI (@4)
; public: __thiscall <class <class RobustConnectionBuffer::SendPacketArgs>,class RobustConnectionBuffer::SendPacketArgs *>::<class <class RobustConnectionBuffer::SendPacketArgs>,class RobustConnectionBuffer::SendPacketArgs *>(class RobustConnectionBuffer::SendPacketArgs *)
??0?$AutoCleanup@V?$AutoDelete@VSendPacketArgs@RobustConnectionBuffer@@@@PAVSendPacketArgs@RobustConnectionBuffer@@@@QAE@PAVSendPacketArgs@RobustConnectionBuffer@@@Z ; has WINAPI (@4)
; public: __thiscall <class <class ServiceSoapProcessor>,class ServiceSoapProcessor *>::<class <class ServiceSoapProcessor>,class ServiceSoapProcessor *>(class ServiceSoapProcessor *)
??0?$AutoCleanup@V?$AutoDelete@VServiceSoapProcessor@@@@PAVServiceSoapProcessor@@@@QAE@PAVServiceSoapProcessor@@@Z ; has WINAPI (@4)
; public: __thiscall <class <class Shell32DllLoader>,class Shell32DllLoader *>::<class <class Shell32DllLoader>,class Shell32DllLoader *>(class Shell32DllLoader *)
??0?$AutoCleanup@V?$AutoDelete@VShell32DllLoader@@@@PAVShell32DllLoader@@@@QAE@PAVShell32DllLoader@@@Z ; has WINAPI (@4)
; public: __thiscall <class <class ShlWApiDllLoader>,class ShlWApiDllLoader *>::<class <class ShlWApiDllLoader>,class ShlWApiDllLoader *>(class ShlWApiDllLoader *)
??0?$AutoCleanup@V?$AutoDelete@VShlWApiDllLoader@@@@PAVShlWApiDllLoader@@@@QAE@PAVShlWApiDllLoader@@@Z ; has WINAPI (@4)
; public: __thiscall <class <class SubscriptionEnumerator>,class SubscriptionEnumerator *>::<class <class SubscriptionEnumerator>,class SubscriptionEnumerator *>(class SubscriptionEnumerator *)
??0?$AutoCleanup@V?$AutoDelete@VSubscriptionEnumerator@@@@PAVSubscriptionEnumerator@@@@QAE@PAVSubscriptionEnumerator@@@Z ; has WINAPI (@4)
; public: __thiscall <class <class SubscriptionManager>,class SubscriptionManager *>::<class <class SubscriptionManager>,class SubscriptionManager *>(class SubscriptionManager *)
??0?$AutoCleanup@V?$AutoDelete@VSubscriptionManager@@@@PAVSubscriptionManager@@@@QAE@PAVSubscriptionManager@@@Z ; has WINAPI (@4)
; public: __thiscall <class <class TSTRBUFFER>,class TSTRBUFFER *>::<class <class TSTRBUFFER>,class TSTRBUFFER *>(class TSTRBUFFER *)
??0?$AutoCleanup@V?$AutoDelete@VTSTRBUFFER@@@@PAVTSTRBUFFER@@@@QAE@PAVTSTRBUFFER@@@Z ; has WINAPI (@4)
; public: __thiscall <class <class TSTRBUFFER>,class TSTRBUFFER *>::<class <class TSTRBUFFER>,class TSTRBUFFER *>(void)
??0?$AutoCleanup@V?$AutoDelete@VTSTRBUFFER@@@@PAVTSTRBUFFER@@@@QAE@XZ ; has WINAPI (@0)
; public: __thiscall <class <class UniqueStringOverflow>,class UniqueStringOverflow *>::<class <class UniqueStringOverflow>,class UniqueStringOverflow *>(class UniqueStringOverflow *)
??0?$AutoCleanup@V?$AutoDelete@VUniqueStringOverflow@@@@PAVUniqueStringOverflow@@@@QAE@PAVUniqueStringOverflow@@@Z ; has WINAPI (@4)
; public: __thiscall <class <class User32DllLoader>,class User32DllLoader *>::<class <class User32DllLoader>,class User32DllLoader *>(class User32DllLoader *)
??0?$AutoCleanup@V?$AutoDelete@VUser32DllLoader@@@@PAVUser32DllLoader@@@@QAE@PAVUser32DllLoader@@@Z ; has WINAPI (@4)
; public: __thiscall <class <class WSMANCONFIGTABLE_IDENTITY>,class WSMANCONFIGTABLE_IDENTITY *>::<class <class WSMANCONFIGTABLE_IDENTITY>,class WSMANCONFIGTABLE_IDENTITY *>(class WSMANCONFIGTABLE_IDENTITY *)
??0?$AutoCleanup@V?$AutoDelete@VWSMANCONFIGTABLE_IDENTITY@@@@PAVWSMANCONFIGTABLE_IDENTITY@@@@QAE@PAVWSMANCONFIGTABLE_IDENTITY@@@Z ; has WINAPI (@4)
; public: __thiscall <class <class WSManMemCryptManager>,class WSManMemCryptManager *>::<class <class WSManMemCryptManager>,class WSManMemCryptManager *>(class WSManMemCryptManager *)
??0?$AutoCleanup@V?$AutoDelete@VWSManMemCryptManager@@@@PAVWSManMemCryptManager@@@@QAE@PAVWSManMemCryptManager@@@Z ; has WINAPI (@4)
; public: __thiscall <class <class WmiEnumContext>,class WmiEnumContext *>::<class <class WmiEnumContext>,class WmiEnumContext *>(class WmiEnumContext *)
??0?$AutoCleanup@V?$AutoDelete@VWmiEnumContext@@@@PAVWmiEnumContext@@@@QAE@PAVWmiEnumContext@@@Z ; has WINAPI (@4)
; public: __thiscall <class <class WmiEnumContext>,class WmiEnumContext *>::<class <class WmiEnumContext>,class WmiEnumContext *>(void)
??0?$AutoCleanup@V?$AutoDelete@VWmiEnumContext@@@@PAVWmiEnumContext@@@@QAE@XZ ; has WINAPI (@0)
; public: __thiscall <class <class XmlReader>,class XmlReader *>::<class <class XmlReader>,class XmlReader *>(class XmlReader *)
??0?$AutoCleanup@V?$AutoDelete@VXmlReader@@@@PAVXmlReader@@@@QAE@PAVXmlReader@@@Z ; has WINAPI (@4)
; public: __thiscall <class <unsigned short const>,unsigned short const *>::<class <unsigned short const>,unsigned short const *>(unsigned short const *)
??0?$AutoCleanup@V?$AutoDeleteVector@$$CBG@@PBG@@QAE@PBG@Z ; has WINAPI (@4)
; public: __thiscall <class <char>,char *>::<class <char>,char *>(char *)
??0?$AutoCleanup@V?$AutoDeleteVector@D@@PAD@@QAE@PAD@Z ; has WINAPI (@4)
; public: __thiscall <class <unsigned char>,unsigned char *>::<class <unsigned char>,unsigned char *>(unsigned char *)
??0?$AutoCleanup@V?$AutoDeleteVector@E@@PAE@@QAE@PAE@Z ; has WINAPI (@4)
; public: __thiscall <class <unsigned char>,unsigned char *>::<class <unsigned char>,unsigned char *>(void)
??0?$AutoCleanup@V?$AutoDeleteVector@E@@PAE@@QAE@XZ ; has WINAPI (@0)
; public: __thiscall <class <unsigned short>,unsigned short *>::<class <unsigned short>,unsigned short *>(unsigned short *)
??0?$AutoCleanup@V?$AutoDeleteVector@G@@PAG@@QAE@PAG@Z ; has WINAPI (@4)
; public: __thiscall <class <unsigned short>,unsigned short *>::<class <unsigned short>,unsigned short *>(void)
??0?$AutoCleanup@V?$AutoDeleteVector@G@@PAG@@QAE@XZ ; has WINAPI (@0)
; public: __thiscall <class <int>,int *>::<class <int>,int *>(int *)
??0?$AutoCleanup@V?$AutoDeleteVector@H@@PAH@@QAE@PAH@Z ; has WINAPI (@4)
; public: __thiscall <class <unsigned short *>,unsigned short **>::<class <unsigned short *>,unsigned short **>(unsigned short **)
??0?$AutoCleanup@V?$AutoDeleteVector@PAG@@PAPAG@@QAE@PAPAG@Z ; has WINAPI (@4)
; public: __thiscall <class <unsigned short *>,unsigned short **>::<class <unsigned short *>,unsigned short **>(void)
??0?$AutoCleanup@V?$AutoDeleteVector@PAG@@PAPAG@@QAE@XZ ; has WINAPI (@0)
; public: __thiscall <class <unsigned short const *>,unsigned short const **>::<class <unsigned short const *>,unsigned short const **>(unsigned short const **)
??0?$AutoCleanup@V?$AutoDeleteVector@PBG@@PAPBG@@QAE@PAPBG@Z ; has WINAPI (@4)
; public: __thiscall <class <unsigned short const *>,unsigned short const **>::<class <unsigned short const *>,unsigned short const **>(void)
??0?$AutoCleanup@V?$AutoDeleteVector@PBG@@PAPBG@@QAE@XZ ; has WINAPI (@0)
; public: __thiscall <class <struct _CONFIG_UPDATE>,struct _CONFIG_UPDATE *>::<class <struct _CONFIG_UPDATE>,struct _CONFIG_UPDATE *>(struct _CONFIG_UPDATE *)
??0?$AutoCleanup@V?$AutoDeleteVector@U_CONFIG_UPDATE@@@@PAU_CONFIG_UPDATE@@@@QAE@PAU_CONFIG_UPDATE@@@Z ; has WINAPI (@4)
; public: __thiscall <class <struct _WINRS_CREATE_SHELL_ENVIRONMENT_VARIABLE>,struct _WINRS_CREATE_SHELL_ENVIRONMENT_VARIABLE *>::<class <struct _WINRS_CREATE_SHELL_ENVIRONMENT_VARIABLE>,struct _WINRS_CREATE_SHELL_ENVIRONMENT_VARIABLE *>(struct _WINRS_CREATE_SHELL_ENVIRONMENT_VARIABLE *)
??0?$AutoCleanup@V?$AutoDeleteVector@U_WINRS_CREATE_SHELL_ENVIRONMENT_VARIABLE@@@@PAU_WINRS_CREATE_SHELL_ENVIRONMENT_VARIABLE@@@@QAE@PAU_WINRS_CREATE_SHELL_ENVIRONMENT_VARIABLE@@@Z ; has WINAPI (@4)
; public: __thiscall <class <struct _WINRS_CREATE_SHELL_ENVIRONMENT_VARIABLE>,struct _WINRS_CREATE_SHELL_ENVIRONMENT_VARIABLE *>::<class <struct _WINRS_CREATE_SHELL_ENVIRONMENT_VARIABLE>,struct _WINRS_CREATE_SHELL_ENVIRONMENT_VARIABLE *>(void)
??0?$AutoCleanup@V?$AutoDeleteVector@U_WINRS_CREATE_SHELL_ENVIRONMENT_VARIABLE@@@@PAU_WINRS_CREATE_SHELL_ENVIRONMENT_VARIABLE@@@@QAE@XZ ; has WINAPI (@0)
; public: __thiscall <class <struct _WINRS_RUN_COMMAND_ARG>,struct _WINRS_RUN_COMMAND_ARG *>::<class <struct _WINRS_RUN_COMMAND_ARG>,struct _WINRS_RUN_COMMAND_ARG *>(struct _WINRS_RUN_COMMAND_ARG *)
??0?$AutoCleanup@V?$AutoDeleteVector@U_WINRS_RUN_COMMAND_ARG@@@@PAU_WINRS_RUN_COMMAND_ARG@@@@QAE@PAU_WINRS_RUN_COMMAND_ARG@@@Z ; has WINAPI (@4)
; public: __thiscall <class <struct _WINRS_RUN_COMMAND_ARG>,struct _WINRS_RUN_COMMAND_ARG *>::<class <struct _WINRS_RUN_COMMAND_ARG>,struct _WINRS_RUN_COMMAND_ARG *>(void)
??0?$AutoCleanup@V?$AutoDeleteVector@U_WINRS_RUN_COMMAND_ARG@@@@PAU_WINRS_RUN_COMMAND_ARG@@@@QAE@XZ ; has WINAPI (@0)
; public: __thiscall <class <struct _WSMAN_OPTION>,struct _WSMAN_OPTION *>::<class <struct _WSMAN_OPTION>,struct _WSMAN_OPTION *>(struct _WSMAN_OPTION *)
??0?$AutoCleanup@V?$AutoDeleteVector@U_WSMAN_OPTION@@@@PAU_WSMAN_OPTION@@@@QAE@PAU_WSMAN_OPTION@@@Z ; has WINAPI (@4)
; public: __thiscall <class <void>,void *>::<class <void>,void *>(void *)
??0?$AutoCleanup@V?$AutoDeleteVector@X@@PAX@@QAE@PAX@Z ; has WINAPI (@4)
; public: __thiscall <class <unsigned char>,unsigned char *>::<class <unsigned char>,unsigned char *>(unsigned char *)
??0?$AutoCleanup@V?$AutoFree@E@@PAE@@QAE@PAE@Z ; has WINAPI (@4)
; public: __thiscall <class <class Packet>,class Packet *>::<class <class Packet>,class Packet *>(class Packet *)
??0?$AutoCleanup@V?$AutoLocklessItemRecycle@VPacket@@@@PAVPacket@@@@QAE@PAVPacket@@@Z ; has WINAPI (@4)
; public: __thiscall <class <struct IAppHostAdminManager>,struct IAppHostAdminManager *>::<class <struct IAppHostAdminManager>,struct IAppHostAdminManager *>(struct IAppHostAdminManager *)
??0?$AutoCleanup@V?$AutoRelease@UIAppHostAdminManager@@@@PAUIAppHostAdminManager@@@@QAE@PAUIAppHostAdminManager@@@Z ; has WINAPI (@4)
; public: __thiscall <class <struct IAppHostChildElementCollection>,struct IAppHostChildElementCollection *>::<class <struct IAppHostChildElementCollection>,struct IAppHostChildElementCollection *>(struct IAppHostChildElementCollection *)
??0?$AutoCleanup@V?$AutoRelease@UIAppHostChildElementCollection@@@@PAUIAppHostChildElementCollection@@@@QAE@PAUIAppHostChildElementCollection@@@Z ; has WINAPI (@4)
; public: __thiscall <class <struct IAppHostConfigException>,struct IAppHostConfigException *>::<class <struct IAppHostConfigException>,struct IAppHostConfigException *>(struct IAppHostConfigException *)
??0?$AutoCleanup@V?$AutoRelease@UIAppHostConfigException@@@@PAUIAppHostConfigException@@@@QAE@PAUIAppHostConfigException@@@Z ; has WINAPI (@4)
; public: __thiscall <class <struct IAppHostElement>,struct IAppHostElement *>::<class <struct IAppHostElement>,struct IAppHostElement *>(struct IAppHostElement *)
??0?$AutoCleanup@V?$AutoRelease@UIAppHostElement@@@@PAUIAppHostElement@@@@QAE@PAUIAppHostElement@@@Z ; has WINAPI (@4)
; public: __thiscall <class <struct IAppHostElementCollection>,struct IAppHostElementCollection *>::<class <struct IAppHostElementCollection>,struct IAppHostElementCollection *>(struct IAppHostElementCollection *)
??0?$AutoCleanup@V?$AutoRelease@UIAppHostElementCollection@@@@PAUIAppHostElementCollection@@@@QAE@PAUIAppHostElementCollection@@@Z ; has WINAPI (@4)
; public: __thiscall <class <struct IAppHostProperty>,struct IAppHostProperty *>::<class <struct IAppHostProperty>,struct IAppHostProperty *>(struct IAppHostProperty *)
??0?$AutoCleanup@V?$AutoRelease@UIAppHostProperty@@@@PAUIAppHostProperty@@@@QAE@PAUIAppHostProperty@@@Z ; has WINAPI (@4)
; public: __thiscall <class <struct IAppHostPropertyCollection>,struct IAppHostPropertyCollection *>::<class <struct IAppHostPropertyCollection>,struct IAppHostPropertyCollection *>(struct IAppHostPropertyCollection *)
??0?$AutoCleanup@V?$AutoRelease@UIAppHostPropertyCollection@@@@PAUIAppHostPropertyCollection@@@@QAE@PAUIAppHostPropertyCollection@@@Z ; has WINAPI (@4)
; public: __thiscall <class <struct IClientSecurity>,struct IClientSecurity *>::<class <struct IClientSecurity>,struct IClientSecurity *>(struct IClientSecurity *)
??0?$AutoCleanup@V?$AutoRelease@UIClientSecurity@@@@PAUIClientSecurity@@@@QAE@PAUIClientSecurity@@@Z ; has WINAPI (@4)
; public: __thiscall <class <struct IClientSecurity>,struct IClientSecurity *>::<class <struct IClientSecurity>,struct IClientSecurity *>(void)
??0?$AutoCleanup@V?$AutoRelease@UIClientSecurity@@@@PAUIClientSecurity@@@@QAE@XZ ; has WINAPI (@0)
; public: __thiscall <class <struct IEnumWbemClassObject>,struct IEnumWbemClassObject *>::<class <struct IEnumWbemClassObject>,struct IEnumWbemClassObject *>(struct IEnumWbemClassObject *)
??0?$AutoCleanup@V?$AutoRelease@UIEnumWbemClassObject@@@@PAUIEnumWbemClassObject@@@@QAE@PAUIEnumWbemClassObject@@@Z ; has WINAPI (@4)
; public: __thiscall <class <struct IEnumWbemClassObject>,struct IEnumWbemClassObject *>::<class <struct IEnumWbemClassObject>,struct IEnumWbemClassObject *>(void)
??0?$AutoCleanup@V?$AutoRelease@UIEnumWbemClassObject@@@@PAUIEnumWbemClassObject@@@@QAE@XZ ; has WINAPI (@0)
; public: __thiscall <class <struct IErrorInfo>,struct IErrorInfo *>::<class <struct IErrorInfo>,struct IErrorInfo *>(struct IErrorInfo *)
??0?$AutoCleanup@V?$AutoRelease@UIErrorInfo@@@@PAUIErrorInfo@@@@QAE@PAUIErrorInfo@@@Z ; has WINAPI (@4)
; public: __thiscall <class <struct IErrorInfo>,struct IErrorInfo *>::<class <struct IErrorInfo>,struct IErrorInfo *>(void)
??0?$AutoCleanup@V?$AutoRelease@UIErrorInfo@@@@PAUIErrorInfo@@@@QAE@XZ ; has WINAPI (@0)
; public: __thiscall <class <struct IUnknown>,struct IUnknown *>::<class <struct IUnknown>,struct IUnknown *>(struct IUnknown *)
??0?$AutoCleanup@V?$AutoRelease@UIUnknown@@@@PAUIUnknown@@@@QAE@PAUIUnknown@@@Z ; has WINAPI (@4)
; public: __thiscall <class <struct IUnknown>,struct IUnknown *>::<class <struct IUnknown>,struct IUnknown *>(void)
??0?$AutoCleanup@V?$AutoRelease@UIUnknown@@@@PAUIUnknown@@@@QAE@XZ ; has WINAPI (@0)
; public: __thiscall <class <struct IWbemClassObject>,struct IWbemClassObject *>::<class <struct IWbemClassObject>,struct IWbemClassObject *>(struct IWbemClassObject *)
??0?$AutoCleanup@V?$AutoRelease@UIWbemClassObject@@@@PAUIWbemClassObject@@@@QAE@PAUIWbemClassObject@@@Z ; has WINAPI (@4)
; public: __thiscall <class <struct IWbemClassObject>,struct IWbemClassObject *>::<class <struct IWbemClassObject>,struct IWbemClassObject *>(void)
??0?$AutoCleanup@V?$AutoRelease@UIWbemClassObject@@@@PAUIWbemClassObject@@@@QAE@XZ ; has WINAPI (@0)
; public: __thiscall <class <struct IWbemContext>,struct IWbemContext *>::<class <struct IWbemContext>,struct IWbemContext *>(struct IWbemContext *)
??0?$AutoCleanup@V?$AutoRelease@UIWbemContext@@@@PAUIWbemContext@@@@QAE@PAUIWbemContext@@@Z ; has WINAPI (@4)
; public: __thiscall <class <struct IWbemContext>,struct IWbemContext *>::<class <struct IWbemContext>,struct IWbemContext *>(void)
??0?$AutoCleanup@V?$AutoRelease@UIWbemContext@@@@PAUIWbemContext@@@@QAE@XZ ; has WINAPI (@0)
; public: __thiscall <class <struct IWbemLocator>,struct IWbemLocator *>::<class <struct IWbemLocator>,struct IWbemLocator *>(struct IWbemLocator *)
??0?$AutoCleanup@V?$AutoRelease@UIWbemLocator@@@@PAUIWbemLocator@@@@QAE@PAUIWbemLocator@@@Z ; has WINAPI (@4)
; public: __thiscall <class <struct IWbemLocator>,struct IWbemLocator *>::<class <struct IWbemLocator>,struct IWbemLocator *>(void)
??0?$AutoCleanup@V?$AutoRelease@UIWbemLocator@@@@PAUIWbemLocator@@@@QAE@XZ ; has WINAPI (@0)
; public: __thiscall <class <struct IWbemObjectTextSrc>,struct IWbemObjectTextSrc *>::<class <struct IWbemObjectTextSrc>,struct IWbemObjectTextSrc *>(struct IWbemObjectTextSrc *)
??0?$AutoCleanup@V?$AutoRelease@UIWbemObjectTextSrc@@@@PAUIWbemObjectTextSrc@@@@QAE@PAUIWbemObjectTextSrc@@@Z ; has WINAPI (@4)
; public: __thiscall <class <struct IWbemObjectTextSrc>,struct IWbemObjectTextSrc *>::<class <struct IWbemObjectTextSrc>,struct IWbemObjectTextSrc *>(void)
??0?$AutoCleanup@V?$AutoRelease@UIWbemObjectTextSrc@@@@PAUIWbemObjectTextSrc@@@@QAE@XZ ; has WINAPI (@0)
; public: __thiscall <class <struct IWbemPath>,struct IWbemPath *>::<class <struct IWbemPath>,struct IWbemPath *>(struct IWbemPath *)
??0?$AutoCleanup@V?$AutoRelease@UIWbemPath@@@@PAUIWbemPath@@@@QAE@PAUIWbemPath@@@Z ; has WINAPI (@4)
; public: __thiscall <class <struct IWbemPath>,struct IWbemPath *>::<class <struct IWbemPath>,struct IWbemPath *>(void)
??0?$AutoCleanup@V?$AutoRelease@UIWbemPath@@@@PAUIWbemPath@@@@QAE@XZ ; has WINAPI (@0)
; public: __thiscall <class <struct IWbemPathKeyList>,struct IWbemPathKeyList *>::<class <struct IWbemPathKeyList>,struct IWbemPathKeyList *>(struct IWbemPathKeyList *)
??0?$AutoCleanup@V?$AutoRelease@UIWbemPathKeyList@@@@PAUIWbemPathKeyList@@@@QAE@PAUIWbemPathKeyList@@@Z ; has WINAPI (@4)
; public: __thiscall <class <struct IWbemPathKeyList>,struct IWbemPathKeyList *>::<class <struct IWbemPathKeyList>,struct IWbemPathKeyList *>(void)
??0?$AutoCleanup@V?$AutoRelease@UIWbemPathKeyList@@@@PAUIWbemPathKeyList@@@@QAE@XZ ; has WINAPI (@0)
; public: __thiscall <class <struct IWbemQualifierSet>,struct IWbemQualifierSet *>::<class <struct IWbemQualifierSet>,struct IWbemQualifierSet *>(struct IWbemQualifierSet *)
??0?$AutoCleanup@V?$AutoRelease@UIWbemQualifierSet@@@@PAUIWbemQualifierSet@@@@QAE@PAUIWbemQualifierSet@@@Z ; has WINAPI (@4)
; public: __thiscall <class <struct IWbemQualifierSet>,struct IWbemQualifierSet *>::<class <struct IWbemQualifierSet>,struct IWbemQualifierSet *>(void)
??0?$AutoCleanup@V?$AutoRelease@UIWbemQualifierSet@@@@PAUIWbemQualifierSet@@@@QAE@XZ ; has WINAPI (@0)
; public: __thiscall <class <struct IWbemQuery>,struct IWbemQuery *>::<class <struct IWbemQuery>,struct IWbemQuery *>(struct IWbemQuery *)
??0?$AutoCleanup@V?$AutoRelease@UIWbemQuery@@@@PAUIWbemQuery@@@@QAE@PAUIWbemQuery@@@Z ; has WINAPI (@4)
; public: __thiscall <class <struct IWbemQuery>,struct IWbemQuery *>::<class <struct IWbemQuery>,struct IWbemQuery *>(void)
??0?$AutoCleanup@V?$AutoRelease@UIWbemQuery@@@@PAUIWbemQuery@@@@QAE@XZ ; has WINAPI (@0)
; public: __thiscall <class <struct IWbemServices>,struct IWbemServices *>::<class <struct IWbemServices>,struct IWbemServices *>(struct IWbemServices *)
??0?$AutoCleanup@V?$AutoRelease@UIWbemServices@@@@PAUIWbemServices@@@@QAE@PAUIWbemServices@@@Z ; has WINAPI (@4)
; public: __thiscall <class <struct IWbemServices>,struct IWbemServices *>::<class <struct IWbemServices>,struct IWbemServices *>(void)
??0?$AutoCleanup@V?$AutoRelease@UIWbemServices@@@@PAUIWbemServices@@@@QAE@XZ ; has WINAPI (@0)
; public: __thiscall <class <class WSMan::Client::Application>,class WSMan::Client::Application *>::<class <class WSMan::Client::Application>,class WSMan::Client::Application *>(class WSMan::Client::Application *)
??0?$AutoCleanup@V?$AutoRelease@VApplication@Client@WSMan@@@@PAVApplication@Client@WSMan@@@@QAE@PAVApplication@Client@WSMan@@@Z ; has WINAPI (@4)
; public: __thiscall <class <class CBaseConfigCache>,class CBaseConfigCache *>::<class <class CBaseConfigCache>,class CBaseConfigCache *>(class CBaseConfigCache *)
??0?$AutoCleanup@V?$AutoRelease@VCBaseConfigCache@@@@PAVCBaseConfigCache@@@@QAE@PAVCBaseConfigCache@@@Z ; has WINAPI (@4)
; public: __thiscall <class <class CClientConfigSettings>,class CClientConfigSettings *>::<class <class CClientConfigSettings>,class CClientConfigSettings *>(class CClientConfigSettings *)
??0?$AutoCleanup@V?$AutoRelease@VCClientConfigSettings@@@@PAVCClientConfigSettings@@@@QAE@PAVCClientConfigSettings@@@Z ; has WINAPI (@4)
; public: __thiscall <class <class CCommonConfigSettings>,class CCommonConfigSettings *>::<class <class CCommonConfigSettings>,class CCommonConfigSettings *>(class CCommonConfigSettings *)
??0?$AutoCleanup@V?$AutoRelease@VCCommonConfigSettings@@@@PAVCCommonConfigSettings@@@@QAE@PAVCCommonConfigSettings@@@Z ; has WINAPI (@4)
; public: __thiscall <class <class CBaseConfigCache::CConfigCacheMap>,class CBaseConfigCache::CConfigCacheMap *>::<class <class CBaseConfigCache::CConfigCacheMap>,class CBaseConfigCache::CConfigCacheMap *>(class CBaseConfigCache::CConfigCacheMap *)
??0?$AutoCleanup@V?$AutoRelease@VCConfigCacheMap@CBaseConfigCache@@@@PAVCConfigCacheMap@CBaseConfigCache@@@@QAE@PAVCConfigCacheMap@CBaseConfigCache@@@Z ; has WINAPI (@4)
; public: __thiscall <class <class CConfigManager>,class CConfigManager *>::<class <class CConfigManager>,class CConfigManager *>(class CConfigManager *)
??0?$AutoCleanup@V?$AutoRelease@VCConfigManager@@@@PAVCConfigManager@@@@QAE@PAVCConfigManager@@@Z ; has WINAPI (@4)
; public: __thiscall <class <class CRemoteOperation>,class CRemoteOperation *>::<class <class CRemoteOperation>,class CRemoteOperation *>(class CRemoteOperation *)
??0?$AutoCleanup@V?$AutoRelease@VCRemoteOperation@@@@PAVCRemoteOperation@@@@QAE@PAVCRemoteOperation@@@Z ; has WINAPI (@4)
; public: __thiscall <class <class CRemoteSession>,class CRemoteSession *>::<class <class CRemoteSession>,class CRemoteSession *>(class CRemoteSession *)
??0?$AutoCleanup@V?$AutoRelease@VCRemoteSession@@@@PAVCRemoteSession@@@@QAE@PAVCRemoteSession@@@Z ; has WINAPI (@4)
; public: __thiscall <class <class CRequestContext>,class CRequestContext *>::<class <class CRequestContext>,class CRequestContext *>(class CRequestContext *)
??0?$AutoCleanup@V?$AutoRelease@VCRequestContext@@@@PAVCRequestContext@@@@QAE@PAVCRequestContext@@@Z ; has WINAPI (@4)
; public: __thiscall <class <class CServiceCommonConfigSettings>,class CServiceCommonConfigSettings *>::<class <class CServiceCommonConfigSettings>,class CServiceCommonConfigSettings *>(class CServiceCommonConfigSettings *)
??0?$AutoCleanup@V?$AutoRelease@VCServiceCommonConfigSettings@@@@PAVCServiceCommonConfigSettings@@@@QAE@PAVCServiceCommonConfigSettings@@@Z ; has WINAPI (@4)
; public: __thiscall <class <class CServiceConfigCache>,class CServiceConfigCache *>::<class <class CServiceConfigCache>,class CServiceConfigCache *>(class CServiceConfigCache *)
??0?$AutoCleanup@V?$AutoRelease@VCServiceConfigCache@@@@PAVCServiceConfigCache@@@@QAE@PAVCServiceConfigCache@@@Z ; has WINAPI (@4)
; public: __thiscall <class <class CServiceConfigSettings>,class CServiceConfigSettings *>::<class <class CServiceConfigSettings>,class CServiceConfigSettings *>(class CServiceConfigSettings *)
??0?$AutoCleanup@V?$AutoRelease@VCServiceConfigSettings@@@@PAVCServiceConfigSettings@@@@QAE@PAVCServiceConfigSettings@@@Z ; has WINAPI (@4)
; public: __thiscall <class <class CWSManEPR>,class CWSManEPR *>::<class <class CWSManEPR>,class CWSManEPR *>(class CWSManEPR *)
??0?$AutoCleanup@V?$AutoRelease@VCWSManEPR@@@@PAVCWSManEPR@@@@QAE@PAVCWSManEPR@@@Z ; has WINAPI (@4)
; public: __thiscall <class <class CWSManEPR>,class CWSManEPR *>::<class <class CWSManEPR>,class CWSManEPR *>(void)
??0?$AutoCleanup@V?$AutoRelease@VCWSManEPR@@@@PAVCWSManEPR@@@@QAE@XZ ; has WINAPI (@0)
; public: __thiscall <class <class CWSManGroupPolicyCache>,class CWSManGroupPolicyCache *>::<class <class CWSManGroupPolicyCache>,class CWSManGroupPolicyCache *>(class CWSManGroupPolicyCache *)
??0?$AutoCleanup@V?$AutoRelease@VCWSManGroupPolicyCache@@@@PAVCWSManGroupPolicyCache@@@@QAE@PAVCWSManGroupPolicyCache@@@Z ; has WINAPI (@4)
; public: __thiscall <class <class CWSManGroupPolicyManager>,class CWSManGroupPolicyManager *>::<class <class CWSManGroupPolicyManager>,class CWSManGroupPolicyManager *>(class CWSManGroupPolicyManager *)
??0?$AutoCleanup@V?$AutoRelease@VCWSManGroupPolicyManager@@@@PAVCWSManGroupPolicyManager@@@@QAE@PAVCWSManGroupPolicyManager@@@Z ; has WINAPI (@4)
; public: __thiscall <class <class CWSManObject>,class CWSManObject *>::<class <class CWSManObject>,class CWSManObject *>(class CWSManObject *)
??0?$AutoCleanup@V?$AutoRelease@VCWSManObject@@@@PAVCWSManObject@@@@QAE@PAVCWSManObject@@@Z ; has WINAPI (@4)
; public: __thiscall <class <class CWSManResource>,class CWSManResource *>::<class <class CWSManResource>,class CWSManResource *>(class CWSManResource *)
??0?$AutoCleanup@V?$AutoRelease@VCWSManResource@@@@PAVCWSManResource@@@@QAE@PAVCWSManResource@@@Z ; has WINAPI (@4)
; public: __thiscall <class <class CWinRSPluginConfigCache>,class CWinRSPluginConfigCache *>::<class <class CWinRSPluginConfigCache>,class CWinRSPluginConfigCache *>(class CWinRSPluginConfigCache *)
??0?$AutoCleanup@V?$AutoRelease@VCWinRSPluginConfigCache@@@@PAVCWinRSPluginConfigCache@@@@QAE@PAVCWinRSPluginConfigCache@@@Z ; has WINAPI (@4)
; public: __thiscall <class <class CWinRSPluginConfigCache>,class CWinRSPluginConfigCache *>::<class <class CWinRSPluginConfigCache>,class CWinRSPluginConfigCache *>(void)
??0?$AutoCleanup@V?$AutoRelease@VCWinRSPluginConfigCache@@@@PAVCWinRSPluginConfigCache@@@@QAE@XZ ; has WINAPI (@0)
; public: __thiscall <class <class CWinRSPluginConfigSettings>,class CWinRSPluginConfigSettings *>::<class <class CWinRSPluginConfigSettings>,class CWinRSPluginConfigSettings *>(class CWinRSPluginConfigSettings *)
??0?$AutoCleanup@V?$AutoRelease@VCWinRSPluginConfigSettings@@@@PAVCWinRSPluginConfigSettings@@@@QAE@PAVCWinRSPluginConfigSettings@@@Z ; has WINAPI (@4)
; public: __thiscall <class <class WSMan::Client::Command>,class WSMan::Client::Command *>::<class <class WSMan::Client::Command>,class WSMan::Client::Command *>(class WSMan::Client::Command *)
??0?$AutoCleanup@V?$AutoRelease@VCommand@Client@WSMan@@@@PAVCommand@Client@WSMan@@@@QAE@PAVCommand@Client@WSMan@@@Z ; has WINAPI (@4)
; public: __thiscall <class <class ConfigNotification>,class ConfigNotification *>::<class <class ConfigNotification>,class ConfigNotification *>(class ConfigNotification *)
??0?$AutoCleanup@V?$AutoRelease@VConfigNotification@@@@PAVConfigNotification@@@@QAE@PAVConfigNotification@@@Z ; has WINAPI (@4)
; public: __thiscall <class <class WSMan::Client::ConnectShellOperation>,class WSMan::Client::ConnectShellOperation *>::<class <class WSMan::Client::ConnectShellOperation>,class WSMan::Client::ConnectShellOperation *>(class WSMan::Client::ConnectShellOperation *)
??0?$AutoCleanup@V?$AutoRelease@VConnectShellOperation@Client@WSMan@@@@PAVConnectShellOperation@Client@WSMan@@@@QAE@PAVConnectShellOperation@Client@WSMan@@@Z ; has WINAPI (@4)
; public: __thiscall <class <class WSMan::Client::CreateShellOperation>,class WSMan::Client::CreateShellOperation *>::<class <class WSMan::Client::CreateShellOperation>,class WSMan::Client::CreateShellOperation *>(class WSMan::Client::CreateShellOperation *)
??0?$AutoCleanup@V?$AutoRelease@VCreateShellOperation@Client@WSMan@@@@PAVCreateShellOperation@Client@WSMan@@@@QAE@PAVCreateShellOperation@Client@WSMan@@@Z ; has WINAPI (@4)
; public: __thiscall <class <class WSMan::Client::DeleteShellOperation>,class WSMan::Client::DeleteShellOperation *>::<class <class WSMan::Client::DeleteShellOperation>,class WSMan::Client::DeleteShellOperation *>(class WSMan::Client::DeleteShellOperation *)
??0?$AutoCleanup@V?$AutoRelease@VDeleteShellOperation@Client@WSMan@@@@PAVDeleteShellOperation@Client@WSMan@@@@QAE@PAVDeleteShellOperation@Client@WSMan@@@Z ; has WINAPI (@4)
; public: __thiscall <class <class WSMan::Client::DisconnectOperation>,class WSMan::Client::DisconnectOperation *>::<class <class WSMan::Client::DisconnectOperation>,class WSMan::Client::DisconnectOperation *>(class WSMan::Client::DisconnectOperation *)
??0?$AutoCleanup@V?$AutoRelease@VDisconnectOperation@Client@WSMan@@@@PAVDisconnectOperation@Client@WSMan@@@@QAE@PAVDisconnectOperation@Client@WSMan@@@Z ; has WINAPI (@4)
; public: __thiscall <class <class EnumSinkEx>,class EnumSinkEx *>::<class <class EnumSinkEx>,class EnumSinkEx *>(class EnumSinkEx *)
??0?$AutoCleanup@V?$AutoRelease@VEnumSinkEx@@@@PAVEnumSinkEx@@@@QAE@PAVEnumSinkEx@@@Z ; has WINAPI (@4)
; public: __thiscall <class <class EnumSinkEx>,class EnumSinkEx *>::<class <class EnumSinkEx>,class EnumSinkEx *>(void)
??0?$AutoCleanup@V?$AutoRelease@VEnumSinkEx@@@@PAVEnumSinkEx@@@@QAE@XZ ; has WINAPI (@0)
; public: __thiscall <class <class GeneralSinkEx>,class GeneralSinkEx *>::<class <class GeneralSinkEx>,class GeneralSinkEx *>(class GeneralSinkEx *)
??0?$AutoCleanup@V?$AutoRelease@VGeneralSinkEx@@@@PAVGeneralSinkEx@@@@QAE@PAVGeneralSinkEx@@@Z ; has WINAPI (@4)
; public: __thiscall <class <class GeneralSinkEx>,class GeneralSinkEx *>::<class <class GeneralSinkEx>,class GeneralSinkEx *>(void)
??0?$AutoCleanup@V?$AutoRelease@VGeneralSinkEx@@@@PAVGeneralSinkEx@@@@QAE@XZ ; has WINAPI (@0)
; public: __thiscall <class <class IISConfigSettings>,class IISConfigSettings *>::<class <class IISConfigSettings>,class IISConfigSettings *>(class IISConfigSettings *)
??0?$AutoCleanup@V?$AutoRelease@VIISConfigSettings@@@@PAVIISConfigSettings@@@@QAE@PAVIISConfigSettings@@@Z ; has WINAPI (@4)
; public: __thiscall <class <class IPCSoapProcessor>,class IPCSoapProcessor *>::<class <class IPCSoapProcessor>,class IPCSoapProcessor *>(class IPCSoapProcessor *)
??0?$AutoCleanup@V?$AutoRelease@VIPCSoapProcessor@@@@PAVIPCSoapProcessor@@@@QAE@PAVIPCSoapProcessor@@@Z ; has WINAPI (@4)
; public: __thiscall <class <class IRequestContext>,class IRequestContext *>::<class <class IRequestContext>,class IRequestContext *>(class IRequestContext *)
??0?$AutoCleanup@V?$AutoRelease@VIRequestContext@@@@PAVIRequestContext@@@@QAE@PAVIRequestContext@@@Z ; has WINAPI (@4)
; public: __thiscall <class <class IRequestContext>,class IRequestContext *>::<class <class IRequestContext>,class IRequestContext *>(void)
??0?$AutoCleanup@V?$AutoRelease@VIRequestContext@@@@PAVIRequestContext@@@@QAE@XZ ; has WINAPI (@0)
; public: __thiscall <class <class ISubscription>,class ISubscription *>::<class <class ISubscription>,class ISubscription *>(class ISubscription *)
??0?$AutoCleanup@V?$AutoRelease@VISubscription@@@@PAVISubscription@@@@QAE@PAVISubscription@@@Z ; has WINAPI (@4)
; public: __thiscall <class <class InboundRequestDetails>,class InboundRequestDetails *>::<class <class InboundRequestDetails>,class InboundRequestDetails *>(class InboundRequestDetails *)
??0?$AutoCleanup@V?$AutoRelease@VInboundRequestDetails@@@@PAVInboundRequestDetails@@@@QAE@PAVInboundRequestDetails@@@Z ; has WINAPI (@4)
; public: __thiscall <class <class WSMan::Client::ReceiveOperation>,class WSMan::Client::ReceiveOperation *>::<class <class WSMan::Client::ReceiveOperation>,class WSMan::Client::ReceiveOperation *>(class WSMan::Client::ReceiveOperation *)
??0?$AutoCleanup@V?$AutoRelease@VReceiveOperation@Client@WSMan@@@@PAVReceiveOperation@Client@WSMan@@@@QAE@PAVReceiveOperation@Client@WSMan@@@Z ; has WINAPI (@4)
; public: __thiscall <class <class WSMan::Client::ReconnectOperation>,class WSMan::Client::ReconnectOperation *>::<class <class WSMan::Client::ReconnectOperation>,class WSMan::Client::ReconnectOperation *>(class WSMan::Client::ReconnectOperation *)
??0?$AutoCleanup@V?$AutoRelease@VReconnectOperation@Client@WSMan@@@@PAVReconnectOperation@Client@WSMan@@@@QAE@PAVReconnectOperation@Client@WSMan@@@Z ; has WINAPI (@4)
; public: __thiscall <class <class WSMan::Client::SendOperation>,class WSMan::Client::SendOperation *>::<class <class WSMan::Client::SendOperation>,class WSMan::Client::SendOperation *>(class WSMan::Client::SendOperation *)
??0?$AutoCleanup@V?$AutoRelease@VSendOperation@Client@WSMan@@@@PAVSendOperation@Client@WSMan@@@@QAE@PAVSendOperation@Client@WSMan@@@Z ; has WINAPI (@4)
; public: __thiscall <class <class WSMan::Client::Shell>,class WSMan::Client::Shell *>::<class <class WSMan::Client::Shell>,class WSMan::Client::Shell *>(class WSMan::Client::Shell *)
??0?$AutoCleanup@V?$AutoRelease@VShell@Client@WSMan@@@@PAVShell@Client@WSMan@@@@QAE@PAVShell@Client@WSMan@@@Z ; has WINAPI (@4)
; public: __thiscall <class <class ShellInfo>,class ShellInfo *>::<class <class ShellInfo>,class ShellInfo *>(class ShellInfo *)
??0?$AutoCleanup@V?$AutoRelease@VShellInfo@@@@PAVShellInfo@@@@QAE@PAVShellInfo@@@Z ; has WINAPI (@4)
; public: __thiscall <class <class WSMan::Client::SignalOperation>,class WSMan::Client::SignalOperation *>::<class <class WSMan::Client::SignalOperation>,class WSMan::Client::SignalOperation *>(class WSMan::Client::SignalOperation *)
??0?$AutoCleanup@V?$AutoRelease@VSignalOperation@Client@WSMan@@@@PAVSignalOperation@Client@WSMan@@@@QAE@PAVSignalOperation@Client@WSMan@@@Z ; has WINAPI (@4)
; public: __thiscall <class <class UserRecord>,class UserRecord *>::<class <class UserRecord>,class UserRecord *>(class UserRecord *)
??0?$AutoCleanup@V?$AutoRelease@VUserRecord@@@@PAVUserRecord@@@@QAE@PAVUserRecord@@@Z ; has WINAPI (@4)
; public: __thiscall <class <class WSManHttpListener>,class WSManHttpListener *>::<class <class WSManHttpListener>,class WSManHttpListener *>(class WSManHttpListener *)
??0?$AutoCleanup@V?$AutoRelease@VWSManHttpListener@@@@PAVWSManHttpListener@@@@QAE@PAVWSManHttpListener@@@Z ; has WINAPI (@4)
; public: __thiscall <class <class HostMappingTableEntry>,class HostMappingTableEntry *>::<class <class HostMappingTableEntry>,class HostMappingTableEntry *>(class HostMappingTableEntry *)
??0?$AutoCleanup@V?$AutoReleaseEx@VHostMappingTableEntry@@@@PAVHostMappingTableEntry@@@@QAE@PAVHostMappingTableEntry@@@Z ; has WINAPI (@4)
; public: __thiscall <class <class WSMan::Client::Shell>,class WSMan::Client::Shell *>::<class <class WSMan::Client::Shell>,class WSMan::Client::Shell *>(class WSMan::Client::Shell *)
??0?$AutoCleanup@V?$AutoReleaseEx@VShell@Client@WSMan@@@@PAVShell@Client@WSMan@@@@QAE@PAVShell@Client@WSMan@@@Z ; has WINAPI (@4)
; public: __thiscall <class AutoBstr,unsigned short *>::<class AutoBstr,unsigned short *>(unsigned short *)
??0?$AutoCleanup@VAutoBstr@@PAG@@QAE@PAG@Z ; has WINAPI (@4)
; public: __thiscall <class AutoBstr,unsigned short *>::<class AutoBstr,unsigned short *>(void)
??0?$AutoCleanup@VAutoBstr@@PAG@@QAE@XZ ; has WINAPI (@0)
; public: __thiscall <class AutoBstrNoAlloc,unsigned short *>::<class AutoBstrNoAlloc,unsigned short *>(unsigned short *)
??0?$AutoCleanup@VAutoBstrNoAlloc@@PAG@@QAE@PAG@Z ; has WINAPI (@4)
; public: __thiscall <class AutoBstrNoAlloc,unsigned short *>::<class AutoBstrNoAlloc,unsigned short *>(void)
??0?$AutoCleanup@VAutoBstrNoAlloc@@PAG@@QAE@XZ ; has WINAPI (@0)
; public: __thiscall <class AutoCertContext,struct _CERT_CONTEXT const *>::<class AutoCertContext,struct _CERT_CONTEXT const *>(struct _CERT_CONTEXT const *)
??0?$AutoCleanup@VAutoCertContext@@PBU_CERT_CONTEXT@@@@QAE@PBU_CERT_CONTEXT@@@Z ; has WINAPI (@4)
; public: __thiscall <class AutoCertContext,struct _CERT_CONTEXT const *>::<class AutoCertContext,struct _CERT_CONTEXT const *>(void)
??0?$AutoCleanup@VAutoCertContext@@PBU_CERT_CONTEXT@@@@QAE@XZ ; has WINAPI (@0)
; public: __thiscall <class AutoChainContext,struct _CERT_CHAIN_CONTEXT const *>::<class AutoChainContext,struct _CERT_CHAIN_CONTEXT const *>(struct _CERT_CHAIN_CONTEXT const *)
??0?$AutoCleanup@VAutoChainContext@@PBU_CERT_CHAIN_CONTEXT@@@@QAE@PBU_CERT_CHAIN_CONTEXT@@@Z ; has WINAPI (@4)
; public: __thiscall <class AutoChainContext,struct _CERT_CHAIN_CONTEXT const *>::<class AutoChainContext,struct _CERT_CHAIN_CONTEXT const *>(void)
??0?$AutoCleanup@VAutoChainContext@@PBU_CERT_CHAIN_CONTEXT@@@@QAE@XZ ; has WINAPI (@0)
; public: __thiscall <class AutoCoTaskMemFree,void *>::<class AutoCoTaskMemFree,void *>(void *)
??0?$AutoCleanup@VAutoCoTaskMemFree@@PAX@@QAE@PAX@Z ; has WINAPI (@4)
; public: __thiscall <class AutoCoTaskMemFree,void *>::<class AutoCoTaskMemFree,void *>(void)
??0?$AutoCleanup@VAutoCoTaskMemFree@@PAX@@QAE@XZ ; has WINAPI (@0)
; public: __thiscall <class AutoEnvironmentBlock,void *>::<class AutoEnvironmentBlock,void *>(void *)
??0?$AutoCleanup@VAutoEnvironmentBlock@@PAX@@QAE@PAX@Z ; has WINAPI (@4)
; public: __thiscall <class AutoEnvironmentBlock,void *>::<class AutoEnvironmentBlock,void *>(void)
??0?$AutoCleanup@VAutoEnvironmentBlock@@PAX@@QAE@XZ ; has WINAPI (@0)
; public: __thiscall <class AutoFwXmlCloseParser,void *>::<class AutoFwXmlCloseParser,void *>(void *)
??0?$AutoCleanup@VAutoFwXmlCloseParser@@PAX@@QAE@PAX@Z ; has WINAPI (@4)
; public: __thiscall <class AutoFwXmlCloseParser,void *>::<class AutoFwXmlCloseParser,void *>(void)
??0?$AutoCleanup@VAutoFwXmlCloseParser@@PAX@@QAE@XZ ; has WINAPI (@0)
; public: __thiscall <class AutoHandle,void *>::<class AutoHandle,void *>(void *)
??0?$AutoCleanup@VAutoHandle@@PAX@@QAE@PAX@Z ; has WINAPI (@4)
; public: __thiscall <class AutoHandle,void *>::<class AutoHandle,void *>(void)
??0?$AutoCleanup@VAutoHandle@@PAX@@QAE@XZ ; has WINAPI (@0)
; public: __thiscall <class AutoImpersonateUser,void *>::<class AutoImpersonateUser,void *>(void *)
??0?$AutoCleanup@VAutoImpersonateUser@@PAX@@QAE@PAX@Z ; has WINAPI (@4)
; public: __thiscall <class AutoImpersonateUser,void *>::<class AutoImpersonateUser,void *>(void)
??0?$AutoCleanup@VAutoImpersonateUser@@PAX@@QAE@XZ ; has WINAPI (@0)
; public: __thiscall <class AutoLibrary,struct HINSTANCE__ *>::<class AutoLibrary,struct HINSTANCE__ *>(struct HINSTANCE__ *)
??0?$AutoCleanup@VAutoLibrary@@PAUHINSTANCE__@@@@QAE@PAUHINSTANCE__@@@Z ; has WINAPI (@4)
; public: __thiscall <class AutoLibrary,struct HINSTANCE__ *>::<class AutoLibrary,struct HINSTANCE__ *>(void)
??0?$AutoCleanup@VAutoLibrary@@PAUHINSTANCE__@@@@QAE@XZ ; has WINAPI (@0)
; public: __thiscall <class AutoLocalFree,void *>::<class AutoLocalFree,void *>(void *)
??0?$AutoCleanup@VAutoLocalFree@@PAX@@QAE@PAX@Z ; has WINAPI (@4)
; public: __thiscall <class AutoLocalFree,void *>::<class AutoLocalFree,void *>(void)
??0?$AutoCleanup@VAutoLocalFree@@PAX@@QAE@XZ ; has WINAPI (@0)
; public: __thiscall <class AutoMIClass,struct _MI_Class *>::<class AutoMIClass,struct _MI_Class *>(struct _MI_Class *)
??0?$AutoCleanup@VAutoMIClass@@PAU_MI_Class@@@@QAE@PAU_MI_Class@@@Z ; has WINAPI (@4)
; public: __thiscall <class AutoMIClass,struct _MI_Class *>::<class AutoMIClass,struct _MI_Class *>(void)
??0?$AutoCleanup@VAutoMIClass@@PAU_MI_Class@@@@QAE@XZ ; has WINAPI (@0)
; public: __thiscall <class AutoMIInstance,struct _MI_Instance *>::<class AutoMIInstance,struct _MI_Instance *>(struct _MI_Instance *)
??0?$AutoCleanup@VAutoMIInstance@@PAU_MI_Instance@@@@QAE@PAU_MI_Instance@@@Z ; has WINAPI (@4)
; public: __thiscall <class AutoMIInstance,struct _MI_Instance *>::<class AutoMIInstance,struct _MI_Instance *>(void)
??0?$AutoCleanup@VAutoMIInstance@@PAU_MI_Instance@@@@QAE@XZ ; has WINAPI (@0)
; public: __thiscall <class AutoObject,struct WSMAN_OBJECT *>::<class AutoObject,struct WSMAN_OBJECT *>(struct WSMAN_OBJECT *)
??0?$AutoCleanup@VAutoObject@@PAUWSMAN_OBJECT@@@@QAE@PAUWSMAN_OBJECT@@@Z ; has WINAPI (@4)
; public: __thiscall <class AutoObject,struct WSMAN_OBJECT *>::<class AutoObject,struct WSMAN_OBJECT *>(void)
??0?$AutoCleanup@VAutoObject@@PAUWSMAN_OBJECT@@@@QAE@XZ ; has WINAPI (@0)
; public: __thiscall <class AutoRegKey,struct HKEY__ *>::<class AutoRegKey,struct HKEY__ *>(struct HKEY__ *)
??0?$AutoCleanup@VAutoRegKey@@PAUHKEY__@@@@QAE@PAUHKEY__@@@Z ; has WINAPI (@4)
; public: __thiscall <class AutoRegKey,struct HKEY__ *>::<class AutoRegKey,struct HKEY__ *>(void)
??0?$AutoCleanup@VAutoRegKey@@PAUHKEY__@@@@QAE@XZ ; has WINAPI (@0)
; public: __thiscall <class AutoSecurityDescriptor,void *>::<class AutoSecurityDescriptor,void *>(void *)
??0?$AutoCleanup@VAutoSecurityDescriptor@@PAX@@QAE@PAX@Z ; has WINAPI (@4)
; public: __thiscall <class AutoSecurityDescriptor,void *>::<class AutoSecurityDescriptor,void *>(void)
??0?$AutoCleanup@VAutoSecurityDescriptor@@PAX@@QAE@XZ ; has WINAPI (@0)
; public: __thiscall <class AutoWaitHandle,void *>::<class AutoWaitHandle,void *>(void *)
??0?$AutoCleanup@VAutoWaitHandle@@PAX@@QAE@PAX@Z ; has WINAPI (@4)
; public: __thiscall <class AutoWaitHandle,void *>::<class AutoWaitHandle,void *>(void)
??0?$AutoCleanup@VAutoWaitHandle@@PAX@@QAE@XZ ; has WINAPI (@0)
; public: __thiscall <char>::<char>(void)
??0?$AutoDelete@D@@QAE@XZ ; has WINAPI (@0)
; public: __thiscall <unsigned short>::<unsigned short>(unsigned short *)
??0?$AutoDelete@G@@QAE@PAG@Z ; has WINAPI (@4)
; public: __thiscall <unsigned short>::<unsigned short>(void)
??0?$AutoDelete@G@@QAE@XZ ; has WINAPI (@0)
; public: __thiscall <struct CWSManIPFilter::IPRange>::<struct CWSManIPFilter::IPRange>(void)
??0?$AutoDelete@UIPRange@CWSManIPFilter@@@@QAE@XZ ; has WINAPI (@0)
; public: __thiscall <struct _SID>::<struct _SID>(struct _SID *)
??0?$AutoDelete@U_SID@@@@QAE@PAU_SID@@@Z ; has WINAPI (@4)
; public: __thiscall <struct _WSMAN_STREAM_ID_SET>::<struct _WSMAN_STREAM_ID_SET>(struct _WSMAN_STREAM_ID_SET *)
??0?$AutoDelete@U_WSMAN_STREAM_ID_SET@@@@QAE@PAU_WSMAN_STREAM_ID_SET@@@Z ; has WINAPI (@4)
; public: __thiscall <class <class ISubscription>>::<class <class ISubscription>>(class <class ISubscription> *)
??0?$AutoDelete@V?$Handle@VISubscription@@@@@@QAE@PAV?$Handle@VISubscription@@@@@Z ; has WINAPI (@4)
; public: __thiscall <class <class StringKeyCI,unsigned long>>::<class <class StringKeyCI,unsigned long>>(void)
??0?$AutoDelete@V?$SafeMap_Iterator@VStringKeyCI@@K@@@@QAE@XZ ; has WINAPI (@0)
; public: __thiscall <class <enum WSManSessionOption,class WSMan::Client::SessionOptions::OptionValue *>>::<class <enum WSManSessionOption,class WSMan::Client::SessionOptions::OptionValue *>>(void)
??0?$AutoDelete@V?$SafeMap_Iterator@W4WSManSessionOption@@PAVOptionValue@SessionOptions@Client@WSMan@@@@@@QAE@XZ ; has WINAPI (@0)
; public: __thiscall <class <class CCertMapping *>>::<class <class CCertMapping *>>(class <class CCertMapping *> *)
??0?$AutoDelete@V?$SafeSet@PAVCCertMapping@@@@@@QAE@PAV?$SafeSet@PAVCCertMapping@@@@@Z ; has WINAPI (@4)
; public: __thiscall <class <class CCertMapping *>>::<class <class CCertMapping *>>(void)
??0?$AutoDelete@V?$SafeSet@PAVCCertMapping@@@@@@QAE@XZ ; has WINAPI (@0)
; public: __thiscall <class <class CShellUriSettings *>>::<class <class CShellUriSettings *>>(class <class CShellUriSettings *> *)
??0?$AutoDelete@V?$SafeSet@PAVCShellUriSettings@@@@@@QAE@PAV?$SafeSet@PAVCShellUriSettings@@@@@Z ; has WINAPI (@4)
; public: __thiscall <class <class CShellUriSettings *>>::<class <class CShellUriSettings *>>(void)
??0?$AutoDelete@V?$SafeSet@PAVCShellUriSettings@@@@@@QAE@XZ ; has WINAPI (@0)
; public: __thiscall <class <class CListenerOperation *>>::<class <class CListenerOperation *>>(void)
??0?$AutoDelete@V?$SafeSet_Iterator@PAVCListenerOperation@@@@@@QAE@XZ ; has WINAPI (@0)
; public: __thiscall <class <class CListenerOperation>>::<class <class CListenerOperation>>(void)
??0?$AutoDelete@V?$SimpleStack@VCListenerOperation@@@@@@QAE@XZ ; has WINAPI (@0)
; public: __thiscall <class <class ShellHostEntry>>::<class <class ShellHostEntry>>(void)
??0?$AutoDelete@V?$SimpleStack@VShellHostEntry@@@@@@QAE@XZ ; has WINAPI (@0)
; public: __thiscall <class std::<class CListenerSettings *,class CServiceConfigSettings::CListenerSettingsLessFunctor,class <class CListenerSettings *>>>::<class std::<class CListenerSettings *,class CServiceConfigSettings::CListenerSettingsLessFunctor,class <class CListenerSettings *>>>(class std::<class CListenerSettings *,class CServiceConfigSettings::CListenerSettingsLessFunctor,class <class CListenerSettings *>> *)
??0?$AutoDelete@V?$set@PAVCListenerSettings@@VCListenerSettingsLessFunctor@CServiceConfigSettings@@V?$transport_allocator@PAVCListenerSettings@@@@@std@@@@QAE@PAV?$set@PAVCListenerSettings@@VCListenerSettingsLessFunctor@CServiceConfigSettings@@V?$transport_allocator@PAVCListenerSettings@@@@@std@@@Z ; has WINAPI (@4)
; public: __thiscall <class std::<class CListenerSettings *,class CServiceConfigSettings::CListenerSettingsLessFunctor,class <class CListenerSettings *>>>::<class std::<class CListenerSettings *,class CServiceConfigSettings::CListenerSettingsLessFunctor,class <class CListenerSettings *>>>(void)
??0?$AutoDelete@V?$set@PAVCListenerSettings@@VCListenerSettingsLessFunctor@CServiceConfigSettings@@V?$transport_allocator@PAVCListenerSettings@@@@@std@@@@QAE@XZ ; has WINAPI (@0)
; public: __thiscall <class std::<struct sockaddr_storage,class CListenerSettings::SockAddrLessFunctor,class <struct sockaddr_storage>>>::<class std::<struct sockaddr_storage,class CListenerSettings::SockAddrLessFunctor,class <struct sockaddr_storage>>>(void)
??0?$AutoDelete@V?$set@Usockaddr_storage@@VSockAddrLessFunctor@CListenerSettings@@V?$transport_allocator@Usockaddr_storage@@@@@std@@@@QAE@XZ ; has WINAPI (@0)
; public: __thiscall <class std::<class WSMan::Client::HandleImpl *,class <class WSMan::Client::HandleImpl *>>>::<class std::<class WSMan::Client::HandleImpl *,class <class WSMan::Client::HandleImpl *>>>(void)
??0?$AutoDelete@V?$vector@PAVHandleImpl@Client@WSMan@@V?$transport_allocator@PAVHandleImpl@Client@WSMan@@@@@std@@@@QAE@XZ ; has WINAPI (@0)
; public: __thiscall <class std::<class IServiceConfigObserver *,class <class IServiceConfigObserver *>>>::<class std::<class IServiceConfigObserver *,class <class IServiceConfigObserver *>>>(void)
??0?$AutoDelete@V?$vector@PAVIServiceConfigObserver@@V?$transport_allocator@PAVIServiceConfigObserver@@@@@std@@@@QAE@XZ ; has WINAPI (@0)
; public: __thiscall <class CSecurity::AdminSid>::<class CSecurity::AdminSid>(class CSecurity::AdminSid *)
??0?$AutoDelete@VAdminSid@CSecurity@@@@QAE@PAVAdminSid@CSecurity@@@Z ; has WINAPI (@4)
; public: __thiscall <class BlockedRecord>::<class BlockedRecord>(void)
??0?$AutoDelete@VBlockedRecord@@@@QAE@XZ ; has WINAPI (@0)
; public: __thiscall <class CBaseConfigCache>::<class CBaseConfigCache>(class CBaseConfigCache *)
??0?$AutoDelete@VCBaseConfigCache@@@@QAE@PAVCBaseConfigCache@@@Z ; has WINAPI (@4)
; public: __thiscall <class CCertMapping>::<class CCertMapping>(class CCertMapping *)
??0?$AutoDelete@VCCertMapping@@@@QAE@PAVCCertMapping@@@Z ; has WINAPI (@4)
; public: __thiscall <class CConfigChangeSource>::<class CConfigChangeSource>(void)
??0?$AutoDelete@VCConfigChangeSource@@@@QAE@XZ ; has WINAPI (@0)
; public: __thiscall <class CListenerSettings>::<class CListenerSettings>(class CListenerSettings *)
??0?$AutoDelete@VCListenerSettings@@@@QAE@PAVCListenerSettings@@@Z ; has WINAPI (@4)
; public: __thiscall <class CObserverConfigChangeErrors>::<class CObserverConfigChangeErrors>(void)
??0?$AutoDelete@VCObserverConfigChangeErrors@@@@QAE@XZ ; has WINAPI (@0)
; public: __thiscall <class CServiceConfigCache::CServiceWatcher>::<class CServiceConfigCache::CServiceWatcher>(class CServiceConfigCache::CServiceWatcher *)
??0?$AutoDelete@VCServiceWatcher@CServiceConfigCache@@@@QAE@PAVCServiceWatcher@CServiceConfigCache@@@Z ; has WINAPI (@4)
; public: __thiscall <class CServiceConfigCache::CServiceWatcher>::<class CServiceConfigCache::CServiceWatcher>(void)
??0?$AutoDelete@VCServiceWatcher@CServiceConfigCache@@@@QAE@XZ ; has WINAPI (@0)
; public: __thiscall <class CShellUriSettings>::<class CShellUriSettings>(class CShellUriSettings *)
??0?$AutoDelete@VCShellUriSettings@@@@QAE@PAVCShellUriSettings@@@Z ; has WINAPI (@4)
; public: __thiscall <class CWSManEPR>::<class CWSManEPR>(class CWSManEPR *)
??0?$AutoDelete@VCWSManEPR@@@@QAE@PAVCWSManEPR@@@Z ; has WINAPI (@4)
; public: __thiscall <class CWSManResource>::<class CWSManResource>(class CWSManResource *)
??0?$AutoDelete@VCWSManResource@@@@QAE@PAVCWSManResource@@@Z ; has WINAPI (@4)
; public: __thiscall <class CWSManResource>::<class CWSManResource>(void)
??0?$AutoDelete@VCWSManResource@@@@QAE@XZ ; has WINAPI (@0)
; public: __thiscall <class CertHash>::<class CertHash>(class CertHash *)
??0?$AutoDelete@VCertHash@@@@QAE@PAVCertHash@@@Z ; has WINAPI (@4)
; public: __thiscall <class CertHash>::<class CertHash>(void)
??0?$AutoDelete@VCertHash@@@@QAE@XZ ; has WINAPI (@0)
; public: __thiscall <class ConfigUpdate>::<class ConfigUpdate>(class ConfigUpdate *)
??0?$AutoDelete@VConfigUpdate@@@@QAE@PAVConfigUpdate@@@Z ; has WINAPI (@4)
; public: __thiscall <class ConfigUpdate>::<class ConfigUpdate>(void)
??0?$AutoDelete@VConfigUpdate@@@@QAE@XZ ; has WINAPI (@0)
; public: __thiscall <class CredUIDllLoader>::<class CredUIDllLoader>(class CredUIDllLoader *)
??0?$AutoDelete@VCredUIDllLoader@@@@QAE@PAVCredUIDllLoader@@@Z ; has WINAPI (@4)
; public: __thiscall <class EnumSinkEx>::<class EnumSinkEx>(class EnumSinkEx *)
??0?$AutoDelete@VEnumSinkEx@@@@QAE@PAVEnumSinkEx@@@Z ; has WINAPI (@4)
; public: __thiscall <class EnumSinkEx>::<class EnumSinkEx>(void)
??0?$AutoDelete@VEnumSinkEx@@@@QAE@XZ ; has WINAPI (@0)
; public: __thiscall <class WSMan::EventHandler>::<class WSMan::EventHandler>(class WSMan::EventHandler *)
??0?$AutoDelete@VEventHandler@WSMan@@@@QAE@PAVEventHandler@WSMan@@@Z ; has WINAPI (@4)
; public: __thiscall <class ExpiredOperationIdRecord>::<class ExpiredOperationIdRecord>(class ExpiredOperationIdRecord *)
??0?$AutoDelete@VExpiredOperationIdRecord@@@@QAE@PAVExpiredOperationIdRecord@@@Z ; has WINAPI (@4)
; public: __thiscall <class GPApiManager>::<class GPApiManager>(void)
??0?$AutoDelete@VGPApiManager@@@@QAE@XZ ; has WINAPI (@0)
; public: __thiscall <class GeneralSinkEx>::<class GeneralSinkEx>(class GeneralSinkEx *)
??0?$AutoDelete@VGeneralSinkEx@@@@QAE@PAVGeneralSinkEx@@@Z ; has WINAPI (@4)
; public: __thiscall <class GeneralSinkEx>::<class GeneralSinkEx>(void)
??0?$AutoDelete@VGeneralSinkEx@@@@QAE@XZ ; has WINAPI (@0)
; public: __thiscall <class IChannelObserverFactory>::<class IChannelObserverFactory>(class IChannelObserverFactory *)
??0?$AutoDelete@VIChannelObserverFactory@@@@QAE@PAVIChannelObserverFactory@@@Z ; has WINAPI (@4)
; public: __thiscall <class IChannelObserverFactory>::<class IChannelObserverFactory>(void)
??0?$AutoDelete@VIChannelObserverFactory@@@@QAE@XZ ; has WINAPI (@0)
; public: __thiscall <class IQueryDASHSMASHInterface>::<class IQueryDASHSMASHInterface>(class IQueryDASHSMASHInterface *)
??0?$AutoDelete@VIQueryDASHSMASHInterface@@@@QAE@PAVIQueryDASHSMASHInterface@@@Z ; has WINAPI (@4)
; public: __thiscall <class IQueryDASHSMASHInterface>::<class IQueryDASHSMASHInterface>(void)
??0?$AutoDelete@VIQueryDASHSMASHInterface@@@@QAE@XZ ; has WINAPI (@0)
; public: __thiscall <class ISpecification>::<class ISpecification>(class ISpecification *)
??0?$AutoDelete@VISpecification@@@@QAE@PAVISpecification@@@Z ; has WINAPI (@4)
; public: __thiscall <class ISpecification>::<class ISpecification>(void)
??0?$AutoDelete@VISpecification@@@@QAE@XZ ; has WINAPI (@0)
; public: __thiscall <class CSecurity::InteractiveSid>::<class CSecurity::InteractiveSid>(class CSecurity::InteractiveSid *)
??0?$AutoDelete@VInteractiveSid@CSecurity@@@@QAE@PAVInteractiveSid@CSecurity@@@Z ; has WINAPI (@4)
; public: __thiscall <class IpHlpApiDllLoader>::<class IpHlpApiDllLoader>(class IpHlpApiDllLoader *)
??0?$AutoDelete@VIpHlpApiDllLoader@@@@QAE@PAVIpHlpApiDllLoader@@@Z ; has WINAPI (@4)
; public: __thiscall <class MachineName>::<class MachineName>(class MachineName *)
??0?$AutoDelete@VMachineName@@@@QAE@PAVMachineName@@@Z ; has WINAPI (@4)
; public: __thiscall <class CSecurity::NetworkServiceSid>::<class CSecurity::NetworkServiceSid>(class CSecurity::NetworkServiceSid *)
??0?$AutoDelete@VNetworkServiceSid@CSecurity@@@@QAE@PAVNetworkServiceSid@CSecurity@@@Z ; has WINAPI (@4)
; public: __thiscall <class NtDsApiDllLoader>::<class NtDsApiDllLoader>(class NtDsApiDllLoader *)
??0?$AutoDelete@VNtDsApiDllLoader@@@@QAE@PAVNtDsApiDllLoader@@@Z ; has WINAPI (@4)
; public: __thiscall <class WSMan::Client::SessionOptions::OptionValue>::<class WSMan::Client::SessionOptions::OptionValue>(class WSMan::Client::SessionOptions::OptionValue *)
??0?$AutoDelete@VOptionValue@SessionOptions@Client@WSMan@@@@QAE@PAVOptionValue@SessionOptions@Client@WSMan@@@Z ; has WINAPI (@4)
; public: __thiscall <class PacketCreator>::<class PacketCreator>(class PacketCreator *)
??0?$AutoDelete@VPacketCreator@@@@QAE@PAVPacketCreator@@@Z ; has WINAPI (@4)
; public: __thiscall <class PacketCreator>::<class PacketCreator>(void)
??0?$AutoDelete@VPacketCreator@@@@QAE@XZ ; has WINAPI (@0)
; public: __thiscall <class PacketParser>::<class PacketParser>(void)
??0?$AutoDelete@VPacketParser@@@@QAE@XZ ; has WINAPI (@0)
; public: __thiscall <class Locale::Resources>::<class Locale::Resources>(class Locale::Resources *)
??0?$AutoDelete@VResources@Locale@@@@QAE@PAVResources@Locale@@@Z ; has WINAPI (@4)
; public: __thiscall <class RunAsConfiguration>::<class RunAsConfiguration>(class RunAsConfiguration *)
??0?$AutoDelete@VRunAsConfiguration@@@@QAE@PAVRunAsConfiguration@@@Z ; has WINAPI (@4)
; public: __thiscall <class Catalog::SecurityEntry>::<class Catalog::SecurityEntry>(class Catalog::SecurityEntry *)
??0?$AutoDelete@VSecurityEntry@Catalog@@@@QAE@PAVSecurityEntry@Catalog@@@Z ; has WINAPI (@4)
; public: __thiscall <class RobustConnectionBuffer::SendPacketArgs>::<class RobustConnectionBuffer::SendPacketArgs>(class RobustConnectionBuffer::SendPacketArgs *)
??0?$AutoDelete@VSendPacketArgs@RobustConnectionBuffer@@@@QAE@PAVSendPacketArgs@RobustConnectionBuffer@@@Z ; has WINAPI (@4)
; public: __thiscall <class ServiceSoapProcessor>::<class ServiceSoapProcessor>(void)
??0?$AutoDelete@VServiceSoapProcessor@@@@QAE@XZ ; has WINAPI (@0)
; public: __thiscall <class Shell32DllLoader>::<class Shell32DllLoader>(class Shell32DllLoader *)
??0?$AutoDelete@VShell32DllLoader@@@@QAE@PAVShell32DllLoader@@@Z ; has WINAPI (@4)
; public: __thiscall <class ShlWApiDllLoader>::<class ShlWApiDllLoader>(class ShlWApiDllLoader *)
??0?$AutoDelete@VShlWApiDllLoader@@@@QAE@PAVShlWApiDllLoader@@@Z ; has WINAPI (@4)
; public: __thiscall <class SubscriptionEnumerator>::<class SubscriptionEnumerator>(void)
??0?$AutoDelete@VSubscriptionEnumerator@@@@QAE@XZ ; has WINAPI (@0)
; public: __thiscall <class SubscriptionManager>::<class SubscriptionManager>(class SubscriptionManager *)
??0?$AutoDelete@VSubscriptionManager@@@@QAE@PAVSubscriptionManager@@@Z ; has WINAPI (@4)
; public: __thiscall <class TSTRBUFFER>::<class TSTRBUFFER>(class TSTRBUFFER *)
??0?$AutoDelete@VTSTRBUFFER@@@@QAE@PAVTSTRBUFFER@@@Z ; has WINAPI (@4)
; public: __thiscall <class TSTRBUFFER>::<class TSTRBUFFER>(void)
??0?$AutoDelete@VTSTRBUFFER@@@@QAE@XZ ; has WINAPI (@0)
; public: __thiscall <class UniqueStringOverflow>::<class UniqueStringOverflow>(void)
??0?$AutoDelete@VUniqueStringOverflow@@@@QAE@XZ ; has WINAPI (@0)
; public: __thiscall <class User32DllLoader>::<class User32DllLoader>(class User32DllLoader *)
??0?$AutoDelete@VUser32DllLoader@@@@QAE@PAVUser32DllLoader@@@Z ; has WINAPI (@4)
; public: __thiscall <class WSMANCONFIGTABLE_IDENTITY>::<class WSMANCONFIGTABLE_IDENTITY>(class WSMANCONFIGTABLE_IDENTITY *)
??0?$AutoDelete@VWSMANCONFIGTABLE_IDENTITY@@@@QAE@PAVWSMANCONFIGTABLE_IDENTITY@@@Z ; has WINAPI (@4)
; public: __thiscall <class WSManMemCryptManager>::<class WSManMemCryptManager>(class WSManMemCryptManager *)
??0?$AutoDelete@VWSManMemCryptManager@@@@QAE@PAVWSManMemCryptManager@@@Z ; has WINAPI (@4)
; public: __thiscall <class WmiEnumContext>::<class WmiEnumContext>(class WmiEnumContext *)
??0?$AutoDelete@VWmiEnumContext@@@@QAE@PAVWmiEnumContext@@@Z ; has WINAPI (@4)
; public: __thiscall <class WmiEnumContext>::<class WmiEnumContext>(void)
??0?$AutoDelete@VWmiEnumContext@@@@QAE@XZ ; has WINAPI (@0)
; public: __thiscall <class XmlReader>::<class XmlReader>(class XmlReader *)
??0?$AutoDelete@VXmlReader@@@@QAE@PAVXmlReader@@@Z ; has WINAPI (@4)
; public: __thiscall <class XmlReader>::<class XmlReader>(void)
??0?$AutoDelete@VXmlReader@@@@QAE@XZ ; has WINAPI (@0)
; public: __thiscall <unsigned short const>::<unsigned short const>(void)
??0?$AutoDeleteVector@$$CBG@@QAE@XZ ; has WINAPI (@0)
; public: __thiscall <char>::<char>(char *)
??0?$AutoDeleteVector@D@@QAE@PAD@Z ; has WINAPI (@4)
; public: __thiscall <char>::<char>(void)
??0?$AutoDeleteVector@D@@QAE@XZ ; has WINAPI (@0)
; public: __thiscall <unsigned char>::<unsigned char>(unsigned char *)
??0?$AutoDeleteVector@E@@QAE@PAE@Z ; has WINAPI (@4)
; public: __thiscall <unsigned char>::<unsigned char>(void)
??0?$AutoDeleteVector@E@@QAE@XZ ; has WINAPI (@0)
; public: __thiscall <unsigned short>::<unsigned short>(unsigned short *)
??0?$AutoDeleteVector@G@@QAE@PAG@Z ; has WINAPI (@4)
; public: __thiscall <unsigned short>::<unsigned short>(void)
??0?$AutoDeleteVector@G@@QAE@XZ ; has WINAPI (@0)
; public: __thiscall <int>::<int>(int *)
??0?$AutoDeleteVector@H@@QAE@PAH@Z ; has WINAPI (@4)
; public: __thiscall <unsigned short *>::<unsigned short *>(unsigned short **)
??0?$AutoDeleteVector@PAG@@QAE@PAPAG@Z ; has WINAPI (@4)
; public: __thiscall <unsigned short *>::<unsigned short *>(void)
??0?$AutoDeleteVector@PAG@@QAE@XZ ; has WINAPI (@0)
; public: __thiscall <unsigned short const *>::<unsigned short const *>(unsigned short const **)
??0?$AutoDeleteVector@PBG@@QAE@PAPBG@Z ; has WINAPI (@4)
; public: __thiscall <unsigned short const *>::<unsigned short const *>(void)
??0?$AutoDeleteVector@PBG@@QAE@XZ ; has WINAPI (@0)
; public: __thiscall <struct _CONFIG_UPDATE>::<struct _CONFIG_UPDATE>(void)
??0?$AutoDeleteVector@U_CONFIG_UPDATE@@@@QAE@XZ ; has WINAPI (@0)
; public: __thiscall <struct _WINRS_CREATE_SHELL_ENVIRONMENT_VARIABLE>::<struct _WINRS_CREATE_SHELL_ENVIRONMENT_VARIABLE>(struct _WINRS_CREATE_SHELL_ENVIRONMENT_VARIABLE *)
??0?$AutoDeleteVector@U_WINRS_CREATE_SHELL_ENVIRONMENT_VARIABLE@@@@QAE@PAU_WINRS_CREATE_SHELL_ENVIRONMENT_VARIABLE@@@Z ; has WINAPI (@4)
; public: __thiscall <struct _WINRS_CREATE_SHELL_ENVIRONMENT_VARIABLE>::<struct _WINRS_CREATE_SHELL_ENVIRONMENT_VARIABLE>(void)
??0?$AutoDeleteVector@U_WINRS_CREATE_SHELL_ENVIRONMENT_VARIABLE@@@@QAE@XZ ; has WINAPI (@0)
; public: __thiscall <struct _WINRS_RUN_COMMAND_ARG>::<struct _WINRS_RUN_COMMAND_ARG>(struct _WINRS_RUN_COMMAND_ARG *)
??0?$AutoDeleteVector@U_WINRS_RUN_COMMAND_ARG@@@@QAE@PAU_WINRS_RUN_COMMAND_ARG@@@Z ; has WINAPI (@4)
; public: __thiscall <struct _WINRS_RUN_COMMAND_ARG>::<struct _WINRS_RUN_COMMAND_ARG>(void)
??0?$AutoDeleteVector@U_WINRS_RUN_COMMAND_ARG@@@@QAE@XZ ; has WINAPI (@0)
; public: __thiscall <struct _WSMAN_OPTION>::<struct _WSMAN_OPTION>(struct _WSMAN_OPTION *)
??0?$AutoDeleteVector@U_WSMAN_OPTION@@@@QAE@PAU_WSMAN_OPTION@@@Z ; has WINAPI (@4)
; public: __thiscall <struct _WSMAN_OPTION>::<struct _WSMAN_OPTION>(void)
??0?$AutoDeleteVector@U_WSMAN_OPTION@@@@QAE@XZ ; has WINAPI (@0)
; public: __thiscall <void>::<void>(void *)
??0?$AutoDeleteVector@X@@QAE@PAX@Z ; has WINAPI (@4)
; public: __thiscall <void>::<void>(void)
??0?$AutoDeleteVector@X@@QAE@XZ ; has WINAPI (@0)
; public: __thiscall <unsigned char>::<unsigned char>(unsigned char *)
??0?$AutoFree@E@@QAE@PAE@Z ; has WINAPI (@4)
; public: __thiscall <unsigned char>::<unsigned char>(void)
??0?$AutoFree@E@@QAE@XZ ; has WINAPI (@0)
; public: __thiscall <class Packet>::<class Packet>(class Packet *)
??0?$AutoLocklessItemRecycle@VPacket@@@@QAE@PAVPacket@@@Z ; has WINAPI (@4)
; public: __thiscall <class Packet>::<class Packet>(void)
??0?$AutoLocklessItemRecycle@VPacket@@@@QAE@XZ ; has WINAPI (@0)
; public: __thiscall <struct IAppHostAdminManager>::<struct IAppHostAdminManager>(struct IAppHostAdminManager *)
??0?$AutoRelease@UIAppHostAdminManager@@@@QAE@PAUIAppHostAdminManager@@@Z ; has WINAPI (@4)
; public: __thiscall <struct IAppHostChildElementCollection>::<struct IAppHostChildElementCollection>(void)
??0?$AutoRelease@UIAppHostChildElementCollection@@@@QAE@XZ ; has WINAPI (@0)
; public: __thiscall <struct IAppHostConfigException>::<struct IAppHostConfigException>(struct IAppHostConfigException *)
??0?$AutoRelease@UIAppHostConfigException@@@@QAE@PAUIAppHostConfigException@@@Z ; has WINAPI (@4)
; public: __thiscall <struct IAppHostElement>::<struct IAppHostElement>(struct IAppHostElement *)
??0?$AutoRelease@UIAppHostElement@@@@QAE@PAUIAppHostElement@@@Z ; has WINAPI (@4)
; public: __thiscall <struct IAppHostElement>::<struct IAppHostElement>(void)
??0?$AutoRelease@UIAppHostElement@@@@QAE@XZ ; has WINAPI (@0)
; public: __thiscall <struct IAppHostElementCollection>::<struct IAppHostElementCollection>(void)
??0?$AutoRelease@UIAppHostElementCollection@@@@QAE@XZ ; has WINAPI (@0)
; public: __thiscall <struct IAppHostProperty>::<struct IAppHostProperty>(void)
??0?$AutoRelease@UIAppHostProperty@@@@QAE@XZ ; has WINAPI (@0)
; public: __thiscall <struct IAppHostPropertyCollection>::<struct IAppHostPropertyCollection>(void)
??0?$AutoRelease@UIAppHostPropertyCollection@@@@QAE@XZ ; has WINAPI (@0)
; public: __thiscall <struct IClientSecurity>::<struct IClientSecurity>(struct IClientSecurity *)
??0?$AutoRelease@UIClientSecurity@@@@QAE@PAUIClientSecurity@@@Z ; has WINAPI (@4)
; public: __thiscall <struct IClientSecurity>::<struct IClientSecurity>(void)
??0?$AutoRelease@UIClientSecurity@@@@QAE@XZ ; has WINAPI (@0)
; public: __thiscall <struct IEnumWbemClassObject>::<struct IEnumWbemClassObject>(struct IEnumWbemClassObject *)
??0?$AutoRelease@UIEnumWbemClassObject@@@@QAE@PAUIEnumWbemClassObject@@@Z ; has WINAPI (@4)
; public: __thiscall <struct IEnumWbemClassObject>::<struct IEnumWbemClassObject>(void)
??0?$AutoRelease@UIEnumWbemClassObject@@@@QAE@XZ ; has WINAPI (@0)
; public: __thiscall <struct IErrorInfo>::<struct IErrorInfo>(struct IErrorInfo *)
??0?$AutoRelease@UIErrorInfo@@@@QAE@PAUIErrorInfo@@@Z ; has WINAPI (@4)
; public: __thiscall <struct IErrorInfo>::<struct IErrorInfo>(void)
??0?$AutoRelease@UIErrorInfo@@@@QAE@XZ ; has WINAPI (@0)
; public: __thiscall <struct IUnknown>::<struct IUnknown>(struct IUnknown *)
??0?$AutoRelease@UIUnknown@@@@QAE@PAUIUnknown@@@Z ; has WINAPI (@4)
; public: __thiscall <struct IUnknown>::<struct IUnknown>(void)
??0?$AutoRelease@UIUnknown@@@@QAE@XZ ; has WINAPI (@0)
; public: __thiscall <struct IWbemClassObject>::<struct IWbemClassObject>(struct IWbemClassObject *)
??0?$AutoRelease@UIWbemClassObject@@@@QAE@PAUIWbemClassObject@@@Z ; has WINAPI (@4)
; public: __thiscall <struct IWbemClassObject>::<struct IWbemClassObject>(void)
??0?$AutoRelease@UIWbemClassObject@@@@QAE@XZ ; has WINAPI (@0)
; public: __thiscall <struct IWbemContext>::<struct IWbemContext>(struct IWbemContext *)
??0?$AutoRelease@UIWbemContext@@@@QAE@PAUIWbemContext@@@Z ; has WINAPI (@4)
; public: __thiscall <struct IWbemContext>::<struct IWbemContext>(void)
??0?$AutoRelease@UIWbemContext@@@@QAE@XZ ; has WINAPI (@0)
; public: __thiscall <struct IWbemLocator>::<struct IWbemLocator>(struct IWbemLocator *)
??0?$AutoRelease@UIWbemLocator@@@@QAE@PAUIWbemLocator@@@Z ; has WINAPI (@4)
; public: __thiscall <struct IWbemLocator>::<struct IWbemLocator>(void)
??0?$AutoRelease@UIWbemLocator@@@@QAE@XZ ; has WINAPI (@0)
; public: __thiscall <struct IWbemObjectTextSrc>::<struct IWbemObjectTextSrc>(struct IWbemObjectTextSrc *)
??0?$AutoRelease@UIWbemObjectTextSrc@@@@QAE@PAUIWbemObjectTextSrc@@@Z ; has WINAPI (@4)
; public: __thiscall <struct IWbemObjectTextSrc>::<struct IWbemObjectTextSrc>(void)
??0?$AutoRelease@UIWbemObjectTextSrc@@@@QAE@XZ ; has WINAPI (@0)
; public: __thiscall <struct IWbemPath>::<struct IWbemPath>(struct IWbemPath *)
??0?$AutoRelease@UIWbemPath@@@@QAE@PAUIWbemPath@@@Z ; has WINAPI (@4)
; public: __thiscall <struct IWbemPath>::<struct IWbemPath>(void)
??0?$AutoRelease@UIWbemPath@@@@QAE@XZ ; has WINAPI (@0)
; public: __thiscall <struct IWbemPathKeyList>::<struct IWbemPathKeyList>(struct IWbemPathKeyList *)
??0?$AutoRelease@UIWbemPathKeyList@@@@QAE@PAUIWbemPathKeyList@@@Z ; has WINAPI (@4)
; public: __thiscall <struct IWbemPathKeyList>::<struct IWbemPathKeyList>(void)
??0?$AutoRelease@UIWbemPathKeyList@@@@QAE@XZ ; has WINAPI (@0)
; public: __thiscall <struct IWbemQualifierSet>::<struct IWbemQualifierSet>(struct IWbemQualifierSet *)
??0?$AutoRelease@UIWbemQualifierSet@@@@QAE@PAUIWbemQualifierSet@@@Z ; has WINAPI (@4)
; public: __thiscall <struct IWbemQualifierSet>::<struct IWbemQualifierSet>(void)
??0?$AutoRelease@UIWbemQualifierSet@@@@QAE@XZ ; has WINAPI (@0)
; public: __thiscall <struct IWbemQuery>::<struct IWbemQuery>(struct IWbemQuery *)
??0?$AutoRelease@UIWbemQuery@@@@QAE@PAUIWbemQuery@@@Z ; has WINAPI (@4)
; public: __thiscall <struct IWbemQuery>::<struct IWbemQuery>(void)
??0?$AutoRelease@UIWbemQuery@@@@QAE@XZ ; has WINAPI (@0)
; public: __thiscall <struct IWbemServices>::<struct IWbemServices>(struct IWbemServices *)
??0?$AutoRelease@UIWbemServices@@@@QAE@PAUIWbemServices@@@Z ; has WINAPI (@4)
; public: __thiscall <struct IWbemServices>::<struct IWbemServices>(void)
??0?$AutoRelease@UIWbemServices@@@@QAE@XZ ; has WINAPI (@0)
; public: __thiscall <class WSMan::Client::Application>::<class WSMan::Client::Application>(void)
??0?$AutoRelease@VApplication@Client@WSMan@@@@QAE@XZ ; has WINAPI (@0)
; public: __thiscall <class CBaseConfigCache>::<class CBaseConfigCache>(class CBaseConfigCache *)
??0?$AutoRelease@VCBaseConfigCache@@@@QAE@PAVCBaseConfigCache@@@Z ; has WINAPI (@4)
; public: __thiscall <class CClientConfigSettings>::<class CClientConfigSettings>(class CClientConfigSettings *)
??0?$AutoRelease@VCClientConfigSettings@@@@QAE@PAVCClientConfigSettings@@@Z ; has WINAPI (@4)
; public: __thiscall <class CClientConfigSettings>::<class CClientConfigSettings>(void)
??0?$AutoRelease@VCClientConfigSettings@@@@QAE@XZ ; has WINAPI (@0)
; public: __thiscall <class CCommonConfigSettings>::<class CCommonConfigSettings>(class CCommonConfigSettings *)
??0?$AutoRelease@VCCommonConfigSettings@@@@QAE@PAVCCommonConfigSettings@@@Z ; has WINAPI (@4)
; public: __thiscall <class CCommonConfigSettings>::<class CCommonConfigSettings>(void)
??0?$AutoRelease@VCCommonConfigSettings@@@@QAE@XZ ; has WINAPI (@0)
; public: __thiscall <class CBaseConfigCache::CConfigCacheMap>::<class CBaseConfigCache::CConfigCacheMap>(class CBaseConfigCache::CConfigCacheMap *)
??0?$AutoRelease@VCConfigCacheMap@CBaseConfigCache@@@@QAE@PAVCConfigCacheMap@CBaseConfigCache@@@Z ; has WINAPI (@4)
; public: __thiscall <class CBaseConfigCache::CConfigCacheMap>::<class CBaseConfigCache::CConfigCacheMap>(void)
??0?$AutoRelease@VCConfigCacheMap@CBaseConfigCache@@@@QAE@XZ ; has WINAPI (@0)
; public: __thiscall <class CConfigManager>::<class CConfigManager>(class CConfigManager *)
??0?$AutoRelease@VCConfigManager@@@@QAE@PAVCConfigManager@@@Z ; has WINAPI (@4)
; public: __thiscall <class CConfigManager>::<class CConfigManager>(void)
??0?$AutoRelease@VCConfigManager@@@@QAE@XZ ; has WINAPI (@0)
; public: __thiscall <class CRemoteOperation>::<class CRemoteOperation>(class CRemoteOperation *)
??0?$AutoRelease@VCRemoteOperation@@@@QAE@PAVCRemoteOperation@@@Z ; has WINAPI (@4)
; public: __thiscall <class CRemoteSession>::<class CRemoteSession>(class CRemoteSession *)
??0?$AutoRelease@VCRemoteSession@@@@QAE@PAVCRemoteSession@@@Z ; has WINAPI (@4)
; public: __thiscall <class CRemoteSession>::<class CRemoteSession>(void)
??0?$AutoRelease@VCRemoteSession@@@@QAE@XZ ; has WINAPI (@0)
; public: __thiscall <class CRequestContext>::<class CRequestContext>(class CRequestContext *)
??0?$AutoRelease@VCRequestContext@@@@QAE@PAVCRequestContext@@@Z ; has WINAPI (@4)
; public: __thiscall <class CRequestContext>::<class CRequestContext>(void)
??0?$AutoRelease@VCRequestContext@@@@QAE@XZ ; has WINAPI (@0)
; public: __thiscall <class CServiceCommonConfigSettings>::<class CServiceCommonConfigSettings>(class CServiceCommonConfigSettings *)
??0?$AutoRelease@VCServiceCommonConfigSettings@@@@QAE@PAVCServiceCommonConfigSettings@@@Z ; has WINAPI (@4)
; public: __thiscall <class CServiceCommonConfigSettings>::<class CServiceCommonConfigSettings>(void)
??0?$AutoRelease@VCServiceCommonConfigSettings@@@@QAE@XZ ; has WINAPI (@0)
; public: __thiscall <class CServiceConfigCache>::<class CServiceConfigCache>(class CServiceConfigCache *)
??0?$AutoRelease@VCServiceConfigCache@@@@QAE@PAVCServiceConfigCache@@@Z ; has WINAPI (@4)
; public: __thiscall <class CServiceConfigCache>::<class CServiceConfigCache>(void)
??0?$AutoRelease@VCServiceConfigCache@@@@QAE@XZ ; has WINAPI (@0)
; public: __thiscall <class CServiceConfigSettings>::<class CServiceConfigSettings>(class CServiceConfigSettings *)
??0?$AutoRelease@VCServiceConfigSettings@@@@QAE@PAVCServiceConfigSettings@@@Z ; has WINAPI (@4)
; public: __thiscall <class CServiceConfigSettings>::<class CServiceConfigSettings>(void)
??0?$AutoRelease@VCServiceConfigSettings@@@@QAE@XZ ; has WINAPI (@0)
; public: __thiscall <class CWSManEPR>::<class CWSManEPR>(class CWSManEPR *)
??0?$AutoRelease@VCWSManEPR@@@@QAE@PAVCWSManEPR@@@Z ; has WINAPI (@4)
; public: __thiscall <class CWSManEPR>::<class CWSManEPR>(void)
??0?$AutoRelease@VCWSManEPR@@@@QAE@XZ ; has WINAPI (@0)
; public: __thiscall <class CWSManGroupPolicyCache>::<class CWSManGroupPolicyCache>(class CWSManGroupPolicyCache *)
??0?$AutoRelease@VCWSManGroupPolicyCache@@@@QAE@PAVCWSManGroupPolicyCache@@@Z ; has WINAPI (@4)
; public: __thiscall <class CWSManGroupPolicyManager>::<class CWSManGroupPolicyManager>(class CWSManGroupPolicyManager *)
??0?$AutoRelease@VCWSManGroupPolicyManager@@@@QAE@PAVCWSManGroupPolicyManager@@@Z ; has WINAPI (@4)
; public: __thiscall <class CWSManObject>::<class CWSManObject>(class CWSManObject *)
??0?$AutoRelease@VCWSManObject@@@@QAE@PAVCWSManObject@@@Z ; has WINAPI (@4)
; public: __thiscall <class CWSManResource>::<class CWSManResource>(class CWSManResource *)
??0?$AutoRelease@VCWSManResource@@@@QAE@PAVCWSManResource@@@Z ; has WINAPI (@4)
; public: __thiscall <class CWSManResource>::<class CWSManResource>(void)
??0?$AutoRelease@VCWSManResource@@@@QAE@XZ ; has WINAPI (@0)
; public: __thiscall <class CWinRSPluginConfigCache>::<class CWinRSPluginConfigCache>(class CWinRSPluginConfigCache *)
??0?$AutoRelease@VCWinRSPluginConfigCache@@@@QAE@PAVCWinRSPluginConfigCache@@@Z ; has WINAPI (@4)
; public: __thiscall <class CWinRSPluginConfigCache>::<class CWinRSPluginConfigCache>(void)
??0?$AutoRelease@VCWinRSPluginConfigCache@@@@QAE@XZ ; has WINAPI (@0)
; public: __thiscall <class CWinRSPluginConfigSettings>::<class CWinRSPluginConfigSettings>(class CWinRSPluginConfigSettings *)
??0?$AutoRelease@VCWinRSPluginConfigSettings@@@@QAE@PAVCWinRSPluginConfigSettings@@@Z ; has WINAPI (@4)
; public: __thiscall <class WSMan::Client::Command>::<class WSMan::Client::Command>(class WSMan::Client::Command *)
??0?$AutoRelease@VCommand@Client@WSMan@@@@QAE@PAVCommand@Client@WSMan@@@Z ; has WINAPI (@4)
; public: __thiscall <class ConfigNotification>::<class ConfigNotification>(class ConfigNotification *)
??0?$AutoRelease@VConfigNotification@@@@QAE@PAVConfigNotification@@@Z ; has WINAPI (@4)
; public: __thiscall <class WSMan::Client::ConnectShellOperation>::<class WSMan::Client::ConnectShellOperation>(class WSMan::Client::ConnectShellOperation *)
??0?$AutoRelease@VConnectShellOperation@Client@WSMan@@@@QAE@PAVConnectShellOperation@Client@WSMan@@@Z ; has WINAPI (@4)
; public: __thiscall <class WSMan::Client::CreateShellOperation>::<class WSMan::Client::CreateShellOperation>(class WSMan::Client::CreateShellOperation *)
??0?$AutoRelease@VCreateShellOperation@Client@WSMan@@@@QAE@PAVCreateShellOperation@Client@WSMan@@@Z ; has WINAPI (@4)
; public: __thiscall <class WSMan::Client::DeleteShellOperation>::<class WSMan::Client::DeleteShellOperation>(class WSMan::Client::DeleteShellOperation *)
??0?$AutoRelease@VDeleteShellOperation@Client@WSMan@@@@QAE@PAVDeleteShellOperation@Client@WSMan@@@Z ; has WINAPI (@4)
; public: __thiscall <class WSMan::Client::DisconnectOperation>::<class WSMan::Client::DisconnectOperation>(class WSMan::Client::DisconnectOperation *)
??0?$AutoRelease@VDisconnectOperation@Client@WSMan@@@@QAE@PAVDisconnectOperation@Client@WSMan@@@Z ; has WINAPI (@4)
; public: __thiscall <class EnumSinkEx>::<class EnumSinkEx>(class EnumSinkEx *)
??0?$AutoRelease@VEnumSinkEx@@@@QAE@PAVEnumSinkEx@@@Z ; has WINAPI (@4)
; public: __thiscall <class EnumSinkEx>::<class EnumSinkEx>(void)
??0?$AutoRelease@VEnumSinkEx@@@@QAE@XZ ; has WINAPI (@0)
; public: __thiscall <class GeneralSinkEx>::<class GeneralSinkEx>(class GeneralSinkEx *)
??0?$AutoRelease@VGeneralSinkEx@@@@QAE@PAVGeneralSinkEx@@@Z ; has WINAPI (@4)
; public: __thiscall <class GeneralSinkEx>::<class GeneralSinkEx>(void)
??0?$AutoRelease@VGeneralSinkEx@@@@QAE@XZ ; has WINAPI (@0)
; public: __thiscall <class IISConfigSettings>::<class IISConfigSettings>(void)
??0?$AutoRelease@VIISConfigSettings@@@@QAE@XZ ; has WINAPI (@0)
; public: __thiscall <class IPCSoapProcessor>::<class IPCSoapProcessor>(class IPCSoapProcessor *)
??0?$AutoRelease@VIPCSoapProcessor@@@@QAE@PAVIPCSoapProcessor@@@Z ; has WINAPI (@4)
; public: __thiscall <class IRequestContext>::<class IRequestContext>(class IRequestContext *)
??0?$AutoRelease@VIRequestContext@@@@QAE@PAVIRequestContext@@@Z ; has WINAPI (@4)
; public: __thiscall <class IRequestContext>::<class IRequestContext>(void)
??0?$AutoRelease@VIRequestContext@@@@QAE@XZ ; has WINAPI (@0)
; public: __thiscall <class ISubscription>::<class ISubscription>(class ISubscription *)
??0?$AutoRelease@VISubscription@@@@QAE@PAVISubscription@@@Z ; has WINAPI (@4)
; public: __thiscall <class InboundRequestDetails>::<class InboundRequestDetails>(void)
??0?$AutoRelease@VInboundRequestDetails@@@@QAE@XZ ; has WINAPI (@0)
; public: __thiscall <class WSMan::Client::ReceiveOperation>::<class WSMan::Client::ReceiveOperation>(class WSMan::Client::ReceiveOperation *)
??0?$AutoRelease@VReceiveOperation@Client@WSMan@@@@QAE@PAVReceiveOperation@Client@WSMan@@@Z ; has WINAPI (@4)
; public: __thiscall <class WSMan::Client::ReconnectOperation>::<class WSMan::Client::ReconnectOperation>(class WSMan::Client::ReconnectOperation *)
??0?$AutoRelease@VReconnectOperation@Client@WSMan@@@@QAE@PAVReconnectOperation@Client@WSMan@@@Z ; has WINAPI (@4)
; public: __thiscall <class WSMan::Client::SendOperation>::<class WSMan::Client::SendOperation>(class WSMan::Client::SendOperation *)
??0?$AutoRelease@VSendOperation@Client@WSMan@@@@QAE@PAVSendOperation@Client@WSMan@@@Z ; has WINAPI (@4)
; public: __thiscall <class WSMan::Client::Shell>::<class WSMan::Client::Shell>(class WSMan::Client::Shell *)
??0?$AutoRelease@VShell@Client@WSMan@@@@QAE@PAVShell@Client@WSMan@@@Z ; has WINAPI (@4)
; public: __thiscall <class ShellInfo>::<class ShellInfo>(void)
??0?$AutoRelease@VShellInfo@@@@QAE@XZ ; has WINAPI (@0)
; public: __thiscall <class WSMan::Client::SignalOperation>::<class WSMan::Client::SignalOperation>(class WSMan::Client::SignalOperation *)
??0?$AutoRelease@VSignalOperation@Client@WSMan@@@@QAE@PAVSignalOperation@Client@WSMan@@@Z ; has WINAPI (@4)
; public: __thiscall <class UserRecord>::<class UserRecord>(void)
??0?$AutoRelease@VUserRecord@@@@QAE@XZ ; has WINAPI (@0)
; public: __thiscall <class WSManHttpListener>::<class WSManHttpListener>(class WSManHttpListener *)
??0?$AutoRelease@VWSManHttpListener@@@@QAE@PAVWSManHttpListener@@@Z ; has WINAPI (@4)
; public: __thiscall <class HostMappingTableEntry>::<class HostMappingTableEntry>(void)
??0?$AutoReleaseEx@VHostMappingTableEntry@@@@QAE@XZ ; has WINAPI (@0)
; public: __thiscall <class WSMan::Client::Shell>::<class WSMan::Client::Shell>(class WSMan::Client::Shell *)
??0?$AutoReleaseEx@VShell@Client@WSMan@@@@QAE@PAVShell@Client@WSMan@@@Z ; has WINAPI (@4)
; public: __thiscall <class CSecurity::AdminSid>::<class CSecurity::AdminSid>(bool(__thiscall CSecurity::AdminSid::*)(class IRequestContext &),bool(__thiscall CSecurity::AdminSid::*)(class IRequestContext &))
??0?$ILoader@VAdminSid@CSecurity@@@@QAE@P8AdminSid@CSecurity@@AE_NAAVIRequestContext@@@Z1@Z ; has WINAPI (@8)
; public: __thiscall <class CredUIDllLoader>::<class CredUIDllLoader>(bool(__thiscall CredUIDllLoader::*)(class IRequestContext &),bool(__thiscall CredUIDllLoader::*)(class IRequestContext &))
??0?$ILoader@VCredUIDllLoader@@@@QAE@P8CredUIDllLoader@@AE_NAAVIRequestContext@@@Z1@Z ; has WINAPI (@8)
; public: __thiscall <class WSMan::EventHandler>::<class WSMan::EventHandler>(bool(__thiscall WSMan::EventHandler::*)(class IRequestContext &),bool(__thiscall WSMan::EventHandler::*)(class IRequestContext &))
??0?$ILoader@VEventHandler@WSMan@@@@QAE@P8EventHandler@WSMan@@AE_NAAVIRequestContext@@@Z1@Z ; has WINAPI (@8)
; public: __thiscall <class CSecurity::InteractiveSid>::<class CSecurity::InteractiveSid>(bool(__thiscall CSecurity::InteractiveSid::*)(class IRequestContext &),bool(__thiscall CSecurity::InteractiveSid::*)(class IRequestContext &))
??0?$ILoader@VInteractiveSid@CSecurity@@@@QAE@P8InteractiveSid@CSecurity@@AE_NAAVIRequestContext@@@Z1@Z ; has WINAPI (@8)
; public: __thiscall <class IpHlpApiDllLoader>::<class IpHlpApiDllLoader>(bool(__thiscall IpHlpApiDllLoader::*)(class IRequestContext &),bool(__thiscall IpHlpApiDllLoader::*)(class IRequestContext &))
??0?$ILoader@VIpHlpApiDllLoader@@@@QAE@P8IpHlpApiDllLoader@@AE_NAAVIRequestContext@@@Z1@Z ; has WINAPI (@8)
; public: __thiscall <class MachineName>::<class MachineName>(bool(__thiscall MachineName::*)(class IRequestContext &),bool(__thiscall MachineName::*)(class IRequestContext &))
??0?$ILoader@VMachineName@@@@QAE@P8MachineName@@AE_NAAVIRequestContext@@@Z1@Z ; has WINAPI (@8)
; public: __thiscall <class CSecurity::NetworkServiceSid>::<class CSecurity::NetworkServiceSid>(bool(__thiscall CSecurity::NetworkServiceSid::*)(class IRequestContext &),bool(__thiscall CSecurity::NetworkServiceSid::*)(class IRequestContext &))
??0?$ILoader@VNetworkServiceSid@CSecurity@@@@QAE@P8NetworkServiceSid@CSecurity@@AE_NAAVIRequestContext@@@Z1@Z ; has WINAPI (@8)
; public: __thiscall <class NtDsApiDllLoader>::<class NtDsApiDllLoader>(bool(__thiscall NtDsApiDllLoader::*)(class IRequestContext &),bool(__thiscall NtDsApiDllLoader::*)(class IRequestContext &))
??0?$ILoader@VNtDsApiDllLoader@@@@QAE@P8NtDsApiDllLoader@@AE_NAAVIRequestContext@@@Z1@Z ; has WINAPI (@8)
; public: __thiscall <class Locale::Resources>::<class Locale::Resources>(bool(__thiscall Locale::Resources::*)(class IRequestContext &),bool(__thiscall Locale::Resources::*)(class IRequestContext &))
??0?$ILoader@VResources@Locale@@@@QAE@P8Resources@Locale@@AE_NAAVIRequestContext@@@Z1@Z ; has WINAPI (@8)
; public: __thiscall <class Shell32DllLoader>::<class Shell32DllLoader>(bool(__thiscall Shell32DllLoader::*)(class IRequestContext &),bool(__thiscall Shell32DllLoader::*)(class IRequestContext &))
??0?$ILoader@VShell32DllLoader@@@@QAE@P8Shell32DllLoader@@AE_NAAVIRequestContext@@@Z1@Z ; has WINAPI (@8)
; public: __thiscall <class ShlWApiDllLoader>::<class ShlWApiDllLoader>(bool(__thiscall ShlWApiDllLoader::*)(class IRequestContext &),bool(__thiscall ShlWApiDllLoader::*)(class IRequestContext &))
??0?$ILoader@VShlWApiDllLoader@@@@QAE@P8ShlWApiDllLoader@@AE_NAAVIRequestContext@@@Z1@Z ; has WINAPI (@8)
; public: __thiscall <class SubscriptionManager>::<class SubscriptionManager>(bool(__thiscall SubscriptionManager::*)(class IRequestContext &),bool(__thiscall SubscriptionManager::*)(class IRequestContext &))
??0?$ILoader@VSubscriptionManager@@@@QAE@P8SubscriptionManager@@AE_NAAVIRequestContext@@@Z1@Z ; has WINAPI (@8)
; public: __thiscall <class User32DllLoader>::<class User32DllLoader>(bool(__thiscall User32DllLoader::*)(class IRequestContext &),bool(__thiscall User32DllLoader::*)(class IRequestContext &))
??0?$ILoader@VUser32DllLoader@@@@QAE@P8User32DllLoader@@AE_NAAVIRequestContext@@@Z1@Z ; has WINAPI (@8)
; public: __thiscall <class WSManMemCryptManager>::<class WSManMemCryptManager>(bool(__thiscall WSManMemCryptManager::*)(class IRequestContext &),bool(__thiscall WSManMemCryptManager::*)(class IRequestContext &))
??0?$ILoader@VWSManMemCryptManager@@@@QAE@P8WSManMemCryptManager@@AE_NAAVIRequestContext@@@Z1@Z ; has WINAPI (@8)
; public: __thiscall <class CSecurity::AdminSid,0x1ULL>::<class CSecurity::AdminSid,0x1ULL>(void)
??0?$Loader@VAdminSid@CSecurity@@$00@@QAE@XZ ; has WINAPI (@0)
; public: __thiscall <class CredUIDllLoader,0x1ULL>::<class CredUIDllLoader,0x1ULL>(void)
??0?$Loader@VCredUIDllLoader@@$00@@QAE@XZ ; has WINAPI (@0)
; public: __thiscall <class WSMan::EventHandler,0x1ULL>::<class WSMan::EventHandler,0x1ULL>(void)
??0?$Loader@VEventHandler@WSMan@@$00@@QAE@XZ ; has WINAPI (@0)
; public: __thiscall <class CSecurity::InteractiveSid,0x1ULL>::<class CSecurity::InteractiveSid,0x1ULL>(void)
??0?$Loader@VInteractiveSid@CSecurity@@$00@@QAE@XZ ; has WINAPI (@0)
; public: __thiscall <class IpHlpApiDllLoader,0x1ULL>::<class IpHlpApiDllLoader,0x1ULL>(void)
??0?$Loader@VIpHlpApiDllLoader@@$00@@QAE@XZ ; has WINAPI (@0)
; public: __thiscall <class MachineName,0x1ULL>::<class MachineName,0x1ULL>(void)
??0?$Loader@VMachineName@@$00@@QAE@XZ ; has WINAPI (@0)
; public: __thiscall <class CSecurity::NetworkServiceSid,0x1ULL>::<class CSecurity::NetworkServiceSid,0x1ULL>(void)
??0?$Loader@VNetworkServiceSid@CSecurity@@$00@@QAE@XZ ; has WINAPI (@0)
; public: __thiscall <class NtDsApiDllLoader,0x1ULL>::<class NtDsApiDllLoader,0x1ULL>(void)
??0?$Loader@VNtDsApiDllLoader@@$00@@QAE@XZ ; has WINAPI (@0)
; public: __thiscall <class Locale::Resources,0x0ULL>::<class Locale::Resources,0x0ULL>(void)
??0?$Loader@VResources@Locale@@$0A@@@QAE@XZ ; has WINAPI (@0)
; public: __thiscall <class Shell32DllLoader,0x1ULL>::<class Shell32DllLoader,0x1ULL>(void)
??0?$Loader@VShell32DllLoader@@$00@@QAE@XZ ; has WINAPI (@0)
; public: __thiscall <class ShlWApiDllLoader,0x1ULL>::<class ShlWApiDllLoader,0x1ULL>(void)
??0?$Loader@VShlWApiDllLoader@@$00@@QAE@XZ ; has WINAPI (@0)
; public: __thiscall <class User32DllLoader,0x1ULL>::<class User32DllLoader,0x1ULL>(void)
??0?$Loader@VUser32DllLoader@@$00@@QAE@XZ ; has WINAPI (@0)
; public: __thiscall <class WSManMemCryptManager,0x1ULL>::<class WSManMemCryptManager,0x1ULL>(void)
??0?$Loader@VWSManMemCryptManager@@$00@@QAE@XZ ; has WINAPI (@0)
; public: __thiscall <class CSecurity::AdminSid,0x1ULL>::<class CSecurity::AdminSid,0x1ULL>(bool(__thiscall CSecurity::AdminSid::*)(class IRequestContext &),bool(__thiscall CSecurity::AdminSid::*)(class IRequestContext &))
??0?$LoaderSerializer@VAdminSid@CSecurity@@$00@@QAE@P8AdminSid@CSecurity@@AE_NAAVIRequestContext@@@Z1@Z ; has WINAPI (@8)
; public: __thiscall <class CredUIDllLoader,0x1ULL>::<class CredUIDllLoader,0x1ULL>(bool(__thiscall CredUIDllLoader::*)(class IRequestContext &),bool(__thiscall CredUIDllLoader::*)(class IRequestContext &))
??0?$LoaderSerializer@VCredUIDllLoader@@$00@@QAE@P8CredUIDllLoader@@AE_NAAVIRequestContext@@@Z1@Z ; has WINAPI (@8)
; public: __thiscall <class WSMan::EventHandler,0x1ULL>::<class WSMan::EventHandler,0x1ULL>(bool(__thiscall WSMan::EventHandler::*)(class IRequestContext &),bool(__thiscall WSMan::EventHandler::*)(class IRequestContext &))
??0?$LoaderSerializer@VEventHandler@WSMan@@$00@@QAE@P8EventHandler@WSMan@@AE_NAAVIRequestContext@@@Z1@Z ; has WINAPI (@8)
; public: __thiscall <class CSecurity::InteractiveSid,0x1ULL>::<class CSecurity::InteractiveSid,0x1ULL>(bool(__thiscall CSecurity::InteractiveSid::*)(class IRequestContext &),bool(__thiscall CSecurity::InteractiveSid::*)(class IRequestContext &))
??0?$LoaderSerializer@VInteractiveSid@CSecurity@@$00@@QAE@P8InteractiveSid@CSecurity@@AE_NAAVIRequestContext@@@Z1@Z ; has WINAPI (@8)
; public: __thiscall <class IpHlpApiDllLoader,0x1ULL>::<class IpHlpApiDllLoader,0x1ULL>(bool(__thiscall IpHlpApiDllLoader::*)(class IRequestContext &),bool(__thiscall IpHlpApiDllLoader::*)(class IRequestContext &))
??0?$LoaderSerializer@VIpHlpApiDllLoader@@$00@@QAE@P8IpHlpApiDllLoader@@AE_NAAVIRequestContext@@@Z1@Z ; has WINAPI (@8)
; public: __thiscall <class MachineName,0x1ULL>::<class MachineName,0x1ULL>(bool(__thiscall MachineName::*)(class IRequestContext &),bool(__thiscall MachineName::*)(class IRequestContext &))
??0?$LoaderSerializer@VMachineName@@$00@@QAE@P8MachineName@@AE_NAAVIRequestContext@@@Z1@Z ; has WINAPI (@8)
; public: __thiscall <class CSecurity::NetworkServiceSid,0x1ULL>::<class CSecurity::NetworkServiceSid,0x1ULL>(bool(__thiscall CSecurity::NetworkServiceSid::*)(class IRequestContext &),bool(__thiscall CSecurity::NetworkServiceSid::*)(class IRequestContext &))
??0?$LoaderSerializer@VNetworkServiceSid@CSecurity@@$00@@QAE@P8NetworkServiceSid@CSecurity@@AE_NAAVIRequestContext@@@Z1@Z ; has WINAPI (@8)
; public: __thiscall <class NtDsApiDllLoader,0x1ULL>::<class NtDsApiDllLoader,0x1ULL>(bool(__thiscall NtDsApiDllLoader::*)(class IRequestContext &),bool(__thiscall NtDsApiDllLoader::*)(class IRequestContext &))
??0?$LoaderSerializer@VNtDsApiDllLoader@@$00@@QAE@P8NtDsApiDllLoader@@AE_NAAVIRequestContext@@@Z1@Z ; has WINAPI (@8)
; public: __thiscall <class Locale::Resources,0x0ULL>::<class Locale::Resources,0x0ULL>(bool(__thiscall Locale::Resources::*)(class IRequestContext &),bool(__thiscall Locale::Resources::*)(class IRequestContext &))
??0?$LoaderSerializer@VResources@Locale@@$0A@@@QAE@P8Resources@Locale@@AE_NAAVIRequestContext@@@Z1@Z ; has WINAPI (@8)
; public: __thiscall <class Shell32DllLoader,0x1ULL>::<class Shell32DllLoader,0x1ULL>(bool(__thiscall Shell32DllLoader::*)(class IRequestContext &),bool(__thiscall Shell32DllLoader::*)(class IRequestContext &))
??0?$LoaderSerializer@VShell32DllLoader@@$00@@QAE@P8Shell32DllLoader@@AE_NAAVIRequestContext@@@Z1@Z ; has WINAPI (@8)
; public: __thiscall <class ShlWApiDllLoader,0x1ULL>::<class ShlWApiDllLoader,0x1ULL>(bool(__thiscall ShlWApiDllLoader::*)(class IRequestContext &),bool(__thiscall ShlWApiDllLoader::*)(class IRequestContext &))
??0?$LoaderSerializer@VShlWApiDllLoader@@$00@@QAE@P8ShlWApiDllLoader@@AE_NAAVIRequestContext@@@Z1@Z ; has WINAPI (@8)
; public: __thiscall <class SubscriptionManager,0x2ULL>::<class SubscriptionManager,0x2ULL>(bool(__thiscall SubscriptionManager::*)(class IRequestContext &),bool(__thiscall SubscriptionManager::*)(class IRequestContext &))
??0?$LoaderSerializer@VSubscriptionManager@@$01@@QAE@P8SubscriptionManager@@AE_NAAVIRequestContext@@@Z1@Z ; has WINAPI (@8)
; public: __thiscall <class User32DllLoader,0x1ULL>::<class User32DllLoader,0x1ULL>(bool(__thiscall User32DllLoader::*)(class IRequestContext &),bool(__thiscall User32DllLoader::*)(class IRequestContext &))
??0?$LoaderSerializer@VUser32DllLoader@@$00@@QAE@P8User32DllLoader@@AE_NAAVIRequestContext@@@Z1@Z ; has WINAPI (@8)
; public: __thiscall <class WSManMemCryptManager,0x1ULL>::<class WSManMemCryptManager,0x1ULL>(bool(__thiscall WSManMemCryptManager::*)(class IRequestContext &),bool(__thiscall WSManMemCryptManager::*)(class IRequestContext &))
??0?$LoaderSerializer@VWSManMemCryptManager@@$00@@QAE@P8WSManMemCryptManager@@AE_NAAVIRequestContext@@@Z1@Z ; has WINAPI (@8)
; public: __thiscall PacketParser::<unsigned long>::<unsigned long>(void)
??0?$PacketElement@K@PacketParser@@QAE@XZ ; has WINAPI (@0)
; public: __thiscall PacketParser::<struct _FWXML_ELEMENT *>::<struct _FWXML_ELEMENT *>(void)
??0?$PacketElement@PAU_FWXML_ELEMENT@@@PacketParser@@QAE@XZ ; has WINAPI (@0)
; public: __thiscall PacketParser::<unsigned short const *>::<unsigned short const *>(void)
??0?$PacketElement@PBG@PacketParser@@QAE@XZ ; has WINAPI (@0)
; public: __thiscall PacketParser::<unsigned __int64>::<unsigned __int64>(void)
??0?$PacketElement@_K@PacketParser@@QAE@XZ ; has WINAPI (@0)
; public: __thiscall <class CCertMapping *,struct Empty,class <class CCertMapping *>>::<class CCertMapping *,struct Empty,class <class CCertMapping *>>(void)
??0?$SafeMap@PAVCCertMapping@@UEmpty@@V?$SafeSet_Iterator@PAVCCertMapping@@@@@@QAE@XZ ; has WINAPI (@0)
; public: __thiscall <class CListenerOperation *,struct Empty,class <class CListenerOperation *>>::<class CListenerOperation *,struct Empty,class <class CListenerOperation *>>(void)
??0?$SafeMap@PAVCListenerOperation@@UEmpty@@V?$SafeSet_Iterator@PAVCListenerOperation@@@@@@QAE@XZ ; has WINAPI (@0)
; public: __thiscall <class CShellUriSettings *,struct Empty,class <class CShellUriSettings *>>::<class CShellUriSettings *,struct Empty,class <class CShellUriSettings *>>(void)
??0?$SafeMap@PAVCShellUriSettings@@UEmpty@@V?$SafeSet_Iterator@PAVCShellUriSettings@@@@@@QAE@XZ ; has WINAPI (@0)
; public: __thiscall <void *,struct Empty,class <void *>>::<void *,struct Empty,class <void *>>(void)
??0?$SafeMap@PAXUEmpty@@V?$SafeSet_Iterator@PAX@@@@QAE@XZ ; has WINAPI (@0)
; public: __thiscall <struct PluginKey,unsigned long,class <struct PluginKey,unsigned long>>::<struct PluginKey,unsigned long,class <struct PluginKey,unsigned long>>(void)
??0?$SafeMap@UPluginKey@@KV?$SafeMap_Iterator@UPluginKey@@K@@@@QAE@XZ ; has WINAPI (@0)
; public: __thiscall <struct UserKey,class BlockedRecord *,class <struct UserKey,class BlockedRecord *>>::<struct UserKey,class BlockedRecord *,class <struct UserKey,class BlockedRecord *>>(void)
??0?$SafeMap@UUserKey@@PAVBlockedRecord@@V?$SafeMap_Iterator@UUserKey@@PAVBlockedRecord@@@@@@QAE@XZ ; has WINAPI (@0)
; public: __thiscall <class CertThumbprintKey,class CServiceConfigSettings::CertThumbprintMappedSet,class <class CertThumbprintKey,class CServiceConfigSettings::CertThumbprintMappedSet>>::<class CertThumbprintKey,class CServiceConfigSettings::CertThumbprintMappedSet,class <class CertThumbprintKey,class CServiceConfigSettings::CertThumbprintMappedSet>>(void)
??0?$SafeMap@VCertThumbprintKey@@VCertThumbprintMappedSet@CServiceConfigSettings@@V?$SafeMap_Iterator@VCertThumbprintKey@@VCertThumbprintMappedSet@CServiceConfigSettings@@@@@@QAE@XZ ; has WINAPI (@0)
; public: __thiscall <class Locale::Key,unsigned long,class <class Locale::Key,unsigned long>>::<class Locale::Key,unsigned long,class <class Locale::Key,unsigned long>>(void)
??0?$SafeMap@VKey@Locale@@KV?$SafeMap_Iterator@VKey@Locale@@K@@@@QAE@XZ ; has WINAPI (@0)
; public: __thiscall <class StringKeyCI,unsigned long,class <class StringKeyCI,unsigned long>>::<class StringKeyCI,unsigned long,class <class StringKeyCI,unsigned long>>(void)
??0?$SafeMap@VStringKeyCI@@KV?$SafeMap_Iterator@VStringKeyCI@@K@@@@QAE@XZ ; has WINAPI (@0)
; public: __thiscall <class StringKeyCI,struct WSManHttpListener::USER_CONTEXT_INFO,class <class StringKeyCI,struct WSManHttpListener::USER_CONTEXT_INFO>>::<class StringKeyCI,struct WSManHttpListener::USER_CONTEXT_INFO,class <class StringKeyCI,struct WSManHttpListener::USER_CONTEXT_INFO>>(void)
??0?$SafeMap@VStringKeyCI@@UUSER_CONTEXT_INFO@WSManHttpListener@@V?$SafeMap_Iterator@VStringKeyCI@@UUSER_CONTEXT_INFO@WSManHttpListener@@@@@@QAE@XZ ; has WINAPI (@0)
; public: __thiscall <class StringKeyStore,class ExpiredOperationIdRecord *,class <class StringKeyStore,class ExpiredOperationIdRecord *>>::<class StringKeyStore,class ExpiredOperationIdRecord *,class <class StringKeyStore,class ExpiredOperationIdRecord *>>(void)
??0?$SafeMap@VStringKeyStore@@PAVExpiredOperationIdRecord@@V?$SafeMap_Iterator@VStringKeyStore@@PAVExpiredOperationIdRecord@@@@@@QAE@XZ ; has WINAPI (@0)
; public: __thiscall <class StringKeyStore,class ServerFullDuplexChannel *,class <class StringKeyStore,class ServerFullDuplexChannel *>>::<class StringKeyStore,class ServerFullDuplexChannel *,class <class StringKeyStore,class ServerFullDuplexChannel *>>(void)
??0?$SafeMap@VStringKeyStore@@PAVServerFullDuplexChannel@@V?$SafeMap_Iterator@VStringKeyStore@@PAVServerFullDuplexChannel@@@@@@QAE@XZ ; has WINAPI (@0)
; public: __thiscall <enum WSManSessionOption,class WSMan::Client::SessionOptions::OptionValue *,class <enum WSManSessionOption,class WSMan::Client::SessionOptions::OptionValue *>>::<enum WSManSessionOption,class WSMan::Client::SessionOptions::OptionValue *,class <enum WSManSessionOption,class WSMan::Client::SessionOptions::OptionValue *>>(void)
??0?$SafeMap@W4WSManSessionOption@@PAVOptionValue@SessionOptions@Client@WSMan@@V?$SafeMap_Iterator@W4WSManSessionOption@@PAVOptionValue@SessionOptions@Client@WSMan@@@@@@QAE@XZ ; has WINAPI (@0)
; public: __thiscall <unsigned __int64,class RobustConnectionBuffer::SendPacketArgs *,class <unsigned __int64,class RobustConnectionBuffer::SendPacketArgs *>>::<unsigned __int64,class RobustConnectionBuffer::SendPacketArgs *,class <unsigned __int64,class RobustConnectionBuffer::SendPacketArgs *>>(void)
??0?$SafeMap@_KPAVSendPacketArgs@RobustConnectionBuffer@@V?$SafeMap_Iterator@_KPAVSendPacketArgs@RobustConnectionBuffer@@@@@@QAE@XZ ; has WINAPI (@0)
; public: __thiscall <class CCertMapping *,struct Empty>::<class CCertMapping *,struct Empty>(class <class CCertMapping *,struct Empty,class <class CCertMapping *,struct Empty>> &,bool)
??0?$SafeMap_Iterator@PAVCCertMapping@@UEmpty@@@@QAE@AAV?$SafeMap@PAVCCertMapping@@UEmpty@@V?$SafeMap_Iterator@PAVCCertMapping@@UEmpty@@@@@@_N@Z ; has WINAPI (@8)
; public: __thiscall <class CListenerOperation *,struct Empty>::<class CListenerOperation *,struct Empty>(class <class CListenerOperation *,struct Empty,class <class CListenerOperation *,struct Empty>> &,bool)
??0?$SafeMap_Iterator@PAVCListenerOperation@@UEmpty@@@@QAE@AAV?$SafeMap@PAVCListenerOperation@@UEmpty@@V?$SafeMap_Iterator@PAVCListenerOperation@@UEmpty@@@@@@_N@Z ; has WINAPI (@8)
; public: __thiscall <class CShellUriSettings *,struct Empty>::<class CShellUriSettings *,struct Empty>(class <class CShellUriSettings *,struct Empty,class <class CShellUriSettings *,struct Empty>> &,bool)
??0?$SafeMap_Iterator@PAVCShellUriSettings@@UEmpty@@@@QAE@AAV?$SafeMap@PAVCShellUriSettings@@UEmpty@@V?$SafeMap_Iterator@PAVCShellUriSettings@@UEmpty@@@@@@_N@Z ; has WINAPI (@8)
; public: __thiscall <void *,struct Empty>::<void *,struct Empty>(class <void *,struct Empty,class <void *,struct Empty>> &,bool)
??0?$SafeMap_Iterator@PAXUEmpty@@@@QAE@AAV?$SafeMap@PAXUEmpty@@V?$SafeMap_Iterator@PAXUEmpty@@@@@@_N@Z ; has WINAPI (@8)
; public: __thiscall <struct PluginKey,unsigned long>::<struct PluginKey,unsigned long>(class <struct PluginKey,unsigned long,class <struct PluginKey,unsigned long>> &,bool)
??0?$SafeMap_Iterator@UPluginKey@@K@@QAE@AAV?$SafeMap@UPluginKey@@KV?$SafeMap_Iterator@UPluginKey@@K@@@@_N@Z ; has WINAPI (@8)
; public: __thiscall <struct UserKey,class BlockedRecord *>::<struct UserKey,class BlockedRecord *>(class <struct UserKey,class BlockedRecord *,class <struct UserKey,class BlockedRecord *>> &,bool)
??0?$SafeMap_Iterator@UUserKey@@PAVBlockedRecord@@@@QAE@AAV?$SafeMap@UUserKey@@PAVBlockedRecord@@V?$SafeMap_Iterator@UUserKey@@PAVBlockedRecord@@@@@@_N@Z ; has WINAPI (@8)
; public: __thiscall <class CertThumbprintKey,class CServiceConfigSettings::CertThumbprintMappedSet>::<class CertThumbprintKey,class CServiceConfigSettings::CertThumbprintMappedSet>(class <class CertThumbprintKey,class CServiceConfigSettings::CertThumbprintMappedSet,class <class CertThumbprintKey,class CServiceConfigSettings::CertThumbprintMappedSet>> &,bool)
??0?$SafeMap_Iterator@VCertThumbprintKey@@VCertThumbprintMappedSet@CServiceConfigSettings@@@@QAE@AAV?$SafeMap@VCertThumbprintKey@@VCertThumbprintMappedSet@CServiceConfigSettings@@V?$SafeMap_Iterator@VCertThumbprintKey@@VCertThumbprintMappedSet@CServiceConfigSettings@@@@@@_N@Z ; has WINAPI (@8)
; public: __thiscall <class Locale::Key,unsigned long>::<class Locale::Key,unsigned long>(class <class Locale::Key,unsigned long,class <class Locale::Key,unsigned long>> &,bool)
??0?$SafeMap_Iterator@VKey@Locale@@K@@QAE@AAV?$SafeMap@VKey@Locale@@KV?$SafeMap_Iterator@VKey@Locale@@K@@@@_N@Z ; has WINAPI (@8)
; public: __thiscall <class StringKeyCI,unsigned long>::<class StringKeyCI,unsigned long>(class <class StringKeyCI,unsigned long,class <class StringKeyCI,unsigned long>> &,bool)
??0?$SafeMap_Iterator@VStringKeyCI@@K@@QAE@AAV?$SafeMap@VStringKeyCI@@KV?$SafeMap_Iterator@VStringKeyCI@@K@@@@_N@Z ; has WINAPI (@8)
; public: __thiscall <class StringKeyCI,struct WSManHttpListener::USER_CONTEXT_INFO>::<class StringKeyCI,struct WSManHttpListener::USER_CONTEXT_INFO>(class <class StringKeyCI,struct WSManHttpListener::USER_CONTEXT_INFO,class <class StringKeyCI,struct WSManHttpListener::USER_CONTEXT_INFO>> &,bool)
??0?$SafeMap_Iterator@VStringKeyCI@@UUSER_CONTEXT_INFO@WSManHttpListener@@@@QAE@AAV?$SafeMap@VStringKeyCI@@UUSER_CONTEXT_INFO@WSManHttpListener@@V?$SafeMap_Iterator@VStringKeyCI@@UUSER_CONTEXT_INFO@WSManHttpListener@@@@@@_N@Z ; has WINAPI (@8)
; public: __thiscall <class StringKeyStore,class ExpiredOperationIdRecord *>::<class StringKeyStore,class ExpiredOperationIdRecord *>(class <class StringKeyStore,class ExpiredOperationIdRecord *,class <class StringKeyStore,class ExpiredOperationIdRecord *>> &,bool)
??0?$SafeMap_Iterator@VStringKeyStore@@PAVExpiredOperationIdRecord@@@@QAE@AAV?$SafeMap@VStringKeyStore@@PAVExpiredOperationIdRecord@@V?$SafeMap_Iterator@VStringKeyStore@@PAVExpiredOperationIdRecord@@@@@@_N@Z ; has WINAPI (@8)
; public: __thiscall <class StringKeyStore,class ServerFullDuplexChannel *>::<class StringKeyStore,class ServerFullDuplexChannel *>(class <class StringKeyStore,class ServerFullDuplexChannel *,class <class StringKeyStore,class ServerFullDuplexChannel *>> &,bool)
??0?$SafeMap_Iterator@VStringKeyStore@@PAVServerFullDuplexChannel@@@@QAE@AAV?$SafeMap@VStringKeyStore@@PAVServerFullDuplexChannel@@V?$SafeMap_Iterator@VStringKeyStore@@PAVServerFullDuplexChannel@@@@@@_N@Z ; has WINAPI (@8)
; public: __thiscall <enum WSManSessionOption,class WSMan::Client::SessionOptions::OptionValue *>::<enum WSManSessionOption,class WSMan::Client::SessionOptions::OptionValue *>(class <enum WSManSessionOption,class WSMan::Client::SessionOptions::OptionValue *,class <enum WSManSessionOption,class WSMan::Client::SessionOptions::OptionValue *>> &,bool)
??0?$SafeMap_Iterator@W4WSManSessionOption@@PAVOptionValue@SessionOptions@Client@WSMan@@@@QAE@AAV?$SafeMap@W4WSManSessionOption@@PAVOptionValue@SessionOptions@Client@WSMan@@V?$SafeMap_Iterator@W4WSManSessionOption@@PAVOptionValue@SessionOptions@Client@WSMan@@@@@@_N@Z ; has WINAPI (@8)
; public: __thiscall <unsigned __int64,class RobustConnectionBuffer::SendPacketArgs *>::<unsigned __int64,class RobustConnectionBuffer::SendPacketArgs *>(class <unsigned __int64,class RobustConnectionBuffer::SendPacketArgs *,class <unsigned __int64,class RobustConnectionBuffer::SendPacketArgs *>> &,bool)
??0?$SafeMap_Iterator@_KPAVSendPacketArgs@RobustConnectionBuffer@@@@QAE@AAV?$SafeMap@_KPAVSendPacketArgs@RobustConnectionBuffer@@V?$SafeMap_Iterator@_KPAVSendPacketArgs@RobustConnectionBuffer@@@@@@_N@Z ; has WINAPI (@8)
; public: __thiscall <class CCertMapping *,struct Empty,class <class CCertMapping *,struct Empty>>::<class CCertMapping *,struct Empty,class <class CCertMapping *,struct Empty>>(class <class CCertMapping *,struct Empty,class <class CCertMapping *,struct Empty>> const &,bool)
??0?$SafeMap_Lock@PAVCCertMapping@@UEmpty@@V?$SafeMap_Iterator@PAVCCertMapping@@UEmpty@@@@@@QAE@ABV?$SafeMap@PAVCCertMapping@@UEmpty@@V?$SafeMap_Iterator@PAVCCertMapping@@UEmpty@@@@@@_N@Z ; has WINAPI (@8)
; public: __thiscall <class CCertMapping *,struct Empty,class <class CCertMapping *>>::<class CCertMapping *,struct Empty,class <class CCertMapping *>>(class <class CCertMapping *,struct Empty,class <class CCertMapping *>> const &,bool)
??0?$SafeMap_Lock@PAVCCertMapping@@UEmpty@@V?$SafeSet_Iterator@PAVCCertMapping@@@@@@QAE@ABV?$SafeMap@PAVCCertMapping@@UEmpty@@V?$SafeSet_Iterator@PAVCCertMapping@@@@@@_N@Z ; has WINAPI (@8)
; public: __thiscall <class CListenerOperation *,struct Empty,class <class CListenerOperation *,struct Empty>>::<class CListenerOperation *,struct Empty,class <class CListenerOperation *,struct Empty>>(class <class CListenerOperation *,struct Empty,class <class CListenerOperation *,struct Empty>> const &,bool)
??0?$SafeMap_Lock@PAVCListenerOperation@@UEmpty@@V?$SafeMap_Iterator@PAVCListenerOperation@@UEmpty@@@@@@QAE@ABV?$SafeMap@PAVCListenerOperation@@UEmpty@@V?$SafeMap_Iterator@PAVCListenerOperation@@UEmpty@@@@@@_N@Z ; has WINAPI (@8)
; public: __thiscall <class CListenerOperation *,struct Empty,class <class CListenerOperation *>>::<class CListenerOperation *,struct Empty,class <class CListenerOperation *>>(class <class CListenerOperation *,struct Empty,class <class CListenerOperation *>> const &,bool)
??0?$SafeMap_Lock@PAVCListenerOperation@@UEmpty@@V?$SafeSet_Iterator@PAVCListenerOperation@@@@@@QAE@ABV?$SafeMap@PAVCListenerOperation@@UEmpty@@V?$SafeSet_Iterator@PAVCListenerOperation@@@@@@_N@Z ; has WINAPI (@8)
; public: __thiscall <class CShellUriSettings *,struct Empty,class <class CShellUriSettings *,struct Empty>>::<class CShellUriSettings *,struct Empty,class <class CShellUriSettings *,struct Empty>>(class <class CShellUriSettings *,struct Empty,class <class CShellUriSettings *,struct Empty>> const &,bool)
??0?$SafeMap_Lock@PAVCShellUriSettings@@UEmpty@@V?$SafeMap_Iterator@PAVCShellUriSettings@@UEmpty@@@@@@QAE@ABV?$SafeMap@PAVCShellUriSettings@@UEmpty@@V?$SafeMap_Iterator@PAVCShellUriSettings@@UEmpty@@@@@@_N@Z ; has WINAPI (@8)
; public: __thiscall <class CShellUriSettings *,struct Empty,class <class CShellUriSettings *>>::<class CShellUriSettings *,struct Empty,class <class CShellUriSettings *>>(class <class CShellUriSettings *,struct Empty,class <class CShellUriSettings *>> const &,bool)
??0?$SafeMap_Lock@PAVCShellUriSettings@@UEmpty@@V?$SafeSet_Iterator@PAVCShellUriSettings@@@@@@QAE@ABV?$SafeMap@PAVCShellUriSettings@@UEmpty@@V?$SafeSet_Iterator@PAVCShellUriSettings@@@@@@_N@Z ; has WINAPI (@8)
; public: __thiscall <void *,struct Empty,class <void *,struct Empty>>::<void *,struct Empty,class <void *,struct Empty>>(class <void *,struct Empty,class <void *,struct Empty>> const &,bool)
??0?$SafeMap_Lock@PAXUEmpty@@V?$SafeMap_Iterator@PAXUEmpty@@@@@@QAE@ABV?$SafeMap@PAXUEmpty@@V?$SafeMap_Iterator@PAXUEmpty@@@@@@_N@Z ; has WINAPI (@8)
; public: __thiscall <void *,struct Empty,class <void *>>::<void *,struct Empty,class <void *>>(class <void *,struct Empty,class <void *>> const &,bool)
??0?$SafeMap_Lock@PAXUEmpty@@V?$SafeSet_Iterator@PAX@@@@QAE@ABV?$SafeMap@PAXUEmpty@@V?$SafeSet_Iterator@PAX@@@@_N@Z ; has WINAPI (@8)
; public: __thiscall <struct PluginKey,unsigned long,class <struct PluginKey,unsigned long>>::<struct PluginKey,unsigned long,class <struct PluginKey,unsigned long>>(class <struct PluginKey,unsigned long,class <struct PluginKey,unsigned long>> const &,bool)
??0?$SafeMap_Lock@UPluginKey@@KV?$SafeMap_Iterator@UPluginKey@@K@@@@QAE@ABV?$SafeMap@UPluginKey@@KV?$SafeMap_Iterator@UPluginKey@@K@@@@_N@Z ; has WINAPI (@8)
; public: __thiscall <struct UserKey,class BlockedRecord *,class <struct UserKey,class BlockedRecord *>>::<struct UserKey,class BlockedRecord *,class <struct UserKey,class BlockedRecord *>>(class <struct UserKey,class BlockedRecord *,class <struct UserKey,class BlockedRecord *>> const &,bool)
??0?$SafeMap_Lock@UUserKey@@PAVBlockedRecord@@V?$SafeMap_Iterator@UUserKey@@PAVBlockedRecord@@@@@@QAE@ABV?$SafeMap@UUserKey@@PAVBlockedRecord@@V?$SafeMap_Iterator@UUserKey@@PAVBlockedRecord@@@@@@_N@Z ; has WINAPI (@8)
; public: __thiscall <class CertThumbprintKey,class CServiceConfigSettings::CertThumbprintMappedSet,class <class CertThumbprintKey,class CServiceConfigSettings::CertThumbprintMappedSet>>::<class CertThumbprintKey,class CServiceConfigSettings::CertThumbprintMappedSet,class <class CertThumbprintKey,class CServiceConfigSettings::CertThumbprintMappedSet>>(class <class CertThumbprintKey,class CServiceConfigSettings::CertThumbprintMappedSet,class <class CertThumbprintKey,class CServiceConfigSettings::CertThumbprintMappedSet>> const &,bool)
??0?$SafeMap_Lock@VCertThumbprintKey@@VCertThumbprintMappedSet@CServiceConfigSettings@@V?$SafeMap_Iterator@VCertThumbprintKey@@VCertThumbprintMappedSet@CServiceConfigSettings@@@@@@QAE@ABV?$SafeMap@VCertThumbprintKey@@VCertThumbprintMappedSet@CServiceConfigSettings@@V?$SafeMap_Iterator@VCertThumbprintKey@@VCertThumbprintMappedSet@CServiceConfigSettings@@@@@@_N@Z ; has WINAPI (@8)
; public: __thiscall <class Locale::Key,unsigned long,class <class Locale::Key,unsigned long>>::<class Locale::Key,unsigned long,class <class Locale::Key,unsigned long>>(class <class Locale::Key,unsigned long,class <class Locale::Key,unsigned long>> const &,bool)
??0?$SafeMap_Lock@VKey@Locale@@KV?$SafeMap_Iterator@VKey@Locale@@K@@@@QAE@ABV?$SafeMap@VKey@Locale@@KV?$SafeMap_Iterator@VKey@Locale@@K@@@@_N@Z ; has WINAPI (@8)
; public: __thiscall <class StringKeyCI,unsigned long,class <class StringKeyCI,unsigned long>>::<class StringKeyCI,unsigned long,class <class StringKeyCI,unsigned long>>(class <class StringKeyCI,unsigned long,class <class StringKeyCI,unsigned long>> const &,bool)
??0?$SafeMap_Lock@VStringKeyCI@@KV?$SafeMap_Iterator@VStringKeyCI@@K@@@@QAE@ABV?$SafeMap@VStringKeyCI@@KV?$SafeMap_Iterator@VStringKeyCI@@K@@@@_N@Z ; has WINAPI (@8)
; public: __thiscall <class StringKeyCI,struct Empty,class <class StringKeyCI>>::<class StringKeyCI,struct Empty,class <class StringKeyCI>>(class <class StringKeyCI,struct Empty,class <class StringKeyCI>> const &,bool)
??0?$SafeMap_Lock@VStringKeyCI@@UEmpty@@V?$SafeSet_Iterator@VStringKeyCI@@@@@@QAE@ABV?$SafeMap@VStringKeyCI@@UEmpty@@V?$SafeSet_Iterator@VStringKeyCI@@@@@@_N@Z ; has WINAPI (@8)
; public: __thiscall <class StringKeyCI,struct WSManHttpListener::USER_CONTEXT_INFO,class <class StringKeyCI,struct WSManHttpListener::USER_CONTEXT_INFO>>::<class StringKeyCI,struct WSManHttpListener::USER_CONTEXT_INFO,class <class StringKeyCI,struct WSManHttpListener::USER_CONTEXT_INFO>>(class <class StringKeyCI,struct WSManHttpListener::USER_CONTEXT_INFO,class <class StringKeyCI,struct WSManHttpListener::USER_CONTEXT_INFO>> const &,bool)
??0?$SafeMap_Lock@VStringKeyCI@@UUSER_CONTEXT_INFO@WSManHttpListener@@V?$SafeMap_Iterator@VStringKeyCI@@UUSER_CONTEXT_INFO@WSManHttpListener@@@@@@QAE@ABV?$SafeMap@VStringKeyCI@@UUSER_CONTEXT_INFO@WSManHttpListener@@V?$SafeMap_Iterator@VStringKeyCI@@UUSER_CONTEXT_INFO@WSManHttpListener@@@@@@_N@Z ; has WINAPI (@8)
; public: __thiscall <class StringKeyStore,class ExpiredOperationIdRecord *,class <class StringKeyStore,class ExpiredOperationIdRecord *>>::<class StringKeyStore,class ExpiredOperationIdRecord *,class <class StringKeyStore,class ExpiredOperationIdRecord *>>(class <class StringKeyStore,class ExpiredOperationIdRecord *,class <class StringKeyStore,class ExpiredOperationIdRecord *>> const &,bool)
??0?$SafeMap_Lock@VStringKeyStore@@PAVExpiredOperationIdRecord@@V?$SafeMap_Iterator@VStringKeyStore@@PAVExpiredOperationIdRecord@@@@@@QAE@ABV?$SafeMap@VStringKeyStore@@PAVExpiredOperationIdRecord@@V?$SafeMap_Iterator@VStringKeyStore@@PAVExpiredOperationIdRecord@@@@@@_N@Z ; has WINAPI (@8)
; public: __thiscall <class StringKeyStore,class ServerFullDuplexChannel *,class <class StringKeyStore,class ServerFullDuplexChannel *>>::<class StringKeyStore,class ServerFullDuplexChannel *,class <class StringKeyStore,class ServerFullDuplexChannel *>>(class <class StringKeyStore,class ServerFullDuplexChannel *,class <class StringKeyStore,class ServerFullDuplexChannel *>> const &,bool)
??0?$SafeMap_Lock@VStringKeyStore@@PAVServerFullDuplexChannel@@V?$SafeMap_Iterator@VStringKeyStore@@PAVServerFullDuplexChannel@@@@@@QAE@ABV?$SafeMap@VStringKeyStore@@PAVServerFullDuplexChannel@@V?$SafeMap_Iterator@VStringKeyStore@@PAVServerFullDuplexChannel@@@@@@_N@Z ; has WINAPI (@8)
; public: __thiscall <enum WSManSessionOption,class WSMan::Client::SessionOptions::OptionValue *,class <enum WSManSessionOption,class WSMan::Client::SessionOptions::OptionValue *>>::<enum WSManSessionOption,class WSMan::Client::SessionOptions::OptionValue *,class <enum WSManSessionOption,class WSMan::Client::SessionOptions::OptionValue *>>(class <enum WSManSessionOption,class WSMan::Client::SessionOptions::OptionValue *,class <enum WSManSessionOption,class WSMan::Client::SessionOptions::OptionValue *>> const &,bool)
??0?$SafeMap_Lock@W4WSManSessionOption@@PAVOptionValue@SessionOptions@Client@WSMan@@V?$SafeMap_Iterator@W4WSManSessionOption@@PAVOptionValue@SessionOptions@Client@WSMan@@@@@@QAE@ABV?$SafeMap@W4WSManSessionOption@@PAVOptionValue@SessionOptions@Client@WSMan@@V?$SafeMap_Iterator@W4WSManSessionOption@@PAVOptionValue@SessionOptions@Client@WSMan@@@@@@_N@Z ; has WINAPI (@8)
; public: __thiscall <unsigned __int64,class RobustConnectionBuffer::SendPacketArgs *,class <unsigned __int64,class RobustConnectionBuffer::SendPacketArgs *>>::<unsigned __int64,class RobustConnectionBuffer::SendPacketArgs *,class <unsigned __int64,class RobustConnectionBuffer::SendPacketArgs *>>(class <unsigned __int64,class RobustConnectionBuffer::SendPacketArgs *,class <unsigned __int64,class RobustConnectionBuffer::SendPacketArgs *>> const &,bool)
??0?$SafeMap_Lock@_KPAVSendPacketArgs@RobustConnectionBuffer@@V?$SafeMap_Iterator@_KPAVSendPacketArgs@RobustConnectionBuffer@@@@@@QAE@ABV?$SafeMap@_KPAVSendPacketArgs@RobustConnectionBuffer@@V?$SafeMap_Iterator@_KPAVSendPacketArgs@RobustConnectionBuffer@@@@@@_N@Z ; has WINAPI (@8)
; public: __thiscall <class CCertMapping *>::<class CCertMapping *>(void)
??0?$SafeSet@PAVCCertMapping@@@@QAE@XZ ; has WINAPI (@0)
; public: __thiscall <class CListenerOperation *>::<class CListenerOperation *>(void)
??0?$SafeSet@PAVCListenerOperation@@@@QAE@XZ ; has WINAPI (@0)
; public: __thiscall <class CShellUriSettings *>::<class CShellUriSettings *>(void)
??0?$SafeSet@PAVCShellUriSettings@@@@QAE@XZ ; has WINAPI (@0)
; public: __thiscall <void *>::<void *>(void)
??0?$SafeSet@PAX@@QAE@XZ ; has WINAPI (@0)
; public: __thiscall <class CCertMapping *>::<class CCertMapping *>(class <class CCertMapping *,struct Empty,class <class CCertMapping *>> &,bool)
??0?$SafeSet_Iterator@PAVCCertMapping@@@@QAE@AAV?$SafeMap@PAVCCertMapping@@UEmpty@@V?$SafeSet_Iterator@PAVCCertMapping@@@@@@_N@Z ; has WINAPI (@8)
; public: __thiscall <class CCertMapping *>::<class CCertMapping *>(class <class CCertMapping *> &)
??0?$SafeSet_Iterator@PAVCCertMapping@@@@QAE@AAV?$SafeSet@PAVCCertMapping@@@@@Z ; has WINAPI (@4)
; public: __thiscall <class CListenerOperation *>::<class CListenerOperation *>(class <class CListenerOperation *,struct Empty,class <class CListenerOperation *>> &,bool)
??0?$SafeSet_Iterator@PAVCListenerOperation@@@@QAE@AAV?$SafeMap@PAVCListenerOperation@@UEmpty@@V?$SafeSet_Iterator@PAVCListenerOperation@@@@@@_N@Z ; has WINAPI (@8)
; public: __thiscall <class CListenerOperation *>::<class CListenerOperation *>(class <class CListenerOperation *> &)
??0?$SafeSet_Iterator@PAVCListenerOperation@@@@QAE@AAV?$SafeSet@PAVCListenerOperation@@@@@Z ; has WINAPI (@4)
; public: __thiscall <class CShellUriSettings *>::<class CShellUriSettings *>(class <class CShellUriSettings *,struct Empty,class <class CShellUriSettings *>> &,bool)
??0?$SafeSet_Iterator@PAVCShellUriSettings@@@@QAE@AAV?$SafeMap@PAVCShellUriSettings@@UEmpty@@V?$SafeSet_Iterator@PAVCShellUriSettings@@@@@@_N@Z ; has WINAPI (@8)
; public: __thiscall <void *>::<void *>(class <void *,struct Empty,class <void *>> &,bool)
??0?$SafeSet_Iterator@PAX@@QAE@AAV?$SafeMap@PAXUEmpty@@V?$SafeSet_Iterator@PAX@@@@_N@Z ; has WINAPI (@8)
; public: __thiscall <union _LARGE_INTEGER>::<union _LARGE_INTEGER>(void)
??0?$SimpleQueue@T_LARGE_INTEGER@@@@QAE@XZ ; has WINAPI (@0)
; public: __thiscall AutoBstr::AutoBstr(unsigned short *)
??0AutoBstr@@QAE@PAG@Z ; has WINAPI (@4)
; public: __thiscall AutoBstr::AutoBstr(void)
??0AutoBstr@@QAE@XZ ; has WINAPI (@0)
; public: __thiscall AutoBstrNoAlloc::AutoBstrNoAlloc(unsigned short *)
??0AutoBstrNoAlloc@@QAE@PAG@Z ; has WINAPI (@4)
; public: __thiscall AutoBstrNoAlloc::AutoBstrNoAlloc(void)
??0AutoBstrNoAlloc@@QAE@XZ ; has WINAPI (@0)
; public: __thiscall AutoCertContext::AutoCertContext(struct _CERT_CONTEXT const *)
??0AutoCertContext@@QAE@PBU_CERT_CONTEXT@@@Z ; has WINAPI (@4)
; public: __thiscall AutoCertContext::AutoCertContext(void)
??0AutoCertContext@@QAE@XZ ; has WINAPI (@0)
; public: __thiscall AutoChainContext::AutoChainContext(struct _CERT_CHAIN_CONTEXT const *)
??0AutoChainContext@@QAE@PBU_CERT_CHAIN_CONTEXT@@@Z ; has WINAPI (@4)
; public: __thiscall AutoChainContext::AutoChainContext(void)
??0AutoChainContext@@QAE@XZ ; has WINAPI (@0)
; public: __thiscall AutoCoTaskMemFree::AutoCoTaskMemFree(void *)
??0AutoCoTaskMemFree@@QAE@PAX@Z ; has WINAPI (@4)
; public: __thiscall AutoCoTaskMemFree::AutoCoTaskMemFree(void)
??0AutoCoTaskMemFree@@QAE@XZ ; has WINAPI (@0)
; public: __thiscall AutoEnvironmentBlock::AutoEnvironmentBlock(void *)
??0AutoEnvironmentBlock@@QAE@PAX@Z ; has WINAPI (@4)
; public: __thiscall AutoEnvironmentBlock::AutoEnvironmentBlock(void)
??0AutoEnvironmentBlock@@QAE@XZ ; has WINAPI (@0)
; public: __thiscall AutoFwXmlCloseParser::AutoFwXmlCloseParser(void *)
??0AutoFwXmlCloseParser@@QAE@PAX@Z ; has WINAPI (@4)
; public: __thiscall AutoFwXmlCloseParser::AutoFwXmlCloseParser(void)
??0AutoFwXmlCloseParser@@QAE@XZ ; has WINAPI (@0)
; public: __thiscall AutoHandle::AutoHandle(void *)
??0AutoHandle@@QAE@PAX@Z ; has WINAPI (@4)
; public: __thiscall AutoHandle::AutoHandle(void)
??0AutoHandle@@QAE@XZ ; has WINAPI (@0)
; public: __thiscall AutoImpersonateUser::AutoImpersonateUser(void *)
??0AutoImpersonateUser@@QAE@PAX@Z ; has WINAPI (@4)
; public: __thiscall AutoImpersonateUser::AutoImpersonateUser(void)
??0AutoImpersonateUser@@QAE@XZ ; has WINAPI (@0)
; public: __thiscall AutoLibrary::AutoLibrary(struct HINSTANCE__ *)
??0AutoLibrary@@QAE@PAUHINSTANCE__@@@Z ; has WINAPI (@4)
; public: __thiscall AutoLibrary::AutoLibrary(void)
??0AutoLibrary@@QAE@XZ ; has WINAPI (@0)
; public: __thiscall AutoLocalFree::AutoLocalFree(void *)
??0AutoLocalFree@@QAE@PAX@Z ; has WINAPI (@4)
; public: __thiscall AutoLocalFree::AutoLocalFree(void)
??0AutoLocalFree@@QAE@XZ ; has WINAPI (@0)
; public: __thiscall AutoMIClass::AutoMIClass(struct _MI_Class *)
??0AutoMIClass@@QAE@PAU_MI_Class@@@Z ; has WINAPI (@4)
; public: __thiscall AutoMIClass::AutoMIClass(void)
??0AutoMIClass@@QAE@XZ ; has WINAPI (@0)
; public: __thiscall AutoMIInstance::AutoMIInstance(struct _MI_Instance *)
??0AutoMIInstance@@QAE@PAU_MI_Instance@@@Z ; has WINAPI (@4)
; public: __thiscall AutoMIInstance::AutoMIInstance(void)
??0AutoMIInstance@@QAE@XZ ; has WINAPI (@0)
; public: __thiscall AutoObject::AutoObject(struct WSMAN_OBJECT *)
??0AutoObject@@QAE@PAUWSMAN_OBJECT@@@Z ; has WINAPI (@4)
; public: __thiscall AutoObject::AutoObject(void)
??0AutoObject@@QAE@XZ ; has WINAPI (@0)
; public: __thiscall AutoRegKey::AutoRegKey(struct HKEY__ *)
??0AutoRegKey@@QAE@PAUHKEY__@@@Z ; has WINAPI (@4)
; public: __thiscall AutoRegKey::AutoRegKey(void)
??0AutoRegKey@@QAE@XZ ; has WINAPI (@0)
; public: __thiscall AutoSecurityDescriptor::AutoSecurityDescriptor(void *)
??0AutoSecurityDescriptor@@QAE@PAX@Z ; has WINAPI (@4)
; public: __thiscall AutoSecurityDescriptor::AutoSecurityDescriptor(void)
??0AutoSecurityDescriptor@@QAE@XZ ; has WINAPI (@0)
; public: __thiscall AutoWaitHandle::AutoWaitHandle(void *)
??0AutoWaitHandle@@QAE@PAX@Z ; has WINAPI (@4)
; public: __thiscall AutoWaitHandle::AutoWaitHandle(void)
??0AutoWaitHandle@@QAE@XZ ; has WINAPI (@0)
; public: __thiscall BufferFormatter::BufferFormatter(unsigned char *,unsigned long)
??0BufferFormatter@@QAE@PAEK@Z ; has WINAPI (@8)
; public: __thiscall BufferFormatter::BufferFormatter(void)
??0BufferFormatter@@QAE@XZ ; has WINAPI (@0)
; protected: __thiscall CBaseConfigCache::CBaseConfigCache(enum CConfigChangeSource::ConfigLocation,class FastLock *,class CBaseConfigCache::CConfigCacheMap *)
??0CBaseConfigCache@@IAE@W4ConfigLocation@CConfigChangeSource@@PAVFastLock@@PAVCConfigCacheMap@0@@Z ; has WINAPI (@12)
; private: __thiscall CClientConfigCache::CClientConfigCache(void)
??0CClientConfigCache@@AAE@XZ ; has WINAPI (@0)
; private: __thiscall CConfigManager::CConfigManager(void)
??0CConfigManager@@AAE@XZ ; has WINAPI (@0)
; public: __thiscall CErrorContext::CErrorContext(bool)
??0CErrorContext@@QAE@_N@Z ; has WINAPI (@4)
; public: __thiscall CRequestContext::CRequestContext(unsigned short const *)
??0CRequestContext@@QAE@PBG@Z ; has WINAPI (@4)
; public: __thiscall CRequestContext::CRequestContext(void)
??0CRequestContext@@QAE@XZ ; has WINAPI (@0)
; public: __thiscall CResourceAlias::CResourceAlias(unsigned short const *)
??0CResourceAlias@@QAE@PBG@Z ; has WINAPI (@4)
; private: __thiscall CServiceConfigCache::CServiceConfigCache(void)
??0CServiceConfigCache@@AAE@XZ ; has WINAPI (@0)
; private: __thiscall CServiceConfigCache::CServiceWatcher::CServiceWatcher(class CServiceConfigCache *,class IServiceConfigObserver *)
??0CServiceWatcher@CServiceConfigCache@@AAE@PAV1@PAVIServiceConfigObserver@@@Z ; has WINAPI (@8)
; public: __thiscall CWSManCriticalSection::CWSManCriticalSection(void)
??0CWSManCriticalSection@@QAE@XZ ; has WINAPI (@0)
; public: __thiscall CWSManCriticalSectionWithConditionVar::CWSManCriticalSectionWithConditionVar(void)
??0CWSManCriticalSectionWithConditionVar@@QAE@XZ ; has WINAPI (@0)
; public: __thiscall CWSManEPR::CWSManEPR(int)
??0CWSManEPR@@QAE@H@Z ; has WINAPI (@4)
; private: __thiscall CWSManGroupPolicyManager::CWSManGroupPolicyManager(void)
??0CWSManGroupPolicyManager@@AAE@XZ ; has WINAPI (@0)
; public: __thiscall CWSManResource::CWSManResource(int)
??0CWSManResource@@QAE@H@Z ; has WINAPI (@4)
; public: __thiscall CWSManResourceNoResourceUri::CWSManResourceNoResourceUri(int)
??0CWSManResourceNoResourceUri@@QAE@H@Z ; has WINAPI (@4)
; public: __thiscall CWSManSecurityUI::CWSManSecurityUI(void)
??0CWSManSecurityUI@@QAE@XZ ; has WINAPI (@0)
; private: __thiscall CWinRSPluginConfigCache::CWinRSPluginConfigCache(void)
??0CWinRSPluginConfigCache@@AAE@XZ ; has WINAPI (@0)
; public: __thiscall ChildLifeTimeManager::ChildLifeTimeManager(void)
??0ChildLifeTimeManager@@QAE@XZ ; has WINAPI (@0)
; public: __thiscall CircularBufferFormatter::CircularBufferFormatter(void)
??0CircularBufferFormatter@@QAE@XZ ; has WINAPI (@0)
; protected: __thiscall ConfigRegistry::ConfigRegistry(void)
??0ConfigRegistry@@IAE@XZ ; has WINAPI (@0)
; public: __thiscall EtwCorrelationHelper::EtwCorrelationHelper(class EtwCorrelationHelper const &)
??0EtwCorrelationHelper@@QAE@ABV0@@Z ; has WINAPI (@4)
; public: __thiscall WSMan::EventHandler::EventHandler(void)
??0EventHandler@WSMan@@QAE@XZ ; has WINAPI (@0)
; public: __thiscall ExtendedSemantic::ExtendedSemantic(unsigned long)
??0ExtendedSemantic@@QAE@K@Z ; has WINAPI (@4)
; public: __thiscall FastLock::FastLock(void)
??0FastLock@@QAE@XZ ; has WINAPI (@0)
; public: __thiscall PacketParser::Fragment::Fragment(void)
??0Fragment@PacketParser@@QAE@XZ ; has WINAPI (@0)
; public: __thiscall IConfigChangeObserver::IConfigChangeObserver(class IConfigChangeObserver const &)
??0IConfigChangeObserver@@QAE@ABV0@@Z ; has WINAPI (@4)
; public: __thiscall IConfigChangeObserver::IConfigChangeObserver(void)
??0IConfigChangeObserver@@QAE@XZ ; has WINAPI (@0)
; public: __thiscall ILifeTimeMgmt::ILifeTimeMgmt(class ILifeTimeMgmt const &)
??0ILifeTimeMgmt@@QAE@ABV0@@Z ; has WINAPI (@4)
; public: __thiscall ILifeTimeMgmt::ILifeTimeMgmt(void)
??0ILifeTimeMgmt@@QAE@XZ ; has WINAPI (@0)
; protected: __thiscall IRequestContext::IRequestContext(void)
??0IRequestContext@@IAE@XZ ; has WINAPI (@0)
; public: __thiscall IWSManGroupPolicyObserver::IWSManGroupPolicyObserver(class IWSManGroupPolicyObserver const &)
??0IWSManGroupPolicyObserver@@QAE@ABV0@@Z ; has WINAPI (@4)
; public: __thiscall IWSManGroupPolicyObserver::IWSManGroupPolicyObserver(void)
??0IWSManGroupPolicyObserver@@QAE@XZ ; has WINAPI (@0)
; public: __thiscall IWSManGroupPolicyPublisher::IWSManGroupPolicyPublisher(class IWSManGroupPolicyPublisher const &)
??0IWSManGroupPolicyPublisher@@QAE@ABV0@@Z ; has WINAPI (@4)
; public: __thiscall IWSManGroupPolicyPublisher::IWSManGroupPolicyPublisher(void)
??0IWSManGroupPolicyPublisher@@QAE@XZ ; has WINAPI (@0)
; public: __thiscall Locale::Locale(class Locale const &)
??0Locale@@QAE@ABV0@@Z ; has WINAPI (@4)
; public: __thiscall Locale::Locale(class IRequestContext *)
??0Locale@@QAE@PAVIRequestContext@@@Z ; has WINAPI (@4)
; public: __thiscall Locale::Locale(void)
??0Locale@@QAE@XZ ; has WINAPI (@0)
; public: __thiscall PacketParser::MessageId::MessageId(void)
??0MessageId@PacketParser@@QAE@XZ ; has WINAPI (@0)
; public: __thiscall PacketParser::NotUnderstandSoapHeader::NotUnderstandSoapHeader(void)
??0NotUnderstandSoapHeader@PacketParser@@QAE@XZ ; has WINAPI (@0)
; public: __thiscall OnHTTPInitialize::OnHTTPInitialize(void)
??0OnHTTPInitialize@@QAE@XZ ; has WINAPI (@0)
; public: __thiscall PacketParser::OperationId::OperationId(void)
??0OperationId@PacketParser@@QAE@XZ ; has WINAPI (@0)
; public: __thiscall OwnLock::OwnLock(class FastLock &)
??0OwnLock@@QAE@AAVFastLock@@@Z ; has WINAPI (@4)
; public: __thiscall PacketFormatter::PacketFormatter(void)
??0PacketFormatter@@QAE@XZ ; has WINAPI (@0)
; public: __thiscall PacketParser::PacketParser(void)
??0PacketParser@@QAE@XZ ; has WINAPI (@0)
; public: __thiscall RBUFFER::RBUFFER(unsigned int)
??0RBUFFER@@QAE@I@Z ; has WINAPI (@4)
; public: __thiscall RBUFFER::RBUFFER(unsigned char *,unsigned int)
??0RBUFFER@@QAE@PAEI@Z ; has WINAPI (@8)
; public: __thiscall PacketParser::ReferenceParameters::ReferenceParameters(void)
??0ReferenceParameters@PacketParser@@QAE@XZ ; has WINAPI (@0)
; public: __thiscall SBUFFER::SBUFFER(void)
??0SBUFFER@@QAE@XZ ; has WINAPI (@0)
; public: __thiscall PacketParser::SessionId::SessionId(void)
??0SessionId@PacketParser@@QAE@XZ ; has WINAPI (@0)
; public: __thiscall ShareLock::ShareLock(class FastLock &)
??0ShareLock@@QAE@AAVFastLock@@@Z ; has WINAPI (@4)
; public: __thiscall SoapSemanticConverter::SoapSemanticConverter(void)
??0SoapSemanticConverter@@QAE@XZ ; has WINAPI (@0)
; public: __thiscall TSTRBUFFER::TSTRBUFFER(void)
??0TSTRBUFFER@@QAE@XZ ; has WINAPI (@0)
; public: __thiscall UserAuthzRecord::UserAuthzRecord(class UserAuthzRecord const &)
??0UserAuthzRecord@@QAE@ABV0@@Z ; has WINAPI (@4)
; public: __thiscall UserAuthzRecord::UserAuthzRecord(void)
??0UserAuthzRecord@@QAE@XZ ; has WINAPI (@0)
; public: __thiscall UserRecord::UserRecord(void)
??0UserRecord@@QAE@XZ ; has WINAPI (@0)
; public: __thiscall XmlReader::XmlReader(void)
??0XmlReader@@QAE@XZ ; has WINAPI (@0)
; public: __thiscall <class <char>,char *>::~<class <char>,char *>(void)
??1?$AutoCleanup@V?$AutoDelete@D@@PAD@@QAE@XZ ; has WINAPI (@0)
; public: __thiscall <class <unsigned short>,unsigned short *>::~<class <unsigned short>,unsigned short *>(void)
??1?$AutoCleanup@V?$AutoDelete@G@@PAG@@QAE@XZ ; has WINAPI (@0)
; public: __thiscall <class <struct CWSManIPFilter::IPRange>,struct CWSManIPFilter::IPRange *>::~<class <struct CWSManIPFilter::IPRange>,struct CWSManIPFilter::IPRange *>(void)
??1?$AutoCleanup@V?$AutoDelete@UIPRange@CWSManIPFilter@@@@PAUIPRange@CWSManIPFilter@@@@QAE@XZ ; has WINAPI (@0)
; public: __thiscall <class <struct _SID>,struct _SID *>::~<class <struct _SID>,struct _SID *>(void)
??1?$AutoCleanup@V?$AutoDelete@U_SID@@@@PAU_SID@@@@QAE@XZ ; has WINAPI (@0)
; public: __thiscall <class <struct _WSMAN_STREAM_ID_SET>,struct _WSMAN_STREAM_ID_SET *>::~<class <struct _WSMAN_STREAM_ID_SET>,struct _WSMAN_STREAM_ID_SET *>(void)
??1?$AutoCleanup@V?$AutoDelete@U_WSMAN_STREAM_ID_SET@@@@PAU_WSMAN_STREAM_ID_SET@@@@QAE@XZ ; has WINAPI (@0)
; public: __thiscall <class <class <class ISubscription>>,class <class ISubscription> *>::~<class <class <class ISubscription>>,class <class ISubscription> *>(void)
??1?$AutoCleanup@V?$AutoDelete@V?$Handle@VISubscription@@@@@@PAV?$Handle@VISubscription@@@@@@QAE@XZ ; has WINAPI (@0)
; public: __thiscall <class <class <class CListenerConnect *,class CListenerConnect *>>,class <class CListenerConnect *,class CListenerConnect *> *>::~<class <class <class CListenerConnect *,class CListenerConnect *>>,class <class CListenerConnect *,class CListenerConnect *> *>(void)
??1?$AutoCleanup@V?$AutoDelete@V?$SafeMap_Iterator@PAVCListenerConnect@@PAV1@@@@@PAV?$SafeMap_Iterator@PAVCListenerConnect@@PAV1@@@@@QAE@XZ ; has WINAPI (@0)
; public: __thiscall <class <class <class CListenerReceive *,class CListenerReceive *>>,class <class CListenerReceive *,class CListenerReceive *> *>::~<class <class <class CListenerReceive *,class CListenerReceive *>>,class <class CListenerReceive *,class CListenerReceive *> *>(void)
??1?$AutoCleanup@V?$AutoDelete@V?$SafeMap_Iterator@PAVCListenerReceive@@PAV1@@@@@PAV?$SafeMap_Iterator@PAVCListenerReceive@@PAV1@@@@@QAE@XZ ; has WINAPI (@0)
; public: __thiscall <class <class <class CListenerSend *,class CListenerSend *>>,class <class CListenerSend *,class CListenerSend *> *>::~<class <class <class CListenerSend *,class CListenerSend *>>,class <class CListenerSend *,class CListenerSend *> *>(void)
??1?$AutoCleanup@V?$AutoDelete@V?$SafeMap_Iterator@PAVCListenerSend@@PAV1@@@@@PAV?$SafeMap_Iterator@PAVCListenerSend@@PAV1@@@@@QAE@XZ ; has WINAPI (@0)
; public: __thiscall <class <class <class CListenerSignal *,class CListenerSignal *>>,class <class CListenerSignal *,class CListenerSignal *> *>::~<class <class <class CListenerSignal *,class CListenerSignal *>>,class <class CListenerSignal *,class CListenerSignal *> *>(void)
??1?$AutoCleanup@V?$AutoDelete@V?$SafeMap_Iterator@PAVCListenerSignal@@PAV1@@@@@PAV?$SafeMap_Iterator@PAVCListenerSignal@@PAV1@@@@@QAE@XZ ; has WINAPI (@0)
; public: __thiscall <class <class <class GuidKey,class CListenerCommand *>>,class <class GuidKey,class CListenerCommand *> *>::~<class <class <class GuidKey,class CListenerCommand *>>,class <class GuidKey,class CListenerCommand *> *>(void)
??1?$AutoCleanup@V?$AutoDelete@V?$SafeMap_Iterator@VGuidKey@@PAVCListenerCommand@@@@@@PAV?$SafeMap_Iterator@VGuidKey@@PAVCListenerCommand@@@@@@QAE@XZ ; has WINAPI (@0)
; public: __thiscall <class <class <class StringKeyCI,unsigned long>>,class <class StringKeyCI,unsigned long> *>::~<class <class <class StringKeyCI,unsigned long>>,class <class StringKeyCI,unsigned long> *>(void)
??1?$AutoCleanup@V?$AutoDelete@V?$SafeMap_Iterator@VStringKeyCI@@K@@@@PAV?$SafeMap_Iterator@VStringKeyCI@@K@@@@QAE@XZ ; has WINAPI (@0)
; public: __thiscall <class <class <enum WSManSessionOption,class WSMan::Client::SessionOptions::OptionValue *>>,class <enum WSManSessionOption,class WSMan::Client::SessionOptions::OptionValue *> *>::~<class <class <enum WSManSessionOption,class WSMan::Client::SessionOptions::OptionValue *>>,class <enum WSManSessionOption,class WSMan::Client::SessionOptions::OptionValue *> *>(void)
??1?$AutoCleanup@V?$AutoDelete@V?$SafeMap_Iterator@W4WSManSessionOption@@PAVOptionValue@SessionOptions@Client@WSMan@@@@@@PAV?$SafeMap_Iterator@W4WSManSessionOption@@PAVOptionValue@SessionOptions@Client@WSMan@@@@@@QAE@XZ ; has WINAPI (@0)
; public: __thiscall <class <class <class CCertMapping *>>,class <class CCertMapping *> *>::~<class <class <class CCertMapping *>>,class <class CCertMapping *> *>(void)
??1?$AutoCleanup@V?$AutoDelete@V?$SafeSet@PAVCCertMapping@@@@@@PAV?$SafeSet@PAVCCertMapping@@@@@@QAE@XZ ; has WINAPI (@0)
; public: __thiscall <class <class <class CShellUriSettings *>>,class <class CShellUriSettings *> *>::~<class <class <class CShellUriSettings *>>,class <class CShellUriSettings *> *>(void)
??1?$AutoCleanup@V?$AutoDelete@V?$SafeSet@PAVCShellUriSettings@@@@@@PAV?$SafeSet@PAVCShellUriSettings@@@@@@QAE@XZ ; has WINAPI (@0)
; public: __thiscall <class <class <class CListenerOperation *>>,class <class CListenerOperation *> *>::~<class <class <class CListenerOperation *>>,class <class CListenerOperation *> *>(void)
??1?$AutoCleanup@V?$AutoDelete@V?$SafeSet_Iterator@PAVCListenerOperation@@@@@@PAV?$SafeSet_Iterator@PAVCListenerOperation@@@@@@QAE@XZ ; has WINAPI (@0)
; public: __thiscall <class <class <class Collector *>>,class <class Collector *> *>::~<class <class <class Collector *>>,class <class Collector *> *>(void)
??1?$AutoCleanup@V?$AutoDelete@V?$SafeSet_Iterator@PAVCollector@@@@@@PAV?$SafeSet_Iterator@PAVCollector@@@@@@QAE@XZ ; has WINAPI (@0)
; public: __thiscall <class <class <class HostOperation *>>,class <class HostOperation *> *>::~<class <class <class HostOperation *>>,class <class HostOperation *> *>(void)
??1?$AutoCleanup@V?$AutoDelete@V?$SafeSet_Iterator@PAVHostOperation@@@@@@PAV?$SafeSet_Iterator@PAVHostOperation@@@@@@QAE@XZ ; has WINAPI (@0)
; public: __thiscall <class <class <class ListenerSourceSubscription *>>,class <class ListenerSourceSubscription *> *>::~<class <class <class ListenerSourceSubscription *>>,class <class ListenerSourceSubscription *> *>(void)
??1?$AutoCleanup@V?$AutoDelete@V?$SafeSet_Iterator@PAVListenerSourceSubscription@@@@@@PAV?$SafeSet_Iterator@PAVListenerSourceSubscription@@@@@@QAE@XZ ; has WINAPI (@0)
; public: __thiscall <class <class <class CListenerOperation>>,class <class CListenerOperation> *>::~<class <class <class CListenerOperation>>,class <class CListenerOperation> *>(void)
??1?$AutoCleanup@V?$AutoDelete@V?$SimpleStack@VCListenerOperation@@@@@@PAV?$SimpleStack@VCListenerOperation@@@@@@QAE@XZ ; has WINAPI (@0)
; public: __thiscall <class <class <class ShellHostEntry>>,class <class ShellHostEntry> *>::~<class <class <class ShellHostEntry>>,class <class ShellHostEntry> *>(void)
??1?$AutoCleanup@V?$AutoDelete@V?$SimpleStack@VShellHostEntry@@@@@@PAV?$SimpleStack@VShellHostEntry@@@@@@QAE@XZ ; has WINAPI (@0)
; public: __thiscall <class <class std::<struct _WSMAN_PUBLISHER_EVENT_STRUCT *,class std::<struct _WSMAN_PUBLISHER_EVENT_STRUCT *,class <struct _WSMAN_PUBLISHER_EVENT_STRUCT *>>>>,class std::<struct _WSMAN_PUBLISHER_EVENT_STRUCT *,class std::<struct _WSMAN_PUBLISHER_EVENT_STRUCT *,class <struct _WSMAN_PUBLISHER_EVENT_STRUCT *>>> *>::~<class <class std::<struct _WSMAN_PUBLISHER_EVENT_STRUCT *,class std::<struct _WSMAN_PUBLISHER_EVENT_STRUCT *,class <struct _WSMAN_PUBLISHER_EVENT_STRUCT *>>>>,class std::<struct _WSMAN_PUBLISHER_EVENT_STRUCT *,class std::<struct _WSMAN_PUBLISHER_EVENT_STRUCT *,class <struct _WSMAN_PUBLISHER_EVENT_STRUCT *>>> *>(void)
??1?$AutoCleanup@V?$AutoDelete@V?$queue@PAU_WSMAN_PUBLISHER_EVENT_STRUCT@@V?$deque@PAU_WSMAN_PUBLISHER_EVENT_STRUCT@@V?$transport_allocator@PAU_WSMAN_PUBLISHER_EVENT_STRUCT@@@@@std@@@std@@@@PAV?$queue@PAU_WSMAN_PUBLISHER_EVENT_STRUCT@@V?$deque@PAU_WSMAN_PUBLISHER_EVENT_STRUCT@@V?$transport_allocator@PAU_WSMAN_PUBLISHER_EVENT_STRUCT@@@@@std@@@std@@@@QAE@XZ ; has WINAPI (@0)
; public: __thiscall <class <class std::<class CListenerSettings *,class CServiceConfigSettings::CListenerSettingsLessFunctor,class <class CListenerSettings *>>>,class std::<class CListenerSettings *,class CServiceConfigSettings::CListenerSettingsLessFunctor,class <class CListenerSettings *>> *>::~<class <class std::<class CListenerSettings *,class CServiceConfigSettings::CListenerSettingsLessFunctor,class <class CListenerSettings *>>>,class std::<class CListenerSettings *,class CServiceConfigSettings::CListenerSettingsLessFunctor,class <class CListenerSettings *>> *>(void)
??1?$AutoCleanup@V?$AutoDelete@V?$set@PAVCListenerSettings@@VCListenerSettingsLessFunctor@CServiceConfigSettings@@V?$transport_allocator@PAVCListenerSettings@@@@@std@@@@PAV?$set@PAVCListenerSettings@@VCListenerSettingsLessFunctor@CServiceConfigSettings@@V?$transport_allocator@PAVCListenerSettings@@@@@std@@@@QAE@XZ ; has WINAPI (@0)
; public: __thiscall <class <class std::<struct sockaddr_storage,class CListenerSettings::SockAddrLessFunctor,class <struct sockaddr_storage>>>,class std::<struct sockaddr_storage,class CListenerSettings::SockAddrLessFunctor,class <struct sockaddr_storage>> *>::~<class <class std::<struct sockaddr_storage,class CListenerSettings::SockAddrLessFunctor,class <struct sockaddr_storage>>>,class std::<struct sockaddr_storage,class CListenerSettings::SockAddrLessFunctor,class <struct sockaddr_storage>> *>(void)
??1?$AutoCleanup@V?$AutoDelete@V?$set@Usockaddr_storage@@VSockAddrLessFunctor@CListenerSettings@@V?$transport_allocator@Usockaddr_storage@@@@@std@@@@PAV?$set@Usockaddr_storage@@VSockAddrLessFunctor@CListenerSettings@@V?$transport_allocator@Usockaddr_storage@@@@@std@@@@QAE@XZ ; has WINAPI (@0)
; public: __thiscall <class <class std::<class CWSManRequest *,class <class CWSManRequest *>>>,class std::<class CWSManRequest *,class <class CWSManRequest *>> *>::~<class <class std::<class CWSManRequest *,class <class CWSManRequest *>>>,class std::<class CWSManRequest *,class <class CWSManRequest *>> *>(void)
??1?$AutoCleanup@V?$AutoDelete@V?$vector@PAVCWSManRequest@@V?$transport_allocator@PAVCWSManRequest@@@@@std@@@@PAV?$vector@PAVCWSManRequest@@V?$transport_allocator@PAVCWSManRequest@@@@@std@@@@QAE@XZ ; has WINAPI (@0)
; public: __thiscall <class <class std::<class WSMan::Client::HandleImpl *,class <class WSMan::Client::HandleImpl *>>>,class std::<class WSMan::Client::HandleImpl *,class <class WSMan::Client::HandleImpl *>> *>::~<class <class std::<class WSMan::Client::HandleImpl *,class <class WSMan::Client::HandleImpl *>>>,class std::<class WSMan::Client::HandleImpl *,class <class WSMan::Client::HandleImpl *>> *>(void)
??1?$AutoCleanup@V?$AutoDelete@V?$vector@PAVHandleImpl@Client@WSMan@@V?$transport_allocator@PAVHandleImpl@Client@WSMan@@@@@std@@@@PAV?$vector@PAVHandleImpl@Client@WSMan@@V?$transport_allocator@PAVHandleImpl@Client@WSMan@@@@@std@@@@QAE@XZ ; has WINAPI (@0)
; public: __thiscall <class <class std::<class IServiceConfigObserver *,class <class IServiceConfigObserver *>>>,class std::<class IServiceConfigObserver *,class <class IServiceConfigObserver *>> *>::~<class <class std::<class IServiceConfigObserver *,class <class IServiceConfigObserver *>>>,class std::<class IServiceConfigObserver *,class <class IServiceConfigObserver *>> *>(void)
??1?$AutoCleanup@V?$AutoDelete@V?$vector@PAVIServiceConfigObserver@@V?$transport_allocator@PAVIServiceConfigObserver@@@@@std@@@@PAV?$vector@PAVIServiceConfigObserver@@V?$transport_allocator@PAVIServiceConfigObserver@@@@@std@@@@QAE@XZ ; has WINAPI (@0)
; public: __thiscall <class <class std::<class WSManHttpSenderConnection *,class <class WSManHttpSenderConnection *>>>,class std::<class WSManHttpSenderConnection *,class <class WSManHttpSenderConnection *>> *>::~<class <class std::<class WSManHttpSenderConnection *,class <class WSManHttpSenderConnection *>>>,class std::<class WSManHttpSenderConnection *,class <class WSManHttpSenderConnection *>> *>(void)
??1?$AutoCleanup@V?$AutoDelete@V?$vector@PAVWSManHttpSenderConnection@@V?$transport_allocator@PAVWSManHttpSenderConnection@@@@@std@@@@PAV?$vector@PAVWSManHttpSenderConnection@@V?$transport_allocator@PAVWSManHttpSenderConnection@@@@@std@@@@QAE@XZ ; has WINAPI (@0)
; public: __thiscall <class <class CSecurity::AdminSid>,class CSecurity::AdminSid *>::~<class <class CSecurity::AdminSid>,class CSecurity::AdminSid *>(void)
??1?$AutoCleanup@V?$AutoDelete@VAdminSid@CSecurity@@@@PAVAdminSid@CSecurity@@@@QAE@XZ ; has WINAPI (@0)
; public: __thiscall <class <class BlockedRecord>,class BlockedRecord *>::~<class <class BlockedRecord>,class BlockedRecord *>(void)
??1?$AutoCleanup@V?$AutoDelete@VBlockedRecord@@@@PAVBlockedRecord@@@@QAE@XZ ; has WINAPI (@0)
; public: __thiscall <class <class CBaseConfigCache>,class CBaseConfigCache *>::~<class <class CBaseConfigCache>,class CBaseConfigCache *>(void)
??1?$AutoCleanup@V?$AutoDelete@VCBaseConfigCache@@@@PAVCBaseConfigCache@@@@QAE@XZ ; has WINAPI (@0)
; public: __thiscall <class <class CCertMapping>,class CCertMapping *>::~<class <class CCertMapping>,class CCertMapping *>(void)
??1?$AutoCleanup@V?$AutoDelete@VCCertMapping@@@@PAVCCertMapping@@@@QAE@XZ ; has WINAPI (@0)
; public: __thiscall <class <class CConfigChangeSource>,class CConfigChangeSource *>::~<class <class CConfigChangeSource>,class CConfigChangeSource *>(void)
??1?$AutoCleanup@V?$AutoDelete@VCConfigChangeSource@@@@PAVCConfigChangeSource@@@@QAE@XZ ; has WINAPI (@0)
; public: __thiscall <class <class CListenerSettings>,class CListenerSettings *>::~<class <class CListenerSettings>,class CListenerSettings *>(void)
??1?$AutoCleanup@V?$AutoDelete@VCListenerSettings@@@@PAVCListenerSettings@@@@QAE@XZ ; has WINAPI (@0)
; public: __thiscall <class <class CObserverConfigChangeErrors>,class CObserverConfigChangeErrors *>::~<class <class CObserverConfigChangeErrors>,class CObserverConfigChangeErrors *>(void)
??1?$AutoCleanup@V?$AutoDelete@VCObserverConfigChangeErrors@@@@PAVCObserverConfigChangeErrors@@@@QAE@XZ ; has WINAPI (@0)
; public: __thiscall <class <class CServiceConfigCache::CServiceWatcher>,class CServiceConfigCache::CServiceWatcher *>::~<class <class CServiceConfigCache::CServiceWatcher>,class CServiceConfigCache::CServiceWatcher *>(void)
??1?$AutoCleanup@V?$AutoDelete@VCServiceWatcher@CServiceConfigCache@@@@PAVCServiceWatcher@CServiceConfigCache@@@@QAE@XZ ; has WINAPI (@0)
; public: __thiscall <class <class CShellUriSettings>,class CShellUriSettings *>::~<class <class CShellUriSettings>,class CShellUriSettings *>(void)
??1?$AutoCleanup@V?$AutoDelete@VCShellUriSettings@@@@PAVCShellUriSettings@@@@QAE@XZ ; has WINAPI (@0)
; public: __thiscall <class <class CWSManEPR>,class CWSManEPR *>::~<class <class CWSManEPR>,class CWSManEPR *>(void)
??1?$AutoCleanup@V?$AutoDelete@VCWSManEPR@@@@PAVCWSManEPR@@@@QAE@XZ ; has WINAPI (@0)
; public: __thiscall <class <class CWSManResource>,class CWSManResource *>::~<class <class CWSManResource>,class CWSManResource *>(void)
??1?$AutoCleanup@V?$AutoDelete@VCWSManResource@@@@PAVCWSManResource@@@@QAE@XZ ; has WINAPI (@0)
; public: __thiscall <class <class CertHash>,class CertHash *>::~<class <class CertHash>,class CertHash *>(void)
??1?$AutoCleanup@V?$AutoDelete@VCertHash@@@@PAVCertHash@@@@QAE@XZ ; has WINAPI (@0)
; public: __thiscall <class <class ConfigUpdate>,class ConfigUpdate *>::~<class <class ConfigUpdate>,class ConfigUpdate *>(void)
??1?$AutoCleanup@V?$AutoDelete@VConfigUpdate@@@@PAVConfigUpdate@@@@QAE@XZ ; has WINAPI (@0)
; public: __thiscall <class <class CredUIDllLoader>,class CredUIDllLoader *>::~<class <class CredUIDllLoader>,class CredUIDllLoader *>(void)
??1?$AutoCleanup@V?$AutoDelete@VCredUIDllLoader@@@@PAVCredUIDllLoader@@@@QAE@XZ ; has WINAPI (@0)
; public: __thiscall <class <class EnumSinkEx>,class EnumSinkEx *>::~<class <class EnumSinkEx>,class EnumSinkEx *>(void)
??1?$AutoCleanup@V?$AutoDelete@VEnumSinkEx@@@@PAVEnumSinkEx@@@@QAE@XZ ; has WINAPI (@0)
; public: __thiscall <class <class WSMan::EventHandler>,class WSMan::EventHandler *>::~<class <class WSMan::EventHandler>,class WSMan::EventHandler *>(void)
??1?$AutoCleanup@V?$AutoDelete@VEventHandler@WSMan@@@@PAVEventHandler@WSMan@@@@QAE@XZ ; has WINAPI (@0)
; public: __thiscall <class <class ExpiredOperationIdRecord>,class ExpiredOperationIdRecord *>::~<class <class ExpiredOperationIdRecord>,class ExpiredOperationIdRecord *>(void)
??1?$AutoCleanup@V?$AutoDelete@VExpiredOperationIdRecord@@@@PAVExpiredOperationIdRecord@@@@QAE@XZ ; has WINAPI (@0)
; public: __thiscall <class <class GPApiManager>,class GPApiManager *>::~<class <class GPApiManager>,class GPApiManager *>(void)
??1?$AutoCleanup@V?$AutoDelete@VGPApiManager@@@@PAVGPApiManager@@@@QAE@XZ ; has WINAPI (@0)
; public: __thiscall <class <class GeneralSinkEx>,class GeneralSinkEx *>::~<class <class GeneralSinkEx>,class GeneralSinkEx *>(void)
??1?$AutoCleanup@V?$AutoDelete@VGeneralSinkEx@@@@PAVGeneralSinkEx@@@@QAE@XZ ; has WINAPI (@0)
; public: __thiscall <class <class IChannelObserverFactory>,class IChannelObserverFactory *>::~<class <class IChannelObserverFactory>,class IChannelObserverFactory *>(void)
??1?$AutoCleanup@V?$AutoDelete@VIChannelObserverFactory@@@@PAVIChannelObserverFactory@@@@QAE@XZ ; has WINAPI (@0)
; public: __thiscall <class <class IQueryDASHSMASHInterface>,class IQueryDASHSMASHInterface *>::~<class <class IQueryDASHSMASHInterface>,class IQueryDASHSMASHInterface *>(void)
??1?$AutoCleanup@V?$AutoDelete@VIQueryDASHSMASHInterface@@@@PAVIQueryDASHSMASHInterface@@@@QAE@XZ ; has WINAPI (@0)
; public: __thiscall <class <class ISpecification>,class ISpecification *>::~<class <class ISpecification>,class ISpecification *>(void)
??1?$AutoCleanup@V?$AutoDelete@VISpecification@@@@PAVISpecification@@@@QAE@XZ ; has WINAPI (@0)
; public: __thiscall <class <class CSecurity::InteractiveSid>,class CSecurity::InteractiveSid *>::~<class <class CSecurity::InteractiveSid>,class CSecurity::InteractiveSid *>(void)
??1?$AutoCleanup@V?$AutoDelete@VInteractiveSid@CSecurity@@@@PAVInteractiveSid@CSecurity@@@@QAE@XZ ; has WINAPI (@0)
; public: __thiscall <class <class IpHlpApiDllLoader>,class IpHlpApiDllLoader *>::~<class <class IpHlpApiDllLoader>,class IpHlpApiDllLoader *>(void)
??1?$AutoCleanup@V?$AutoDelete@VIpHlpApiDllLoader@@@@PAVIpHlpApiDllLoader@@@@QAE@XZ ; has WINAPI (@0)
; public: __thiscall <class <class MachineName>,class MachineName *>::~<class <class MachineName>,class MachineName *>(void)
??1?$AutoCleanup@V?$AutoDelete@VMachineName@@@@PAVMachineName@@@@QAE@XZ ; has WINAPI (@0)
; public: __thiscall <class <class CListenerReceive::MasterReceiveData>,class CListenerReceive::MasterReceiveData *>::~<class <class CListenerReceive::MasterReceiveData>,class CListenerReceive::MasterReceiveData *>(void)
??1?$AutoCleanup@V?$AutoDelete@VMasterReceiveData@CListenerReceive@@@@PAVMasterReceiveData@CListenerReceive@@@@QAE@XZ ; has WINAPI (@0)
; public: __thiscall <class <class CSecurity::NetworkServiceSid>,class CSecurity::NetworkServiceSid *>::~<class <class CSecurity::NetworkServiceSid>,class CSecurity::NetworkServiceSid *>(void)
??1?$AutoCleanup@V?$AutoDelete@VNetworkServiceSid@CSecurity@@@@PAVNetworkServiceSid@CSecurity@@@@QAE@XZ ; has WINAPI (@0)
; public: __thiscall <class <class NtDsApiDllLoader>,class NtDsApiDllLoader *>::~<class <class NtDsApiDllLoader>,class NtDsApiDllLoader *>(void)
??1?$AutoCleanup@V?$AutoDelete@VNtDsApiDllLoader@@@@PAVNtDsApiDllLoader@@@@QAE@XZ ; has WINAPI (@0)
; public: __thiscall <class <class WSMan::Client::SessionOptions::OptionValue>,class WSMan::Client::SessionOptions::OptionValue *>::~<class <class WSMan::Client::SessionOptions::OptionValue>,class WSMan::Client::SessionOptions::OptionValue *>(void)
??1?$AutoCleanup@V?$AutoDelete@VOptionValue@SessionOptions@Client@WSMan@@@@PAVOptionValue@SessionOptions@Client@WSMan@@@@QAE@XZ ; has WINAPI (@0)
; public: __thiscall <class <class PacketCreator>,class PacketCreator *>::~<class <class PacketCreator>,class PacketCreator *>(void)
??1?$AutoCleanup@V?$AutoDelete@VPacketCreator@@@@PAVPacketCreator@@@@QAE@XZ ; has WINAPI (@0)
; public: __thiscall <class <class PacketParser>,class PacketParser *>::~<class <class PacketParser>,class PacketParser *>(void)
??1?$AutoCleanup@V?$AutoDelete@VPacketParser@@@@PAVPacketParser@@@@QAE@XZ ; has WINAPI (@0)
; public: __thiscall <class <class Locale::Resources>,class Locale::Resources *>::~<class <class Locale::Resources>,class Locale::Resources *>(void)
??1?$AutoCleanup@V?$AutoDelete@VResources@Locale@@@@PAVResources@Locale@@@@QAE@XZ ; has WINAPI (@0)
; public: __thiscall <class <class RunAsConfiguration>,class RunAsConfiguration *>::~<class <class RunAsConfiguration>,class RunAsConfiguration *>(void)
??1?$AutoCleanup@V?$AutoDelete@VRunAsConfiguration@@@@PAVRunAsConfiguration@@@@QAE@XZ ; has WINAPI (@0)
; public: __thiscall <class <class Catalog::SecurityEntry>,class Catalog::SecurityEntry *>::~<class <class Catalog::SecurityEntry>,class Catalog::SecurityEntry *>(void)
??1?$AutoCleanup@V?$AutoDelete@VSecurityEntry@Catalog@@@@PAVSecurityEntry@Catalog@@@@QAE@XZ ; has WINAPI (@0)
; public: __thiscall <class <class RobustConnectionBuffer::SendPacketArgs>,class RobustConnectionBuffer::SendPacketArgs *>::~<class <class RobustConnectionBuffer::SendPacketArgs>,class RobustConnectionBuffer::SendPacketArgs *>(void)
??1?$AutoCleanup@V?$AutoDelete@VSendPacketArgs@RobustConnectionBuffer@@@@PAVSendPacketArgs@RobustConnectionBuffer@@@@QAE@XZ ; has WINAPI (@0)
; public: __thiscall <class <class ServiceSoapProcessor>,class ServiceSoapProcessor *>::~<class <class ServiceSoapProcessor>,class ServiceSoapProcessor *>(void)
??1?$AutoCleanup@V?$AutoDelete@VServiceSoapProcessor@@@@PAVServiceSoapProcessor@@@@QAE@XZ ; has WINAPI (@0)
; public: __thiscall <class <class Shell32DllLoader>,class Shell32DllLoader *>::~<class <class Shell32DllLoader>,class Shell32DllLoader *>(void)
??1?$AutoCleanup@V?$AutoDelete@VShell32DllLoader@@@@PAVShell32DllLoader@@@@QAE@XZ ; has WINAPI (@0)
; public: __thiscall <class <class ShlWApiDllLoader>,class ShlWApiDllLoader *>::~<class <class ShlWApiDllLoader>,class ShlWApiDllLoader *>(void)
??1?$AutoCleanup@V?$AutoDelete@VShlWApiDllLoader@@@@PAVShlWApiDllLoader@@@@QAE@XZ ; has WINAPI (@0)
; public: __thiscall <class <class SubscriptionEnumerator>,class SubscriptionEnumerator *>::~<class <class SubscriptionEnumerator>,class SubscriptionEnumerator *>(void)
??1?$AutoCleanup@V?$AutoDelete@VSubscriptionEnumerator@@@@PAVSubscriptionEnumerator@@@@QAE@XZ ; has WINAPI (@0)
; public: __thiscall <class <class SubscriptionManager>,class SubscriptionManager *>::~<class <class SubscriptionManager>,class SubscriptionManager *>(void)
??1?$AutoCleanup@V?$AutoDelete@VSubscriptionManager@@@@PAVSubscriptionManager@@@@QAE@XZ ; has WINAPI (@0)
; public: __thiscall <class <class TSTRBUFFER>,class TSTRBUFFER *>::~<class <class TSTRBUFFER>,class TSTRBUFFER *>(void)
??1?$AutoCleanup@V?$AutoDelete@VTSTRBUFFER@@@@PAVTSTRBUFFER@@@@QAE@XZ ; has WINAPI (@0)
; public: __thiscall <class <class UniqueStringOverflow>,class UniqueStringOverflow *>::~<class <class UniqueStringOverflow>,class UniqueStringOverflow *>(void)
??1?$AutoCleanup@V?$AutoDelete@VUniqueStringOverflow@@@@PAVUniqueStringOverflow@@@@QAE@XZ ; has WINAPI (@0)
; public: __thiscall <class <class User32DllLoader>,class User32DllLoader *>::~<class <class User32DllLoader>,class User32DllLoader *>(void)
??1?$AutoCleanup@V?$AutoDelete@VUser32DllLoader@@@@PAVUser32DllLoader@@@@QAE@XZ ; has WINAPI (@0)
; public: __thiscall <class <class WSMANCONFIGTABLE_IDENTITY>,class WSMANCONFIGTABLE_IDENTITY *>::~<class <class WSMANCONFIGTABLE_IDENTITY>,class WSMANCONFIGTABLE_IDENTITY *>(void)
??1?$AutoCleanup@V?$AutoDelete@VWSMANCONFIGTABLE_IDENTITY@@@@PAVWSMANCONFIGTABLE_IDENTITY@@@@QAE@XZ ; has WINAPI (@0)
; public: __thiscall <class <class WSManMemCryptManager>,class WSManMemCryptManager *>::~<class <class WSManMemCryptManager>,class WSManMemCryptManager *>(void)
??1?$AutoCleanup@V?$AutoDelete@VWSManMemCryptManager@@@@PAVWSManMemCryptManager@@@@QAE@XZ ; has WINAPI (@0)
; public: __thiscall <class <class WmiEnumContext>,class WmiEnumContext *>::~<class <class WmiEnumContext>,class WmiEnumContext *>(void)
??1?$AutoCleanup@V?$AutoDelete@VWmiEnumContext@@@@PAVWmiEnumContext@@@@QAE@XZ ; has WINAPI (@0)
; public: __thiscall <class <class XmlReader>,class XmlReader *>::~<class <class XmlReader>,class XmlReader *>(void)
??1?$AutoCleanup@V?$AutoDelete@VXmlReader@@@@PAVXmlReader@@@@QAE@XZ ; has WINAPI (@0)
; public: __thiscall <class <unsigned short const>,unsigned short const *>::~<class <unsigned short const>,unsigned short const *>(void)
??1?$AutoCleanup@V?$AutoDeleteVector@$$CBG@@PBG@@QAE@XZ ; has WINAPI (@0)
; public: __thiscall <class <char>,char *>::~<class <char>,char *>(void)
??1?$AutoCleanup@V?$AutoDeleteVector@D@@PAD@@QAE@XZ ; has WINAPI (@0)
; public: __thiscall <class <unsigned char>,unsigned char *>::~<class <unsigned char>,unsigned char *>(void)
??1?$AutoCleanup@V?$AutoDeleteVector@E@@PAE@@QAE@XZ ; has WINAPI (@0)
; public: __thiscall <class <unsigned short>,unsigned short *>::~<class <unsigned short>,unsigned short *>(void)
??1?$AutoCleanup@V?$AutoDeleteVector@G@@PAG@@QAE@XZ ; has WINAPI (@0)
; public: __thiscall <class <int>,int *>::~<class <int>,int *>(void)
??1?$AutoCleanup@V?$AutoDeleteVector@H@@PAH@@QAE@XZ ; has WINAPI (@0)
; public: __thiscall <class <unsigned short *>,unsigned short **>::~<class <unsigned short *>,unsigned short **>(void)
??1?$AutoCleanup@V?$AutoDeleteVector@PAG@@PAPAG@@QAE@XZ ; has WINAPI (@0)
; public: __thiscall <class <unsigned short const *>,unsigned short const **>::~<class <unsigned short const *>,unsigned short const **>(void)
??1?$AutoCleanup@V?$AutoDeleteVector@PBG@@PAPBG@@QAE@XZ ; has WINAPI (@0)
; public: __thiscall <class <struct _CONFIG_UPDATE>,struct _CONFIG_UPDATE *>::~<class <struct _CONFIG_UPDATE>,struct _CONFIG_UPDATE *>(void)
??1?$AutoCleanup@V?$AutoDeleteVector@U_CONFIG_UPDATE@@@@PAU_CONFIG_UPDATE@@@@QAE@XZ ; has WINAPI (@0)
; public: __thiscall <class <struct _WINRS_CREATE_SHELL_ENVIRONMENT_VARIABLE>,struct _WINRS_CREATE_SHELL_ENVIRONMENT_VARIABLE *>::~<class <struct _WINRS_CREATE_SHELL_ENVIRONMENT_VARIABLE>,struct _WINRS_CREATE_SHELL_ENVIRONMENT_VARIABLE *>(void)
??1?$AutoCleanup@V?$AutoDeleteVector@U_WINRS_CREATE_SHELL_ENVIRONMENT_VARIABLE@@@@PAU_WINRS_CREATE_SHELL_ENVIRONMENT_VARIABLE@@@@QAE@XZ ; has WINAPI (@0)
; public: __thiscall <class <struct _WINRS_RUN_COMMAND_ARG>,struct _WINRS_RUN_COMMAND_ARG *>::~<class <struct _WINRS_RUN_COMMAND_ARG>,struct _WINRS_RUN_COMMAND_ARG *>(void)
??1?$AutoCleanup@V?$AutoDeleteVector@U_WINRS_RUN_COMMAND_ARG@@@@PAU_WINRS_RUN_COMMAND_ARG@@@@QAE@XZ ; has WINAPI (@0)
; public: __thiscall <class <struct _WSMAN_OPTION>,struct _WSMAN_OPTION *>::~<class <struct _WSMAN_OPTION>,struct _WSMAN_OPTION *>(void)
??1?$AutoCleanup@V?$AutoDeleteVector@U_WSMAN_OPTION@@@@PAU_WSMAN_OPTION@@@@QAE@XZ ; has WINAPI (@0)
; public: __thiscall <class <void>,void *>::~<class <void>,void *>(void)
??1?$AutoCleanup@V?$AutoDeleteVector@X@@PAX@@QAE@XZ ; has WINAPI (@0)
; public: __thiscall <class <unsigned char>,unsigned char *>::~<class <unsigned char>,unsigned char *>(void)
??1?$AutoCleanup@V?$AutoFree@E@@PAE@@QAE@XZ ; has WINAPI (@0)
; public: __thiscall <class <class Packet>,class Packet *>::~<class <class Packet>,class Packet *>(void)
??1?$AutoCleanup@V?$AutoLocklessItemRecycle@VPacket@@@@PAVPacket@@@@QAE@XZ ; has WINAPI (@0)
; public: __thiscall <class <struct IAppHostAdminManager>,struct IAppHostAdminManager *>::~<class <struct IAppHostAdminManager>,struct IAppHostAdminManager *>(void)
??1?$AutoCleanup@V?$AutoRelease@UIAppHostAdminManager@@@@PAUIAppHostAdminManager@@@@QAE@XZ ; has WINAPI (@0)
; public: __thiscall <class <struct IAppHostChildElementCollection>,struct IAppHostChildElementCollection *>::~<class <struct IAppHostChildElementCollection>,struct IAppHostChildElementCollection *>(void)
??1?$AutoCleanup@V?$AutoRelease@UIAppHostChildElementCollection@@@@PAUIAppHostChildElementCollection@@@@QAE@XZ ; has WINAPI (@0)
; public: __thiscall <class <struct IAppHostConfigException>,struct IAppHostConfigException *>::~<class <struct IAppHostConfigException>,struct IAppHostConfigException *>(void)
??1?$AutoCleanup@V?$AutoRelease@UIAppHostConfigException@@@@PAUIAppHostConfigException@@@@QAE@XZ ; has WINAPI (@0)
; public: __thiscall <class <struct IAppHostElement>,struct IAppHostElement *>::~<class <struct IAppHostElement>,struct IAppHostElement *>(void)
??1?$AutoCleanup@V?$AutoRelease@UIAppHostElement@@@@PAUIAppHostElement@@@@QAE@XZ ; has WINAPI (@0)
; public: __thiscall <class <struct IAppHostElementCollection>,struct IAppHostElementCollection *>::~<class <struct IAppHostElementCollection>,struct IAppHostElementCollection *>(void)
??1?$AutoCleanup@V?$AutoRelease@UIAppHostElementCollection@@@@PAUIAppHostElementCollection@@@@QAE@XZ ; has WINAPI (@0)
; public: __thiscall <class <struct IAppHostProperty>,struct IAppHostProperty *>::~<class <struct IAppHostProperty>,struct IAppHostProperty *>(void)
??1?$AutoCleanup@V?$AutoRelease@UIAppHostProperty@@@@PAUIAppHostProperty@@@@QAE@XZ ; has WINAPI (@0)
; public: __thiscall <class <struct IAppHostPropertyCollection>,struct IAppHostPropertyCollection *>::~<class <struct IAppHostPropertyCollection>,struct IAppHostPropertyCollection *>(void)
??1?$AutoCleanup@V?$AutoRelease@UIAppHostPropertyCollection@@@@PAUIAppHostPropertyCollection@@@@QAE@XZ ; has WINAPI (@0)
; public: __thiscall <class <struct IClientSecurity>,struct IClientSecurity *>::~<class <struct IClientSecurity>,struct IClientSecurity *>(void)
??1?$AutoCleanup@V?$AutoRelease@UIClientSecurity@@@@PAUIClientSecurity@@@@QAE@XZ ; has WINAPI (@0)
; public: __thiscall <class <struct IEnumWbemClassObject>,struct IEnumWbemClassObject *>::~<class <struct IEnumWbemClassObject>,struct IEnumWbemClassObject *>(void)
??1?$AutoCleanup@V?$AutoRelease@UIEnumWbemClassObject@@@@PAUIEnumWbemClassObject@@@@QAE@XZ ; has WINAPI (@0)
; public: __thiscall <class <struct IErrorInfo>,struct IErrorInfo *>::~<class <struct IErrorInfo>,struct IErrorInfo *>(void)
??1?$AutoCleanup@V?$AutoRelease@UIErrorInfo@@@@PAUIErrorInfo@@@@QAE@XZ ; has WINAPI (@0)
; public: __thiscall <class <struct IUnknown>,struct IUnknown *>::~<class <struct IUnknown>,struct IUnknown *>(void)
??1?$AutoCleanup@V?$AutoRelease@UIUnknown@@@@PAUIUnknown@@@@QAE@XZ ; has WINAPI (@0)
; public: __thiscall <class <struct IWbemClassObject>,struct IWbemClassObject *>::~<class <struct IWbemClassObject>,struct IWbemClassObject *>(void)
??1?$AutoCleanup@V?$AutoRelease@UIWbemClassObject@@@@PAUIWbemClassObject@@@@QAE@XZ ; has WINAPI (@0)
; public: __thiscall <class <struct IWbemContext>,struct IWbemContext *>::~<class <struct IWbemContext>,struct IWbemContext *>(void)
??1?$AutoCleanup@V?$AutoRelease@UIWbemContext@@@@PAUIWbemContext@@@@QAE@XZ ; has WINAPI (@0)
; public: __thiscall <class <struct IWbemLocator>,struct IWbemLocator *>::~<class <struct IWbemLocator>,struct IWbemLocator *>(void)
??1?$AutoCleanup@V?$AutoRelease@UIWbemLocator@@@@PAUIWbemLocator@@@@QAE@XZ ; has WINAPI (@0)
; public: __thiscall <class <struct IWbemObjectTextSrc>,struct IWbemObjectTextSrc *>::~<class <struct IWbemObjectTextSrc>,struct IWbemObjectTextSrc *>(void)
??1?$AutoCleanup@V?$AutoRelease@UIWbemObjectTextSrc@@@@PAUIWbemObjectTextSrc@@@@QAE@XZ ; has WINAPI (@0)
; public: __thiscall <class <struct IWbemPath>,struct IWbemPath *>::~<class <struct IWbemPath>,struct IWbemPath *>(void)
??1?$AutoCleanup@V?$AutoRelease@UIWbemPath@@@@PAUIWbemPath@@@@QAE@XZ ; has WINAPI (@0)
; public: __thiscall <class <struct IWbemPathKeyList>,struct IWbemPathKeyList *>::~<class <struct IWbemPathKeyList>,struct IWbemPathKeyList *>(void)
??1?$AutoCleanup@V?$AutoRelease@UIWbemPathKeyList@@@@PAUIWbemPathKeyList@@@@QAE@XZ ; has WINAPI (@0)
; public: __thiscall <class <struct IWbemQualifierSet>,struct IWbemQualifierSet *>::~<class <struct IWbemQualifierSet>,struct IWbemQualifierSet *>(void)
??1?$AutoCleanup@V?$AutoRelease@UIWbemQualifierSet@@@@PAUIWbemQualifierSet@@@@QAE@XZ ; has WINAPI (@0)
; public: __thiscall <class <struct IWbemQuery>,struct IWbemQuery *>::~<class <struct IWbemQuery>,struct IWbemQuery *>(void)
??1?$AutoCleanup@V?$AutoRelease@UIWbemQuery@@@@PAUIWbemQuery@@@@QAE@XZ ; has WINAPI (@0)
; public: __thiscall <class <struct IWbemServices>,struct IWbemServices *>::~<class <struct IWbemServices>,struct IWbemServices *>(void)
??1?$AutoCleanup@V?$AutoRelease@UIWbemServices@@@@PAUIWbemServices@@@@QAE@XZ ; has WINAPI (@0)
; public: __thiscall <class <class WSMan::Client::Application>,class WSMan::Client::Application *>::~<class <class WSMan::Client::Application>,class WSMan::Client::Application *>(void)
??1?$AutoCleanup@V?$AutoRelease@VApplication@Client@WSMan@@@@PAVApplication@Client@WSMan@@@@QAE@XZ ; has WINAPI (@0)
; public: __thiscall <class <class CBaseConfigCache>,class CBaseConfigCache *>::~<class <class CBaseConfigCache>,class CBaseConfigCache *>(void)
??1?$AutoCleanup@V?$AutoRelease@VCBaseConfigCache@@@@PAVCBaseConfigCache@@@@QAE@XZ ; has WINAPI (@0)
; public: __thiscall <class <class CClientConfigCache>,class CClientConfigCache *>::~<class <class CClientConfigCache>,class CClientConfigCache *>(void)
??1?$AutoCleanup@V?$AutoRelease@VCClientConfigCache@@@@PAVCClientConfigCache@@@@QAE@XZ ; has WINAPI (@0)
; public: __thiscall <class <class CClientConfigSettings>,class CClientConfigSettings *>::~<class <class CClientConfigSettings>,class CClientConfigSettings *>(void)
??1?$AutoCleanup@V?$AutoRelease@VCClientConfigSettings@@@@PAVCClientConfigSettings@@@@QAE@XZ ; has WINAPI (@0)
; public: __thiscall <class <class CCommonConfigSettings>,class CCommonConfigSettings *>::~<class <class CCommonConfigSettings>,class CCommonConfigSettings *>(void)
??1?$AutoCleanup@V?$AutoRelease@VCCommonConfigSettings@@@@PAVCCommonConfigSettings@@@@QAE@XZ ; has WINAPI (@0)
; public: __thiscall <class <class CBaseConfigCache::CConfigCacheMap>,class CBaseConfigCache::CConfigCacheMap *>::~<class <class CBaseConfigCache::CConfigCacheMap>,class CBaseConfigCache::CConfigCacheMap *>(void)
??1?$AutoCleanup@V?$AutoRelease@VCConfigCacheMap@CBaseConfigCache@@@@PAVCConfigCacheMap@CBaseConfigCache@@@@QAE@XZ ; has WINAPI (@0)
; public: __thiscall <class <class CConfigManager>,class CConfigManager *>::~<class <class CConfigManager>,class CConfigManager *>(void)
??1?$AutoCleanup@V?$AutoRelease@VCConfigManager@@@@PAVCConfigManager@@@@QAE@XZ ; has WINAPI (@0)
; public: __thiscall <class <class CListenerCommand>,class CListenerCommand *>::~<class <class CListenerCommand>,class CListenerCommand *>(void)
??1?$AutoCleanup@V?$AutoRelease@VCListenerCommand@@@@PAVCListenerCommand@@@@QAE@XZ ; has WINAPI (@0)
; public: __thiscall <class <class CListenerMasterOperation>,class CListenerMasterOperation *>::~<class <class CListenerMasterOperation>,class CListenerMasterOperation *>(void)
??1?$AutoCleanup@V?$AutoRelease@VCListenerMasterOperation@@@@PAVCListenerMasterOperation@@@@QAE@XZ ; has WINAPI (@0)
; public: __thiscall <class <class CListenerReceive>,class CListenerReceive *>::~<class <class CListenerReceive>,class CListenerReceive *>(void)
??1?$AutoCleanup@V?$AutoRelease@VCListenerReceive@@@@PAVCListenerReceive@@@@QAE@XZ ; has WINAPI (@0)
; public: __thiscall <class <class CListenerShell>,class CListenerShell *>::~<class <class CListenerShell>,class CListenerShell *>(void)
??1?$AutoCleanup@V?$AutoRelease@VCListenerShell@@@@PAVCListenerShell@@@@QAE@XZ ; has WINAPI (@0)
; public: __thiscall <class <class CRemoteOperation>,class CRemoteOperation *>::~<class <class CRemoteOperation>,class CRemoteOperation *>(void)
??1?$AutoCleanup@V?$AutoRelease@VCRemoteOperation@@@@PAVCRemoteOperation@@@@QAE@XZ ; has WINAPI (@0)
; public: __thiscall <class <class CRemoteSession>,class CRemoteSession *>::~<class <class CRemoteSession>,class CRemoteSession *>(void)
??1?$AutoCleanup@V?$AutoRelease@VCRemoteSession@@@@PAVCRemoteSession@@@@QAE@XZ ; has WINAPI (@0)
; public: __thiscall <class <class CRequestContext>,class CRequestContext *>::~<class <class CRequestContext>,class CRequestContext *>(void)
??1?$AutoCleanup@V?$AutoRelease@VCRequestContext@@@@PAVCRequestContext@@@@QAE@XZ ; has WINAPI (@0)
; public: __thiscall <class <class CServiceCommonConfigSettings>,class CServiceCommonConfigSettings *>::~<class <class CServiceCommonConfigSettings>,class CServiceCommonConfigSettings *>(void)
??1?$AutoCleanup@V?$AutoRelease@VCServiceCommonConfigSettings@@@@PAVCServiceCommonConfigSettings@@@@QAE@XZ ; has WINAPI (@0)
; public: __thiscall <class <class CServiceConfigCache>,class CServiceConfigCache *>::~<class <class CServiceConfigCache>,class CServiceConfigCache *>(void)
??1?$AutoCleanup@V?$AutoRelease@VCServiceConfigCache@@@@PAVCServiceConfigCache@@@@QAE@XZ ; has WINAPI (@0)
; public: __thiscall <class <class CServiceConfigSettings>,class CServiceConfigSettings *>::~<class <class CServiceConfigSettings>,class CServiceConfigSettings *>(void)
??1?$AutoCleanup@V?$AutoRelease@VCServiceConfigSettings@@@@PAVCServiceConfigSettings@@@@QAE@XZ ; has WINAPI (@0)
; public: __thiscall <class <class CWSManEPR>,class CWSManEPR *>::~<class <class CWSManEPR>,class CWSManEPR *>(void)
??1?$AutoCleanup@V?$AutoRelease@VCWSManEPR@@@@PAVCWSManEPR@@@@QAE@XZ ; has WINAPI (@0)
; public: __thiscall <class <class CWSManGroupPolicyCache>,class CWSManGroupPolicyCache *>::~<class <class CWSManGroupPolicyCache>,class CWSManGroupPolicyCache *>(void)
??1?$AutoCleanup@V?$AutoRelease@VCWSManGroupPolicyCache@@@@PAVCWSManGroupPolicyCache@@@@QAE@XZ ; has WINAPI (@0)
; public: __thiscall <class <class CWSManGroupPolicyManager>,class CWSManGroupPolicyManager *>::~<class <class CWSManGroupPolicyManager>,class CWSManGroupPolicyManager *>(void)
??1?$AutoCleanup@V?$AutoRelease@VCWSManGroupPolicyManager@@@@PAVCWSManGroupPolicyManager@@@@QAE@XZ ; has WINAPI (@0)
; public: __thiscall <class <class CWSManObject>,class CWSManObject *>::~<class <class CWSManObject>,class CWSManObject *>(void)
??1?$AutoCleanup@V?$AutoRelease@VCWSManObject@@@@PAVCWSManObject@@@@QAE@XZ ; has WINAPI (@0)
; public: __thiscall <class <class CWSManResource>,class CWSManResource *>::~<class <class CWSManResource>,class CWSManResource *>(void)
??1?$AutoCleanup@V?$AutoRelease@VCWSManResource@@@@PAVCWSManResource@@@@QAE@XZ ; has WINAPI (@0)
; public: __thiscall <class <class CWSManSession>,class CWSManSession *>::~<class <class CWSManSession>,class CWSManSession *>(void)
??1?$AutoCleanup@V?$AutoRelease@VCWSManSession@@@@PAVCWSManSession@@@@QAE@XZ ; has WINAPI (@0)
; public: __thiscall <class <class CWinRSPluginConfigCache>,class CWinRSPluginConfigCache *>::~<class <class CWinRSPluginConfigCache>,class CWinRSPluginConfigCache *>(void)
??1?$AutoCleanup@V?$AutoRelease@VCWinRSPluginConfigCache@@@@PAVCWinRSPluginConfigCache@@@@QAE@XZ ; has WINAPI (@0)
; public: __thiscall <class <class CWinRSPluginConfigSettings>,class CWinRSPluginConfigSettings *>::~<class <class CWinRSPluginConfigSettings>,class CWinRSPluginConfigSettings *>(void)
??1?$AutoCleanup@V?$AutoRelease@VCWinRSPluginConfigSettings@@@@PAVCWinRSPluginConfigSettings@@@@QAE@XZ ; has WINAPI (@0)
; public: __thiscall <class <class WSMan::Client::Command>,class WSMan::Client::Command *>::~<class <class WSMan::Client::Command>,class WSMan::Client::Command *>(void)
??1?$AutoCleanup@V?$AutoRelease@VCommand@Client@WSMan@@@@PAVCommand@Client@WSMan@@@@QAE@XZ ; has WINAPI (@0)
; public: __thiscall <class <class ConfigNotification>,class ConfigNotification *>::~<class <class ConfigNotification>,class ConfigNotification *>(void)
??1?$AutoCleanup@V?$AutoRelease@VConfigNotification@@@@PAVConfigNotification@@@@QAE@XZ ; has WINAPI (@0)
; public: __thiscall <class <class WSMan::Client::ConnectShellOperation>,class WSMan::Client::ConnectShellOperation *>::~<class <class WSMan::Client::ConnectShellOperation>,class WSMan::Client::ConnectShellOperation *>(void)
??1?$AutoCleanup@V?$AutoRelease@VConnectShellOperation@Client@WSMan@@@@PAVConnectShellOperation@Client@WSMan@@@@QAE@XZ ; has WINAPI (@0)
; public: __thiscall <class <class WSMan::Client::CreateShellOperation>,class WSMan::Client::CreateShellOperation *>::~<class <class WSMan::Client::CreateShellOperation>,class WSMan::Client::CreateShellOperation *>(void)
??1?$AutoCleanup@V?$AutoRelease@VCreateShellOperation@Client@WSMan@@@@PAVCreateShellOperation@Client@WSMan@@@@QAE@XZ ; has WINAPI (@0)
; public: __thiscall <class <class WSMan::Client::DeleteShellOperation>,class WSMan::Client::DeleteShellOperation *>::~<class <class WSMan::Client::DeleteShellOperation>,class WSMan::Client::DeleteShellOperation *>(void)
??1?$AutoCleanup@V?$AutoRelease@VDeleteShellOperation@Client@WSMan@@@@PAVDeleteShellOperation@Client@WSMan@@@@QAE@XZ ; has WINAPI (@0)
; public: __thiscall <class <class WSMan::Client::DisconnectOperation>,class WSMan::Client::DisconnectOperation *>::~<class <class WSMan::Client::DisconnectOperation>,class WSMan::Client::DisconnectOperation *>(void)
??1?$AutoCleanup@V?$AutoRelease@VDisconnectOperation@Client@WSMan@@@@PAVDisconnectOperation@Client@WSMan@@@@QAE@XZ ; has WINAPI (@0)
; public: __thiscall <class <class EnumSinkEx>,class EnumSinkEx *>::~<class <class EnumSinkEx>,class EnumSinkEx *>(void)
??1?$AutoCleanup@V?$AutoRelease@VEnumSinkEx@@@@PAVEnumSinkEx@@@@QAE@XZ ; has WINAPI (@0)
; public: __thiscall <class <class GeneralSinkEx>,class GeneralSinkEx *>::~<class <class GeneralSinkEx>,class GeneralSinkEx *>(void)
??1?$AutoCleanup@V?$AutoRelease@VGeneralSinkEx@@@@PAVGeneralSinkEx@@@@QAE@XZ ; has WINAPI (@0)
; public: __thiscall <class <class HostMappingTable>,class HostMappingTable *>::~<class <class HostMappingTable>,class HostMappingTable *>(void)
??1?$AutoCleanup@V?$AutoRelease@VHostMappingTable@@@@PAVHostMappingTable@@@@QAE@XZ ; has WINAPI (@0)
; public: __thiscall <class <class IISConfigSettings>,class IISConfigSettings *>::~<class <class IISConfigSettings>,class IISConfigSettings *>(void)
??1?$AutoCleanup@V?$AutoRelease@VIISConfigSettings@@@@PAVIISConfigSettings@@@@QAE@XZ ; has WINAPI (@0)
; public: __thiscall <class <class IPCSoapProcessor>,class IPCSoapProcessor *>::~<class <class IPCSoapProcessor>,class IPCSoapProcessor *>(void)
??1?$AutoCleanup@V?$AutoRelease@VIPCSoapProcessor@@@@PAVIPCSoapProcessor@@@@QAE@XZ ; has WINAPI (@0)
; public: __thiscall <class <class IRequestContext>,class IRequestContext *>::~<class <class IRequestContext>,class IRequestContext *>(void)
??1?$AutoCleanup@V?$AutoRelease@VIRequestContext@@@@PAVIRequestContext@@@@QAE@XZ ; has WINAPI (@0)
; public: __thiscall <class <class ISubscription>,class ISubscription *>::~<class <class ISubscription>,class ISubscription *>(void)
??1?$AutoCleanup@V?$AutoRelease@VISubscription@@@@PAVISubscription@@@@QAE@XZ ; has WINAPI (@0)
; public: __thiscall <class <class InboundRequestDetails>,class InboundRequestDetails *>::~<class <class InboundRequestDetails>,class InboundRequestDetails *>(void)
??1?$AutoCleanup@V?$AutoRelease@VInboundRequestDetails@@@@PAVInboundRequestDetails@@@@QAE@XZ ; has WINAPI (@0)
; public: __thiscall <class <class WSMan::Client::ProxyManager>,class WSMan::Client::ProxyManager *>::~<class <class WSMan::Client::ProxyManager>,class WSMan::Client::ProxyManager *>(void)
??1?$AutoCleanup@V?$AutoRelease@VProxyManager@Client@WSMan@@@@PAVProxyManager@Client@WSMan@@@@QAE@XZ ; has WINAPI (@0)
; public: __thiscall <class <class WSMan::Client::ProxySelection>,class WSMan::Client::ProxySelection *>::~<class <class WSMan::Client::ProxySelection>,class WSMan::Client::ProxySelection *>(void)
??1?$AutoCleanup@V?$AutoRelease@VProxySelection@Client@WSMan@@@@PAVProxySelection@Client@WSMan@@@@QAE@XZ ; has WINAPI (@0)
; public: __thiscall <class <class PushSubscribeOperation>,class PushSubscribeOperation *>::~<class <class PushSubscribeOperation>,class PushSubscribeOperation *>(void)
??1?$AutoCleanup@V?$AutoRelease@VPushSubscribeOperation@@@@PAVPushSubscribeOperation@@@@QAE@XZ ; has WINAPI (@0)
; public: __thiscall <class <class PushSubscription>,class PushSubscription *>::~<class <class PushSubscription>,class PushSubscription *>(void)
??1?$AutoCleanup@V?$AutoRelease@VPushSubscription@@@@PAVPushSubscription@@@@QAE@XZ ; has WINAPI (@0)
; public: __thiscall <class <class WSMan::Client::ReceiveOperation>,class WSMan::Client::ReceiveOperation *>::~<class <class WSMan::Client::ReceiveOperation>,class WSMan::Client::ReceiveOperation *>(void)
??1?$AutoCleanup@V?$AutoRelease@VReceiveOperation@Client@WSMan@@@@PAVReceiveOperation@Client@WSMan@@@@QAE@XZ ; has WINAPI (@0)
; public: __thiscall <class <class WSMan::Client::ReconnectOperation>,class WSMan::Client::ReconnectOperation *>::~<class <class WSMan::Client::ReconnectOperation>,class WSMan::Client::ReconnectOperation *>(void)
??1?$AutoCleanup@V?$AutoRelease@VReconnectOperation@Client@WSMan@@@@PAVReconnectOperation@Client@WSMan@@@@QAE@XZ ; has WINAPI (@0)
; public: __thiscall <class <class WSMan::Client::SendOperation>,class WSMan::Client::SendOperation *>::~<class <class WSMan::Client::SendOperation>,class WSMan::Client::SendOperation *>(void)
??1?$AutoCleanup@V?$AutoRelease@VSendOperation@Client@WSMan@@@@PAVSendOperation@Client@WSMan@@@@QAE@XZ ; has WINAPI (@0)
; public: __thiscall <class <class WSMan::Client::Shell>,class WSMan::Client::Shell *>::~<class <class WSMan::Client::Shell>,class WSMan::Client::Shell *>(void)
??1?$AutoCleanup@V?$AutoRelease@VShell@Client@WSMan@@@@PAVShell@Client@WSMan@@@@QAE@XZ ; has WINAPI (@0)
; public: __thiscall <class <class ShellInfo>,class ShellInfo *>::~<class <class ShellInfo>,class ShellInfo *>(void)
??1?$AutoCleanup@V?$AutoRelease@VShellInfo@@@@PAVShellInfo@@@@QAE@XZ ; has WINAPI (@0)
; public: __thiscall <class <class WSMan::Client::SignalOperation>,class WSMan::Client::SignalOperation *>::~<class <class WSMan::Client::SignalOperation>,class WSMan::Client::SignalOperation *>(void)
??1?$AutoCleanup@V?$AutoRelease@VSignalOperation@Client@WSMan@@@@PAVSignalOperation@Client@WSMan@@@@QAE@XZ ; has WINAPI (@0)
; public: __thiscall <class <class UserRecord>,class UserRecord *>::~<class <class UserRecord>,class UserRecord *>(void)
??1?$AutoCleanup@V?$AutoRelease@VUserRecord@@@@PAVUserRecord@@@@QAE@XZ ; has WINAPI (@0)
; public: __thiscall <class <class WSManHttpListener>,class WSManHttpListener *>::~<class <class WSManHttpListener>,class WSManHttpListener *>(void)
??1?$AutoCleanup@V?$AutoRelease@VWSManHttpListener@@@@PAVWSManHttpListener@@@@QAE@XZ ; has WINAPI (@0)
; public: __thiscall <class <class HostMappingTableEntry>,class HostMappingTableEntry *>::~<class <class HostMappingTableEntry>,class HostMappingTableEntry *>(void)
??1?$AutoCleanup@V?$AutoReleaseEx@VHostMappingTableEntry@@@@PAVHostMappingTableEntry@@@@QAE@XZ ; has WINAPI (@0)
; public: __thiscall <class <class WSMan::Client::Shell>,class WSMan::Client::Shell *>::~<class <class WSMan::Client::Shell>,class WSMan::Client::Shell *>(void)
??1?$AutoCleanup@V?$AutoReleaseEx@VShell@Client@WSMan@@@@PAVShell@Client@WSMan@@@@QAE@XZ ; has WINAPI (@0)
; public: __thiscall <class AutoBstr,unsigned short *>::~<class AutoBstr,unsigned short *>(void)
??1?$AutoCleanup@VAutoBstr@@PAG@@QAE@XZ ; has WINAPI (@0)
; public: __thiscall <class AutoBstrNoAlloc,unsigned short *>::~<class AutoBstrNoAlloc,unsigned short *>(void)
??1?$AutoCleanup@VAutoBstrNoAlloc@@PAG@@QAE@XZ ; has WINAPI (@0)
; public: __thiscall <class AutoCertContext,struct _CERT_CONTEXT const *>::~<class AutoCertContext,struct _CERT_CONTEXT const *>(void)
??1?$AutoCleanup@VAutoCertContext@@PBU_CERT_CONTEXT@@@@QAE@XZ ; has WINAPI (@0)
; public: __thiscall <class AutoChainContext,struct _CERT_CHAIN_CONTEXT const *>::~<class AutoChainContext,struct _CERT_CHAIN_CONTEXT const *>(void)
??1?$AutoCleanup@VAutoChainContext@@PBU_CERT_CHAIN_CONTEXT@@@@QAE@XZ ; has WINAPI (@0)
; public: __thiscall <class AutoCoTaskMemFree,void *>::~<class AutoCoTaskMemFree,void *>(void)
??1?$AutoCleanup@VAutoCoTaskMemFree@@PAX@@QAE@XZ ; has WINAPI (@0)
; public: __thiscall <class AutoEnvironmentBlock,void *>::~<class AutoEnvironmentBlock,void *>(void)
??1?$AutoCleanup@VAutoEnvironmentBlock@@PAX@@QAE@XZ ; has WINAPI (@0)
; public: __thiscall <class AutoFwXmlCloseParser,void *>::~<class AutoFwXmlCloseParser,void *>(void)
??1?$AutoCleanup@VAutoFwXmlCloseParser@@PAX@@QAE@XZ ; has WINAPI (@0)
; public: __thiscall <class AutoHandle,void *>::~<class AutoHandle,void *>(void)
??1?$AutoCleanup@VAutoHandle@@PAX@@QAE@XZ ; has WINAPI (@0)
; public: __thiscall <class AutoImpersonateUser,void *>::~<class AutoImpersonateUser,void *>(void)
??1?$AutoCleanup@VAutoImpersonateUser@@PAX@@QAE@XZ ; has WINAPI (@0)
; public: __thiscall <class AutoLibrary,struct HINSTANCE__ *>::~<class AutoLibrary,struct HINSTANCE__ *>(void)
??1?$AutoCleanup@VAutoLibrary@@PAUHINSTANCE__@@@@QAE@XZ ; has WINAPI (@0)
; public: __thiscall <class AutoLocalFree,void *>::~<class AutoLocalFree,void *>(void)
??1?$AutoCleanup@VAutoLocalFree@@PAX@@QAE@XZ ; has WINAPI (@0)
; public: __thiscall <class AutoMIClass,struct _MI_Class *>::~<class AutoMIClass,struct _MI_Class *>(void)
??1?$AutoCleanup@VAutoMIClass@@PAU_MI_Class@@@@QAE@XZ ; has WINAPI (@0)
; public: __thiscall <class AutoMIInstance,struct _MI_Instance *>::~<class AutoMIInstance,struct _MI_Instance *>(void)
??1?$AutoCleanup@VAutoMIInstance@@PAU_MI_Instance@@@@QAE@XZ ; has WINAPI (@0)
; public: __thiscall <class AutoObject,struct WSMAN_OBJECT *>::~<class AutoObject,struct WSMAN_OBJECT *>(void)
??1?$AutoCleanup@VAutoObject@@PAUWSMAN_OBJECT@@@@QAE@XZ ; has WINAPI (@0)
; public: __thiscall <class AutoRegKey,struct HKEY__ *>::~<class AutoRegKey,struct HKEY__ *>(void)
??1?$AutoCleanup@VAutoRegKey@@PAUHKEY__@@@@QAE@XZ ; has WINAPI (@0)
; public: __thiscall <class AutoSecurityDescriptor,void *>::~<class AutoSecurityDescriptor,void *>(void)
??1?$AutoCleanup@VAutoSecurityDescriptor@@PAX@@QAE@XZ ; has WINAPI (@0)
; public: __thiscall <class AutoWaitHandle,void *>::~<class AutoWaitHandle,void *>(void)
??1?$AutoCleanup@VAutoWaitHandle@@PAX@@QAE@XZ ; has WINAPI (@0)
; public: __thiscall <char>::~<char>(void)
??1?$AutoDelete@D@@QAE@XZ ; has WINAPI (@0)
; public: __thiscall <unsigned short>::~<unsigned short>(void)
??1?$AutoDelete@G@@QAE@XZ ; has WINAPI (@0)
; public: __thiscall <struct CWSManIPFilter::IPRange>::~<struct CWSManIPFilter::IPRange>(void)
??1?$AutoDelete@UIPRange@CWSManIPFilter@@@@QAE@XZ ; has WINAPI (@0)
; public: __thiscall <struct _SID>::~<struct _SID>(void)
??1?$AutoDelete@U_SID@@@@QAE@XZ ; has WINAPI (@0)
; public: __thiscall <struct _WSMAN_STREAM_ID_SET>::~<struct _WSMAN_STREAM_ID_SET>(void)
??1?$AutoDelete@U_WSMAN_STREAM_ID_SET@@@@QAE@XZ ; has WINAPI (@0)
; public: __thiscall <class <class ISubscription>>::~<class <class ISubscription>>(void)
??1?$AutoDelete@V?$Handle@VISubscription@@@@@@QAE@XZ ; has WINAPI (@0)
; public: __thiscall <class <class CListenerConnect *,class CListenerConnect *>>::~<class <class CListenerConnect *,class CListenerConnect *>>(void)
??1?$AutoDelete@V?$SafeMap_Iterator@PAVCListenerConnect@@PAV1@@@@@QAE@XZ ; has WINAPI (@0)
; public: __thiscall <class <class CListenerReceive *,class CListenerReceive *>>::~<class <class CListenerReceive *,class CListenerReceive *>>(void)
??1?$AutoDelete@V?$SafeMap_Iterator@PAVCListenerReceive@@PAV1@@@@@QAE@XZ ; has WINAPI (@0)
; public: __thiscall <class <class CListenerSend *,class CListenerSend *>>::~<class <class CListenerSend *,class CListenerSend *>>(void)
??1?$AutoDelete@V?$SafeMap_Iterator@PAVCListenerSend@@PAV1@@@@@QAE@XZ ; has WINAPI (@0)
; public: __thiscall <class <class CListenerSignal *,class CListenerSignal *>>::~<class <class CListenerSignal *,class CListenerSignal *>>(void)
??1?$AutoDelete@V?$SafeMap_Iterator@PAVCListenerSignal@@PAV1@@@@@QAE@XZ ; has WINAPI (@0)
; public: __thiscall <class <class GuidKey,class CListenerCommand *>>::~<class <class GuidKey,class CListenerCommand *>>(void)
??1?$AutoDelete@V?$SafeMap_Iterator@VGuidKey@@PAVCListenerCommand@@@@@@QAE@XZ ; has WINAPI (@0)
; public: __thiscall <class <class StringKeyCI,unsigned long>>::~<class <class StringKeyCI,unsigned long>>(void)
??1?$AutoDelete@V?$SafeMap_Iterator@VStringKeyCI@@K@@@@QAE@XZ ; has WINAPI (@0)
; public: __thiscall <class <enum WSManSessionOption,class WSMan::Client::SessionOptions::OptionValue *>>::~<class <enum WSManSessionOption,class WSMan::Client::SessionOptions::OptionValue *>>(void)
??1?$AutoDelete@V?$SafeMap_Iterator@W4WSManSessionOption@@PAVOptionValue@SessionOptions@Client@WSMan@@@@@@QAE@XZ ; has WINAPI (@0)
; public: __thiscall <class <class CCertMapping *>>::~<class <class CCertMapping *>>(void)
??1?$AutoDelete@V?$SafeSet@PAVCCertMapping@@@@@@QAE@XZ ; has WINAPI (@0)
; public: __thiscall <class <class CShellUriSettings *>>::~<class <class CShellUriSettings *>>(void)
??1?$AutoDelete@V?$SafeSet@PAVCShellUriSettings@@@@@@QAE@XZ ; has WINAPI (@0)
; public: __thiscall <class <class CListenerOperation *>>::~<class <class CListenerOperation *>>(void)
??1?$AutoDelete@V?$SafeSet_Iterator@PAVCListenerOperation@@@@@@QAE@XZ ; has WINAPI (@0)
; public: __thiscall <class <class Collector *>>::~<class <class Collector *>>(void)
??1?$AutoDelete@V?$SafeSet_Iterator@PAVCollector@@@@@@QAE@XZ ; has WINAPI (@0)
; public: __thiscall <class <class HostOperation *>>::~<class <class HostOperation *>>(void)
??1?$AutoDelete@V?$SafeSet_Iterator@PAVHostOperation@@@@@@QAE@XZ ; has WINAPI (@0)
; public: __thiscall <class <class ListenerSourceSubscription *>>::~<class <class ListenerSourceSubscription *>>(void)
??1?$AutoDelete@V?$SafeSet_Iterator@PAVListenerSourceSubscription@@@@@@QAE@XZ ; has WINAPI (@0)
; public: __thiscall <class <class CListenerOperation>>::~<class <class CListenerOperation>>(void)
??1?$AutoDelete@V?$SimpleStack@VCListenerOperation@@@@@@QAE@XZ ; has WINAPI (@0)
; public: __thiscall <class <class ShellHostEntry>>::~<class <class ShellHostEntry>>(void)
??1?$AutoDelete@V?$SimpleStack@VShellHostEntry@@@@@@QAE@XZ ; has WINAPI (@0)
; public: __thiscall <class std::<struct _WSMAN_PUBLISHER_EVENT_STRUCT *,class std::<struct _WSMAN_PUBLISHER_EVENT_STRUCT *,class <struct _WSMAN_PUBLISHER_EVENT_STRUCT *>>>>::~<class std::<struct _WSMAN_PUBLISHER_EVENT_STRUCT *,class std::<struct _WSMAN_PUBLISHER_EVENT_STRUCT *,class <struct _WSMAN_PUBLISHER_EVENT_STRUCT *>>>>(void)
??1?$AutoDelete@V?$queue@PAU_WSMAN_PUBLISHER_EVENT_STRUCT@@V?$deque@PAU_WSMAN_PUBLISHER_EVENT_STRUCT@@V?$transport_allocator@PAU_WSMAN_PUBLISHER_EVENT_STRUCT@@@@@std@@@std@@@@QAE@XZ ; has WINAPI (@0)
; public: __thiscall <class std::<class CListenerSettings *,class CServiceConfigSettings::CListenerSettingsLessFunctor,class <class CListenerSettings *>>>::~<class std::<class CListenerSettings *,class CServiceConfigSettings::CListenerSettingsLessFunctor,class <class CListenerSettings *>>>(void)
??1?$AutoDelete@V?$set@PAVCListenerSettings@@VCListenerSettingsLessFunctor@CServiceConfigSettings@@V?$transport_allocator@PAVCListenerSettings@@@@@std@@@@QAE@XZ ; has WINAPI (@0)
; public: __thiscall <class std::<struct sockaddr_storage,class CListenerSettings::SockAddrLessFunctor,class <struct sockaddr_storage>>>::~<class std::<struct sockaddr_storage,class CListenerSettings::SockAddrLessFunctor,class <struct sockaddr_storage>>>(void)
??1?$AutoDelete@V?$set@Usockaddr_storage@@VSockAddrLessFunctor@CListenerSettings@@V?$transport_allocator@Usockaddr_storage@@@@@std@@@@QAE@XZ ; has WINAPI (@0)
; public: __thiscall <class std::<class CWSManRequest *,class <class CWSManRequest *>>>::~<class std::<class CWSManRequest *,class <class CWSManRequest *>>>(void)
??1?$AutoDelete@V?$vector@PAVCWSManRequest@@V?$transport_allocator@PAVCWSManRequest@@@@@std@@@@QAE@XZ ; has WINAPI (@0)
; public: __thiscall <class std::<class WSMan::Client::HandleImpl *,class <class WSMan::Client::HandleImpl *>>>::~<class std::<class WSMan::Client::HandleImpl *,class <class WSMan::Client::HandleImpl *>>>(void)
??1?$AutoDelete@V?$vector@PAVHandleImpl@Client@WSMan@@V?$transport_allocator@PAVHandleImpl@Client@WSMan@@@@@std@@@@QAE@XZ ; has WINAPI (@0)
; public: __thiscall <class std::<class IServiceConfigObserver *,class <class IServiceConfigObserver *>>>::~<class std::<class IServiceConfigObserver *,class <class IServiceConfigObserver *>>>(void)
??1?$AutoDelete@V?$vector@PAVIServiceConfigObserver@@V?$transport_allocator@PAVIServiceConfigObserver@@@@@std@@@@QAE@XZ ; has WINAPI (@0)
; public: __thiscall <class std::<class WSManHttpSenderConnection *,class <class WSManHttpSenderConnection *>>>::~<class std::<class WSManHttpSenderConnection *,class <class WSManHttpSenderConnection *>>>(void)
??1?$AutoDelete@V?$vector@PAVWSManHttpSenderConnection@@V?$transport_allocator@PAVWSManHttpSenderConnection@@@@@std@@@@QAE@XZ ; has WINAPI (@0)
; public: __thiscall <class CSecurity::AdminSid>::~<class CSecurity::AdminSid>(void)
??1?$AutoDelete@VAdminSid@CSecurity@@@@QAE@XZ ; has WINAPI (@0)
; public: __thiscall <class BlockedRecord>::~<class BlockedRecord>(void)
??1?$AutoDelete@VBlockedRecord@@@@QAE@XZ ; has WINAPI (@0)
; public: __thiscall <class CBaseConfigCache>::~<class CBaseConfigCache>(void)
??1?$AutoDelete@VCBaseConfigCache@@@@QAE@XZ ; has WINAPI (@0)
; public: __thiscall <class CCertMapping>::~<class CCertMapping>(void)
??1?$AutoDelete@VCCertMapping@@@@QAE@XZ ; has WINAPI (@0)
; public: __thiscall <class CConfigChangeSource>::~<class CConfigChangeSource>(void)
??1?$AutoDelete@VCConfigChangeSource@@@@QAE@XZ ; has WINAPI (@0)
; public: __thiscall <class CListenerSettings>::~<class CListenerSettings>(void)
??1?$AutoDelete@VCListenerSettings@@@@QAE@XZ ; has WINAPI (@0)
; public: __thiscall <class CObserverConfigChangeErrors>::~<class CObserverConfigChangeErrors>(void)
??1?$AutoDelete@VCObserverConfigChangeErrors@@@@QAE@XZ ; has WINAPI (@0)
; public: __thiscall <class CServiceConfigCache::CServiceWatcher>::~<class CServiceConfigCache::CServiceWatcher>(void)
??1?$AutoDelete@VCServiceWatcher@CServiceConfigCache@@@@QAE@XZ ; has WINAPI (@0)
; public: __thiscall <class CShellUriSettings>::~<class CShellUriSettings>(void)
??1?$AutoDelete@VCShellUriSettings@@@@QAE@XZ ; has WINAPI (@0)
; public: __thiscall <class CWSManEPR>::~<class CWSManEPR>(void)
??1?$AutoDelete@VCWSManEPR@@@@QAE@XZ ; has WINAPI (@0)
; public: __thiscall <class CWSManResource>::~<class CWSManResource>(void)
??1?$AutoDelete@VCWSManResource@@@@QAE@XZ ; has WINAPI (@0)
; public: __thiscall <class CertHash>::~<class CertHash>(void)
??1?$AutoDelete@VCertHash@@@@QAE@XZ ; has WINAPI (@0)
; public: __thiscall <class ConfigUpdate>::~<class ConfigUpdate>(void)
??1?$AutoDelete@VConfigUpdate@@@@QAE@XZ ; has WINAPI (@0)
; public: __thiscall <class CredUIDllLoader>::~<class CredUIDllLoader>(void)
??1?$AutoDelete@VCredUIDllLoader@@@@QAE@XZ ; has WINAPI (@0)
; public: __thiscall <class EnumSinkEx>::~<class EnumSinkEx>(void)
??1?$AutoDelete@VEnumSinkEx@@@@QAE@XZ ; has WINAPI (@0)
; public: __thiscall <class WSMan::EventHandler>::~<class WSMan::EventHandler>(void)
??1?$AutoDelete@VEventHandler@WSMan@@@@QAE@XZ ; has WINAPI (@0)
; public: __thiscall <class ExpiredOperationIdRecord>::~<class ExpiredOperationIdRecord>(void)
??1?$AutoDelete@VExpiredOperationIdRecord@@@@QAE@XZ ; has WINAPI (@0)
; public: __thiscall <class GPApiManager>::~<class GPApiManager>(void)
??1?$AutoDelete@VGPApiManager@@@@QAE@XZ ; has WINAPI (@0)
; public: __thiscall <class GeneralSinkEx>::~<class GeneralSinkEx>(void)
??1?$AutoDelete@VGeneralSinkEx@@@@QAE@XZ ; has WINAPI (@0)
; public: __thiscall <class IChannelObserverFactory>::~<class IChannelObserverFactory>(void)
??1?$AutoDelete@VIChannelObserverFactory@@@@QAE@XZ ; has WINAPI (@0)
; public: __thiscall <class IQueryDASHSMASHInterface>::~<class IQueryDASHSMASHInterface>(void)
??1?$AutoDelete@VIQueryDASHSMASHInterface@@@@QAE@XZ ; has WINAPI (@0)
; public: __thiscall <class ISpecification>::~<class ISpecification>(void)
??1?$AutoDelete@VISpecification@@@@QAE@XZ ; has WINAPI (@0)
; public: __thiscall <class CSecurity::InteractiveSid>::~<class CSecurity::InteractiveSid>(void)
??1?$AutoDelete@VInteractiveSid@CSecurity@@@@QAE@XZ ; has WINAPI (@0)
; public: __thiscall <class IpHlpApiDllLoader>::~<class IpHlpApiDllLoader>(void)
??1?$AutoDelete@VIpHlpApiDllLoader@@@@QAE@XZ ; has WINAPI (@0)
; public: __thiscall <class MachineName>::~<class MachineName>(void)
??1?$AutoDelete@VMachineName@@@@QAE@XZ ; has WINAPI (@0)
; public: __thiscall <class CListenerReceive::MasterReceiveData>::~<class CListenerReceive::MasterReceiveData>(void)
??1?$AutoDelete@VMasterReceiveData@CListenerReceive@@@@QAE@XZ ; has WINAPI (@0)
; public: __thiscall <class CSecurity::NetworkServiceSid>::~<class CSecurity::NetworkServiceSid>(void)
??1?$AutoDelete@VNetworkServiceSid@CSecurity@@@@QAE@XZ ; has WINAPI (@0)
; public: __thiscall <class NtDsApiDllLoader>::~<class NtDsApiDllLoader>(void)
??1?$AutoDelete@VNtDsApiDllLoader@@@@QAE@XZ ; has WINAPI (@0)
; public: __thiscall <class WSMan::Client::SessionOptions::OptionValue>::~<class WSMan::Client::SessionOptions::OptionValue>(void)
??1?$AutoDelete@VOptionValue@SessionOptions@Client@WSMan@@@@QAE@XZ ; has WINAPI (@0)
; public: __thiscall <class PacketCreator>::~<class PacketCreator>(void)
??1?$AutoDelete@VPacketCreator@@@@QAE@XZ ; has WINAPI (@0)
; public: __thiscall <class PacketParser>::~<class PacketParser>(void)
??1?$AutoDelete@VPacketParser@@@@QAE@XZ ; has WINAPI (@0)
; public: __thiscall <class Locale::Resources>::~<class Locale::Resources>(void)
??1?$AutoDelete@VResources@Locale@@@@QAE@XZ ; has WINAPI (@0)
; public: __thiscall <class RunAsConfiguration>::~<class RunAsConfiguration>(void)
??1?$AutoDelete@VRunAsConfiguration@@@@QAE@XZ ; has WINAPI (@0)
; public: __thiscall <class Catalog::SecurityEntry>::~<class Catalog::SecurityEntry>(void)
??1?$AutoDelete@VSecurityEntry@Catalog@@@@QAE@XZ ; has WINAPI (@0)
; public: __thiscall <class RobustConnectionBuffer::SendPacketArgs>::~<class RobustConnectionBuffer::SendPacketArgs>(void)
??1?$AutoDelete@VSendPacketArgs@RobustConnectionBuffer@@@@QAE@XZ ; has WINAPI (@0)
; public: __thiscall <class ServiceSoapProcessor>::~<class ServiceSoapProcessor>(void)
??1?$AutoDelete@VServiceSoapProcessor@@@@QAE@XZ ; has WINAPI (@0)
; public: __thiscall <class Shell32DllLoader>::~<class Shell32DllLoader>(void)
??1?$AutoDelete@VShell32DllLoader@@@@QAE@XZ ; has WINAPI (@0)
; public: __thiscall <class ShlWApiDllLoader>::~<class ShlWApiDllLoader>(void)
??1?$AutoDelete@VShlWApiDllLoader@@@@QAE@XZ ; has WINAPI (@0)
; public: __thiscall <class SubscriptionEnumerator>::~<class SubscriptionEnumerator>(void)
??1?$AutoDelete@VSubscriptionEnumerator@@@@QAE@XZ ; has WINAPI (@0)
; public: __thiscall <class SubscriptionManager>::~<class SubscriptionManager>(void)
??1?$AutoDelete@VSubscriptionManager@@@@QAE@XZ ; has WINAPI (@0)
; public: __thiscall <class TSTRBUFFER>::~<class TSTRBUFFER>(void)
??1?$AutoDelete@VTSTRBUFFER@@@@QAE@XZ ; has WINAPI (@0)
; public: __thiscall <class UniqueStringOverflow>::~<class UniqueStringOverflow>(void)
??1?$AutoDelete@VUniqueStringOverflow@@@@QAE@XZ ; has WINAPI (@0)
; public: __thiscall <class User32DllLoader>::~<class User32DllLoader>(void)
??1?$AutoDelete@VUser32DllLoader@@@@QAE@XZ ; has WINAPI (@0)
; public: __thiscall <class WSMANCONFIGTABLE_IDENTITY>::~<class WSMANCONFIGTABLE_IDENTITY>(void)
??1?$AutoDelete@VWSMANCONFIGTABLE_IDENTITY@@@@QAE@XZ ; has WINAPI (@0)
; public: __thiscall <class WSManMemCryptManager>::~<class WSManMemCryptManager>(void)
??1?$AutoDelete@VWSManMemCryptManager@@@@QAE@XZ ; has WINAPI (@0)
; public: __thiscall <class WmiEnumContext>::~<class WmiEnumContext>(void)
??1?$AutoDelete@VWmiEnumContext@@@@QAE@XZ ; has WINAPI (@0)
; public: __thiscall <class XmlReader>::~<class XmlReader>(void)
??1?$AutoDelete@VXmlReader@@@@QAE@XZ ; has WINAPI (@0)
; public: __thiscall <unsigned short const>::~<unsigned short const>(void)
??1?$AutoDeleteVector@$$CBG@@QAE@XZ ; has WINAPI (@0)
; public: __thiscall <char>::~<char>(void)
??1?$AutoDeleteVector@D@@QAE@XZ ; has WINAPI (@0)
; public: __thiscall <unsigned char>::~<unsigned char>(void)
??1?$AutoDeleteVector@E@@QAE@XZ ; has WINAPI (@0)
; public: __thiscall <unsigned short>::~<unsigned short>(void)
??1?$AutoDeleteVector@G@@QAE@XZ ; has WINAPI (@0)
; public: __thiscall <int>::~<int>(void)
??1?$AutoDeleteVector@H@@QAE@XZ ; has WINAPI (@0)
; public: __thiscall <unsigned short *>::~<unsigned short *>(void)
??1?$AutoDeleteVector@PAG@@QAE@XZ ; has WINAPI (@0)
; public: __thiscall <unsigned short const *>::~<unsigned short const *>(void)
??1?$AutoDeleteVector@PBG@@QAE@XZ ; has WINAPI (@0)
; public: __thiscall <struct _CONFIG_UPDATE>::~<struct _CONFIG_UPDATE>(void)
??1?$AutoDeleteVector@U_CONFIG_UPDATE@@@@QAE@XZ ; has WINAPI (@0)
; public: __thiscall <struct _WINRS_CREATE_SHELL_ENVIRONMENT_VARIABLE>::~<struct _WINRS_CREATE_SHELL_ENVIRONMENT_VARIABLE>(void)
??1?$AutoDeleteVector@U_WINRS_CREATE_SHELL_ENVIRONMENT_VARIABLE@@@@QAE@XZ ; has WINAPI (@0)
; public: __thiscall <struct _WINRS_RUN_COMMAND_ARG>::~<struct _WINRS_RUN_COMMAND_ARG>(void)
??1?$AutoDeleteVector@U_WINRS_RUN_COMMAND_ARG@@@@QAE@XZ ; has WINAPI (@0)
; public: __thiscall <struct _WSMAN_OPTION>::~<struct _WSMAN_OPTION>(void)
??1?$AutoDeleteVector@U_WSMAN_OPTION@@@@QAE@XZ ; has WINAPI (@0)
; public: __thiscall <void>::~<void>(void)
??1?$AutoDeleteVector@X@@QAE@XZ ; has WINAPI (@0)
; public: __thiscall <unsigned char>::~<unsigned char>(void)
??1?$AutoFree@E@@QAE@XZ ; has WINAPI (@0)
; public: __thiscall <class Packet>::~<class Packet>(void)
??1?$AutoLocklessItemRecycle@VPacket@@@@QAE@XZ ; has WINAPI (@0)
; public: __thiscall <struct IAppHostAdminManager>::~<struct IAppHostAdminManager>(void)
??1?$AutoRelease@UIAppHostAdminManager@@@@QAE@XZ ; has WINAPI (@0)
; public: __thiscall <struct IAppHostChildElementCollection>::~<struct IAppHostChildElementCollection>(void)
??1?$AutoRelease@UIAppHostChildElementCollection@@@@QAE@XZ ; has WINAPI (@0)
; public: __thiscall <struct IAppHostConfigException>::~<struct IAppHostConfigException>(void)
??1?$AutoRelease@UIAppHostConfigException@@@@QAE@XZ ; has WINAPI (@0)
; public: __thiscall <struct IAppHostElement>::~<struct IAppHostElement>(void)
??1?$AutoRelease@UIAppHostElement@@@@QAE@XZ ; has WINAPI (@0)
; public: __thiscall <struct IAppHostElementCollection>::~<struct IAppHostElementCollection>(void)
??1?$AutoRelease@UIAppHostElementCollection@@@@QAE@XZ ; has WINAPI (@0)
; public: __thiscall <struct IAppHostProperty>::~<struct IAppHostProperty>(void)
??1?$AutoRelease@UIAppHostProperty@@@@QAE@XZ ; has WINAPI (@0)
; public: __thiscall <struct IAppHostPropertyCollection>::~<struct IAppHostPropertyCollection>(void)
??1?$AutoRelease@UIAppHostPropertyCollection@@@@QAE@XZ ; has WINAPI (@0)
; public: __thiscall <struct IClientSecurity>::~<struct IClientSecurity>(void)
??1?$AutoRelease@UIClientSecurity@@@@QAE@XZ ; has WINAPI (@0)
; public: __thiscall <struct IEnumWbemClassObject>::~<struct IEnumWbemClassObject>(void)
??1?$AutoRelease@UIEnumWbemClassObject@@@@QAE@XZ ; has WINAPI (@0)
; public: __thiscall <struct IErrorInfo>::~<struct IErrorInfo>(void)
??1?$AutoRelease@UIErrorInfo@@@@QAE@XZ ; has WINAPI (@0)
; public: __thiscall <struct IUnknown>::~<struct IUnknown>(void)
??1?$AutoRelease@UIUnknown@@@@QAE@XZ ; has WINAPI (@0)
; public: __thiscall <struct IWbemClassObject>::~<struct IWbemClassObject>(void)
??1?$AutoRelease@UIWbemClassObject@@@@QAE@XZ ; has WINAPI (@0)
; public: __thiscall <struct IWbemContext>::~<struct IWbemContext>(void)
??1?$AutoRelease@UIWbemContext@@@@QAE@XZ ; has WINAPI (@0)
; public: __thiscall <struct IWbemLocator>::~<struct IWbemLocator>(void)
??1?$AutoRelease@UIWbemLocator@@@@QAE@XZ ; has WINAPI (@0)
; public: __thiscall <struct IWbemObjectTextSrc>::~<struct IWbemObjectTextSrc>(void)
??1?$AutoRelease@UIWbemObjectTextSrc@@@@QAE@XZ ; has WINAPI (@0)
; public: __thiscall <struct IWbemPath>::~<struct IWbemPath>(void)
??1?$AutoRelease@UIWbemPath@@@@QAE@XZ ; has WINAPI (@0)
; public: __thiscall <struct IWbemPathKeyList>::~<struct IWbemPathKeyList>(void)
??1?$AutoRelease@UIWbemPathKeyList@@@@QAE@XZ ; has WINAPI (@0)
; public: __thiscall <struct IWbemQualifierSet>::~<struct IWbemQualifierSet>(void)
??1?$AutoRelease@UIWbemQualifierSet@@@@QAE@XZ ; has WINAPI (@0)
; public: __thiscall <struct IWbemQuery>::~<struct IWbemQuery>(void)
??1?$AutoRelease@UIWbemQuery@@@@QAE@XZ ; has WINAPI (@0)
; public: __thiscall <struct IWbemServices>::~<struct IWbemServices>(void)
??1?$AutoRelease@UIWbemServices@@@@QAE@XZ ; has WINAPI (@0)
; public: __thiscall <class WSMan::Client::Application>::~<class WSMan::Client::Application>(void)
??1?$AutoRelease@VApplication@Client@WSMan@@@@QAE@XZ ; has WINAPI (@0)
; public: __thiscall <class CBaseConfigCache>::~<class CBaseConfigCache>(void)
??1?$AutoRelease@VCBaseConfigCache@@@@QAE@XZ ; has WINAPI (@0)
; public: __thiscall <class CClientConfigCache>::~<class CClientConfigCache>(void)
??1?$AutoRelease@VCClientConfigCache@@@@QAE@XZ ; has WINAPI (@0)
; public: __thiscall <class CClientConfigSettings>::~<class CClientConfigSettings>(void)
??1?$AutoRelease@VCClientConfigSettings@@@@QAE@XZ ; has WINAPI (@0)
; public: __thiscall <class CCommonConfigSettings>::~<class CCommonConfigSettings>(void)
??1?$AutoRelease@VCCommonConfigSettings@@@@QAE@XZ ; has WINAPI (@0)
; public: __thiscall <class CBaseConfigCache::CConfigCacheMap>::~<class CBaseConfigCache::CConfigCacheMap>(void)
??1?$AutoRelease@VCConfigCacheMap@CBaseConfigCache@@@@QAE@XZ ; has WINAPI (@0)
; public: __thiscall <class CConfigManager>::~<class CConfigManager>(void)
??1?$AutoRelease@VCConfigManager@@@@QAE@XZ ; has WINAPI (@0)
; public: __thiscall <class CListenerCommand>::~<class CListenerCommand>(void)
??1?$AutoRelease@VCListenerCommand@@@@QAE@XZ ; has WINAPI (@0)
; public: __thiscall <class CListenerMasterOperation>::~<class CListenerMasterOperation>(void)
??1?$AutoRelease@VCListenerMasterOperation@@@@QAE@XZ ; has WINAPI (@0)
; public: __thiscall <class CListenerReceive>::~<class CListenerReceive>(void)
??1?$AutoRelease@VCListenerReceive@@@@QAE@XZ ; has WINAPI (@0)
; public: __thiscall <class CListenerShell>::~<class CListenerShell>(void)
??1?$AutoRelease@VCListenerShell@@@@QAE@XZ ; has WINAPI (@0)
; public: __thiscall <class CRemoteOperation>::~<class CRemoteOperation>(void)
??1?$AutoRelease@VCRemoteOperation@@@@QAE@XZ ; has WINAPI (@0)
; public: __thiscall <class CRemoteSession>::~<class CRemoteSession>(void)
??1?$AutoRelease@VCRemoteSession@@@@QAE@XZ ; has WINAPI (@0)
; public: __thiscall <class CRequestContext>::~<class CRequestContext>(void)
??1?$AutoRelease@VCRequestContext@@@@QAE@XZ ; has WINAPI (@0)
; public: __thiscall <class CServiceCommonConfigSettings>::~<class CServiceCommonConfigSettings>(void)
??1?$AutoRelease@VCServiceCommonConfigSettings@@@@QAE@XZ ; has WINAPI (@0)
; public: __thiscall <class CServiceConfigCache>::~<class CServiceConfigCache>(void)
??1?$AutoRelease@VCServiceConfigCache@@@@QAE@XZ ; has WINAPI (@0)
; public: __thiscall <class CServiceConfigSettings>::~<class CServiceConfigSettings>(void)
??1?$AutoRelease@VCServiceConfigSettings@@@@QAE@XZ ; has WINAPI (@0)
; public: __thiscall <class CWSManEPR>::~<class CWSManEPR>(void)
??1?$AutoRelease@VCWSManEPR@@@@QAE@XZ ; has WINAPI (@0)
; public: __thiscall <class CWSManGroupPolicyCache>::~<class CWSManGroupPolicyCache>(void)
??1?$AutoRelease@VCWSManGroupPolicyCache@@@@QAE@XZ ; has WINAPI (@0)
; public: __thiscall <class CWSManGroupPolicyManager>::~<class CWSManGroupPolicyManager>(void)
??1?$AutoRelease@VCWSManGroupPolicyManager@@@@QAE@XZ ; has WINAPI (@0)
; public: __thiscall <class CWSManObject>::~<class CWSManObject>(void)
??1?$AutoRelease@VCWSManObject@@@@QAE@XZ ; has WINAPI (@0)
; public: __thiscall <class CWSManResource>::~<class CWSManResource>(void)
??1?$AutoRelease@VCWSManResource@@@@QAE@XZ ; has WINAPI (@0)
; public: __thiscall <class CWSManSession>::~<class CWSManSession>(void)
??1?$AutoRelease@VCWSManSession@@@@QAE@XZ ; has WINAPI (@0)
; public: __thiscall <class CWinRSPluginConfigCache>::~<class CWinRSPluginConfigCache>(void)
??1?$AutoRelease@VCWinRSPluginConfigCache@@@@QAE@XZ ; has WINAPI (@0)
; public: __thiscall <class CWinRSPluginConfigSettings>::~<class CWinRSPluginConfigSettings>(void)
??1?$AutoRelease@VCWinRSPluginConfigSettings@@@@QAE@XZ ; has WINAPI (@0)
; public: __thiscall <class WSMan::Client::Command>::~<class WSMan::Client::Command>(void)
??1?$AutoRelease@VCommand@Client@WSMan@@@@QAE@XZ ; has WINAPI (@0)
; public: __thiscall <class ConfigNotification>::~<class ConfigNotification>(void)
??1?$AutoRelease@VConfigNotification@@@@QAE@XZ ; has WINAPI (@0)
; public: __thiscall <class WSMan::Client::ConnectShellOperation>::~<class WSMan::Client::ConnectShellOperation>(void)
??1?$AutoRelease@VConnectShellOperation@Client@WSMan@@@@QAE@XZ ; has WINAPI (@0)
; public: __thiscall <class WSMan::Client::CreateShellOperation>::~<class WSMan::Client::CreateShellOperation>(void)
??1?$AutoRelease@VCreateShellOperation@Client@WSMan@@@@QAE@XZ ; has WINAPI (@0)
; public: __thiscall <class WSMan::Client::DeleteShellOperation>::~<class WSMan::Client::DeleteShellOperation>(void)
??1?$AutoRelease@VDeleteShellOperation@Client@WSMan@@@@QAE@XZ ; has WINAPI (@0)
; public: __thiscall <class WSMan::Client::DisconnectOperation>::~<class WSMan::Client::DisconnectOperation>(void)
??1?$AutoRelease@VDisconnectOperation@Client@WSMan@@@@QAE@XZ ; has WINAPI (@0)
; public: __thiscall <class EnumSinkEx>::~<class EnumSinkEx>(void)
??1?$AutoRelease@VEnumSinkEx@@@@QAE@XZ ; has WINAPI (@0)
; public: __thiscall <class GeneralSinkEx>::~<class GeneralSinkEx>(void)
??1?$AutoRelease@VGeneralSinkEx@@@@QAE@XZ ; has WINAPI (@0)
; public: __thiscall <class HostMappingTable>::~<class HostMappingTable>(void)
??1?$AutoRelease@VHostMappingTable@@@@QAE@XZ ; has WINAPI (@0)
; public: __thiscall <class IISConfigSettings>::~<class IISConfigSettings>(void)
??1?$AutoRelease@VIISConfigSettings@@@@QAE@XZ ; has WINAPI (@0)
; public: __thiscall <class IPCSoapProcessor>::~<class IPCSoapProcessor>(void)
??1?$AutoRelease@VIPCSoapProcessor@@@@QAE@XZ ; has WINAPI (@0)
; public: __thiscall <class IRequestContext>::~<class IRequestContext>(void)
??1?$AutoRelease@VIRequestContext@@@@QAE@XZ ; has WINAPI (@0)
; public: __thiscall <class ISubscription>::~<class ISubscription>(void)
??1?$AutoRelease@VISubscription@@@@QAE@XZ ; has WINAPI (@0)
; public: __thiscall <class InboundRequestDetails>::~<class InboundRequestDetails>(void)
??1?$AutoRelease@VInboundRequestDetails@@@@QAE@XZ ; has WINAPI (@0)
; public: __thiscall <class WSMan::Client::ProxyManager>::~<class WSMan::Client::ProxyManager>(void)
??1?$AutoRelease@VProxyManager@Client@WSMan@@@@QAE@XZ ; has WINAPI (@0)
; public: __thiscall <class WSMan::Client::ProxySelection>::~<class WSMan::Client::ProxySelection>(void)
??1?$AutoRelease@VProxySelection@Client@WSMan@@@@QAE@XZ ; has WINAPI (@0)
; public: __thiscall <class PushSubscribeOperation>::~<class PushSubscribeOperation>(void)
??1?$AutoRelease@VPushSubscribeOperation@@@@QAE@XZ ; has WINAPI (@0)
; public: __thiscall <class PushSubscription>::~<class PushSubscription>(void)
??1?$AutoRelease@VPushSubscription@@@@QAE@XZ ; has WINAPI (@0)
; public: __thiscall <class WSMan::Client::ReceiveOperation>::~<class WSMan::Client::ReceiveOperation>(void)
??1?$AutoRelease@VReceiveOperation@Client@WSMan@@@@QAE@XZ ; has WINAPI (@0)
; public: __thiscall <class WSMan::Client::ReconnectOperation>::~<class WSMan::Client::ReconnectOperation>(void)
??1?$AutoRelease@VReconnectOperation@Client@WSMan@@@@QAE@XZ ; has WINAPI (@0)
; public: __thiscall <class WSMan::Client::SendOperation>::~<class WSMan::Client::SendOperation>(void)
??1?$AutoRelease@VSendOperation@Client@WSMan@@@@QAE@XZ ; has WINAPI (@0)
; public: __thiscall <class WSMan::Client::Shell>::~<class WSMan::Client::Shell>(void)
??1?$AutoRelease@VShell@Client@WSMan@@@@QAE@XZ ; has WINAPI (@0)
; public: __thiscall <class ShellInfo>::~<class ShellInfo>(void)
??1?$AutoRelease@VShellInfo@@@@QAE@XZ ; has WINAPI (@0)
; public: __thiscall <class WSMan::Client::SignalOperation>::~<class WSMan::Client::SignalOperation>(void)
??1?$AutoRelease@VSignalOperation@Client@WSMan@@@@QAE@XZ ; has WINAPI (@0)
; public: __thiscall <class UserRecord>::~<class UserRecord>(void)
??1?$AutoRelease@VUserRecord@@@@QAE@XZ ; has WINAPI (@0)
; public: __thiscall <class WSManHttpListener>::~<class WSManHttpListener>(void)
??1?$AutoRelease@VWSManHttpListener@@@@QAE@XZ ; has WINAPI (@0)
; public: __thiscall <class HostMappingTableEntry>::~<class HostMappingTableEntry>(void)
??1?$AutoReleaseEx@VHostMappingTableEntry@@@@QAE@XZ ; has WINAPI (@0)
; public: __thiscall <class WSMan::Client::Shell>::~<class WSMan::Client::Shell>(void)
??1?$AutoReleaseEx@VShell@Client@WSMan@@@@QAE@XZ ; has WINAPI (@0)
; public: __thiscall <class CSecurity::AdminSid>::~<class CSecurity::AdminSid>(void)
??1?$ILoader@VAdminSid@CSecurity@@@@QAE@XZ ; has WINAPI (@0)
; public: __thiscall <class CredUIDllLoader>::~<class CredUIDllLoader>(void)
??1?$ILoader@VCredUIDllLoader@@@@QAE@XZ ; has WINAPI (@0)
; public: __thiscall <class WSMan::EventHandler>::~<class WSMan::EventHandler>(void)
??1?$ILoader@VEventHandler@WSMan@@@@QAE@XZ ; has WINAPI (@0)
; public: __thiscall <class CSecurity::InteractiveSid>::~<class CSecurity::InteractiveSid>(void)
??1?$ILoader@VInteractiveSid@CSecurity@@@@QAE@XZ ; has WINAPI (@0)
; public: __thiscall <class IpHlpApiDllLoader>::~<class IpHlpApiDllLoader>(void)
??1?$ILoader@VIpHlpApiDllLoader@@@@QAE@XZ ; has WINAPI (@0)
; public: __thiscall <class MachineName>::~<class MachineName>(void)
??1?$ILoader@VMachineName@@@@QAE@XZ ; has WINAPI (@0)
; public: __thiscall <class CSecurity::NetworkServiceSid>::~<class CSecurity::NetworkServiceSid>(void)
??1?$ILoader@VNetworkServiceSid@CSecurity@@@@QAE@XZ ; has WINAPI (@0)
; public: __thiscall <class NtDsApiDllLoader>::~<class NtDsApiDllLoader>(void)
??1?$ILoader@VNtDsApiDllLoader@@@@QAE@XZ ; has WINAPI (@0)
; public: __thiscall <class Locale::Resources>::~<class Locale::Resources>(void)
??1?$ILoader@VResources@Locale@@@@QAE@XZ ; has WINAPI (@0)
; public: __thiscall <class Shell32DllLoader>::~<class Shell32DllLoader>(void)
??1?$ILoader@VShell32DllLoader@@@@QAE@XZ ; has WINAPI (@0)
; public: __thiscall <class ShlWApiDllLoader>::~<class ShlWApiDllLoader>(void)
??1?$ILoader@VShlWApiDllLoader@@@@QAE@XZ ; has WINAPI (@0)
; public: __thiscall <class SubscriptionManager>::~<class SubscriptionManager>(void)
??1?$ILoader@VSubscriptionManager@@@@QAE@XZ ; has WINAPI (@0)
; public: __thiscall <class User32DllLoader>::~<class User32DllLoader>(void)
??1?$ILoader@VUser32DllLoader@@@@QAE@XZ ; has WINAPI (@0)
; public: __thiscall <class WSManMemCryptManager>::~<class WSManMemCryptManager>(void)
??1?$ILoader@VWSManMemCryptManager@@@@QAE@XZ ; has WINAPI (@0)
; public: __thiscall <class CSecurity::AdminSid,0x1ULL>::~<class CSecurity::AdminSid,0x1ULL>(void)
??1?$Loader@VAdminSid@CSecurity@@$00@@QAE@XZ ; has WINAPI (@0)
; public: __thiscall <class CredUIDllLoader,0x1ULL>::~<class CredUIDllLoader,0x1ULL>(void)
??1?$Loader@VCredUIDllLoader@@$00@@QAE@XZ ; has WINAPI (@0)
; public: __thiscall <class WSMan::EventHandler,0x1ULL>::~<class WSMan::EventHandler,0x1ULL>(void)
??1?$Loader@VEventHandler@WSMan@@$00@@QAE@XZ ; has WINAPI (@0)
; public: __thiscall <class CSecurity::InteractiveSid,0x1ULL>::~<class CSecurity::InteractiveSid,0x1ULL>(void)
??1?$Loader@VInteractiveSid@CSecurity@@$00@@QAE@XZ ; has WINAPI (@0)
; public: __thiscall <class IpHlpApiDllLoader,0x1ULL>::~<class IpHlpApiDllLoader,0x1ULL>(void)
??1?$Loader@VIpHlpApiDllLoader@@$00@@QAE@XZ ; has WINAPI (@0)
; public: __thiscall <class MachineName,0x1ULL>::~<class MachineName,0x1ULL>(void)
??1?$Loader@VMachineName@@$00@@QAE@XZ ; has WINAPI (@0)
; public: __thiscall <class CSecurity::NetworkServiceSid,0x1ULL>::~<class CSecurity::NetworkServiceSid,0x1ULL>(void)
??1?$Loader@VNetworkServiceSid@CSecurity@@$00@@QAE@XZ ; has WINAPI (@0)
; public: __thiscall <class NtDsApiDllLoader,0x1ULL>::~<class NtDsApiDllLoader,0x1ULL>(void)
??1?$Loader@VNtDsApiDllLoader@@$00@@QAE@XZ ; has WINAPI (@0)
; public: __thiscall <class Locale::Resources,0x0ULL>::~<class Locale::Resources,0x0ULL>(void)
??1?$Loader@VResources@Locale@@$0A@@@QAE@XZ ; has WINAPI (@0)
; public: __thiscall <class Shell32DllLoader,0x1ULL>::~<class Shell32DllLoader,0x1ULL>(void)
??1?$Loader@VShell32DllLoader@@$00@@QAE@XZ ; has WINAPI (@0)
; public: __thiscall <class ShlWApiDllLoader,0x1ULL>::~<class ShlWApiDllLoader,0x1ULL>(void)
??1?$Loader@VShlWApiDllLoader@@$00@@QAE@XZ ; has WINAPI (@0)
; public: __thiscall <class SubscriptionManager,0x2ULL>::~<class SubscriptionManager,0x2ULL>(void)
??1?$Loader@VSubscriptionManager@@$01@@QAE@XZ ; has WINAPI (@0)
; public: __thiscall <class User32DllLoader,0x1ULL>::~<class User32DllLoader,0x1ULL>(void)
??1?$Loader@VUser32DllLoader@@$00@@QAE@XZ ; has WINAPI (@0)
; public: __thiscall <class WSManMemCryptManager,0x1ULL>::~<class WSManMemCryptManager,0x1ULL>(void)
??1?$Loader@VWSManMemCryptManager@@$00@@QAE@XZ ; has WINAPI (@0)
; public: __thiscall <class CSecurity::AdminSid,0x1ULL>::~<class CSecurity::AdminSid,0x1ULL>(void)
??1?$LoaderSerializer@VAdminSid@CSecurity@@$00@@QAE@XZ ; has WINAPI (@0)
; public: __thiscall <class CredUIDllLoader,0x1ULL>::~<class CredUIDllLoader,0x1ULL>(void)
??1?$LoaderSerializer@VCredUIDllLoader@@$00@@QAE@XZ ; has WINAPI (@0)
; public: __thiscall <class WSMan::EventHandler,0x1ULL>::~<class WSMan::EventHandler,0x1ULL>(void)
??1?$LoaderSerializer@VEventHandler@WSMan@@$00@@QAE@XZ ; has WINAPI (@0)
; public: __thiscall <class CSecurity::InteractiveSid,0x1ULL>::~<class CSecurity::InteractiveSid,0x1ULL>(void)
??1?$LoaderSerializer@VInteractiveSid@CSecurity@@$00@@QAE@XZ ; has WINAPI (@0)
; public: __thiscall <class IpHlpApiDllLoader,0x1ULL>::~<class IpHlpApiDllLoader,0x1ULL>(void)
??1?$LoaderSerializer@VIpHlpApiDllLoader@@$00@@QAE@XZ ; has WINAPI (@0)
; public: __thiscall <class MachineName,0x1ULL>::~<class MachineName,0x1ULL>(void)
??1?$LoaderSerializer@VMachineName@@$00@@QAE@XZ ; has WINAPI (@0)
; public: __thiscall <class CSecurity::NetworkServiceSid,0x1ULL>::~<class CSecurity::NetworkServiceSid,0x1ULL>(void)
??1?$LoaderSerializer@VNetworkServiceSid@CSecurity@@$00@@QAE@XZ ; has WINAPI (@0)
; public: __thiscall <class NtDsApiDllLoader,0x1ULL>::~<class NtDsApiDllLoader,0x1ULL>(void)
??1?$LoaderSerializer@VNtDsApiDllLoader@@$00@@QAE@XZ ; has WINAPI (@0)
; public: __thiscall <class Locale::Resources,0x0ULL>::~<class Locale::Resources,0x0ULL>(void)
??1?$LoaderSerializer@VResources@Locale@@$0A@@@QAE@XZ ; has WINAPI (@0)
; public: __thiscall <class Shell32DllLoader,0x1ULL>::~<class Shell32DllLoader,0x1ULL>(void)
??1?$LoaderSerializer@VShell32DllLoader@@$00@@QAE@XZ ; has WINAPI (@0)
; public: __thiscall <class ShlWApiDllLoader,0x1ULL>::~<class ShlWApiDllLoader,0x1ULL>(void)
??1?$LoaderSerializer@VShlWApiDllLoader@@$00@@QAE@XZ ; has WINAPI (@0)
; public: __thiscall <class SubscriptionManager,0x2ULL>::~<class SubscriptionManager,0x2ULL>(void)
??1?$LoaderSerializer@VSubscriptionManager@@$01@@QAE@XZ ; has WINAPI (@0)
; public: __thiscall <class User32DllLoader,0x1ULL>::~<class User32DllLoader,0x1ULL>(void)
??1?$LoaderSerializer@VUser32DllLoader@@$00@@QAE@XZ ; has WINAPI (@0)
; public: __thiscall <class WSManMemCryptManager,0x1ULL>::~<class WSManMemCryptManager,0x1ULL>(void)
??1?$LoaderSerializer@VWSManMemCryptManager@@$00@@QAE@XZ ; has WINAPI (@0)
; public: __thiscall <class CCertMapping *,struct Empty,class <class CCertMapping *>>::~<class CCertMapping *,struct Empty,class <class CCertMapping *>>(void)
??1?$SafeMap@PAVCCertMapping@@UEmpty@@V?$SafeSet_Iterator@PAVCCertMapping@@@@@@QAE@XZ ; has WINAPI (@0)
; public: __thiscall <class CListenerOperation *,struct Empty,class <class CListenerOperation *>>::~<class CListenerOperation *,struct Empty,class <class CListenerOperation *>>(void)
??1?$SafeMap@PAVCListenerOperation@@UEmpty@@V?$SafeSet_Iterator@PAVCListenerOperation@@@@@@QAE@XZ ; has WINAPI (@0)
; public: __thiscall <class CShellUriSettings *,struct Empty,class <class CShellUriSettings *>>::~<class CShellUriSettings *,struct Empty,class <class CShellUriSettings *>>(void)
??1?$SafeMap@PAVCShellUriSettings@@UEmpty@@V?$SafeSet_Iterator@PAVCShellUriSettings@@@@@@QAE@XZ ; has WINAPI (@0)
; public: __thiscall <class Collector *,struct Empty,class <class Collector *>>::~<class Collector *,struct Empty,class <class Collector *>>(void)
??1?$SafeMap@PAVCollector@@UEmpty@@V?$SafeSet_Iterator@PAVCollector@@@@@@QAE@XZ ; has WINAPI (@0)
; public: __thiscall <class HostOperation *,struct Empty,class <class HostOperation *>>::~<class HostOperation *,struct Empty,class <class HostOperation *>>(void)
??1?$SafeMap@PAVHostOperation@@UEmpty@@V?$SafeSet_Iterator@PAVHostOperation@@@@@@QAE@XZ ; has WINAPI (@0)
; public: __thiscall <class IOperation *,struct Empty,class <class IOperation *>>::~<class IOperation *,struct Empty,class <class IOperation *>>(void)
??1?$SafeMap@PAVIOperation@@UEmpty@@V?$SafeSet_Iterator@PAVIOperation@@@@@@QAE@XZ ; has WINAPI (@0)
; public: __thiscall <class ListenerSourceSubscription *,struct Empty,class <class ListenerSourceSubscription *>>::~<class ListenerSourceSubscription *,struct Empty,class <class ListenerSourceSubscription *>>(void)
??1?$SafeMap@PAVListenerSourceSubscription@@UEmpty@@V?$SafeSet_Iterator@PAVListenerSourceSubscription@@@@@@QAE@XZ ; has WINAPI (@0)
; public: __thiscall <class PushSubscription *,struct Empty,class <class PushSubscription *>>::~<class PushSubscription *,struct Empty,class <class PushSubscription *>>(void)
??1?$SafeMap@PAVPushSubscription@@UEmpty@@V?$SafeSet_Iterator@PAVPushSubscription@@@@@@QAE@XZ ; has WINAPI (@0)
; public: __thiscall <void *,struct Empty,class <void *>>::~<void *,struct Empty,class <void *>>(void)
??1?$SafeMap@PAXUEmpty@@V?$SafeSet_Iterator@PAX@@@@QAE@XZ ; has WINAPI (@0)
; public: __thiscall <struct PluginKey,unsigned long,class <struct PluginKey,unsigned long>>::~<struct PluginKey,unsigned long,class <struct PluginKey,unsigned long>>(void)
??1?$SafeMap@UPluginKey@@KV?$SafeMap_Iterator@UPluginKey@@K@@@@QAE@XZ ; has WINAPI (@0)
; public: __thiscall <struct UserKey,class BlockedRecord *,class <struct UserKey,class BlockedRecord *>>::~<struct UserKey,class BlockedRecord *,class <struct UserKey,class BlockedRecord *>>(void)
??1?$SafeMap@UUserKey@@PAVBlockedRecord@@V?$SafeMap_Iterator@UUserKey@@PAVBlockedRecord@@@@@@QAE@XZ ; has WINAPI (@0)
; public: __thiscall <class CertThumbprintKey,class CServiceConfigSettings::CertThumbprintMappedSet,class <class CertThumbprintKey,class CServiceConfigSettings::CertThumbprintMappedSet>>::~<class CertThumbprintKey,class CServiceConfigSettings::CertThumbprintMappedSet,class <class CertThumbprintKey,class CServiceConfigSettings::CertThumbprintMappedSet>>(void)
??1?$SafeMap@VCertThumbprintKey@@VCertThumbprintMappedSet@CServiceConfigSettings@@V?$SafeMap_Iterator@VCertThumbprintKey@@VCertThumbprintMappedSet@CServiceConfigSettings@@@@@@QAE@XZ ; has WINAPI (@0)
; public: __thiscall <class Locale::Key,unsigned long,class <class Locale::Key,unsigned long>>::~<class Locale::Key,unsigned long,class <class Locale::Key,unsigned long>>(void)
??1?$SafeMap@VKey@Locale@@KV?$SafeMap_Iterator@VKey@Locale@@K@@@@QAE@XZ ; has WINAPI (@0)
; public: __thiscall <class StringKeyCI,unsigned long,class <class StringKeyCI,unsigned long>>::~<class StringKeyCI,unsigned long,class <class StringKeyCI,unsigned long>>(void)
??1?$SafeMap@VStringKeyCI@@KV?$SafeMap_Iterator@VStringKeyCI@@K@@@@QAE@XZ ; has WINAPI (@0)
; public: __thiscall <class StringKeyCI,struct Empty,class <class StringKeyCI>>::~<class StringKeyCI,struct Empty,class <class StringKeyCI>>(void)
??1?$SafeMap@VStringKeyCI@@UEmpty@@V?$SafeSet_Iterator@VStringKeyCI@@@@@@QAE@XZ ; has WINAPI (@0)
; public: __thiscall <class StringKeyCI,struct WSManHttpListener::USER_CONTEXT_INFO,class <class StringKeyCI,struct WSManHttpListener::USER_CONTEXT_INFO>>::~<class StringKeyCI,struct WSManHttpListener::USER_CONTEXT_INFO,class <class StringKeyCI,struct WSManHttpListener::USER_CONTEXT_INFO>>(void)
??1?$SafeMap@VStringKeyCI@@UUSER_CONTEXT_INFO@WSManHttpListener@@V?$SafeMap_Iterator@VStringKeyCI@@UUSER_CONTEXT_INFO@WSManHttpListener@@@@@@QAE@XZ ; has WINAPI (@0)
; public: __thiscall <class StringKeyStore,class ExpiredOperationIdRecord *,class <class StringKeyStore,class ExpiredOperationIdRecord *>>::~<class StringKeyStore,class ExpiredOperationIdRecord *,class <class StringKeyStore,class ExpiredOperationIdRecord *>>(void)
??1?$SafeMap@VStringKeyStore@@PAVExpiredOperationIdRecord@@V?$SafeMap_Iterator@VStringKeyStore@@PAVExpiredOperationIdRecord@@@@@@QAE@XZ ; has WINAPI (@0)
; public: __thiscall <class StringKeyStore,class ServerFullDuplexChannel *,class <class StringKeyStore,class ServerFullDuplexChannel *>>::~<class StringKeyStore,class ServerFullDuplexChannel *,class <class StringKeyStore,class ServerFullDuplexChannel *>>(void)
??1?$SafeMap@VStringKeyStore@@PAVServerFullDuplexChannel@@V?$SafeMap_Iterator@VStringKeyStore@@PAVServerFullDuplexChannel@@@@@@QAE@XZ ; has WINAPI (@0)
; public: __thiscall <enum WSManSessionOption,class WSMan::Client::SessionOptions::OptionValue *,class <enum WSManSessionOption,class WSMan::Client::SessionOptions::OptionValue *>>::~<enum WSManSessionOption,class WSMan::Client::SessionOptions::OptionValue *,class <enum WSManSessionOption,class WSMan::Client::SessionOptions::OptionValue *>>(void)
??1?$SafeMap@W4WSManSessionOption@@PAVOptionValue@SessionOptions@Client@WSMan@@V?$SafeMap_Iterator@W4WSManSessionOption@@PAVOptionValue@SessionOptions@Client@WSMan@@@@@@QAE@XZ ; has WINAPI (@0)
; public: __thiscall <unsigned __int64,class RobustConnectionBuffer::SendPacketArgs *,class <unsigned __int64,class RobustConnectionBuffer::SendPacketArgs *>>::~<unsigned __int64,class RobustConnectionBuffer::SendPacketArgs *,class <unsigned __int64,class RobustConnectionBuffer::SendPacketArgs *>>(void)
??1?$SafeMap@_KPAVSendPacketArgs@RobustConnectionBuffer@@V?$SafeMap_Iterator@_KPAVSendPacketArgs@RobustConnectionBuffer@@@@@@QAE@XZ ; has WINAPI (@0)
; public: __thiscall <class CCertMapping *,struct Empty>::~<class CCertMapping *,struct Empty>(void)
??1?$SafeMap_Iterator@PAVCCertMapping@@UEmpty@@@@QAE@XZ ; has WINAPI (@0)
; public: __thiscall <class CListenerConnect *,class CListenerConnect *>::~<class CListenerConnect *,class CListenerConnect *>(void)
??1?$SafeMap_Iterator@PAVCListenerConnect@@PAV1@@@QAE@XZ ; has WINAPI (@0)
; public: __thiscall <class CListenerOperation *,struct Empty>::~<class CListenerOperation *,struct Empty>(void)
??1?$SafeMap_Iterator@PAVCListenerOperation@@UEmpty@@@@QAE@XZ ; has WINAPI (@0)
; public: __thiscall <class CListenerReceive *,class CListenerReceive *>::~<class CListenerReceive *,class CListenerReceive *>(void)
??1?$SafeMap_Iterator@PAVCListenerReceive@@PAV1@@@QAE@XZ ; has WINAPI (@0)
; public: __thiscall <class CListenerSend *,class CListenerSend *>::~<class CListenerSend *,class CListenerSend *>(void)
??1?$SafeMap_Iterator@PAVCListenerSend@@PAV1@@@QAE@XZ ; has WINAPI (@0)
; public: __thiscall <class CListenerSignal *,class CListenerSignal *>::~<class CListenerSignal *,class CListenerSignal *>(void)
??1?$SafeMap_Iterator@PAVCListenerSignal@@PAV1@@@QAE@XZ ; has WINAPI (@0)
; public: __thiscall <class CShellUriSettings *,struct Empty>::~<class CShellUriSettings *,struct Empty>(void)
??1?$SafeMap_Iterator@PAVCShellUriSettings@@UEmpty@@@@QAE@XZ ; has WINAPI (@0)
; public: __thiscall <class Collector *,struct Empty>::~<class Collector *,struct Empty>(void)
??1?$SafeMap_Iterator@PAVCollector@@UEmpty@@@@QAE@XZ ; has WINAPI (@0)
; public: __thiscall <class HostOperation *,struct Empty>::~<class HostOperation *,struct Empty>(void)
??1?$SafeMap_Iterator@PAVHostOperation@@UEmpty@@@@QAE@XZ ; has WINAPI (@0)
; public: __thiscall <class IOperation *,struct Empty>::~<class IOperation *,struct Empty>(void)
??1?$SafeMap_Iterator@PAVIOperation@@UEmpty@@@@QAE@XZ ; has WINAPI (@0)
; public: __thiscall <class ListenerSourceSubscription *,struct Empty>::~<class ListenerSourceSubscription *,struct Empty>(void)
??1?$SafeMap_Iterator@PAVListenerSourceSubscription@@UEmpty@@@@QAE@XZ ; has WINAPI (@0)
; public: __thiscall <class PushSubscription *,struct Empty>::~<class PushSubscription *,struct Empty>(void)
??1?$SafeMap_Iterator@PAVPushSubscription@@UEmpty@@@@QAE@XZ ; has WINAPI (@0)
; public: __thiscall <void *,struct Empty>::~<void *,struct Empty>(void)
??1?$SafeMap_Iterator@PAXUEmpty@@@@QAE@XZ ; has WINAPI (@0)
; public: __thiscall <struct PluginKey,unsigned long>::~<struct PluginKey,unsigned long>(void)
??1?$SafeMap_Iterator@UPluginKey@@K@@QAE@XZ ; has WINAPI (@0)
; public: __thiscall <struct UserKey,class BlockedRecord *>::~<struct UserKey,class BlockedRecord *>(void)
??1?$SafeMap_Iterator@UUserKey@@PAVBlockedRecord@@@@QAE@XZ ; has WINAPI (@0)
; public: __thiscall <class CertThumbprintKey,class CServiceConfigSettings::CertThumbprintMappedSet>::~<class CertThumbprintKey,class CServiceConfigSettings::CertThumbprintMappedSet>(void)
??1?$SafeMap_Iterator@VCertThumbprintKey@@VCertThumbprintMappedSet@CServiceConfigSettings@@@@QAE@XZ ; has WINAPI (@0)
; public: __thiscall <class GuidKey,class CListenerCommand *>::~<class GuidKey,class CListenerCommand *>(void)
??1?$SafeMap_Iterator@VGuidKey@@PAVCListenerCommand@@@@QAE@XZ ; has WINAPI (@0)
; public: __thiscall <class Locale::Key,unsigned long>::~<class Locale::Key,unsigned long>(void)
??1?$SafeMap_Iterator@VKey@Locale@@K@@QAE@XZ ; has WINAPI (@0)
; public: __thiscall <class StringKeyCI,unsigned long>::~<class StringKeyCI,unsigned long>(void)
??1?$SafeMap_Iterator@VStringKeyCI@@K@@QAE@XZ ; has WINAPI (@0)
; public: __thiscall <class StringKeyCI,struct Empty>::~<class StringKeyCI,struct Empty>(void)
??1?$SafeMap_Iterator@VStringKeyCI@@UEmpty@@@@QAE@XZ ; has WINAPI (@0)
; public: __thiscall <class StringKeyCI,struct WSManHttpListener::USER_CONTEXT_INFO>::~<class StringKeyCI,struct WSManHttpListener::USER_CONTEXT_INFO>(void)
??1?$SafeMap_Iterator@VStringKeyCI@@UUSER_CONTEXT_INFO@WSManHttpListener@@@@QAE@XZ ; has WINAPI (@0)
; public: __thiscall <class StringKeyStore,class ExpiredOperationIdRecord *>::~<class StringKeyStore,class ExpiredOperationIdRecord *>(void)
??1?$SafeMap_Iterator@VStringKeyStore@@PAVExpiredOperationIdRecord@@@@QAE@XZ ; has WINAPI (@0)
; public: __thiscall <class StringKeyStore,class ServerFullDuplexChannel *>::~<class StringKeyStore,class ServerFullDuplexChannel *>(void)
??1?$SafeMap_Iterator@VStringKeyStore@@PAVServerFullDuplexChannel@@@@QAE@XZ ; has WINAPI (@0)
; public: __thiscall <enum WSManSessionOption,class WSMan::Client::SessionOptions::OptionValue *>::~<enum WSManSessionOption,class WSMan::Client::SessionOptions::OptionValue *>(void)
??1?$SafeMap_Iterator@W4WSManSessionOption@@PAVOptionValue@SessionOptions@Client@WSMan@@@@QAE@XZ ; has WINAPI (@0)
; public: __thiscall <unsigned __int64,class RobustConnectionBuffer::SendPacketArgs *>::~<unsigned __int64,class RobustConnectionBuffer::SendPacketArgs *>(void)
??1?$SafeMap_Iterator@_KPAVSendPacketArgs@RobustConnectionBuffer@@@@QAE@XZ ; has WINAPI (@0)
; public: __thiscall <class CCertMapping *,struct Empty,class <class CCertMapping *,struct Empty>>::~<class CCertMapping *,struct Empty,class <class CCertMapping *,struct Empty>>(void)
??1?$SafeMap_Lock@PAVCCertMapping@@UEmpty@@V?$SafeMap_Iterator@PAVCCertMapping@@UEmpty@@@@@@QAE@XZ ; has WINAPI (@0)
; public: __thiscall <class CCertMapping *,struct Empty,class <class CCertMapping *>>::~<class CCertMapping *,struct Empty,class <class CCertMapping *>>(void)
??1?$SafeMap_Lock@PAVCCertMapping@@UEmpty@@V?$SafeSet_Iterator@PAVCCertMapping@@@@@@QAE@XZ ; has WINAPI (@0)
; public: __thiscall <class CListenerConnect *,class CListenerConnect *,class <class CListenerConnect *,class CListenerConnect *>>::~<class CListenerConnect *,class CListenerConnect *,class <class CListenerConnect *,class CListenerConnect *>>(void)
??1?$SafeMap_Lock@PAVCListenerConnect@@PAV1@V?$SafeMap_Iterator@PAVCListenerConnect@@PAV1@@@@@QAE@XZ ; has WINAPI (@0)
; public: __thiscall <class CListenerOperation *,struct Empty,class <class CListenerOperation *,struct Empty>>::~<class CListenerOperation *,struct Empty,class <class CListenerOperation *,struct Empty>>(void)
??1?$SafeMap_Lock@PAVCListenerOperation@@UEmpty@@V?$SafeMap_Iterator@PAVCListenerOperation@@UEmpty@@@@@@QAE@XZ ; has WINAPI (@0)
; public: __thiscall <class CListenerOperation *,struct Empty,class <class CListenerOperation *>>::~<class CListenerOperation *,struct Empty,class <class CListenerOperation *>>(void)
??1?$SafeMap_Lock@PAVCListenerOperation@@UEmpty@@V?$SafeSet_Iterator@PAVCListenerOperation@@@@@@QAE@XZ ; has WINAPI (@0)
; public: __thiscall <class CListenerReceive *,class CListenerReceive *,class <class CListenerReceive *,class CListenerReceive *>>::~<class CListenerReceive *,class CListenerReceive *,class <class CListenerReceive *,class CListenerReceive *>>(void)
??1?$SafeMap_Lock@PAVCListenerReceive@@PAV1@V?$SafeMap_Iterator@PAVCListenerReceive@@PAV1@@@@@QAE@XZ ; has WINAPI (@0)
; public: __thiscall <class CListenerSend *,class CListenerSend *,class <class CListenerSend *,class CListenerSend *>>::~<class CListenerSend *,class CListenerSend *,class <class CListenerSend *,class CListenerSend *>>(void)
??1?$SafeMap_Lock@PAVCListenerSend@@PAV1@V?$SafeMap_Iterator@PAVCListenerSend@@PAV1@@@@@QAE@XZ ; has WINAPI (@0)
; public: __thiscall <class CListenerSignal *,class CListenerSignal *,class <class CListenerSignal *,class CListenerSignal *>>::~<class CListenerSignal *,class CListenerSignal *,class <class CListenerSignal *,class CListenerSignal *>>(void)
??1?$SafeMap_Lock@PAVCListenerSignal@@PAV1@V?$SafeMap_Iterator@PAVCListenerSignal@@PAV1@@@@@QAE@XZ ; has WINAPI (@0)
; public: __thiscall <class CShellUriSettings *,struct Empty,class <class CShellUriSettings *,struct Empty>>::~<class CShellUriSettings *,struct Empty,class <class CShellUriSettings *,struct Empty>>(void)
??1?$SafeMap_Lock@PAVCShellUriSettings@@UEmpty@@V?$SafeMap_Iterator@PAVCShellUriSettings@@UEmpty@@@@@@QAE@XZ ; has WINAPI (@0)
; public: __thiscall <class CShellUriSettings *,struct Empty,class <class CShellUriSettings *>>::~<class CShellUriSettings *,struct Empty,class <class CShellUriSettings *>>(void)
??1?$SafeMap_Lock@PAVCShellUriSettings@@UEmpty@@V?$SafeSet_Iterator@PAVCShellUriSettings@@@@@@QAE@XZ ; has WINAPI (@0)
; public: __thiscall <class Collector *,struct Empty,class <class Collector *,struct Empty>>::~<class Collector *,struct Empty,class <class Collector *,struct Empty>>(void)
??1?$SafeMap_Lock@PAVCollector@@UEmpty@@V?$SafeMap_Iterator@PAVCollector@@UEmpty@@@@@@QAE@XZ ; has WINAPI (@0)
; public: __thiscall <class HostOperation *,struct Empty,class <class HostOperation *,struct Empty>>::~<class HostOperation *,struct Empty,class <class HostOperation *,struct Empty>>(void)
??1?$SafeMap_Lock@PAVHostOperation@@UEmpty@@V?$SafeMap_Iterator@PAVHostOperation@@UEmpty@@@@@@QAE@XZ ; has WINAPI (@0)
; public: __thiscall <class IOperation *,struct Empty,class <class IOperation *,struct Empty>>::~<class IOperation *,struct Empty,class <class IOperation *,struct Empty>>(void)
??1?$SafeMap_Lock@PAVIOperation@@UEmpty@@V?$SafeMap_Iterator@PAVIOperation@@UEmpty@@@@@@QAE@XZ ; has WINAPI (@0)
; public: __thiscall <class ListenerSourceSubscription *,struct Empty,class <class ListenerSourceSubscription *,struct Empty>>::~<class ListenerSourceSubscription *,struct Empty,class <class ListenerSourceSubscription *,struct Empty>>(void)
??1?$SafeMap_Lock@PAVListenerSourceSubscription@@UEmpty@@V?$SafeMap_Iterator@PAVListenerSourceSubscription@@UEmpty@@@@@@QAE@XZ ; has WINAPI (@0)
; public: __thiscall <class PushSubscription *,struct Empty,class <class PushSubscription *,struct Empty>>::~<class PushSubscription *,struct Empty,class <class PushSubscription *,struct Empty>>(void)
??1?$SafeMap_Lock@PAVPushSubscription@@UEmpty@@V?$SafeMap_Iterator@PAVPushSubscription@@UEmpty@@@@@@QAE@XZ ; has WINAPI (@0)
; public: __thiscall <void *,struct Empty,class <void *,struct Empty>>::~<void *,struct Empty,class <void *,struct Empty>>(void)
??1?$SafeMap_Lock@PAXUEmpty@@V?$SafeMap_Iterator@PAXUEmpty@@@@@@QAE@XZ ; has WINAPI (@0)
; public: __thiscall <void *,struct Empty,class <void *>>::~<void *,struct Empty,class <void *>>(void)
??1?$SafeMap_Lock@PAXUEmpty@@V?$SafeSet_Iterator@PAX@@@@QAE@XZ ; has WINAPI (@0)
; public: __thiscall <struct PluginKey,unsigned long,class <struct PluginKey,unsigned long>>::~<struct PluginKey,unsigned long,class <struct PluginKey,unsigned long>>(void)
??1?$SafeMap_Lock@UPluginKey@@KV?$SafeMap_Iterator@UPluginKey@@K@@@@QAE@XZ ; has WINAPI (@0)
; public: __thiscall <struct UserKey,class BlockedRecord *,class <struct UserKey,class BlockedRecord *>>::~<struct UserKey,class BlockedRecord *,class <struct UserKey,class BlockedRecord *>>(void)
??1?$SafeMap_Lock@UUserKey@@PAVBlockedRecord@@V?$SafeMap_Iterator@UUserKey@@PAVBlockedRecord@@@@@@QAE@XZ ; has WINAPI (@0)
; public: __thiscall <class CertThumbprintKey,class CServiceConfigSettings::CertThumbprintMappedSet,class <class CertThumbprintKey,class CServiceConfigSettings::CertThumbprintMappedSet>>::~<class CertThumbprintKey,class CServiceConfigSettings::CertThumbprintMappedSet,class <class CertThumbprintKey,class CServiceConfigSettings::CertThumbprintMappedSet>>(void)
??1?$SafeMap_Lock@VCertThumbprintKey@@VCertThumbprintMappedSet@CServiceConfigSettings@@V?$SafeMap_Iterator@VCertThumbprintKey@@VCertThumbprintMappedSet@CServiceConfigSettings@@@@@@QAE@XZ ; has WINAPI (@0)
; public: __thiscall <class GuidKey,class CListenerCommand *,class <class GuidKey,class CListenerCommand *>>::~<class GuidKey,class CListenerCommand *,class <class GuidKey,class CListenerCommand *>>(void)
??1?$SafeMap_Lock@VGuidKey@@PAVCListenerCommand@@V?$SafeMap_Iterator@VGuidKey@@PAVCListenerCommand@@@@@@QAE@XZ ; has WINAPI (@0)
; public: __thiscall <class Locale::Key,unsigned long,class <class Locale::Key,unsigned long>>::~<class Locale::Key,unsigned long,class <class Locale::Key,unsigned long>>(void)
??1?$SafeMap_Lock@VKey@Locale@@KV?$SafeMap_Iterator@VKey@Locale@@K@@@@QAE@XZ ; has WINAPI (@0)
; public: __thiscall <class StringKeyCI,unsigned long,class <class StringKeyCI,unsigned long>>::~<class StringKeyCI,unsigned long,class <class StringKeyCI,unsigned long>>(void)
??1?$SafeMap_Lock@VStringKeyCI@@KV?$SafeMap_Iterator@VStringKeyCI@@K@@@@QAE@XZ ; has WINAPI (@0)
; public: __thiscall <class StringKeyCI,struct Empty,class <class StringKeyCI,struct Empty>>::~<class StringKeyCI,struct Empty,class <class StringKeyCI,struct Empty>>(void)
??1?$SafeMap_Lock@VStringKeyCI@@UEmpty@@V?$SafeMap_Iterator@VStringKeyCI@@UEmpty@@@@@@QAE@XZ ; has WINAPI (@0)
; public: __thiscall <class StringKeyCI,struct Empty,class <class StringKeyCI>>::~<class StringKeyCI,struct Empty,class <class StringKeyCI>>(void)
??1?$SafeMap_Lock@VStringKeyCI@@UEmpty@@V?$SafeSet_Iterator@VStringKeyCI@@@@@@QAE@XZ ; has WINAPI (@0)
; public: __thiscall <class StringKeyCI,struct WSManHttpListener::USER_CONTEXT_INFO,class <class StringKeyCI,struct WSManHttpListener::USER_CONTEXT_INFO>>::~<class StringKeyCI,struct WSManHttpListener::USER_CONTEXT_INFO,class <class StringKeyCI,struct WSManHttpListener::USER_CONTEXT_INFO>>(void)
??1?$SafeMap_Lock@VStringKeyCI@@UUSER_CONTEXT_INFO@WSManHttpListener@@V?$SafeMap_Iterator@VStringKeyCI@@UUSER_CONTEXT_INFO@WSManHttpListener@@@@@@QAE@XZ ; has WINAPI (@0)
; public: __thiscall <class StringKeyStore,class ExpiredOperationIdRecord *,class <class StringKeyStore,class ExpiredOperationIdRecord *>>::~<class StringKeyStore,class ExpiredOperationIdRecord *,class <class StringKeyStore,class ExpiredOperationIdRecord *>>(void)
??1?$SafeMap_Lock@VStringKeyStore@@PAVExpiredOperationIdRecord@@V?$SafeMap_Iterator@VStringKeyStore@@PAVExpiredOperationIdRecord@@@@@@QAE@XZ ; has WINAPI (@0)
; public: __thiscall <class StringKeyStore,class ServerFullDuplexChannel *,class <class StringKeyStore,class ServerFullDuplexChannel *>>::~<class StringKeyStore,class ServerFullDuplexChannel *,class <class StringKeyStore,class ServerFullDuplexChannel *>>(void)
??1?$SafeMap_Lock@VStringKeyStore@@PAVServerFullDuplexChannel@@V?$SafeMap_Iterator@VStringKeyStore@@PAVServerFullDuplexChannel@@@@@@QAE@XZ ; has WINAPI (@0)
; public: __thiscall <enum WSManSessionOption,class WSMan::Client::SessionOptions::OptionValue *,class <enum WSManSessionOption,class WSMan::Client::SessionOptions::OptionValue *>>::~<enum WSManSessionOption,class WSMan::Client::SessionOptions::OptionValue *,class <enum WSManSessionOption,class WSMan::Client::SessionOptions::OptionValue *>>(void)
??1?$SafeMap_Lock@W4WSManSessionOption@@PAVOptionValue@SessionOptions@Client@WSMan@@V?$SafeMap_Iterator@W4WSManSessionOption@@PAVOptionValue@SessionOptions@Client@WSMan@@@@@@QAE@XZ ; has WINAPI (@0)
; public: __thiscall <unsigned __int64,class RobustConnectionBuffer::SendPacketArgs *,class <unsigned __int64,class RobustConnectionBuffer::SendPacketArgs *>>::~<unsigned __int64,class RobustConnectionBuffer::SendPacketArgs *,class <unsigned __int64,class RobustConnectionBuffer::SendPacketArgs *>>(void)
??1?$SafeMap_Lock@_KPAVSendPacketArgs@RobustConnectionBuffer@@V?$SafeMap_Iterator@_KPAVSendPacketArgs@RobustConnectionBuffer@@@@@@QAE@XZ ; has WINAPI (@0)
; public: __thiscall <class CCertMapping *>::~<class CCertMapping *>(void)
??1?$SafeSet@PAVCCertMapping@@@@QAE@XZ ; has WINAPI (@0)
; public: __thiscall <class CListenerOperation *>::~<class CListenerOperation *>(void)
??1?$SafeSet@PAVCListenerOperation@@@@QAE@XZ ; has WINAPI (@0)
; public: __thiscall <class CShellUriSettings *>::~<class CShellUriSettings *>(void)
??1?$SafeSet@PAVCShellUriSettings@@@@QAE@XZ ; has WINAPI (@0)
; public: __thiscall <class Collector *>::~<class Collector *>(void)
??1?$SafeSet@PAVCollector@@@@QAE@XZ ; has WINAPI (@0)
; public: __thiscall <class HostOperation *>::~<class HostOperation *>(void)
??1?$SafeSet@PAVHostOperation@@@@QAE@XZ ; has WINAPI (@0)
; public: __thiscall <class IOperation *>::~<class IOperation *>(void)
??1?$SafeSet@PAVIOperation@@@@QAE@XZ ; has WINAPI (@0)
; public: __thiscall <class ListenerSourceSubscription *>::~<class ListenerSourceSubscription *>(void)
??1?$SafeSet@PAVListenerSourceSubscription@@@@QAE@XZ ; has WINAPI (@0)
; public: __thiscall <class PushSubscription *>::~<class PushSubscription *>(void)
??1?$SafeSet@PAVPushSubscription@@@@QAE@XZ ; has WINAPI (@0)
; public: __thiscall <void *>::~<void *>(void)
??1?$SafeSet@PAX@@QAE@XZ ; has WINAPI (@0)
; public: __thiscall <class StringKeyCI>::~<class StringKeyCI>(void)
??1?$SafeSet@VStringKeyCI@@@@QAE@XZ ; has WINAPI (@0)
; public: __thiscall <class CCertMapping *>::~<class CCertMapping *>(void)
??1?$SafeSet_Iterator@PAVCCertMapping@@@@QAE@XZ ; has WINAPI (@0)
; public: __thiscall <class CListenerOperation *>::~<class CListenerOperation *>(void)
??1?$SafeSet_Iterator@PAVCListenerOperation@@@@QAE@XZ ; has WINAPI (@0)
; public: __thiscall <class CShellUriSettings *>::~<class CShellUriSettings *>(void)
??1?$SafeSet_Iterator@PAVCShellUriSettings@@@@QAE@XZ ; has WINAPI (@0)
; public: __thiscall <class Collector *>::~<class Collector *>(void)
??1?$SafeSet_Iterator@PAVCollector@@@@QAE@XZ ; has WINAPI (@0)
; public: __thiscall <class HostOperation *>::~<class HostOperation *>(void)
??1?$SafeSet_Iterator@PAVHostOperation@@@@QAE@XZ ; has WINAPI (@0)
; public: __thiscall <class IOperation *>::~<class IOperation *>(void)
??1?$SafeSet_Iterator@PAVIOperation@@@@QAE@XZ ; has WINAPI (@0)
; public: __thiscall <class ListenerSourceSubscription *>::~<class ListenerSourceSubscription *>(void)
??1?$SafeSet_Iterator@PAVListenerSourceSubscription@@@@QAE@XZ ; has WINAPI (@0)
; public: __thiscall <class PushSubscription *>::~<class PushSubscription *>(void)
??1?$SafeSet_Iterator@PAVPushSubscription@@@@QAE@XZ ; has WINAPI (@0)
; public: __thiscall <void *>::~<void *>(void)
??1?$SafeSet_Iterator@PAX@@QAE@XZ ; has WINAPI (@0)
; public: __thiscall <class StringKeyCI>::~<class StringKeyCI>(void)
??1?$SafeSet_Iterator@VStringKeyCI@@@@QAE@XZ ; has WINAPI (@0)
; public: __thiscall <union _LARGE_INTEGER>::~<union _LARGE_INTEGER>(void)
??1?$SimpleQueue@T_LARGE_INTEGER@@@@QAE@XZ ; has WINAPI (@0)
; public: __thiscall AutoBstr::~AutoBstr(void)
??1AutoBstr@@QAE@XZ ; has WINAPI (@0)
; public: __thiscall AutoBstrNoAlloc::~AutoBstrNoAlloc(void)
??1AutoBstrNoAlloc@@QAE@XZ ; has WINAPI (@0)
; public: __thiscall AutoCertContext::~AutoCertContext(void)
??1AutoCertContext@@QAE@XZ ; has WINAPI (@0)
; public: __thiscall AutoChainContext::~AutoChainContext(void)
??1AutoChainContext@@QAE@XZ ; has WINAPI (@0)
; public: __thiscall AutoCoTaskMemFree::~AutoCoTaskMemFree(void)
??1AutoCoTaskMemFree@@QAE@XZ ; has WINAPI (@0)
; public: __thiscall AutoEnvironmentBlock::~AutoEnvironmentBlock(void)
??1AutoEnvironmentBlock@@QAE@XZ ; has WINAPI (@0)
; public: __thiscall AutoFwXmlCloseParser::~AutoFwXmlCloseParser(void)
??1AutoFwXmlCloseParser@@QAE@XZ ; has WINAPI (@0)
; public: __thiscall AutoHandle::~AutoHandle(void)
??1AutoHandle@@QAE@XZ ; has WINAPI (@0)
; public: __thiscall AutoImpersonateUser::~AutoImpersonateUser(void)
??1AutoImpersonateUser@@QAE@XZ ; has WINAPI (@0)
; public: __thiscall AutoLibrary::~AutoLibrary(void)
??1AutoLibrary@@QAE@XZ ; has WINAPI (@0)
; public: __thiscall AutoLocalFree::~AutoLocalFree(void)
??1AutoLocalFree@@QAE@XZ ; has WINAPI (@0)
; public: __thiscall AutoMIClass::~AutoMIClass(void)
??1AutoMIClass@@QAE@XZ ; has WINAPI (@0)
; public: __thiscall AutoMIInstance::~AutoMIInstance(void)
??1AutoMIInstance@@QAE@XZ ; has WINAPI (@0)
; public: __thiscall AutoObject::~AutoObject(void)
??1AutoObject@@QAE@XZ ; has WINAPI (@0)
; public: __thiscall AutoRegKey::~AutoRegKey(void)
??1AutoRegKey@@QAE@XZ ; has WINAPI (@0)
; public: __thiscall AutoSecurityDescriptor::~AutoSecurityDescriptor(void)
??1AutoSecurityDescriptor@@QAE@XZ ; has WINAPI (@0)
; public: __thiscall AutoWaitHandle::~AutoWaitHandle(void)
??1AutoWaitHandle@@QAE@XZ ; has WINAPI (@0)
; public: virtual __thiscall BufferFormatter::~BufferFormatter(void)
??1BufferFormatter@@UAE@XZ ; has WINAPI (@0)
; public: virtual __thiscall CBaseConfigCache::~CBaseConfigCache(void)
??1CBaseConfigCache@@UAE@XZ ; has WINAPI (@0)
; public: virtual __thiscall CClientConfigCache::~CClientConfigCache(void)
??1CClientConfigCache@@UAE@XZ ; has WINAPI (@0)
; public: virtual __thiscall CCommonConfigSettings::~CCommonConfigSettings(void)
??1CCommonConfigSettings@@UAE@XZ ; has WINAPI (@0)
; public: virtual __thiscall CConfigManager::~CConfigManager(void)
??1CConfigManager@@UAE@XZ ; has WINAPI (@0)
; public: virtual __thiscall CErrorContext::~CErrorContext(void)
??1CErrorContext@@UAE@XZ ; has WINAPI (@0)
; public: virtual __thiscall CRequestContext::~CRequestContext(void)
??1CRequestContext@@UAE@XZ ; has WINAPI (@0)
; public: __thiscall CResourceAlias::~CResourceAlias(void)
??1CResourceAlias@@QAE@XZ ; has WINAPI (@0)
; private: virtual __thiscall CServiceConfigCache::~CServiceConfigCache(void)
??1CServiceConfigCache@@EAE@XZ ; has WINAPI (@0)
; public: __thiscall CServiceConfigCache::CServiceWatcher::~CServiceWatcher(void)
??1CServiceWatcher@CServiceConfigCache@@QAE@XZ ; has WINAPI (@0)
; public: __thiscall CWSManCriticalSection::~CWSManCriticalSection(void)
??1CWSManCriticalSection@@QAE@XZ ; has WINAPI (@0)
; public: __thiscall CWSManCriticalSectionWithConditionVar::~CWSManCriticalSectionWithConditionVar(void)
??1CWSManCriticalSectionWithConditionVar@@QAE@XZ ; has WINAPI (@0)
; public: virtual __thiscall CWSManEPR::~CWSManEPR(void)
??1CWSManEPR@@UAE@XZ ; has WINAPI (@0)
; private: virtual __thiscall CWSManGroupPolicyManager::~CWSManGroupPolicyManager(void)
??1CWSManGroupPolicyManager@@EAE@XZ ; has WINAPI (@0)
; public: virtual __thiscall CWSManResource::~CWSManResource(void)
??1CWSManResource@@UAE@XZ ; has WINAPI (@0)
; public: virtual __thiscall CWSManResourceNoResourceUri::~CWSManResourceNoResourceUri(void)
??1CWSManResourceNoResourceUri@@UAE@XZ ; has WINAPI (@0)
; public: __thiscall CWSManSecurityUI::~CWSManSecurityUI(void)
??1CWSManSecurityUI@@QAE@XZ ; has WINAPI (@0)
; private: virtual __thiscall CWinRSPluginConfigCache::~CWinRSPluginConfigCache(void)
??1CWinRSPluginConfigCache@@EAE@XZ ; has WINAPI (@0)
; public: __thiscall ChildLifeTimeManager::~ChildLifeTimeManager(void)
??1ChildLifeTimeManager@@QAE@XZ ; has WINAPI (@0)
; public: virtual __thiscall CircularBufferFormatter::~CircularBufferFormatter(void)
??1CircularBufferFormatter@@UAE@XZ ; has WINAPI (@0)
; protected: __thiscall ConfigRegistry::~ConfigRegistry(void)
??1ConfigRegistry@@IAE@XZ ; has WINAPI (@0)
; public: virtual __thiscall EtwCorrelationHelper::~EtwCorrelationHelper(void)
??1EtwCorrelationHelper@@UAE@XZ ; has WINAPI (@0)
; public: __thiscall WSMan::EventHandler::~EventHandler(void)
??1EventHandler@WSMan@@QAE@XZ ; has WINAPI (@0)
; public: virtual __thiscall IConfigChangeObserver::~IConfigChangeObserver(void)
??1IConfigChangeObserver@@UAE@XZ ; has WINAPI (@0)
; public: virtual __thiscall ILifeTimeMgmt::~ILifeTimeMgmt(void)
??1ILifeTimeMgmt@@UAE@XZ ; has WINAPI (@0)
; public: virtual __thiscall IRequestContext::~IRequestContext(void)
??1IRequestContext@@UAE@XZ ; has WINAPI (@0)
; public: virtual __thiscall IWSManGroupPolicyObserver::~IWSManGroupPolicyObserver(void)
??1IWSManGroupPolicyObserver@@UAE@XZ ; has WINAPI (@0)
; public: virtual __thiscall IWSManGroupPolicyPublisher::~IWSManGroupPolicyPublisher(void)
??1IWSManGroupPolicyPublisher@@UAE@XZ ; has WINAPI (@0)
; public: __thiscall PacketParser::MessageId::~MessageId(void)
??1MessageId@PacketParser@@QAE@XZ ; has WINAPI (@0)
; public: __thiscall OnHTTPInitialize::~OnHTTPInitialize(void)
??1OnHTTPInitialize@@QAE@XZ ; has WINAPI (@0)
; public: __thiscall PacketParser::OperationId::~OperationId(void)
??1OperationId@PacketParser@@QAE@XZ ; has WINAPI (@0)
; public: __thiscall OwnLock::~OwnLock(void)
??1OwnLock@@QAE@XZ ; has WINAPI (@0)
; public: __thiscall PacketParser::~PacketParser(void)
??1PacketParser@@QAE@XZ ; has WINAPI (@0)
; public: __thiscall RBUFFER::~RBUFFER(void)
??1RBUFFER@@QAE@XZ ; has WINAPI (@0)
; public: __thiscall PacketParser::ReferenceParameters::~ReferenceParameters(void)
??1ReferenceParameters@PacketParser@@QAE@XZ ; has WINAPI (@0)
; public: __thiscall SBUFFER::~SBUFFER(void)
??1SBUFFER@@QAE@XZ ; has WINAPI (@0)
; public: __thiscall ShareLock::~ShareLock(void)
??1ShareLock@@QAE@XZ ; has WINAPI (@0)
; public: __thiscall SoapSemanticConverter::~SoapSemanticConverter(void)
??1SoapSemanticConverter@@QAE@XZ ; has WINAPI (@0)
; public: __thiscall TSTRBUFFER::~TSTRBUFFER(void)
??1TSTRBUFFER@@QAE@XZ ; has WINAPI (@0)
; public: __thiscall UserRecord::~UserRecord(void)
??1UserRecord@@QAE@XZ ; has WINAPI (@0)
; public: __thiscall XmlReader::~XmlReader(void)
??1XmlReader@@QAE@XZ ; has WINAPI (@0)
; public: class <char> &__thiscall <class <char>,char *>::operator =(char *)
??4?$AutoCleanup@V?$AutoDelete@D@@PAD@@QAEAAV?$AutoDelete@D@@PAD@Z ; has WINAPI (@4)
; public: class <unsigned short> &__thiscall <class <unsigned short>,unsigned short *>::operator =(unsigned short *)
??4?$AutoCleanup@V?$AutoDelete@G@@PAG@@QAEAAV?$AutoDelete@G@@PAG@Z ; has WINAPI (@4)
; public: class <class <class StringKeyCI,unsigned long>> &__thiscall <class <class <class StringKeyCI,unsigned long>>,class <class StringKeyCI,unsigned long> *>::operator =(class <class StringKeyCI,unsigned long> *)
??4?$AutoCleanup@V?$AutoDelete@V?$SafeMap_Iterator@VStringKeyCI@@K@@@@PAV?$SafeMap_Iterator@VStringKeyCI@@K@@@@QAEAAV?$AutoDelete@V?$SafeMap_Iterator@VStringKeyCI@@K@@@@PAV?$SafeMap_Iterator@VStringKeyCI@@K@@@Z ; has WINAPI (@4)
; public: class <class <enum WSManSessionOption,class WSMan::Client::SessionOptions::OptionValue *>> &__thiscall <class <class <enum WSManSessionOption,class WSMan::Client::SessionOptions::OptionValue *>>,class <enum WSManSessionOption,class WSMan::Client::SessionOptions::OptionValue *> *>::operator =(class <enum WSManSessionOption,class WSMan::Client::SessionOptions::OptionValue *> *)
??4?$AutoCleanup@V?$AutoDelete@V?$SafeMap_Iterator@W4WSManSessionOption@@PAVOptionValue@SessionOptions@Client@WSMan@@@@@@PAV?$SafeMap_Iterator@W4WSManSessionOption@@PAVOptionValue@SessionOptions@Client@WSMan@@@@@@QAEAAV?$AutoDelete@V?$SafeMap_Iterator@W4WSManSessionOption@@PAVOptionValue@SessionOptions@Client@WSMan@@@@@@PAV?$SafeMap_Iterator@W4WSManSessionOption@@PAVOptionValue@SessionOptions@Client@WSMan@@@@@Z ; has WINAPI (@4)
; public: class <class <class CCertMapping *>> &__thiscall <class <class <class CCertMapping *>>,class <class CCertMapping *> *>::operator =(class <class CCertMapping *> *)
??4?$AutoCleanup@V?$AutoDelete@V?$SafeSet@PAVCCertMapping@@@@@@PAV?$SafeSet@PAVCCertMapping@@@@@@QAEAAV?$AutoDelete@V?$SafeSet@PAVCCertMapping@@@@@@PAV?$SafeSet@PAVCCertMapping@@@@@Z ; has WINAPI (@4)
; public: class <class <class CShellUriSettings *>> &__thiscall <class <class <class CShellUriSettings *>>,class <class CShellUriSettings *> *>::operator =(class <class CShellUriSettings *> *)
??4?$AutoCleanup@V?$AutoDelete@V?$SafeSet@PAVCShellUriSettings@@@@@@PAV?$SafeSet@PAVCShellUriSettings@@@@@@QAEAAV?$AutoDelete@V?$SafeSet@PAVCShellUriSettings@@@@@@PAV?$SafeSet@PAVCShellUriSettings@@@@@Z ; has WINAPI (@4)
; public: class <class <class CListenerOperation *>> &__thiscall <class <class <class CListenerOperation *>>,class <class CListenerOperation *> *>::operator =(class <class CListenerOperation *> *)
??4?$AutoCleanup@V?$AutoDelete@V?$SafeSet_Iterator@PAVCListenerOperation@@@@@@PAV?$SafeSet_Iterator@PAVCListenerOperation@@@@@@QAEAAV?$AutoDelete@V?$SafeSet_Iterator@PAVCListenerOperation@@@@@@PAV?$SafeSet_Iterator@PAVCListenerOperation@@@@@Z ; has WINAPI (@4)
; public: class <class std::<class CListenerSettings *,class CServiceConfigSettings::CListenerSettingsLessFunctor,class <class CListenerSettings *>>> &__thiscall <class <class std::<class CListenerSettings *,class CServiceConfigSettings::CListenerSettingsLessFunctor,class <class CListenerSettings *>>>,class std::<class CListenerSettings *,class CServiceConfigSettings::CListenerSettingsLessFunctor,class <class CListenerSettings *>> *>::operator =(class std::<class CListenerSettings *,class CServiceConfigSettings::CListenerSettingsLessFunctor,class <class CListenerSettings *>> *)
??4?$AutoCleanup@V?$AutoDelete@V?$set@PAVCListenerSettings@@VCListenerSettingsLessFunctor@CServiceConfigSettings@@V?$transport_allocator@PAVCListenerSettings@@@@@std@@@@PAV?$set@PAVCListenerSettings@@VCListenerSettingsLessFunctor@CServiceConfigSettings@@V?$transport_allocator@PAVCListenerSettings@@@@@std@@@@QAEAAV?$AutoDelete@V?$set@PAVCListenerSettings@@VCListenerSettingsLessFunctor@CServiceConfigSettings@@V?$transport_allocator@PAVCListenerSettings@@@@@std@@@@PAV?$set@PAVCListenerSettings@@VCListenerSettingsLessFunctor@CServiceConfigSettings@@V?$transport_allocator@PAVCListenerSettings@@@@@std@@@Z ; has WINAPI (@4)
; public: class <class std::<struct sockaddr_storage,class CListenerSettings::SockAddrLessFunctor,class <struct sockaddr_storage>>> &__thiscall <class <class std::<struct sockaddr_storage,class CListenerSettings::SockAddrLessFunctor,class <struct sockaddr_storage>>>,class std::<struct sockaddr_storage,class CListenerSettings::SockAddrLessFunctor,class <struct sockaddr_storage>> *>::operator =(class std::<struct sockaddr_storage,class CListenerSettings::SockAddrLessFunctor,class <struct sockaddr_storage>> *)
??4?$AutoCleanup@V?$AutoDelete@V?$set@Usockaddr_storage@@VSockAddrLessFunctor@CListenerSettings@@V?$transport_allocator@Usockaddr_storage@@@@@std@@@@PAV?$set@Usockaddr_storage@@VSockAddrLessFunctor@CListenerSettings@@V?$transport_allocator@Usockaddr_storage@@@@@std@@@@QAEAAV?$AutoDelete@V?$set@Usockaddr_storage@@VSockAddrLessFunctor@CListenerSettings@@V?$transport_allocator@Usockaddr_storage@@@@@std@@@@PAV?$set@Usockaddr_storage@@VSockAddrLessFunctor@CListenerSettings@@V?$transport_allocator@Usockaddr_storage@@@@@std@@@Z ; has WINAPI (@4)
; public: class <class std::<class WSMan::Client::HandleImpl *,class <class WSMan::Client::HandleImpl *>>> &__thiscall <class <class std::<class WSMan::Client::HandleImpl *,class <class WSMan::Client::HandleImpl *>>>,class std::<class WSMan::Client::HandleImpl *,class <class WSMan::Client::HandleImpl *>> *>::operator =(class std::<class WSMan::Client::HandleImpl *,class <class WSMan::Client::HandleImpl *>> *)
??4?$AutoCleanup@V?$AutoDelete@V?$vector@PAVHandleImpl@Client@WSMan@@V?$transport_allocator@PAVHandleImpl@Client@WSMan@@@@@std@@@@PAV?$vector@PAVHandleImpl@Client@WSMan@@V?$transport_allocator@PAVHandleImpl@Client@WSMan@@@@@std@@@@QAEAAV?$AutoDelete@V?$vector@PAVHandleImpl@Client@WSMan@@V?$transport_allocator@PAVHandleImpl@Client@WSMan@@@@@std@@@@PAV?$vector@PAVHandleImpl@Client@WSMan@@V?$transport_allocator@PAVHandleImpl@Client@WSMan@@@@@std@@@Z ; has WINAPI (@4)
; public: class <class std::<class IServiceConfigObserver *,class <class IServiceConfigObserver *>>> &__thiscall <class <class std::<class IServiceConfigObserver *,class <class IServiceConfigObserver *>>>,class std::<class IServiceConfigObserver *,class <class IServiceConfigObserver *>> *>::operator =(class std::<class IServiceConfigObserver *,class <class IServiceConfigObserver *>> *)
??4?$AutoCleanup@V?$AutoDelete@V?$vector@PAVIServiceConfigObserver@@V?$transport_allocator@PAVIServiceConfigObserver@@@@@std@@@@PAV?$vector@PAVIServiceConfigObserver@@V?$transport_allocator@PAVIServiceConfigObserver@@@@@std@@@@QAEAAV?$AutoDelete@V?$vector@PAVIServiceConfigObserver@@V?$transport_allocator@PAVIServiceConfigObserver@@@@@std@@@@PAV?$vector@PAVIServiceConfigObserver@@V?$transport_allocator@PAVIServiceConfigObserver@@@@@std@@@Z ; has WINAPI (@4)
; public: class <class BlockedRecord> &__thiscall <class <class BlockedRecord>,class BlockedRecord *>::operator =(class BlockedRecord *)
??4?$AutoCleanup@V?$AutoDelete@VBlockedRecord@@@@PAVBlockedRecord@@@@QAEAAV?$AutoDelete@VBlockedRecord@@@@PAVBlockedRecord@@@Z ; has WINAPI (@4)
; public: class <class CConfigChangeSource> &__thiscall <class <class CConfigChangeSource>,class CConfigChangeSource *>::operator =(class CConfigChangeSource *)
??4?$AutoCleanup@V?$AutoDelete@VCConfigChangeSource@@@@PAVCConfigChangeSource@@@@QAEAAV?$AutoDelete@VCConfigChangeSource@@@@PAVCConfigChangeSource@@@Z ; has WINAPI (@4)
; public: class <class CObserverConfigChangeErrors> &__thiscall <class <class CObserverConfigChangeErrors>,class CObserverConfigChangeErrors *>::operator =(class CObserverConfigChangeErrors *)
??4?$AutoCleanup@V?$AutoDelete@VCObserverConfigChangeErrors@@@@PAVCObserverConfigChangeErrors@@@@QAEAAV?$AutoDelete@VCObserverConfigChangeErrors@@@@PAVCObserverConfigChangeErrors@@@Z ; has WINAPI (@4)
; public: class <class CServiceConfigCache::CServiceWatcher> &__thiscall <class <class CServiceConfigCache::CServiceWatcher>,class CServiceConfigCache::CServiceWatcher *>::operator =(class CServiceConfigCache::CServiceWatcher *)
??4?$AutoCleanup@V?$AutoDelete@VCServiceWatcher@CServiceConfigCache@@@@PAVCServiceWatcher@CServiceConfigCache@@@@QAEAAV?$AutoDelete@VCServiceWatcher@CServiceConfigCache@@@@PAVCServiceWatcher@CServiceConfigCache@@@Z ; has WINAPI (@4)
; public: class <class CWSManResource> &__thiscall <class <class CWSManResource>,class CWSManResource *>::operator =(class CWSManResource *)
??4?$AutoCleanup@V?$AutoDelete@VCWSManResource@@@@PAVCWSManResource@@@@QAEAAV?$AutoDelete@VCWSManResource@@@@PAVCWSManResource@@@Z ; has WINAPI (@4)
; public: class <class CertHash> &__thiscall <class <class CertHash>,class CertHash *>::operator =(class CertHash *)
??4?$AutoCleanup@V?$AutoDelete@VCertHash@@@@PAVCertHash@@@@QAEAAV?$AutoDelete@VCertHash@@@@PAVCertHash@@@Z ; has WINAPI (@4)
; public: class <class ConfigUpdate> &__thiscall <class <class ConfigUpdate>,class ConfigUpdate *>::operator =(class ConfigUpdate *)
??4?$AutoCleanup@V?$AutoDelete@VConfigUpdate@@@@PAVConfigUpdate@@@@QAEAAV?$AutoDelete@VConfigUpdate@@@@PAVConfigUpdate@@@Z ; has WINAPI (@4)
; public: class <class EnumSinkEx> &__thiscall <class <class EnumSinkEx>,class EnumSinkEx *>::operator =(class EnumSinkEx *)
??4?$AutoCleanup@V?$AutoDelete@VEnumSinkEx@@@@PAVEnumSinkEx@@@@QAEAAV?$AutoDelete@VEnumSinkEx@@@@PAVEnumSinkEx@@@Z ; has WINAPI (@4)
; public: class <class GPApiManager> &__thiscall <class <class GPApiManager>,class GPApiManager *>::operator =(class GPApiManager *)
??4?$AutoCleanup@V?$AutoDelete@VGPApiManager@@@@PAVGPApiManager@@@@QAEAAV?$AutoDelete@VGPApiManager@@@@PAVGPApiManager@@@Z ; has WINAPI (@4)
; public: class <class GeneralSinkEx> &__thiscall <class <class GeneralSinkEx>,class GeneralSinkEx *>::operator =(class GeneralSinkEx *)
??4?$AutoCleanup@V?$AutoDelete@VGeneralSinkEx@@@@PAVGeneralSinkEx@@@@QAEAAV?$AutoDelete@VGeneralSinkEx@@@@PAVGeneralSinkEx@@@Z ; has WINAPI (@4)
; public: class <class IChannelObserverFactory> &__thiscall <class <class IChannelObserverFactory>,class IChannelObserverFactory *>::operator =(class IChannelObserverFactory *)
??4?$AutoCleanup@V?$AutoDelete@VIChannelObserverFactory@@@@PAVIChannelObserverFactory@@@@QAEAAV?$AutoDelete@VIChannelObserverFactory@@@@PAVIChannelObserverFactory@@@Z ; has WINAPI (@4)
; public: class <class IQueryDASHSMASHInterface> &__thiscall <class <class IQueryDASHSMASHInterface>,class IQueryDASHSMASHInterface *>::operator =(class IQueryDASHSMASHInterface *)
??4?$AutoCleanup@V?$AutoDelete@VIQueryDASHSMASHInterface@@@@PAVIQueryDASHSMASHInterface@@@@QAEAAV?$AutoDelete@VIQueryDASHSMASHInterface@@@@PAVIQueryDASHSMASHInterface@@@Z ; has WINAPI (@4)
; public: class <class ISpecification> &__thiscall <class <class ISpecification>,class ISpecification *>::operator =(class ISpecification *)
??4?$AutoCleanup@V?$AutoDelete@VISpecification@@@@PAVISpecification@@@@QAEAAV?$AutoDelete@VISpecification@@@@PAVISpecification@@@Z ; has WINAPI (@4)
; public: class <class PacketCreator> &__thiscall <class <class PacketCreator>,class PacketCreator *>::operator =(class PacketCreator *)
??4?$AutoCleanup@V?$AutoDelete@VPacketCreator@@@@PAVPacketCreator@@@@QAEAAV?$AutoDelete@VPacketCreator@@@@PAVPacketCreator@@@Z ; has WINAPI (@4)
; public: class <class PacketParser> &__thiscall <class <class PacketParser>,class PacketParser *>::operator =(class PacketParser *)
??4?$AutoCleanup@V?$AutoDelete@VPacketParser@@@@PAVPacketParser@@@@QAEAAV?$AutoDelete@VPacketParser@@@@PAVPacketParser@@@Z ; has WINAPI (@4)
; public: class <class RunAsConfiguration> &__thiscall <class <class RunAsConfiguration>,class RunAsConfiguration *>::operator =(class RunAsConfiguration *)
??4?$AutoCleanup@V?$AutoDelete@VRunAsConfiguration@@@@PAVRunAsConfiguration@@@@QAEAAV?$AutoDelete@VRunAsConfiguration@@@@PAVRunAsConfiguration@@@Z ; has WINAPI (@4)
; public: class <class Catalog::SecurityEntry> &__thiscall <class <class Catalog::SecurityEntry>,class Catalog::SecurityEntry *>::operator =(class Catalog::SecurityEntry *)
??4?$AutoCleanup@V?$AutoDelete@VSecurityEntry@Catalog@@@@PAVSecurityEntry@Catalog@@@@QAEAAV?$AutoDelete@VSecurityEntry@Catalog@@@@PAVSecurityEntry@Catalog@@@Z ; has WINAPI (@4)
; public: class <class ServiceSoapProcessor> &__thiscall <class <class ServiceSoapProcessor>,class ServiceSoapProcessor *>::operator =(class ServiceSoapProcessor *)
??4?$AutoCleanup@V?$AutoDelete@VServiceSoapProcessor@@@@PAVServiceSoapProcessor@@@@QAEAAV?$AutoDelete@VServiceSoapProcessor@@@@PAVServiceSoapProcessor@@@Z ; has WINAPI (@4)
; public: class <class SubscriptionEnumerator> &__thiscall <class <class SubscriptionEnumerator>,class SubscriptionEnumerator *>::operator =(class SubscriptionEnumerator *)
??4?$AutoCleanup@V?$AutoDelete@VSubscriptionEnumerator@@@@PAVSubscriptionEnumerator@@@@QAEAAV?$AutoDelete@VSubscriptionEnumerator@@@@PAVSubscriptionEnumerator@@@Z ; has WINAPI (@4)
; public: class <class TSTRBUFFER> &__thiscall <class <class TSTRBUFFER>,class TSTRBUFFER *>::operator =(class TSTRBUFFER *)
??4?$AutoCleanup@V?$AutoDelete@VTSTRBUFFER@@@@PAVTSTRBUFFER@@@@QAEAAV?$AutoDelete@VTSTRBUFFER@@@@PAVTSTRBUFFER@@@Z ; has WINAPI (@4)
; public: class <class UniqueStringOverflow> &__thiscall <class <class UniqueStringOverflow>,class UniqueStringOverflow *>::operator =(class UniqueStringOverflow *)
??4?$AutoCleanup@V?$AutoDelete@VUniqueStringOverflow@@@@PAVUniqueStringOverflow@@@@QAEAAV?$AutoDelete@VUniqueStringOverflow@@@@PAVUniqueStringOverflow@@@Z ; has WINAPI (@4)
; public: class <class WSMANCONFIGTABLE_IDENTITY> &__thiscall <class <class WSMANCONFIGTABLE_IDENTITY>,class WSMANCONFIGTABLE_IDENTITY *>::operator =(class WSMANCONFIGTABLE_IDENTITY *)
??4?$AutoCleanup@V?$AutoDelete@VWSMANCONFIGTABLE_IDENTITY@@@@PAVWSMANCONFIGTABLE_IDENTITY@@@@QAEAAV?$AutoDelete@VWSMANCONFIGTABLE_IDENTITY@@@@PAVWSMANCONFIGTABLE_IDENTITY@@@Z ; has WINAPI (@4)
; public: class <class WmiEnumContext> &__thiscall <class <class WmiEnumContext>,class WmiEnumContext *>::operator =(class WmiEnumContext *)
??4?$AutoCleanup@V?$AutoDelete@VWmiEnumContext@@@@PAVWmiEnumContext@@@@QAEAAV?$AutoDelete@VWmiEnumContext@@@@PAVWmiEnumContext@@@Z ; has WINAPI (@4)
; public: class <class XmlReader> &__thiscall <class <class XmlReader>,class XmlReader *>::operator =(class XmlReader *)
??4?$AutoCleanup@V?$AutoDelete@VXmlReader@@@@PAVXmlReader@@@@QAEAAV?$AutoDelete@VXmlReader@@@@PAVXmlReader@@@Z ; has WINAPI (@4)
; public: class <unsigned short const> &__thiscall <class <unsigned short const>,unsigned short const *>::operator =(unsigned short const *)
??4?$AutoCleanup@V?$AutoDeleteVector@$$CBG@@PBG@@QAEAAV?$AutoDeleteVector@$$CBG@@PBG@Z ; has WINAPI (@4)
; public: class <char> &__thiscall <class <char>,char *>::operator =(char *)
??4?$AutoCleanup@V?$AutoDeleteVector@D@@PAD@@QAEAAV?$AutoDeleteVector@D@@PAD@Z ; has WINAPI (@4)
; public: class <unsigned char> &__thiscall <class <unsigned char>,unsigned char *>::operator =(unsigned char *)
??4?$AutoCleanup@V?$AutoDeleteVector@E@@PAE@@QAEAAV?$AutoDeleteVector@E@@PAE@Z ; has WINAPI (@4)
; public: class <unsigned short> &__thiscall <class <unsigned short>,unsigned short *>::operator =(unsigned short *)
??4?$AutoCleanup@V?$AutoDeleteVector@G@@PAG@@QAEAAV?$AutoDeleteVector@G@@PAG@Z ; has WINAPI (@4)
; public: class <unsigned short *> &__thiscall <class <unsigned short *>,unsigned short **>::operator =(unsigned short **)
??4?$AutoCleanup@V?$AutoDeleteVector@PAG@@PAPAG@@QAEAAV?$AutoDeleteVector@PAG@@PAPAG@Z ; has WINAPI (@4)
; public: class <unsigned short const *> &__thiscall <class <unsigned short const *>,unsigned short const **>::operator =(unsigned short const **)
??4?$AutoCleanup@V?$AutoDeleteVector@PBG@@PAPBG@@QAEAAV?$AutoDeleteVector@PBG@@PAPBG@Z ; has WINAPI (@4)
; public: class <struct _CONFIG_UPDATE> &__thiscall <class <struct _CONFIG_UPDATE>,struct _CONFIG_UPDATE *>::operator =(struct _CONFIG_UPDATE *)
??4?$AutoCleanup@V?$AutoDeleteVector@U_CONFIG_UPDATE@@@@PAU_CONFIG_UPDATE@@@@QAEAAV?$AutoDeleteVector@U_CONFIG_UPDATE@@@@PAU_CONFIG_UPDATE@@@Z ; has WINAPI (@4)
; public: class <struct _WINRS_CREATE_SHELL_ENVIRONMENT_VARIABLE> &__thiscall <class <struct _WINRS_CREATE_SHELL_ENVIRONMENT_VARIABLE>,struct _WINRS_CREATE_SHELL_ENVIRONMENT_VARIABLE *>::operator =(struct _WINRS_CREATE_SHELL_ENVIRONMENT_VARIABLE *)
??4?$AutoCleanup@V?$AutoDeleteVector@U_WINRS_CREATE_SHELL_ENVIRONMENT_VARIABLE@@@@PAU_WINRS_CREATE_SHELL_ENVIRONMENT_VARIABLE@@@@QAEAAV?$AutoDeleteVector@U_WINRS_CREATE_SHELL_ENVIRONMENT_VARIABLE@@@@PAU_WINRS_CREATE_SHELL_ENVIRONMENT_VARIABLE@@@Z ; has WINAPI (@4)
; public: class <struct _WINRS_RUN_COMMAND_ARG> &__thiscall <class <struct _WINRS_RUN_COMMAND_ARG>,struct _WINRS_RUN_COMMAND_ARG *>::operator =(struct _WINRS_RUN_COMMAND_ARG *)
??4?$AutoCleanup@V?$AutoDeleteVector@U_WINRS_RUN_COMMAND_ARG@@@@PAU_WINRS_RUN_COMMAND_ARG@@@@QAEAAV?$AutoDeleteVector@U_WINRS_RUN_COMMAND_ARG@@@@PAU_WINRS_RUN_COMMAND_ARG@@@Z ; has WINAPI (@4)
; public: class <struct _WSMAN_OPTION> &__thiscall <class <struct _WSMAN_OPTION>,struct _WSMAN_OPTION *>::operator =(struct _WSMAN_OPTION *)
??4?$AutoCleanup@V?$AutoDeleteVector@U_WSMAN_OPTION@@@@PAU_WSMAN_OPTION@@@@QAEAAV?$AutoDeleteVector@U_WSMAN_OPTION@@@@PAU_WSMAN_OPTION@@@Z ; has WINAPI (@4)
; public: class <void> &__thiscall <class <void>,void *>::operator =(void *)
??4?$AutoCleanup@V?$AutoDeleteVector@X@@PAX@@QAEAAV?$AutoDeleteVector@X@@PAX@Z ; has WINAPI (@4)
; public: class <unsigned char> &__thiscall <class <unsigned char>,unsigned char *>::operator =(unsigned char *)
??4?$AutoCleanup@V?$AutoFree@E@@PAE@@QAEAAV?$AutoFree@E@@PAE@Z ; has WINAPI (@4)
; public: class <class Packet> &__thiscall <class <class Packet>,class Packet *>::operator =(class Packet *)
??4?$AutoCleanup@V?$AutoLocklessItemRecycle@VPacket@@@@PAVPacket@@@@QAEAAV?$AutoLocklessItemRecycle@VPacket@@@@PAVPacket@@@Z ; has WINAPI (@4)
; public: class <struct IClientSecurity> &__thiscall <class <struct IClientSecurity>,struct IClientSecurity *>::operator =(struct IClientSecurity *)
??4?$AutoCleanup@V?$AutoRelease@UIClientSecurity@@@@PAUIClientSecurity@@@@QAEAAV?$AutoRelease@UIClientSecurity@@@@PAUIClientSecurity@@@Z ; has WINAPI (@4)
; public: class <struct IEnumWbemClassObject> &__thiscall <class <struct IEnumWbemClassObject>,struct IEnumWbemClassObject *>::operator =(struct IEnumWbemClassObject *)
??4?$AutoCleanup@V?$AutoRelease@UIEnumWbemClassObject@@@@PAUIEnumWbemClassObject@@@@QAEAAV?$AutoRelease@UIEnumWbemClassObject@@@@PAUIEnumWbemClassObject@@@Z ; has WINAPI (@4)
; public: class <struct IErrorInfo> &__thiscall <class <struct IErrorInfo>,struct IErrorInfo *>::operator =(struct IErrorInfo *)
??4?$AutoCleanup@V?$AutoRelease@UIErrorInfo@@@@PAUIErrorInfo@@@@QAEAAV?$AutoRelease@UIErrorInfo@@@@PAUIErrorInfo@@@Z ; has WINAPI (@4)
; public: class <struct IUnknown> &__thiscall <class <struct IUnknown>,struct IUnknown *>::operator =(struct IUnknown *)
??4?$AutoCleanup@V?$AutoRelease@UIUnknown@@@@PAUIUnknown@@@@QAEAAV?$AutoRelease@UIUnknown@@@@PAUIUnknown@@@Z ; has WINAPI (@4)
; public: class <struct IWbemClassObject> &__thiscall <class <struct IWbemClassObject>,struct IWbemClassObject *>::operator =(struct IWbemClassObject *)
??4?$AutoCleanup@V?$AutoRelease@UIWbemClassObject@@@@PAUIWbemClassObject@@@@QAEAAV?$AutoRelease@UIWbemClassObject@@@@PAUIWbemClassObject@@@Z ; has WINAPI (@4)
; public: class <struct IWbemContext> &__thiscall <class <struct IWbemContext>,struct IWbemContext *>::operator =(struct IWbemContext *)
??4?$AutoCleanup@V?$AutoRelease@UIWbemContext@@@@PAUIWbemContext@@@@QAEAAV?$AutoRelease@UIWbemContext@@@@PAUIWbemContext@@@Z ; has WINAPI (@4)
; public: class <struct IWbemLocator> &__thiscall <class <struct IWbemLocator>,struct IWbemLocator *>::operator =(struct IWbemLocator *)
??4?$AutoCleanup@V?$AutoRelease@UIWbemLocator@@@@PAUIWbemLocator@@@@QAEAAV?$AutoRelease@UIWbemLocator@@@@PAUIWbemLocator@@@Z ; has WINAPI (@4)
; public: class <struct IWbemObjectTextSrc> &__thiscall <class <struct IWbemObjectTextSrc>,struct IWbemObjectTextSrc *>::operator =(struct IWbemObjectTextSrc *)
??4?$AutoCleanup@V?$AutoRelease@UIWbemObjectTextSrc@@@@PAUIWbemObjectTextSrc@@@@QAEAAV?$AutoRelease@UIWbemObjectTextSrc@@@@PAUIWbemObjectTextSrc@@@Z ; has WINAPI (@4)
; public: class <struct IWbemPath> &__thiscall <class <struct IWbemPath>,struct IWbemPath *>::operator =(struct IWbemPath *)
??4?$AutoCleanup@V?$AutoRelease@UIWbemPath@@@@PAUIWbemPath@@@@QAEAAV?$AutoRelease@UIWbemPath@@@@PAUIWbemPath@@@Z ; has WINAPI (@4)
; public: class <struct IWbemPathKeyList> &__thiscall <class <struct IWbemPathKeyList>,struct IWbemPathKeyList *>::operator =(struct IWbemPathKeyList *)
??4?$AutoCleanup@V?$AutoRelease@UIWbemPathKeyList@@@@PAUIWbemPathKeyList@@@@QAEAAV?$AutoRelease@UIWbemPathKeyList@@@@PAUIWbemPathKeyList@@@Z ; has WINAPI (@4)
; public: class <struct IWbemQualifierSet> &__thiscall <class <struct IWbemQualifierSet>,struct IWbemQualifierSet *>::operator =(struct IWbemQualifierSet *)
??4?$AutoCleanup@V?$AutoRelease@UIWbemQualifierSet@@@@PAUIWbemQualifierSet@@@@QAEAAV?$AutoRelease@UIWbemQualifierSet@@@@PAUIWbemQualifierSet@@@Z ; has WINAPI (@4)
; public: class <struct IWbemQuery> &__thiscall <class <struct IWbemQuery>,struct IWbemQuery *>::operator =(struct IWbemQuery *)
??4?$AutoCleanup@V?$AutoRelease@UIWbemQuery@@@@PAUIWbemQuery@@@@QAEAAV?$AutoRelease@UIWbemQuery@@@@PAUIWbemQuery@@@Z ; has WINAPI (@4)
; public: class <struct IWbemServices> &__thiscall <class <struct IWbemServices>,struct IWbemServices *>::operator =(struct IWbemServices *)
??4?$AutoCleanup@V?$AutoRelease@UIWbemServices@@@@PAUIWbemServices@@@@QAEAAV?$AutoRelease@UIWbemServices@@@@PAUIWbemServices@@@Z ; has WINAPI (@4)
; public: class <class WSMan::Client::Application> &__thiscall <class <class WSMan::Client::Application>,class WSMan::Client::Application *>::operator =(class WSMan::Client::Application *)
??4?$AutoCleanup@V?$AutoRelease@VApplication@Client@WSMan@@@@PAVApplication@Client@WSMan@@@@QAEAAV?$AutoRelease@VApplication@Client@WSMan@@@@PAVApplication@Client@WSMan@@@Z ; has WINAPI (@4)
; public: class <class CBaseConfigCache> &__thiscall <class <class CBaseConfigCache>,class CBaseConfigCache *>::operator =(class CBaseConfigCache *)
??4?$AutoCleanup@V?$AutoRelease@VCBaseConfigCache@@@@PAVCBaseConfigCache@@@@QAEAAV?$AutoRelease@VCBaseConfigCache@@@@PAVCBaseConfigCache@@@Z ; has WINAPI (@4)
; public: class <class CClientConfigSettings> &__thiscall <class <class CClientConfigSettings>,class CClientConfigSettings *>::operator =(class CClientConfigSettings *)
??4?$AutoCleanup@V?$AutoRelease@VCClientConfigSettings@@@@PAVCClientConfigSettings@@@@QAEAAV?$AutoRelease@VCClientConfigSettings@@@@PAVCClientConfigSettings@@@Z ; has WINAPI (@4)
; public: class <class CCommonConfigSettings> &__thiscall <class <class CCommonConfigSettings>,class CCommonConfigSettings *>::operator =(class CCommonConfigSettings *)
??4?$AutoCleanup@V?$AutoRelease@VCCommonConfigSettings@@@@PAVCCommonConfigSettings@@@@QAEAAV?$AutoRelease@VCCommonConfigSettings@@@@PAVCCommonConfigSettings@@@Z ; has WINAPI (@4)
; public: class <class CBaseConfigCache::CConfigCacheMap> &__thiscall <class <class CBaseConfigCache::CConfigCacheMap>,class CBaseConfigCache::CConfigCacheMap *>::operator =(class CBaseConfigCache::CConfigCacheMap *)
??4?$AutoCleanup@V?$AutoRelease@VCConfigCacheMap@CBaseConfigCache@@@@PAVCConfigCacheMap@CBaseConfigCache@@@@QAEAAV?$AutoRelease@VCConfigCacheMap@CBaseConfigCache@@@@PAVCConfigCacheMap@CBaseConfigCache@@@Z ; has WINAPI (@4)
; public: class <class CConfigManager> &__thiscall <class <class CConfigManager>,class CConfigManager *>::operator =(class CConfigManager *)
??4?$AutoCleanup@V?$AutoRelease@VCConfigManager@@@@PAVCConfigManager@@@@QAEAAV?$AutoRelease@VCConfigManager@@@@PAVCConfigManager@@@Z ; has WINAPI (@4)
; public: class <class CRemoteOperation> &__thiscall <class <class CRemoteOperation>,class CRemoteOperation *>::operator =(class CRemoteOperation *)
??4?$AutoCleanup@V?$AutoRelease@VCRemoteOperation@@@@PAVCRemoteOperation@@@@QAEAAV?$AutoRelease@VCRemoteOperation@@@@PAVCRemoteOperation@@@Z ; has WINAPI (@4)
; public: class <class CRemoteSession> &__thiscall <class <class CRemoteSession>,class CRemoteSession *>::operator =(class CRemoteSession *)
??4?$AutoCleanup@V?$AutoRelease@VCRemoteSession@@@@PAVCRemoteSession@@@@QAEAAV?$AutoRelease@VCRemoteSession@@@@PAVCRemoteSession@@@Z ; has WINAPI (@4)
; public: class <class CRequestContext> &__thiscall <class <class CRequestContext>,class CRequestContext *>::operator =(class CRequestContext *)
??4?$AutoCleanup@V?$AutoRelease@VCRequestContext@@@@PAVCRequestContext@@@@QAEAAV?$AutoRelease@VCRequestContext@@@@PAVCRequestContext@@@Z ; has WINAPI (@4)
; public: class <class CServiceCommonConfigSettings> &__thiscall <class <class CServiceCommonConfigSettings>,class CServiceCommonConfigSettings *>::operator =(class CServiceCommonConfigSettings *)
??4?$AutoCleanup@V?$AutoRelease@VCServiceCommonConfigSettings@@@@PAVCServiceCommonConfigSettings@@@@QAEAAV?$AutoRelease@VCServiceCommonConfigSettings@@@@PAVCServiceCommonConfigSettings@@@Z ; has WINAPI (@4)
; public: class <class CServiceConfigCache> &__thiscall <class <class CServiceConfigCache>,class CServiceConfigCache *>::operator =(class CServiceConfigCache *)
??4?$AutoCleanup@V?$AutoRelease@VCServiceConfigCache@@@@PAVCServiceConfigCache@@@@QAEAAV?$AutoRelease@VCServiceConfigCache@@@@PAVCServiceConfigCache@@@Z ; has WINAPI (@4)
; public: class <class CServiceConfigSettings> &__thiscall <class <class CServiceConfigSettings>,class CServiceConfigSettings *>::operator =(class CServiceConfigSettings *)
??4?$AutoCleanup@V?$AutoRelease@VCServiceConfigSettings@@@@PAVCServiceConfigSettings@@@@QAEAAV?$AutoRelease@VCServiceConfigSettings@@@@PAVCServiceConfigSettings@@@Z ; has WINAPI (@4)
; public: class <class CWSManEPR> &__thiscall <class <class CWSManEPR>,class CWSManEPR *>::operator =(class CWSManEPR *)
??4?$AutoCleanup@V?$AutoRelease@VCWSManEPR@@@@PAVCWSManEPR@@@@QAEAAV?$AutoRelease@VCWSManEPR@@@@PAVCWSManEPR@@@Z ; has WINAPI (@4)
; public: class <class CWSManGroupPolicyManager> &__thiscall <class <class CWSManGroupPolicyManager>,class CWSManGroupPolicyManager *>::operator =(class CWSManGroupPolicyManager *)
??4?$AutoCleanup@V?$AutoRelease@VCWSManGroupPolicyManager@@@@PAVCWSManGroupPolicyManager@@@@QAEAAV?$AutoRelease@VCWSManGroupPolicyManager@@@@PAVCWSManGroupPolicyManager@@@Z ; has WINAPI (@4)
; public: class <class CWSManResource> &__thiscall <class <class CWSManResource>,class CWSManResource *>::operator =(class CWSManResource *)
??4?$AutoCleanup@V?$AutoRelease@VCWSManResource@@@@PAVCWSManResource@@@@QAEAAV?$AutoRelease@VCWSManResource@@@@PAVCWSManResource@@@Z ; has WINAPI (@4)
; public: class <class CWinRSPluginConfigCache> &__thiscall <class <class CWinRSPluginConfigCache>,class CWinRSPluginConfigCache *>::operator =(class CWinRSPluginConfigCache *)
??4?$AutoCleanup@V?$AutoRelease@VCWinRSPluginConfigCache@@@@PAVCWinRSPluginConfigCache@@@@QAEAAV?$AutoRelease@VCWinRSPluginConfigCache@@@@PAVCWinRSPluginConfigCache@@@Z ; has WINAPI (@4)
; public: class <class CWinRSPluginConfigSettings> &__thiscall <class <class CWinRSPluginConfigSettings>,class CWinRSPluginConfigSettings *>::operator =(class CWinRSPluginConfigSettings *)
??4?$AutoCleanup@V?$AutoRelease@VCWinRSPluginConfigSettings@@@@PAVCWinRSPluginConfigSettings@@@@QAEAAV?$AutoRelease@VCWinRSPluginConfigSettings@@@@PAVCWinRSPluginConfigSettings@@@Z ; has WINAPI (@4)
; public: class <class EnumSinkEx> &__thiscall <class <class EnumSinkEx>,class EnumSinkEx *>::operator =(class EnumSinkEx *)
??4?$AutoCleanup@V?$AutoRelease@VEnumSinkEx@@@@PAVEnumSinkEx@@@@QAEAAV?$AutoRelease@VEnumSinkEx@@@@PAVEnumSinkEx@@@Z ; has WINAPI (@4)
; public: class <class GeneralSinkEx> &__thiscall <class <class GeneralSinkEx>,class GeneralSinkEx *>::operator =(class GeneralSinkEx *)
??4?$AutoCleanup@V?$AutoRelease@VGeneralSinkEx@@@@PAVGeneralSinkEx@@@@QAEAAV?$AutoRelease@VGeneralSinkEx@@@@PAVGeneralSinkEx@@@Z ; has WINAPI (@4)
; public: class <class IRequestContext> &__thiscall <class <class IRequestContext>,class IRequestContext *>::operator =(class IRequestContext *)
??4?$AutoCleanup@V?$AutoRelease@VIRequestContext@@@@PAVIRequestContext@@@@QAEAAV?$AutoRelease@VIRequestContext@@@@PAVIRequestContext@@@Z ; has WINAPI (@4)
; public: class <class ISubscription> &__thiscall <class <class ISubscription>,class ISubscription *>::operator =(class ISubscription *)
??4?$AutoCleanup@V?$AutoRelease@VISubscription@@@@PAVISubscription@@@@QAEAAV?$AutoRelease@VISubscription@@@@PAVISubscription@@@Z ; has WINAPI (@4)
; public: class <class InboundRequestDetails> &__thiscall <class <class InboundRequestDetails>,class InboundRequestDetails *>::operator =(class InboundRequestDetails *)
??4?$AutoCleanup@V?$AutoRelease@VInboundRequestDetails@@@@PAVInboundRequestDetails@@@@QAEAAV?$AutoRelease@VInboundRequestDetails@@@@PAVInboundRequestDetails@@@Z ; has WINAPI (@4)
; public: class <class UserRecord> &__thiscall <class <class UserRecord>,class UserRecord *>::operator =(class UserRecord *)
??4?$AutoCleanup@V?$AutoRelease@VUserRecord@@@@PAVUserRecord@@@@QAEAAV?$AutoRelease@VUserRecord@@@@PAVUserRecord@@@Z ; has WINAPI (@4)
; public: class <class WSManHttpListener> &__thiscall <class <class WSManHttpListener>,class WSManHttpListener *>::operator =(class WSManHttpListener *)
??4?$AutoCleanup@V?$AutoRelease@VWSManHttpListener@@@@PAVWSManHttpListener@@@@QAEAAV?$AutoRelease@VWSManHttpListener@@@@PAVWSManHttpListener@@@Z ; has WINAPI (@4)
; public: class <class WSMan::Client::Shell> &__thiscall <class <class WSMan::Client::Shell>,class WSMan::Client::Shell *>::operator =(class WSMan::Client::Shell *)
??4?$AutoCleanup@V?$AutoReleaseEx@VShell@Client@WSMan@@@@PAVShell@Client@WSMan@@@@QAEAAV?$AutoReleaseEx@VShell@Client@WSMan@@@@PAVShell@Client@WSMan@@@Z ; has WINAPI (@4)
; public: class AutoBstr &__thiscall <class AutoBstr,unsigned short *>::operator =(unsigned short *)
??4?$AutoCleanup@VAutoBstr@@PAG@@QAEAAVAutoBstr@@PAG@Z ; has WINAPI (@4)
; public: class AutoBstrNoAlloc &__thiscall <class AutoBstrNoAlloc,unsigned short *>::operator =(unsigned short *)
??4?$AutoCleanup@VAutoBstrNoAlloc@@PAG@@QAEAAVAutoBstrNoAlloc@@PAG@Z ; has WINAPI (@4)
; public: class AutoCertContext &__thiscall <class AutoCertContext,struct _CERT_CONTEXT const *>::operator =(struct _CERT_CONTEXT const *)
??4?$AutoCleanup@VAutoCertContext@@PBU_CERT_CONTEXT@@@@QAEAAVAutoCertContext@@PBU_CERT_CONTEXT@@@Z ; has WINAPI (@4)
; public: class AutoChainContext &__thiscall <class AutoChainContext,struct _CERT_CHAIN_CONTEXT const *>::operator =(struct _CERT_CHAIN_CONTEXT const *)
??4?$AutoCleanup@VAutoChainContext@@PBU_CERT_CHAIN_CONTEXT@@@@QAEAAVAutoChainContext@@PBU_CERT_CHAIN_CONTEXT@@@Z ; has WINAPI (@4)
; public: class AutoCoTaskMemFree &__thiscall <class AutoCoTaskMemFree,void *>::operator =(void *)
??4?$AutoCleanup@VAutoCoTaskMemFree@@PAX@@QAEAAVAutoCoTaskMemFree@@PAX@Z ; has WINAPI (@4)
; public: class AutoEnvironmentBlock &__thiscall <class AutoEnvironmentBlock,void *>::operator =(void *)
??4?$AutoCleanup@VAutoEnvironmentBlock@@PAX@@QAEAAVAutoEnvironmentBlock@@PAX@Z ; has WINAPI (@4)
; public: class AutoFwXmlCloseParser &__thiscall <class AutoFwXmlCloseParser,void *>::operator =(void *)
??4?$AutoCleanup@VAutoFwXmlCloseParser@@PAX@@QAEAAVAutoFwXmlCloseParser@@PAX@Z ; has WINAPI (@4)
; public: class AutoHandle &__thiscall <class AutoHandle,void *>::operator =(void *)
??4?$AutoCleanup@VAutoHandle@@PAX@@QAEAAVAutoHandle@@PAX@Z ; has WINAPI (@4)
; public: class AutoImpersonateUser &__thiscall <class AutoImpersonateUser,void *>::operator =(void *)
??4?$AutoCleanup@VAutoImpersonateUser@@PAX@@QAEAAVAutoImpersonateUser@@PAX@Z ; has WINAPI (@4)
; public: class AutoLibrary &__thiscall <class AutoLibrary,struct HINSTANCE__ *>::operator =(struct HINSTANCE__ *)
??4?$AutoCleanup@VAutoLibrary@@PAUHINSTANCE__@@@@QAEAAVAutoLibrary@@PAUHINSTANCE__@@@Z ; has WINAPI (@4)
; public: class AutoLocalFree &__thiscall <class AutoLocalFree,void *>::operator =(void *)
??4?$AutoCleanup@VAutoLocalFree@@PAX@@QAEAAVAutoLocalFree@@PAX@Z ; has WINAPI (@4)
; public: class AutoMIClass &__thiscall <class AutoMIClass,struct _MI_Class *>::operator =(struct _MI_Class *)
??4?$AutoCleanup@VAutoMIClass@@PAU_MI_Class@@@@QAEAAVAutoMIClass@@PAU_MI_Class@@@Z ; has WINAPI (@4)
; public: class AutoMIInstance &__thiscall <class AutoMIInstance,struct _MI_Instance *>::operator =(struct _MI_Instance *)
??4?$AutoCleanup@VAutoMIInstance@@PAU_MI_Instance@@@@QAEAAVAutoMIInstance@@PAU_MI_Instance@@@Z ; has WINAPI (@4)
; public: class AutoObject &__thiscall <class AutoObject,struct WSMAN_OBJECT *>::operator =(struct WSMAN_OBJECT *)
??4?$AutoCleanup@VAutoObject@@PAUWSMAN_OBJECT@@@@QAEAAVAutoObject@@PAUWSMAN_OBJECT@@@Z ; has WINAPI (@4)
; public: class AutoRegKey &__thiscall <class AutoRegKey,struct HKEY__ *>::operator =(struct HKEY__ *)
??4?$AutoCleanup@VAutoRegKey@@PAUHKEY__@@@@QAEAAVAutoRegKey@@PAUHKEY__@@@Z ; has WINAPI (@4)
; public: class AutoSecurityDescriptor &__thiscall <class AutoSecurityDescriptor,void *>::operator =(void *)
??4?$AutoCleanup@VAutoSecurityDescriptor@@PAX@@QAEAAVAutoSecurityDescriptor@@PAX@Z ; has WINAPI (@4)
; public: class AutoWaitHandle &__thiscall <class AutoWaitHandle,void *>::operator =(void *)
??4?$AutoCleanup@VAutoWaitHandle@@PAX@@QAEAAVAutoWaitHandle@@PAX@Z ; has WINAPI (@4)
; public: class <char> &__thiscall <char>::operator =(char *)
??4?$AutoDelete@D@@QAEAAV0@PAD@Z ; has WINAPI (@4)
; public: class <unsigned short> &__thiscall <unsigned short>::operator =(unsigned short *)
??4?$AutoDelete@G@@QAEAAV0@PAG@Z ; has WINAPI (@4)
; public: class <class <class StringKeyCI,unsigned long>> &__thiscall <class <class StringKeyCI,unsigned long>>::operator =(class <class StringKeyCI,unsigned long> *)
??4?$AutoDelete@V?$SafeMap_Iterator@VStringKeyCI@@K@@@@QAEAAV0@PAV?$SafeMap_Iterator@VStringKeyCI@@K@@@Z ; has WINAPI (@4)
; public: class <class <enum WSManSessionOption,class WSMan::Client::SessionOptions::OptionValue *>> &__thiscall <class <enum WSManSessionOption,class WSMan::Client::SessionOptions::OptionValue *>>::operator =(class <enum WSManSessionOption,class WSMan::Client::SessionOptions::OptionValue *> *)
??4?$AutoDelete@V?$SafeMap_Iterator@W4WSManSessionOption@@PAVOptionValue@SessionOptions@Client@WSMan@@@@@@QAEAAV0@PAV?$SafeMap_Iterator@W4WSManSessionOption@@PAVOptionValue@SessionOptions@Client@WSMan@@@@@Z ; has WINAPI (@4)
; public: class <class <class CCertMapping *>> &__thiscall <class <class CCertMapping *>>::operator =(class <class CCertMapping *> *)
??4?$AutoDelete@V?$SafeSet@PAVCCertMapping@@@@@@QAEAAV0@PAV?$SafeSet@PAVCCertMapping@@@@@Z ; has WINAPI (@4)
; public: class <class <class CShellUriSettings *>> &__thiscall <class <class CShellUriSettings *>>::operator =(class <class CShellUriSettings *> *)
??4?$AutoDelete@V?$SafeSet@PAVCShellUriSettings@@@@@@QAEAAV0@PAV?$SafeSet@PAVCShellUriSettings@@@@@Z ; has WINAPI (@4)
; public: class <class <class CListenerOperation *>> &__thiscall <class <class CListenerOperation *>>::operator =(class <class CListenerOperation *> *)
??4?$AutoDelete@V?$SafeSet_Iterator@PAVCListenerOperation@@@@@@QAEAAV0@PAV?$SafeSet_Iterator@PAVCListenerOperation@@@@@Z ; has WINAPI (@4)
; public: class <class std::<class CListenerSettings *,class CServiceConfigSettings::CListenerSettingsLessFunctor,class <class CListenerSettings *>>> &__thiscall <class std::<class CListenerSettings *,class CServiceConfigSettings::CListenerSettingsLessFunctor,class <class CListenerSettings *>>>::operator =(class std::<class CListenerSettings *,class CServiceConfigSettings::CListenerSettingsLessFunctor,class <class CListenerSettings *>> *)
??4?$AutoDelete@V?$set@PAVCListenerSettings@@VCListenerSettingsLessFunctor@CServiceConfigSettings@@V?$transport_allocator@PAVCListenerSettings@@@@@std@@@@QAEAAV0@PAV?$set@PAVCListenerSettings@@VCListenerSettingsLessFunctor@CServiceConfigSettings@@V?$transport_allocator@PAVCListenerSettings@@@@@std@@@Z ; has WINAPI (@4)
; public: class <class std::<struct sockaddr_storage,class CListenerSettings::SockAddrLessFunctor,class <struct sockaddr_storage>>> &__thiscall <class std::<struct sockaddr_storage,class CListenerSettings::SockAddrLessFunctor,class <struct sockaddr_storage>>>::operator =(class std::<struct sockaddr_storage,class CListenerSettings::SockAddrLessFunctor,class <struct sockaddr_storage>> *)
??4?$AutoDelete@V?$set@Usockaddr_storage@@VSockAddrLessFunctor@CListenerSettings@@V?$transport_allocator@Usockaddr_storage@@@@@std@@@@QAEAAV0@PAV?$set@Usockaddr_storage@@VSockAddrLessFunctor@CListenerSettings@@V?$transport_allocator@Usockaddr_storage@@@@@std@@@Z ; has WINAPI (@4)
; public: class <class std::<class WSMan::Client::HandleImpl *,class <class WSMan::Client::HandleImpl *>>> &__thiscall <class std::<class WSMan::Client::HandleImpl *,class <class WSMan::Client::HandleImpl *>>>::operator =(class std::<class WSMan::Client::HandleImpl *,class <class WSMan::Client::HandleImpl *>> *)
??4?$AutoDelete@V?$vector@PAVHandleImpl@Client@WSMan@@V?$transport_allocator@PAVHandleImpl@Client@WSMan@@@@@std@@@@QAEAAV0@PAV?$vector@PAVHandleImpl@Client@WSMan@@V?$transport_allocator@PAVHandleImpl@Client@WSMan@@@@@std@@@Z ; has WINAPI (@4)
; public: class <class std::<class IServiceConfigObserver *,class <class IServiceConfigObserver *>>> &__thiscall <class std::<class IServiceConfigObserver *,class <class IServiceConfigObserver *>>>::operator =(class std::<class IServiceConfigObserver *,class <class IServiceConfigObserver *>> *)
??4?$AutoDelete@V?$vector@PAVIServiceConfigObserver@@V?$transport_allocator@PAVIServiceConfigObserver@@@@@std@@@@QAEAAV0@PAV?$vector@PAVIServiceConfigObserver@@V?$transport_allocator@PAVIServiceConfigObserver@@@@@std@@@Z ; has WINAPI (@4)
; public: class <class BlockedRecord> &__thiscall <class BlockedRecord>::operator =(class BlockedRecord *)
??4?$AutoDelete@VBlockedRecord@@@@QAEAAV0@PAVBlockedRecord@@@Z ; has WINAPI (@4)
; public: class <class CConfigChangeSource> &__thiscall <class CConfigChangeSource>::operator =(class CConfigChangeSource *)
??4?$AutoDelete@VCConfigChangeSource@@@@QAEAAV0@PAVCConfigChangeSource@@@Z ; has WINAPI (@4)
; public: class <class CObserverConfigChangeErrors> &__thiscall <class CObserverConfigChangeErrors>::operator =(class CObserverConfigChangeErrors *)
??4?$AutoDelete@VCObserverConfigChangeErrors@@@@QAEAAV0@PAVCObserverConfigChangeErrors@@@Z ; has WINAPI (@4)
; public: class <class CServiceConfigCache::CServiceWatcher> &__thiscall <class CServiceConfigCache::CServiceWatcher>::operator =(class CServiceConfigCache::CServiceWatcher *)
??4?$AutoDelete@VCServiceWatcher@CServiceConfigCache@@@@QAEAAV0@PAVCServiceWatcher@CServiceConfigCache@@@Z ; has WINAPI (@4)
; public: class <class CWSManResource> &__thiscall <class CWSManResource>::operator =(class CWSManResource *)
??4?$AutoDelete@VCWSManResource@@@@QAEAAV0@PAVCWSManResource@@@Z ; has WINAPI (@4)
; public: class <class CertHash> &__thiscall <class CertHash>::operator =(class CertHash *)
??4?$AutoDelete@VCertHash@@@@QAEAAV0@PAVCertHash@@@Z ; has WINAPI (@4)
; public: class <class ConfigUpdate> &__thiscall <class ConfigUpdate>::operator =(class ConfigUpdate *)
??4?$AutoDelete@VConfigUpdate@@@@QAEAAV0@PAVConfigUpdate@@@Z ; has WINAPI (@4)
; public: class <class EnumSinkEx> &__thiscall <class EnumSinkEx>::operator =(class EnumSinkEx *)
??4?$AutoDelete@VEnumSinkEx@@@@QAEAAV0@PAVEnumSinkEx@@@Z ; has WINAPI (@4)
; public: class <class GPApiManager> &__thiscall <class GPApiManager>::operator =(class GPApiManager *)
??4?$AutoDelete@VGPApiManager@@@@QAEAAV0@PAVGPApiManager@@@Z ; has WINAPI (@4)
; public: class <class GeneralSinkEx> &__thiscall <class GeneralSinkEx>::operator =(class GeneralSinkEx *)
??4?$AutoDelete@VGeneralSinkEx@@@@QAEAAV0@PAVGeneralSinkEx@@@Z ; has WINAPI (@4)
; public: class <class IChannelObserverFactory> &__thiscall <class IChannelObserverFactory>::operator =(class IChannelObserverFactory *)
??4?$AutoDelete@VIChannelObserverFactory@@@@QAEAAV0@PAVIChannelObserverFactory@@@Z ; has WINAPI (@4)
; public: class <class IQueryDASHSMASHInterface> &__thiscall <class IQueryDASHSMASHInterface>::operator =(class IQueryDASHSMASHInterface *)
??4?$AutoDelete@VIQueryDASHSMASHInterface@@@@QAEAAV0@PAVIQueryDASHSMASHInterface@@@Z ; has WINAPI (@4)
; public: class <class ISpecification> &__thiscall <class ISpecification>::operator =(class ISpecification *)
??4?$AutoDelete@VISpecification@@@@QAEAAV0@PAVISpecification@@@Z ; has WINAPI (@4)
; public: class <class PacketCreator> &__thiscall <class PacketCreator>::operator =(class PacketCreator *)
??4?$AutoDelete@VPacketCreator@@@@QAEAAV0@PAVPacketCreator@@@Z ; has WINAPI (@4)
; public: class <class PacketParser> &__thiscall <class PacketParser>::operator =(class PacketParser *)
??4?$AutoDelete@VPacketParser@@@@QAEAAV0@PAVPacketParser@@@Z ; has WINAPI (@4)
; public: class <class RunAsConfiguration> &__thiscall <class RunAsConfiguration>::operator =(class RunAsConfiguration *)
??4?$AutoDelete@VRunAsConfiguration@@@@QAEAAV0@PAVRunAsConfiguration@@@Z ; has WINAPI (@4)
; public: class <class Catalog::SecurityEntry> &__thiscall <class Catalog::SecurityEntry>::operator =(class Catalog::SecurityEntry *)
??4?$AutoDelete@VSecurityEntry@Catalog@@@@QAEAAV0@PAVSecurityEntry@Catalog@@@Z ; has WINAPI (@4)
; public: class <class ServiceSoapProcessor> &__thiscall <class ServiceSoapProcessor>::operator =(class ServiceSoapProcessor *)
??4?$AutoDelete@VServiceSoapProcessor@@@@QAEAAV0@PAVServiceSoapProcessor@@@Z ; has WINAPI (@4)
; public: class <class SubscriptionEnumerator> &__thiscall <class SubscriptionEnumerator>::operator =(class SubscriptionEnumerator *)
??4?$AutoDelete@VSubscriptionEnumerator@@@@QAEAAV0@PAVSubscriptionEnumerator@@@Z ; has WINAPI (@4)
; public: class <class TSTRBUFFER> &__thiscall <class TSTRBUFFER>::operator =(class TSTRBUFFER *)
??4?$AutoDelete@VTSTRBUFFER@@@@QAEAAV0@PAVTSTRBUFFER@@@Z ; has WINAPI (@4)
; public: class <class UniqueStringOverflow> &__thiscall <class UniqueStringOverflow>::operator =(class UniqueStringOverflow *)
??4?$AutoDelete@VUniqueStringOverflow@@@@QAEAAV0@PAVUniqueStringOverflow@@@Z ; has WINAPI (@4)
; public: class <class WSMANCONFIGTABLE_IDENTITY> &__thiscall <class WSMANCONFIGTABLE_IDENTITY>::operator =(class WSMANCONFIGTABLE_IDENTITY *)
??4?$AutoDelete@VWSMANCONFIGTABLE_IDENTITY@@@@QAEAAV0@PAVWSMANCONFIGTABLE_IDENTITY@@@Z ; has WINAPI (@4)
; public: class <class WmiEnumContext> &__thiscall <class WmiEnumContext>::operator =(class WmiEnumContext *)
??4?$AutoDelete@VWmiEnumContext@@@@QAEAAV0@PAVWmiEnumContext@@@Z ; has WINAPI (@4)
; public: class <class XmlReader> &__thiscall <class XmlReader>::operator =(class XmlReader *)
??4?$AutoDelete@VXmlReader@@@@QAEAAV0@PAVXmlReader@@@Z ; has WINAPI (@4)
; public: class <unsigned short const> &__thiscall <unsigned short const>::operator =(unsigned short const *)
??4?$AutoDeleteVector@$$CBG@@QAEAAV0@PBG@Z ; has WINAPI (@4)
; public: class <char> &__thiscall <char>::operator =(char *)
??4?$AutoDeleteVector@D@@QAEAAV0@PAD@Z ; has WINAPI (@4)
; public: class <unsigned char> &__thiscall <unsigned char>::operator =(unsigned char *)
??4?$AutoDeleteVector@E@@QAEAAV0@PAE@Z ; has WINAPI (@4)
; public: class <unsigned short> &__thiscall <unsigned short>::operator =(unsigned short *)
??4?$AutoDeleteVector@G@@QAEAAV0@PAG@Z ; has WINAPI (@4)
; public: class <unsigned short *> &__thiscall <unsigned short *>::operator =(unsigned short **)
??4?$AutoDeleteVector@PAG@@QAEAAV0@PAPAG@Z ; has WINAPI (@4)
; public: class <unsigned short const *> &__thiscall <unsigned short const *>::operator =(unsigned short const **)
??4?$AutoDeleteVector@PBG@@QAEAAV0@PAPBG@Z ; has WINAPI (@4)
; public: class <struct _CONFIG_UPDATE> &__thiscall <struct _CONFIG_UPDATE>::operator =(struct _CONFIG_UPDATE *)
??4?$AutoDeleteVector@U_CONFIG_UPDATE@@@@QAEAAV0@PAU_CONFIG_UPDATE@@@Z ; has WINAPI (@4)
; public: class <struct _WINRS_CREATE_SHELL_ENVIRONMENT_VARIABLE> &__thiscall <struct _WINRS_CREATE_SHELL_ENVIRONMENT_VARIABLE>::operator =(struct _WINRS_CREATE_SHELL_ENVIRONMENT_VARIABLE *)
??4?$AutoDeleteVector@U_WINRS_CREATE_SHELL_ENVIRONMENT_VARIABLE@@@@QAEAAV0@PAU_WINRS_CREATE_SHELL_ENVIRONMENT_VARIABLE@@@Z ; has WINAPI (@4)
; public: class <struct _WINRS_RUN_COMMAND_ARG> &__thiscall <struct _WINRS_RUN_COMMAND_ARG>::operator =(struct _WINRS_RUN_COMMAND_ARG *)
??4?$AutoDeleteVector@U_WINRS_RUN_COMMAND_ARG@@@@QAEAAV0@PAU_WINRS_RUN_COMMAND_ARG@@@Z ; has WINAPI (@4)
; public: class <struct _WSMAN_OPTION> &__thiscall <struct _WSMAN_OPTION>::operator =(struct _WSMAN_OPTION *)
??4?$AutoDeleteVector@U_WSMAN_OPTION@@@@QAEAAV0@PAU_WSMAN_OPTION@@@Z ; has WINAPI (@4)
; public: class <void> &__thiscall <void>::operator =(void *)
??4?$AutoDeleteVector@X@@QAEAAV0@PAX@Z ; has WINAPI (@4)
; public: class <unsigned char> &__thiscall <unsigned char>::operator =(unsigned char *)
??4?$AutoFree@E@@QAEAAV0@PAE@Z ; has WINAPI (@4)
; public: class <class Packet> &__thiscall <class Packet>::operator =(class Packet *)
??4?$AutoLocklessItemRecycle@VPacket@@@@QAEAAV0@PAVPacket@@@Z ; has WINAPI (@4)
; public: class <struct IClientSecurity> &__thiscall <struct IClientSecurity>::operator =(struct IClientSecurity *)
??4?$AutoRelease@UIClientSecurity@@@@QAEAAV0@PAUIClientSecurity@@@Z ; has WINAPI (@4)
; public: class <struct IEnumWbemClassObject> &__thiscall <struct IEnumWbemClassObject>::operator =(struct IEnumWbemClassObject *)
??4?$AutoRelease@UIEnumWbemClassObject@@@@QAEAAV0@PAUIEnumWbemClassObject@@@Z ; has WINAPI (@4)
; public: class <struct IErrorInfo> &__thiscall <struct IErrorInfo>::operator =(struct IErrorInfo *)
??4?$AutoRelease@UIErrorInfo@@@@QAEAAV0@PAUIErrorInfo@@@Z ; has WINAPI (@4)
; public: class <struct IUnknown> &__thiscall <struct IUnknown>::operator =(struct IUnknown *)
??4?$AutoRelease@UIUnknown@@@@QAEAAV0@PAUIUnknown@@@Z ; has WINAPI (@4)
; public: class <struct IWbemClassObject> &__thiscall <struct IWbemClassObject>::operator =(struct IWbemClassObject *)
??4?$AutoRelease@UIWbemClassObject@@@@QAEAAV0@PAUIWbemClassObject@@@Z ; has WINAPI (@4)
; public: class <struct IWbemContext> &__thiscall <struct IWbemContext>::operator =(struct IWbemContext *)
??4?$AutoRelease@UIWbemContext@@@@QAEAAV0@PAUIWbemContext@@@Z ; has WINAPI (@4)
; public: class <struct IWbemLocator> &__thiscall <struct IWbemLocator>::operator =(struct IWbemLocator *)
??4?$AutoRelease@UIWbemLocator@@@@QAEAAV0@PAUIWbemLocator@@@Z ; has WINAPI (@4)
; public: class <struct IWbemObjectTextSrc> &__thiscall <struct IWbemObjectTextSrc>::operator =(struct IWbemObjectTextSrc *)
??4?$AutoRelease@UIWbemObjectTextSrc@@@@QAEAAV0@PAUIWbemObjectTextSrc@@@Z ; has WINAPI (@4)
; public: class <struct IWbemPath> &__thiscall <struct IWbemPath>::operator =(struct IWbemPath *)
??4?$AutoRelease@UIWbemPath@@@@QAEAAV0@PAUIWbemPath@@@Z ; has WINAPI (@4)
; public: class <struct IWbemPathKeyList> &__thiscall <struct IWbemPathKeyList>::operator =(struct IWbemPathKeyList *)
??4?$AutoRelease@UIWbemPathKeyList@@@@QAEAAV0@PAUIWbemPathKeyList@@@Z ; has WINAPI (@4)
; public: class <struct IWbemQualifierSet> &__thiscall <struct IWbemQualifierSet>::operator =(struct IWbemQualifierSet *)
??4?$AutoRelease@UIWbemQualifierSet@@@@QAEAAV0@PAUIWbemQualifierSet@@@Z ; has WINAPI (@4)
; public: class <struct IWbemQuery> &__thiscall <struct IWbemQuery>::operator =(struct IWbemQuery *)
??4?$AutoRelease@UIWbemQuery@@@@QAEAAV0@PAUIWbemQuery@@@Z ; has WINAPI (@4)
; public: class <struct IWbemServices> &__thiscall <struct IWbemServices>::operator =(struct IWbemServices *)
??4?$AutoRelease@UIWbemServices@@@@QAEAAV0@PAUIWbemServices@@@Z ; has WINAPI (@4)
; public: class <class WSMan::Client::Application> &__thiscall <class WSMan::Client::Application>::operator =(class WSMan::Client::Application *)
??4?$AutoRelease@VApplication@Client@WSMan@@@@QAEAAV0@PAVApplication@Client@WSMan@@@Z ; has WINAPI (@4)
; public: class <class CBaseConfigCache> &__thiscall <class CBaseConfigCache>::operator =(class CBaseConfigCache *)
??4?$AutoRelease@VCBaseConfigCache@@@@QAEAAV0@PAVCBaseConfigCache@@@Z ; has WINAPI (@4)
; public: class <class CClientConfigSettings> &__thiscall <class CClientConfigSettings>::operator =(class CClientConfigSettings *)
??4?$AutoRelease@VCClientConfigSettings@@@@QAEAAV0@PAVCClientConfigSettings@@@Z ; has WINAPI (@4)
; public: class <class CCommonConfigSettings> &__thiscall <class CCommonConfigSettings>::operator =(class CCommonConfigSettings *)
??4?$AutoRelease@VCCommonConfigSettings@@@@QAEAAV0@PAVCCommonConfigSettings@@@Z ; has WINAPI (@4)
; public: class <class CBaseConfigCache::CConfigCacheMap> &__thiscall <class CBaseConfigCache::CConfigCacheMap>::operator =(class CBaseConfigCache::CConfigCacheMap *)
??4?$AutoRelease@VCConfigCacheMap@CBaseConfigCache@@@@QAEAAV0@PAVCConfigCacheMap@CBaseConfigCache@@@Z ; has WINAPI (@4)
; public: class <class CConfigManager> &__thiscall <class CConfigManager>::operator =(class CConfigManager *)
??4?$AutoRelease@VCConfigManager@@@@QAEAAV0@PAVCConfigManager@@@Z ; has WINAPI (@4)
; public: class <class CRemoteOperation> &__thiscall <class CRemoteOperation>::operator =(class CRemoteOperation *)
??4?$AutoRelease@VCRemoteOperation@@@@QAEAAV0@PAVCRemoteOperation@@@Z ; has WINAPI (@4)
; public: class <class CRemoteSession> &__thiscall <class CRemoteSession>::operator =(class CRemoteSession *)
??4?$AutoRelease@VCRemoteSession@@@@QAEAAV0@PAVCRemoteSession@@@Z ; has WINAPI (@4)
; public: class <class CRequestContext> &__thiscall <class CRequestContext>::operator =(class CRequestContext *)
??4?$AutoRelease@VCRequestContext@@@@QAEAAV0@PAVCRequestContext@@@Z ; has WINAPI (@4)
; public: class <class CServiceCommonConfigSettings> &__thiscall <class CServiceCommonConfigSettings>::operator =(class CServiceCommonConfigSettings *)
??4?$AutoRelease@VCServiceCommonConfigSettings@@@@QAEAAV0@PAVCServiceCommonConfigSettings@@@Z ; has WINAPI (@4)
; public: class <class CServiceConfigCache> &__thiscall <class CServiceConfigCache>::operator =(class CServiceConfigCache *)
??4?$AutoRelease@VCServiceConfigCache@@@@QAEAAV0@PAVCServiceConfigCache@@@Z ; has WINAPI (@4)
; public: class <class CServiceConfigSettings> &__thiscall <class CServiceConfigSettings>::operator =(class CServiceConfigSettings *)
??4?$AutoRelease@VCServiceConfigSettings@@@@QAEAAV0@PAVCServiceConfigSettings@@@Z ; has WINAPI (@4)
; public: class <class CWSManEPR> &__thiscall <class CWSManEPR>::operator =(class CWSManEPR *)
??4?$AutoRelease@VCWSManEPR@@@@QAEAAV0@PAVCWSManEPR@@@Z ; has WINAPI (@4)
; public: class <class CWSManGroupPolicyManager> &__thiscall <class CWSManGroupPolicyManager>::operator =(class CWSManGroupPolicyManager *)
??4?$AutoRelease@VCWSManGroupPolicyManager@@@@QAEAAV0@PAVCWSManGroupPolicyManager@@@Z ; has WINAPI (@4)
; public: class <class CWSManResource> &__thiscall <class CWSManResource>::operator =(class CWSManResource *)
??4?$AutoRelease@VCWSManResource@@@@QAEAAV0@PAVCWSManResource@@@Z ; has WINAPI (@4)
; public: class <class CWinRSPluginConfigCache> &__thiscall <class CWinRSPluginConfigCache>::operator =(class CWinRSPluginConfigCache *)
??4?$AutoRelease@VCWinRSPluginConfigCache@@@@QAEAAV0@PAVCWinRSPluginConfigCache@@@Z ; has WINAPI (@4)
; public: class <class CWinRSPluginConfigSettings> &__thiscall <class CWinRSPluginConfigSettings>::operator =(class CWinRSPluginConfigSettings *)
??4?$AutoRelease@VCWinRSPluginConfigSettings@@@@QAEAAV0@PAVCWinRSPluginConfigSettings@@@Z ; has WINAPI (@4)
; public: class <class EnumSinkEx> &__thiscall <class EnumSinkEx>::operator =(class EnumSinkEx *)
??4?$AutoRelease@VEnumSinkEx@@@@QAEAAV0@PAVEnumSinkEx@@@Z ; has WINAPI (@4)
; public: class <class GeneralSinkEx> &__thiscall <class GeneralSinkEx>::operator =(class GeneralSinkEx *)
??4?$AutoRelease@VGeneralSinkEx@@@@QAEAAV0@PAVGeneralSinkEx@@@Z ; has WINAPI (@4)
; public: class <class IRequestContext> &__thiscall <class IRequestContext>::operator =(class IRequestContext *)
??4?$AutoRelease@VIRequestContext@@@@QAEAAV0@PAVIRequestContext@@@Z ; has WINAPI (@4)
; public: class <class ISubscription> &__thiscall <class ISubscription>::operator =(class ISubscription *)
??4?$AutoRelease@VISubscription@@@@QAEAAV0@PAVISubscription@@@Z ; has WINAPI (@4)
; public: class <class InboundRequestDetails> &__thiscall <class InboundRequestDetails>::operator =(class InboundRequestDetails *)
??4?$AutoRelease@VInboundRequestDetails@@@@QAEAAV0@PAVInboundRequestDetails@@@Z ; has WINAPI (@4)
; public: class <class UserRecord> &__thiscall <class UserRecord>::operator =(class UserRecord *)
??4?$AutoRelease@VUserRecord@@@@QAEAAV0@PAVUserRecord@@@Z ; has WINAPI (@4)
; public: class <class WSManHttpListener> &__thiscall <class WSManHttpListener>::operator =(class WSManHttpListener *)
??4?$AutoRelease@VWSManHttpListener@@@@QAEAAV0@PAVWSManHttpListener@@@Z ; has WINAPI (@4)
; public: class <class WSMan::Client::Shell> &__thiscall <class WSMan::Client::Shell>::operator =(class WSMan::Client::Shell *)
??4?$AutoReleaseEx@VShell@Client@WSMan@@@@QAEAAV0@PAVShell@Client@WSMan@@@Z ; has WINAPI (@4)
; public: class PacketParser::<unsigned long> &__thiscall PacketParser::<unsigned long>::operator =(class PacketParser::<unsigned long> const &)
??4?$PacketElement@K@PacketParser@@QAEAAV01@ABV01@@Z ; has WINAPI (@4)
; public: class PacketParser::<struct _FWXML_ELEMENT *> &__thiscall PacketParser::<struct _FWXML_ELEMENT *>::operator =(class PacketParser::<struct _FWXML_ELEMENT *> const &)
??4?$PacketElement@PAU_FWXML_ELEMENT@@@PacketParser@@QAEAAV01@ABV01@@Z ; has WINAPI (@4)
; public: class PacketParser::<unsigned short const *> &__thiscall PacketParser::<unsigned short const *>::operator =(class PacketParser::<unsigned short const *> const &)
??4?$PacketElement@PBG@PacketParser@@QAEAAV01@ABV01@@Z ; has WINAPI (@4)
; public: class PacketParser::<unsigned __int64> &__thiscall PacketParser::<unsigned __int64>::operator =(class PacketParser::<unsigned __int64> const &)
??4?$PacketElement@_K@PacketParser@@QAEAAV01@ABV01@@Z ; has WINAPI (@4)
; public: class <union _LARGE_INTEGER> &__thiscall <union _LARGE_INTEGER>::operator =(class <union _LARGE_INTEGER> const &)
??4?$SimpleQueue@T_LARGE_INTEGER@@@@QAEAAV0@ABV0@@Z ; has WINAPI (@4)
; public: class AutoBstr &__thiscall AutoBstr::operator =(unsigned short *)
??4AutoBstr@@QAEAAV0@PAG@Z ; has WINAPI (@4)
; public: class AutoBstrNoAlloc &__thiscall AutoBstrNoAlloc::operator =(unsigned short *)
??4AutoBstrNoAlloc@@QAEAAV0@PAG@Z ; has WINAPI (@4)
; public: class AutoCertContext &__thiscall AutoCertContext::operator =(struct _CERT_CONTEXT const *)
??4AutoCertContext@@QAEAAV0@PBU_CERT_CONTEXT@@@Z ; has WINAPI (@4)
; public: class AutoChainContext &__thiscall AutoChainContext::operator =(struct _CERT_CHAIN_CONTEXT const *)
??4AutoChainContext@@QAEAAV0@PBU_CERT_CHAIN_CONTEXT@@@Z ; has WINAPI (@4)
; public: class AutoCoTaskMemFree &__thiscall AutoCoTaskMemFree::operator =(void *)
??4AutoCoTaskMemFree@@QAEAAV0@PAX@Z ; has WINAPI (@4)
; public: class AutoEnvironmentBlock &__thiscall AutoEnvironmentBlock::operator =(void *)
??4AutoEnvironmentBlock@@QAEAAV0@PAX@Z ; has WINAPI (@4)
; public: class AutoFwXmlCloseParser &__thiscall AutoFwXmlCloseParser::operator =(void *)
??4AutoFwXmlCloseParser@@QAEAAV0@PAX@Z ; has WINAPI (@4)
; public: class AutoHandle &__thiscall AutoHandle::operator =(void *)
??4AutoHandle@@QAEAAV0@PAX@Z ; has WINAPI (@4)
; public: class AutoImpersonateUser &__thiscall AutoImpersonateUser::operator =(void *)
??4AutoImpersonateUser@@QAEAAV0@PAX@Z ; has WINAPI (@4)
; public: class AutoLibrary &__thiscall AutoLibrary::operator =(struct HINSTANCE__ *)
??4AutoLibrary@@QAEAAV0@PAUHINSTANCE__@@@Z ; has WINAPI (@4)
; public: class AutoLocalFree &__thiscall AutoLocalFree::operator =(void *)
??4AutoLocalFree@@QAEAAV0@PAX@Z ; has WINAPI (@4)
; public: class AutoMIClass &__thiscall AutoMIClass::operator =(struct _MI_Class *)
??4AutoMIClass@@QAEAAV0@PAU_MI_Class@@@Z ; has WINAPI (@4)
; public: class AutoMIInstance &__thiscall AutoMIInstance::operator =(struct _MI_Instance *)
??4AutoMIInstance@@QAEAAV0@PAU_MI_Instance@@@Z ; has WINAPI (@4)
; public: class AutoObject &__thiscall AutoObject::operator =(struct WSMAN_OBJECT *)
??4AutoObject@@QAEAAV0@PAUWSMAN_OBJECT@@@Z ; has WINAPI (@4)
; public: class AutoRegKey &__thiscall AutoRegKey::operator =(struct HKEY__ *)
??4AutoRegKey@@QAEAAV0@PAUHKEY__@@@Z ; has WINAPI (@4)
; public: class AutoSecurityDescriptor &__thiscall AutoSecurityDescriptor::operator =(void *)
??4AutoSecurityDescriptor@@QAEAAV0@PAX@Z ; has WINAPI (@4)
; public: class AutoWaitHandle &__thiscall AutoWaitHandle::operator =(void *)
??4AutoWaitHandle@@QAEAAV0@PAX@Z ; has WINAPI (@4)
; public: class ChildLifeTimeManager &__thiscall ChildLifeTimeManager::operator =(class ChildLifeTimeManager const &)
??4ChildLifeTimeManager@@QAEAAV0@ABV0@@Z ; has WINAPI (@4)
; public: class ConfigRegistry &__thiscall ConfigRegistry::operator =(class ConfigRegistry const &)
??4ConfigRegistry@@QAEAAV0@ABV0@@Z ; has WINAPI (@4)
; public: class EtwCorrelationHelper &__thiscall EtwCorrelationHelper::operator =(class EtwCorrelationHelper const &)
??4EtwCorrelationHelper@@QAEAAV0@ABV0@@Z ; has WINAPI (@4)
; public: class EventLog &__thiscall EventLog::operator =(class EventLog const &)
??4EventLog@@QAEAAV0@ABV0@@Z ; has WINAPI (@4)
; public: class ExtendedSemantic &__thiscall ExtendedSemantic::operator =(class ExtendedSemantic const &)
??4ExtendedSemantic@@QAEAAV0@ABV0@@Z ; has WINAPI (@4)
; public: class FastLock &__thiscall FastLock::operator =(class FastLock const &)
??4FastLock@@QAEAAV0@ABV0@@Z ; has WINAPI (@4)
; public: class PacketParser::Fragment &__thiscall PacketParser::Fragment::operator =(class PacketParser::Fragment const &)
??4Fragment@PacketParser@@QAEAAV01@ABV01@@Z ; has WINAPI (@4)
; public: class IConfigChangeObserver &__thiscall IConfigChangeObserver::operator =(class IConfigChangeObserver const &)
??4IConfigChangeObserver@@QAEAAV0@ABV0@@Z ; has WINAPI (@4)
; public: class ILifeTimeMgmt &__thiscall ILifeTimeMgmt::operator =(class ILifeTimeMgmt const &)
??4ILifeTimeMgmt@@QAEAAV0@ABV0@@Z ; has WINAPI (@4)
; public: class IWSManGroupPolicyObserver &__thiscall IWSManGroupPolicyObserver::operator =(class IWSManGroupPolicyObserver const &)
??4IWSManGroupPolicyObserver@@QAEAAV0@ABV0@@Z ; has WINAPI (@4)
; public: class IWSManGroupPolicyPublisher &__thiscall IWSManGroupPolicyPublisher::operator =(class IWSManGroupPolicyPublisher const &)
??4IWSManGroupPolicyPublisher@@QAEAAV0@ABV0@@Z ; has WINAPI (@4)
; public: class Locale &__thiscall Locale::operator =(class Locale const &)
??4Locale@@QAEAAV0@ABV0@@Z ; has WINAPI (@4)
; public: class PacketParser::NotUnderstandSoapHeader &__thiscall PacketParser::NotUnderstandSoapHeader::operator =(class PacketParser::NotUnderstandSoapHeader const &)
??4NotUnderstandSoapHeader@PacketParser@@QAEAAV01@ABV01@@Z ; has WINAPI (@4)
; public: class PacketFormatter &__thiscall PacketFormatter::operator =(class PacketFormatter const &)
??4PacketFormatter@@QAEAAV0@ABV0@@Z ; has WINAPI (@4)
; public: class RBUFFER &__thiscall RBUFFER::operator =(class RBUFFER const &)
??4RBUFFER@@QAEAAV0@ABV0@@Z ; has WINAPI (@4)
; public: class SBUFFER &__thiscall SBUFFER::operator =(class SBUFFER const &)
??4SBUFFER@@QAEAAV0@ABV0@@Z ; has WINAPI (@4)
; public: class PacketParser::SessionId &__thiscall PacketParser::SessionId::operator =(class PacketParser::SessionId const &)
??4SessionId@PacketParser@@QAEAAV01@ABV01@@Z ; has WINAPI (@4)
; public: class SoapSemanticConverter &__thiscall SoapSemanticConverter::operator =(class SoapSemanticConverter const &)
??4SoapSemanticConverter@@QAEAAV0@ABV0@@Z ; has WINAPI (@4)
; public: class UserAuthzRecord &__thiscall UserAuthzRecord::operator =(class UserAuthzRecord const &)
??4UserAuthzRecord@@QAEAAV0@ABV0@@Z ; has WINAPI (@4)
; public: virtual class BufferFormatter &__thiscall BufferFormatter::operator <<(class BufferFormatterDataFormatDWORD &)
??6BufferFormatter@@UAEAAV0@AAVBufferFormatterDataFormatDWORD@@@Z ; has WINAPI (@4)
; public: virtual class BufferFormatter &__thiscall BufferFormatter::operator <<(class BufferFormatterDataFormatULONGLONG &)
??6BufferFormatter@@UAEAAV0@AAVBufferFormatterDataFormatULONGLONG@@@Z ; has WINAPI (@4)
; public: virtual class BufferFormatter &__thiscall BufferFormatter::operator <<(class BufferFormatterDataPCWSTR &)
??6BufferFormatter@@UAEAAV0@AAVBufferFormatterDataPCWSTR@@@Z ; has WINAPI (@4)
; public: virtual class BufferFormatter &__thiscall BufferFormatter::operator <<(class BufferFormatterDataPUCHAR &)
??6BufferFormatter@@UAEAAV0@AAVBufferFormatterDataPUCHAR@@@Z ; has WINAPI (@4)
; public: virtual class BufferFormatter &__thiscall BufferFormatter::operator <<(class BufferFormatterDataXmlEscape &)
??6BufferFormatter@@UAEAAV0@AAVBufferFormatterDataXmlEscape@@@Z ; has WINAPI (@4)
; public: virtual class BufferFormatter &__thiscall BufferFormatter::operator <<(unsigned long)
??6BufferFormatter@@UAEAAV0@K@Z ; has WINAPI (@4)
; public: virtual class BufferFormatter &__thiscall BufferFormatter::operator <<(struct _FWXML_ELEMENT *)
??6BufferFormatter@@UAEAAV0@PAU_FWXML_ELEMENT@@@Z ; has WINAPI (@4)
; public: bool __thiscall <class <unsigned short>,unsigned short *>::operator !(void)const 
??7?$AutoCleanup@V?$AutoDelete@G@@PAG@@QBE_NXZ ; has WINAPI (@0)
; public: bool __thiscall <class <class <class CCertMapping *>>,class <class CCertMapping *> *>::operator !(void)const 
??7?$AutoCleanup@V?$AutoDelete@V?$SafeSet@PAVCCertMapping@@@@@@PAV?$SafeSet@PAVCCertMapping@@@@@@QBE_NXZ ; has WINAPI (@0)
; public: bool __thiscall <class <class <class CShellUriSettings *>>,class <class CShellUriSettings *> *>::operator !(void)const 
??7?$AutoCleanup@V?$AutoDelete@V?$SafeSet@PAVCShellUriSettings@@@@@@PAV?$SafeSet@PAVCShellUriSettings@@@@@@QBE_NXZ ; has WINAPI (@0)
; public: bool __thiscall <class <class std::<class CListenerSettings *,class CServiceConfigSettings::CListenerSettingsLessFunctor,class <class CListenerSettings *>>>,class std::<class CListenerSettings *,class CServiceConfigSettings::CListenerSettingsLessFunctor,class <class CListenerSettings *>> *>::operator !(void)const 
??7?$AutoCleanup@V?$AutoDelete@V?$set@PAVCListenerSettings@@VCListenerSettingsLessFunctor@CServiceConfigSettings@@V?$transport_allocator@PAVCListenerSettings@@@@@std@@@@PAV?$set@PAVCListenerSettings@@VCListenerSettingsLessFunctor@CServiceConfigSettings@@V?$transport_allocator@PAVCListenerSettings@@@@@std@@@@QBE_NXZ ; has WINAPI (@0)
; public: bool __thiscall <class <class ConfigUpdate>,class ConfigUpdate *>::operator !(void)const 
??7?$AutoCleanup@V?$AutoDelete@VConfigUpdate@@@@PAVConfigUpdate@@@@QBE_NXZ ; has WINAPI (@0)
; public: bool __thiscall <class <class EnumSinkEx>,class EnumSinkEx *>::operator !(void)const 
??7?$AutoCleanup@V?$AutoDelete@VEnumSinkEx@@@@PAVEnumSinkEx@@@@QBE_NXZ ; has WINAPI (@0)
; public: bool __thiscall <class <class GeneralSinkEx>,class GeneralSinkEx *>::operator !(void)const 
??7?$AutoCleanup@V?$AutoDelete@VGeneralSinkEx@@@@PAVGeneralSinkEx@@@@QBE_NXZ ; has WINAPI (@0)
; public: bool __thiscall <class <class IQueryDASHSMASHInterface>,class IQueryDASHSMASHInterface *>::operator !(void)const 
??7?$AutoCleanup@V?$AutoDelete@VIQueryDASHSMASHInterface@@@@PAVIQueryDASHSMASHInterface@@@@QBE_NXZ ; has WINAPI (@0)
; public: bool __thiscall <class <class ISpecification>,class ISpecification *>::operator !(void)const 
??7?$AutoCleanup@V?$AutoDelete@VISpecification@@@@PAVISpecification@@@@QBE_NXZ ; has WINAPI (@0)
; public: bool __thiscall <class <class RunAsConfiguration>,class RunAsConfiguration *>::operator !(void)const 
??7?$AutoCleanup@V?$AutoDelete@VRunAsConfiguration@@@@PAVRunAsConfiguration@@@@QBE_NXZ ; has WINAPI (@0)
; public: bool __thiscall <class <class SubscriptionEnumerator>,class SubscriptionEnumerator *>::operator !(void)const 
??7?$AutoCleanup@V?$AutoDelete@VSubscriptionEnumerator@@@@PAVSubscriptionEnumerator@@@@QBE_NXZ ; has WINAPI (@0)
; public: bool __thiscall <class <class TSTRBUFFER>,class TSTRBUFFER *>::operator !(void)const 
??7?$AutoCleanup@V?$AutoDelete@VTSTRBUFFER@@@@PAVTSTRBUFFER@@@@QBE_NXZ ; has WINAPI (@0)
; public: bool __thiscall <class <class WmiEnumContext>,class WmiEnumContext *>::operator !(void)const 
??7?$AutoCleanup@V?$AutoDelete@VWmiEnumContext@@@@PAVWmiEnumContext@@@@QBE_NXZ ; has WINAPI (@0)
; public: bool __thiscall <class <char>,char *>::operator !(void)const 
??7?$AutoCleanup@V?$AutoDeleteVector@D@@PAD@@QBE_NXZ ; has WINAPI (@0)
; public: bool __thiscall <class <unsigned char>,unsigned char *>::operator !(void)const 
??7?$AutoCleanup@V?$AutoDeleteVector@E@@PAE@@QBE_NXZ ; has WINAPI (@0)
; public: bool __thiscall <class <unsigned short>,unsigned short *>::operator !(void)const 
??7?$AutoCleanup@V?$AutoDeleteVector@G@@PAG@@QBE_NXZ ; has WINAPI (@0)
; public: bool __thiscall <class <unsigned short *>,unsigned short **>::operator !(void)const 
??7?$AutoCleanup@V?$AutoDeleteVector@PAG@@PAPAG@@QBE_NXZ ; has WINAPI (@0)
; public: bool __thiscall <class <unsigned short const *>,unsigned short const **>::operator !(void)const 
??7?$AutoCleanup@V?$AutoDeleteVector@PBG@@PAPBG@@QBE_NXZ ; has WINAPI (@0)
; public: bool __thiscall <class <struct _WINRS_CREATE_SHELL_ENVIRONMENT_VARIABLE>,struct _WINRS_CREATE_SHELL_ENVIRONMENT_VARIABLE *>::operator !(void)const 
??7?$AutoCleanup@V?$AutoDeleteVector@U_WINRS_CREATE_SHELL_ENVIRONMENT_VARIABLE@@@@PAU_WINRS_CREATE_SHELL_ENVIRONMENT_VARIABLE@@@@QBE_NXZ ; has WINAPI (@0)
; public: bool __thiscall <class <struct _WINRS_RUN_COMMAND_ARG>,struct _WINRS_RUN_COMMAND_ARG *>::operator !(void)const 
??7?$AutoCleanup@V?$AutoDeleteVector@U_WINRS_RUN_COMMAND_ARG@@@@PAU_WINRS_RUN_COMMAND_ARG@@@@QBE_NXZ ; has WINAPI (@0)
; public: bool __thiscall <class <void>,void *>::operator !(void)const 
??7?$AutoCleanup@V?$AutoDeleteVector@X@@PAX@@QBE_NXZ ; has WINAPI (@0)
; public: bool __thiscall <class <struct IClientSecurity>,struct IClientSecurity *>::operator !(void)const 
??7?$AutoCleanup@V?$AutoRelease@UIClientSecurity@@@@PAUIClientSecurity@@@@QBE_NXZ ; has WINAPI (@0)
; public: bool __thiscall <class <struct IEnumWbemClassObject>,struct IEnumWbemClassObject *>::operator !(void)const 
??7?$AutoCleanup@V?$AutoRelease@UIEnumWbemClassObject@@@@PAUIEnumWbemClassObject@@@@QBE_NXZ ; has WINAPI (@0)
; public: bool __thiscall <class <struct IErrorInfo>,struct IErrorInfo *>::operator !(void)const 
??7?$AutoCleanup@V?$AutoRelease@UIErrorInfo@@@@PAUIErrorInfo@@@@QBE_NXZ ; has WINAPI (@0)
; public: bool __thiscall <class <struct IUnknown>,struct IUnknown *>::operator !(void)const 
??7?$AutoCleanup@V?$AutoRelease@UIUnknown@@@@PAUIUnknown@@@@QBE_NXZ ; has WINAPI (@0)
; public: bool __thiscall <class <struct IWbemClassObject>,struct IWbemClassObject *>::operator !(void)const 
??7?$AutoCleanup@V?$AutoRelease@UIWbemClassObject@@@@PAUIWbemClassObject@@@@QBE_NXZ ; has WINAPI (@0)
; public: bool __thiscall <class <struct IWbemContext>,struct IWbemContext *>::operator !(void)const 
??7?$AutoCleanup@V?$AutoRelease@UIWbemContext@@@@PAUIWbemContext@@@@QBE_NXZ ; has WINAPI (@0)
; public: bool __thiscall <class <struct IWbemLocator>,struct IWbemLocator *>::operator !(void)const 
??7?$AutoCleanup@V?$AutoRelease@UIWbemLocator@@@@PAUIWbemLocator@@@@QBE_NXZ ; has WINAPI (@0)
; public: bool __thiscall <class <struct IWbemObjectTextSrc>,struct IWbemObjectTextSrc *>::operator !(void)const 
??7?$AutoCleanup@V?$AutoRelease@UIWbemObjectTextSrc@@@@PAUIWbemObjectTextSrc@@@@QBE_NXZ ; has WINAPI (@0)
; public: bool __thiscall <class <struct IWbemPath>,struct IWbemPath *>::operator !(void)const 
??7?$AutoCleanup@V?$AutoRelease@UIWbemPath@@@@PAUIWbemPath@@@@QBE_NXZ ; has WINAPI (@0)
; public: bool __thiscall <class <struct IWbemPathKeyList>,struct IWbemPathKeyList *>::operator !(void)const 
??7?$AutoCleanup@V?$AutoRelease@UIWbemPathKeyList@@@@PAUIWbemPathKeyList@@@@QBE_NXZ ; has WINAPI (@0)
; public: bool __thiscall <class <struct IWbemQualifierSet>,struct IWbemQualifierSet *>::operator !(void)const 
??7?$AutoCleanup@V?$AutoRelease@UIWbemQualifierSet@@@@PAUIWbemQualifierSet@@@@QBE_NXZ ; has WINAPI (@0)
; public: bool __thiscall <class <struct IWbemQuery>,struct IWbemQuery *>::operator !(void)const 
??7?$AutoCleanup@V?$AutoRelease@UIWbemQuery@@@@PAUIWbemQuery@@@@QBE_NXZ ; has WINAPI (@0)
; public: bool __thiscall <class <struct IWbemServices>,struct IWbemServices *>::operator !(void)const 
??7?$AutoCleanup@V?$AutoRelease@UIWbemServices@@@@PAUIWbemServices@@@@QBE_NXZ ; has WINAPI (@0)
; public: bool __thiscall <class <class CClientConfigSettings>,class CClientConfigSettings *>::operator !(void)const 
??7?$AutoCleanup@V?$AutoRelease@VCClientConfigSettings@@@@PAVCClientConfigSettings@@@@QBE_NXZ ; has WINAPI (@0)
; public: bool __thiscall <class <class CConfigManager>,class CConfigManager *>::operator !(void)const 
??7?$AutoCleanup@V?$AutoRelease@VCConfigManager@@@@PAVCConfigManager@@@@QBE_NXZ ; has WINAPI (@0)
; public: bool __thiscall <class <class CRemoteSession>,class CRemoteSession *>::operator !(void)const 
??7?$AutoCleanup@V?$AutoRelease@VCRemoteSession@@@@PAVCRemoteSession@@@@QBE_NXZ ; has WINAPI (@0)
; public: bool __thiscall <class <class CRequestContext>,class CRequestContext *>::operator !(void)const 
??7?$AutoCleanup@V?$AutoRelease@VCRequestContext@@@@PAVCRequestContext@@@@QBE_NXZ ; has WINAPI (@0)
; public: bool __thiscall <class <class CWSManEPR>,class CWSManEPR *>::operator !(void)const 
??7?$AutoCleanup@V?$AutoRelease@VCWSManEPR@@@@PAVCWSManEPR@@@@QBE_NXZ ; has WINAPI (@0)
; public: bool __thiscall <class <class CWSManResource>,class CWSManResource *>::operator !(void)const 
??7?$AutoCleanup@V?$AutoRelease@VCWSManResource@@@@PAVCWSManResource@@@@QBE_NXZ ; has WINAPI (@0)
; public: bool __thiscall <class <class CWinRSPluginConfigCache>,class CWinRSPluginConfigCache *>::operator !(void)const 
??7?$AutoCleanup@V?$AutoRelease@VCWinRSPluginConfigCache@@@@PAVCWinRSPluginConfigCache@@@@QBE_NXZ ; has WINAPI (@0)
; public: bool __thiscall <class <class EnumSinkEx>,class EnumSinkEx *>::operator !(void)const 
??7?$AutoCleanup@V?$AutoRelease@VEnumSinkEx@@@@PAVEnumSinkEx@@@@QBE_NXZ ; has WINAPI (@0)
; public: bool __thiscall <class <class GeneralSinkEx>,class GeneralSinkEx *>::operator !(void)const 
??7?$AutoCleanup@V?$AutoRelease@VGeneralSinkEx@@@@PAVGeneralSinkEx@@@@QBE_NXZ ; has WINAPI (@0)
; public: bool __thiscall <class <class IRequestContext>,class IRequestContext *>::operator !(void)const 
??7?$AutoCleanup@V?$AutoRelease@VIRequestContext@@@@PAVIRequestContext@@@@QBE_NXZ ; has WINAPI (@0)
; public: bool __thiscall <class <class InboundRequestDetails>,class InboundRequestDetails *>::operator !(void)const 
??7?$AutoCleanup@V?$AutoRelease@VInboundRequestDetails@@@@PAVInboundRequestDetails@@@@QBE_NXZ ; has WINAPI (@0)
; public: bool __thiscall <class AutoBstrNoAlloc,unsigned short *>::operator !(void)const 
??7?$AutoCleanup@VAutoBstrNoAlloc@@PAG@@QBE_NXZ ; has WINAPI (@0)
; public: bool __thiscall <class AutoCertContext,struct _CERT_CONTEXT const *>::operator !(void)const 
??7?$AutoCleanup@VAutoCertContext@@PBU_CERT_CONTEXT@@@@QBE_NXZ ; has WINAPI (@0)
; public: bool __thiscall <class AutoHandle,void *>::operator !(void)const 
??7?$AutoCleanup@VAutoHandle@@PAX@@QBE_NXZ ; has WINAPI (@0)
; public: bool __thiscall <class AutoImpersonateUser,void *>::operator !(void)const 
??7?$AutoCleanup@VAutoImpersonateUser@@PAX@@QBE_NXZ ; has WINAPI (@0)
; public: bool __thiscall <class AutoMIClass,struct _MI_Class *>::operator !(void)const 
??7?$AutoCleanup@VAutoMIClass@@PAU_MI_Class@@@@QBE_NXZ ; has WINAPI (@0)
; public: bool __thiscall <class AutoRegKey,struct HKEY__ *>::operator !(void)const 
??7?$AutoCleanup@VAutoRegKey@@PAUHKEY__@@@@QBE_NXZ ; has WINAPI (@0)
; public: bool __thiscall <class AutoSecurityDescriptor,void *>::operator !(void)const 
??7?$AutoCleanup@VAutoSecurityDescriptor@@PAX@@QBE_NXZ ; has WINAPI (@0)
; public: unsigned long *__thiscall <struct PluginKey,unsigned long,class <struct PluginKey,unsigned long>>::operator[](struct PluginKey const &)
??A?$SafeMap@UPluginKey@@KV?$SafeMap_Iterator@UPluginKey@@K@@@@QAEPAKABUPluginKey@@@Z ; has WINAPI (@4)
; public: class BlockedRecord **__thiscall <struct UserKey,class BlockedRecord *,class <struct UserKey,class BlockedRecord *>>::operator[](struct UserKey const &)
??A?$SafeMap@UUserKey@@PAVBlockedRecord@@V?$SafeMap_Iterator@UUserKey@@PAVBlockedRecord@@@@@@QAEPAPAVBlockedRecord@@ABUUserKey@@@Z ; has WINAPI (@4)
; public: class CServiceConfigSettings::CertThumbprintMappedSet *__thiscall <class CertThumbprintKey,class CServiceConfigSettings::CertThumbprintMappedSet,class <class CertThumbprintKey,class CServiceConfigSettings::CertThumbprintMappedSet>>::operator[](class CertThumbprintKey const &)
??A?$SafeMap@VCertThumbprintKey@@VCertThumbprintMappedSet@CServiceConfigSettings@@V?$SafeMap_Iterator@VCertThumbprintKey@@VCertThumbprintMappedSet@CServiceConfigSettings@@@@@@QAEPAVCertThumbprintMappedSet@CServiceConfigSettings@@ABVCertThumbprintKey@@@Z ; has WINAPI (@4)
; public: unsigned long *__thiscall <class StringKeyCI,unsigned long,class <class StringKeyCI,unsigned long>>::operator[](class StringKeyCI const &)
??A?$SafeMap@VStringKeyCI@@KV?$SafeMap_Iterator@VStringKeyCI@@K@@@@QAEPAKABVStringKeyCI@@@Z ; has WINAPI (@4)
; public: struct WSManHttpListener::USER_CONTEXT_INFO *__thiscall <class StringKeyCI,struct WSManHttpListener::USER_CONTEXT_INFO,class <class StringKeyCI,struct WSManHttpListener::USER_CONTEXT_INFO>>::operator[](class StringKeyCI const &)
??A?$SafeMap@VStringKeyCI@@UUSER_CONTEXT_INFO@WSManHttpListener@@V?$SafeMap_Iterator@VStringKeyCI@@UUSER_CONTEXT_INFO@WSManHttpListener@@@@@@QAEPAUUSER_CONTEXT_INFO@WSManHttpListener@@ABVStringKeyCI@@@Z ; has WINAPI (@4)
; public: class ExpiredOperationIdRecord **__thiscall <class StringKeyStore,class ExpiredOperationIdRecord *,class <class StringKeyStore,class ExpiredOperationIdRecord *>>::operator[](class StringKeyStore const &)
??A?$SafeMap@VStringKeyStore@@PAVExpiredOperationIdRecord@@V?$SafeMap_Iterator@VStringKeyStore@@PAVExpiredOperationIdRecord@@@@@@QAEPAPAVExpiredOperationIdRecord@@ABVStringKeyStore@@@Z ; has WINAPI (@4)
; public: class ServerFullDuplexChannel **__thiscall <class StringKeyStore,class ServerFullDuplexChannel *,class <class StringKeyStore,class ServerFullDuplexChannel *>>::operator[](class StringKeyStore const &)
??A?$SafeMap@VStringKeyStore@@PAVServerFullDuplexChannel@@V?$SafeMap_Iterator@VStringKeyStore@@PAVServerFullDuplexChannel@@@@@@QAEPAPAVServerFullDuplexChannel@@ABVStringKeyStore@@@Z ; has WINAPI (@4)
; public: class WSMan::Client::SessionOptions::OptionValue **__thiscall <enum WSManSessionOption,class WSMan::Client::SessionOptions::OptionValue *,class <enum WSManSessionOption,class WSMan::Client::SessionOptions::OptionValue *>>::operator[](enum WSManSessionOption const &)
??A?$SafeMap@W4WSManSessionOption@@PAVOptionValue@SessionOptions@Client@WSMan@@V?$SafeMap_Iterator@W4WSManSessionOption@@PAVOptionValue@SessionOptions@Client@WSMan@@@@@@QAEPAPAVOptionValue@SessionOptions@Client@WSMan@@ABW4WSManSessionOption@@@Z ; has WINAPI (@4)
; public: class RobustConnectionBuffer::SendPacketArgs **__thiscall <unsigned __int64,class RobustConnectionBuffer::SendPacketArgs *,class <unsigned __int64,class RobustConnectionBuffer::SendPacketArgs *>>::operator[](unsigned __int64 const &)
??A?$SafeMap@_KPAVSendPacketArgs@RobustConnectionBuffer@@V?$SafeMap_Iterator@_KPAVSendPacketArgs@RobustConnectionBuffer@@@@@@QAEPAPAVSendPacketArgs@RobustConnectionBuffer@@AB_K@Z ; has WINAPI (@4)
; public: void *const *__thiscall <void *>::operator[](void *const &)const 
??A?$SafeSet@PAX@@QBEPBQAXABQAX@Z ; has WINAPI (@4)
; public: void __thiscall <class <char>,char *>::operator char *(...)throw()
??B?$AutoCleanup@V?$AutoDelete@D@@PAD@@QAEPADXZ ; has WINAPI (@0)
; public: void __thiscall <class <unsigned short>,unsigned short *>::operator unsigned short *(...)throw()
??B?$AutoCleanup@V?$AutoDelete@G@@PAG@@QAEPAGXZ ; has WINAPI (@0)
; public: void __thiscall <class <unsigned short>,unsigned short *>::operator unsigned short *const(...)const throw()
??B?$AutoCleanup@V?$AutoDelete@G@@PAG@@QBEQAGXZ ; has WINAPI (@0)
; public: void __thiscall <class <struct CWSManIPFilter::IPRange>,struct CWSManIPFilter::IPRange *>::operator struct CWSManIPFilter::IPRange *(...)throw()
??B?$AutoCleanup@V?$AutoDelete@UIPRange@CWSManIPFilter@@@@PAUIPRange@CWSManIPFilter@@@@QAEPAUIPRange@CWSManIPFilter@@XZ ; has WINAPI (@0)
; public: void __thiscall <class <struct _SID>,struct _SID *>::operator struct _SID *(...)throw()
??B?$AutoCleanup@V?$AutoDelete@U_SID@@@@PAU_SID@@@@QAEPAU_SID@@XZ ; has WINAPI (@0)
; public: void __thiscall <class <struct _WSMAN_STREAM_ID_SET>,struct _WSMAN_STREAM_ID_SET *>::operator struct _WSMAN_STREAM_ID_SET *(...)throw()
??B?$AutoCleanup@V?$AutoDelete@U_WSMAN_STREAM_ID_SET@@@@PAU_WSMAN_STREAM_ID_SET@@@@QAEPAU_WSMAN_STREAM_ID_SET@@XZ ; has WINAPI (@0)
; public: void __thiscall <class <class <class ISubscription>>,class <class ISubscription> *>::operator class <class ISubscription> *(...)throw()
??B?$AutoCleanup@V?$AutoDelete@V?$Handle@VISubscription@@@@@@PAV?$Handle@VISubscription@@@@@@QAEPAV?$Handle@VISubscription@@@@XZ ; has WINAPI (@0)
; public: void __thiscall <class <class <class StringKeyCI,unsigned long>>,class <class StringKeyCI,unsigned long> *>::operator class <class StringKeyCI,unsigned long> *(...)throw()
??B?$AutoCleanup@V?$AutoDelete@V?$SafeMap_Iterator@VStringKeyCI@@K@@@@PAV?$SafeMap_Iterator@VStringKeyCI@@K@@@@QAEPAV?$SafeMap_Iterator@VStringKeyCI@@K@@XZ ; has WINAPI (@0)
; public: void __thiscall <class <class <enum WSManSessionOption,class WSMan::Client::SessionOptions::OptionValue *>>,class <enum WSManSessionOption,class WSMan::Client::SessionOptions::OptionValue *> *>::operator class <enum WSManSessionOption,class WSMan::Client::SessionOptions::OptionValue *> *(...)throw()
??B?$AutoCleanup@V?$AutoDelete@V?$SafeMap_Iterator@W4WSManSessionOption@@PAVOptionValue@SessionOptions@Client@WSMan@@@@@@PAV?$SafeMap_Iterator@W4WSManSessionOption@@PAVOptionValue@SessionOptions@Client@WSMan@@@@@@QAEPAV?$SafeMap_Iterator@W4WSManSessionOption@@PAVOptionValue@SessionOptions@Client@WSMan@@@@XZ ; has WINAPI (@0)
; public: void __thiscall <class <class <class CCertMapping *>>,class <class CCertMapping *> *>::operator class <class CCertMapping *> *(...)throw()
??B?$AutoCleanup@V?$AutoDelete@V?$SafeSet@PAVCCertMapping@@@@@@PAV?$SafeSet@PAVCCertMapping@@@@@@QAEPAV?$SafeSet@PAVCCertMapping@@@@XZ ; has WINAPI (@0)
; public: void __thiscall <class <class <class CShellUriSettings *>>,class <class CShellUriSettings *> *>::operator class <class CShellUriSettings *> *(...)throw()
??B?$AutoCleanup@V?$AutoDelete@V?$SafeSet@PAVCShellUriSettings@@@@@@PAV?$SafeSet@PAVCShellUriSettings@@@@@@QAEPAV?$SafeSet@PAVCShellUriSettings@@@@XZ ; has WINAPI (@0)
; public: void __thiscall <class <class <class CListenerOperation *>>,class <class CListenerOperation *> *>::operator class <class CListenerOperation *> *(...)throw()
??B?$AutoCleanup@V?$AutoDelete@V?$SafeSet_Iterator@PAVCListenerOperation@@@@@@PAV?$SafeSet_Iterator@PAVCListenerOperation@@@@@@QAEPAV?$SafeSet_Iterator@PAVCListenerOperation@@@@XZ ; has WINAPI (@0)
; public: void __thiscall <class <class std::<class CListenerSettings *,class CServiceConfigSettings::CListenerSettingsLessFunctor,class <class CListenerSettings *>>>,class std::<class CListenerSettings *,class CServiceConfigSettings::CListenerSettingsLessFunctor,class <class CListenerSettings *>> *>::operator class std::<class CListenerSettings *,class CServiceConfigSettings::CListenerSettingsLessFunctor,class <class CListenerSettings *>> *(...)throw()
??B?$AutoCleanup@V?$AutoDelete@V?$set@PAVCListenerSettings@@VCListenerSettingsLessFunctor@CServiceConfigSettings@@V?$transport_allocator@PAVCListenerSettings@@@@@std@@@@PAV?$set@PAVCListenerSettings@@VCListenerSettingsLessFunctor@CServiceConfigSettings@@V?$transport_allocator@PAVCListenerSettings@@@@@std@@@@QAEPAV?$set@PAVCListenerSettings@@VCListenerSettingsLessFunctor@CServiceConfigSettings@@V?$transport_allocator@PAVCListenerSettings@@@@@std@@XZ ; has WINAPI (@0)
; public: void __thiscall <class <class std::<struct sockaddr_storage,class CListenerSettings::SockAddrLessFunctor,class <struct sockaddr_storage>>>,class std::<struct sockaddr_storage,class CListenerSettings::SockAddrLessFunctor,class <struct sockaddr_storage>> *>::operator class std::<struct sockaddr_storage,class CListenerSettings::SockAddrLessFunctor,class <struct sockaddr_storage>> *(...)throw()
??B?$AutoCleanup@V?$AutoDelete@V?$set@Usockaddr_storage@@VSockAddrLessFunctor@CListenerSettings@@V?$transport_allocator@Usockaddr_storage@@@@@std@@@@PAV?$set@Usockaddr_storage@@VSockAddrLessFunctor@CListenerSettings@@V?$transport_allocator@Usockaddr_storage@@@@@std@@@@QAEPAV?$set@Usockaddr_storage@@VSockAddrLessFunctor@CListenerSettings@@V?$transport_allocator@Usockaddr_storage@@@@@std@@XZ ; has WINAPI (@0)
; public: void __thiscall <class <class std::<class WSMan::Client::HandleImpl *,class <class WSMan::Client::HandleImpl *>>>,class std::<class WSMan::Client::HandleImpl *,class <class WSMan::Client::HandleImpl *>> *>::operator class std::<class WSMan::Client::HandleImpl *,class <class WSMan::Client::HandleImpl *>> *(...)throw()
??B?$AutoCleanup@V?$AutoDelete@V?$vector@PAVHandleImpl@Client@WSMan@@V?$transport_allocator@PAVHandleImpl@Client@WSMan@@@@@std@@@@PAV?$vector@PAVHandleImpl@Client@WSMan@@V?$transport_allocator@PAVHandleImpl@Client@WSMan@@@@@std@@@@QAEPAV?$vector@PAVHandleImpl@Client@WSMan@@V?$transport_allocator@PAVHandleImpl@Client@WSMan@@@@@std@@XZ ; has WINAPI (@0)
; public: void __thiscall <class <class std::<class WSMan::Client::HandleImpl *,class <class WSMan::Client::HandleImpl *>>>,class std::<class WSMan::Client::HandleImpl *,class <class WSMan::Client::HandleImpl *>> *>::operator class std::<class WSMan::Client::HandleImpl *,class <class WSMan::Client::HandleImpl *>> *const(...)const throw()
??B?$AutoCleanup@V?$AutoDelete@V?$vector@PAVHandleImpl@Client@WSMan@@V?$transport_allocator@PAVHandleImpl@Client@WSMan@@@@@std@@@@PAV?$vector@PAVHandleImpl@Client@WSMan@@V?$transport_allocator@PAVHandleImpl@Client@WSMan@@@@@std@@@@QBEQAV?$vector@PAVHandleImpl@Client@WSMan@@V?$transport_allocator@PAVHandleImpl@Client@WSMan@@@@@std@@XZ ; has WINAPI (@0)
; public: void __thiscall <class <class std::<class IServiceConfigObserver *,class <class IServiceConfigObserver *>>>,class std::<class IServiceConfigObserver *,class <class IServiceConfigObserver *>> *>::operator class std::<class IServiceConfigObserver *,class <class IServiceConfigObserver *>> *(...)throw()
??B?$AutoCleanup@V?$AutoDelete@V?$vector@PAVIServiceConfigObserver@@V?$transport_allocator@PAVIServiceConfigObserver@@@@@std@@@@PAV?$vector@PAVIServiceConfigObserver@@V?$transport_allocator@PAVIServiceConfigObserver@@@@@std@@@@QAEPAV?$vector@PAVIServiceConfigObserver@@V?$transport_allocator@PAVIServiceConfigObserver@@@@@std@@XZ ; has WINAPI (@0)
; public: void __thiscall <class <class CSecurity::AdminSid>,class CSecurity::AdminSid *>::operator class CSecurity::AdminSid *(...)throw()
??B?$AutoCleanup@V?$AutoDelete@VAdminSid@CSecurity@@@@PAVAdminSid@CSecurity@@@@QAEPAVAdminSid@CSecurity@@XZ ; has WINAPI (@0)
; public: void __thiscall <class <class BlockedRecord>,class BlockedRecord *>::operator class BlockedRecord *(...)throw()
??B?$AutoCleanup@V?$AutoDelete@VBlockedRecord@@@@PAVBlockedRecord@@@@QAEPAVBlockedRecord@@XZ ; has WINAPI (@0)
; public: void __thiscall <class <class CBaseConfigCache>,class CBaseConfigCache *>::operator class CBaseConfigCache *(...)throw()
??B?$AutoCleanup@V?$AutoDelete@VCBaseConfigCache@@@@PAVCBaseConfigCache@@@@QAEPAVCBaseConfigCache@@XZ ; has WINAPI (@0)
; public: void __thiscall <class <class CCertMapping>,class CCertMapping *>::operator class CCertMapping *(...)throw()
??B?$AutoCleanup@V?$AutoDelete@VCCertMapping@@@@PAVCCertMapping@@@@QAEPAVCCertMapping@@XZ ; has WINAPI (@0)
; public: void __thiscall <class <class CConfigChangeSource>,class CConfigChangeSource *>::operator class CConfigChangeSource *(...)throw()
??B?$AutoCleanup@V?$AutoDelete@VCConfigChangeSource@@@@PAVCConfigChangeSource@@@@QAEPAVCConfigChangeSource@@XZ ; has WINAPI (@0)
; public: void __thiscall <class <class CListenerSettings>,class CListenerSettings *>::operator class CListenerSettings *(...)throw()
??B?$AutoCleanup@V?$AutoDelete@VCListenerSettings@@@@PAVCListenerSettings@@@@QAEPAVCListenerSettings@@XZ ; has WINAPI (@0)
; public: void __thiscall <class <class CObserverConfigChangeErrors>,class CObserverConfigChangeErrors *>::operator class CObserverConfigChangeErrors *(...)throw()
??B?$AutoCleanup@V?$AutoDelete@VCObserverConfigChangeErrors@@@@PAVCObserverConfigChangeErrors@@@@QAEPAVCObserverConfigChangeErrors@@XZ ; has WINAPI (@0)
; public: void __thiscall <class <class CServiceConfigCache::CServiceWatcher>,class CServiceConfigCache::CServiceWatcher *>::operator class CServiceConfigCache::CServiceWatcher *(...)throw()
??B?$AutoCleanup@V?$AutoDelete@VCServiceWatcher@CServiceConfigCache@@@@PAVCServiceWatcher@CServiceConfigCache@@@@QAEPAVCServiceWatcher@CServiceConfigCache@@XZ ; has WINAPI (@0)
; public: void __thiscall <class <class CShellUriSettings>,class CShellUriSettings *>::operator class CShellUriSettings *(...)throw()
??B?$AutoCleanup@V?$AutoDelete@VCShellUriSettings@@@@PAVCShellUriSettings@@@@QAEPAVCShellUriSettings@@XZ ; has WINAPI (@0)
; public: void __thiscall <class <class CWSManEPR>,class CWSManEPR *>::operator class CWSManEPR *(...)throw()
??B?$AutoCleanup@V?$AutoDelete@VCWSManEPR@@@@PAVCWSManEPR@@@@QAEPAVCWSManEPR@@XZ ; has WINAPI (@0)
; public: void __thiscall <class <class CWSManResource>,class CWSManResource *>::operator class CWSManResource *(...)throw()
??B?$AutoCleanup@V?$AutoDelete@VCWSManResource@@@@PAVCWSManResource@@@@QAEPAVCWSManResource@@XZ ; has WINAPI (@0)
; public: void __thiscall <class <class CertHash>,class CertHash *>::operator class CertHash *(...)throw()
??B?$AutoCleanup@V?$AutoDelete@VCertHash@@@@PAVCertHash@@@@QAEPAVCertHash@@XZ ; has WINAPI (@0)
; public: void __thiscall <class <class ConfigUpdate>,class ConfigUpdate *>::operator class ConfigUpdate *(...)throw()
??B?$AutoCleanup@V?$AutoDelete@VConfigUpdate@@@@PAVConfigUpdate@@@@QAEPAVConfigUpdate@@XZ ; has WINAPI (@0)
; public: void __thiscall <class <class CredUIDllLoader>,class CredUIDllLoader *>::operator class CredUIDllLoader *(...)throw()
??B?$AutoCleanup@V?$AutoDelete@VCredUIDllLoader@@@@PAVCredUIDllLoader@@@@QAEPAVCredUIDllLoader@@XZ ; has WINAPI (@0)
; public: void __thiscall <class <class EnumSinkEx>,class EnumSinkEx *>::operator class EnumSinkEx *(...)throw()
??B?$AutoCleanup@V?$AutoDelete@VEnumSinkEx@@@@PAVEnumSinkEx@@@@QAEPAVEnumSinkEx@@XZ ; has WINAPI (@0)
; public: void __thiscall <class <class EnumSinkEx>,class EnumSinkEx *>::operator class EnumSinkEx *const(...)const throw()
??B?$AutoCleanup@V?$AutoDelete@VEnumSinkEx@@@@PAVEnumSinkEx@@@@QBEQAVEnumSinkEx@@XZ ; has WINAPI (@0)
; public: void __thiscall <class <class WSMan::EventHandler>,class WSMan::EventHandler *>::operator class WSMan::EventHandler *(...)throw()
??B?$AutoCleanup@V?$AutoDelete@VEventHandler@WSMan@@@@PAVEventHandler@WSMan@@@@QAEPAVEventHandler@WSMan@@XZ ; has WINAPI (@0)
; public: void __thiscall <class <class ExpiredOperationIdRecord>,class ExpiredOperationIdRecord *>::operator class ExpiredOperationIdRecord *(...)throw()
??B?$AutoCleanup@V?$AutoDelete@VExpiredOperationIdRecord@@@@PAVExpiredOperationIdRecord@@@@QAEPAVExpiredOperationIdRecord@@XZ ; has WINAPI (@0)
; public: void __thiscall <class <class GPApiManager>,class GPApiManager *>::operator class GPApiManager *(...)throw()
??B?$AutoCleanup@V?$AutoDelete@VGPApiManager@@@@PAVGPApiManager@@@@QAEPAVGPApiManager@@XZ ; has WINAPI (@0)
; public: void __thiscall <class <class GeneralSinkEx>,class GeneralSinkEx *>::operator class GeneralSinkEx *(...)throw()
??B?$AutoCleanup@V?$AutoDelete@VGeneralSinkEx@@@@PAVGeneralSinkEx@@@@QAEPAVGeneralSinkEx@@XZ ; has WINAPI (@0)
; public: void __thiscall <class <class GeneralSinkEx>,class GeneralSinkEx *>::operator class GeneralSinkEx *const(...)const throw()
??B?$AutoCleanup@V?$AutoDelete@VGeneralSinkEx@@@@PAVGeneralSinkEx@@@@QBEQAVGeneralSinkEx@@XZ ; has WINAPI (@0)
; public: void __thiscall <class <class IChannelObserverFactory>,class IChannelObserverFactory *>::operator class IChannelObserverFactory *(...)throw()
??B?$AutoCleanup@V?$AutoDelete@VIChannelObserverFactory@@@@PAVIChannelObserverFactory@@@@QAEPAVIChannelObserverFactory@@XZ ; has WINAPI (@0)
; public: void __thiscall <class <class IQueryDASHSMASHInterface>,class IQueryDASHSMASHInterface *>::operator class IQueryDASHSMASHInterface *(...)throw()
??B?$AutoCleanup@V?$AutoDelete@VIQueryDASHSMASHInterface@@@@PAVIQueryDASHSMASHInterface@@@@QAEPAVIQueryDASHSMASHInterface@@XZ ; has WINAPI (@0)
; public: void __thiscall <class <class IQueryDASHSMASHInterface>,class IQueryDASHSMASHInterface *>::operator class IQueryDASHSMASHInterface *const(...)const throw()
??B?$AutoCleanup@V?$AutoDelete@VIQueryDASHSMASHInterface@@@@PAVIQueryDASHSMASHInterface@@@@QBEQAVIQueryDASHSMASHInterface@@XZ ; has WINAPI (@0)
; public: void __thiscall <class <class ISpecification>,class ISpecification *>::operator class ISpecification *(...)throw()
??B?$AutoCleanup@V?$AutoDelete@VISpecification@@@@PAVISpecification@@@@QAEPAVISpecification@@XZ ; has WINAPI (@0)
; public: void __thiscall <class <class ISpecification>,class ISpecification *>::operator class ISpecification *const(...)const throw()
??B?$AutoCleanup@V?$AutoDelete@VISpecification@@@@PAVISpecification@@@@QBEQAVISpecification@@XZ ; has WINAPI (@0)
; public: void __thiscall <class <class CSecurity::InteractiveSid>,class CSecurity::InteractiveSid *>::operator class CSecurity::InteractiveSid *(...)throw()
??B?$AutoCleanup@V?$AutoDelete@VInteractiveSid@CSecurity@@@@PAVInteractiveSid@CSecurity@@@@QAEPAVInteractiveSid@CSecurity@@XZ ; has WINAPI (@0)
; public: void __thiscall <class <class IpHlpApiDllLoader>,class IpHlpApiDllLoader *>::operator class IpHlpApiDllLoader *(...)throw()
??B?$AutoCleanup@V?$AutoDelete@VIpHlpApiDllLoader@@@@PAVIpHlpApiDllLoader@@@@QAEPAVIpHlpApiDllLoader@@XZ ; has WINAPI (@0)
; public: void __thiscall <class <class MachineName>,class MachineName *>::operator class MachineName *(...)throw()
??B?$AutoCleanup@V?$AutoDelete@VMachineName@@@@PAVMachineName@@@@QAEPAVMachineName@@XZ ; has WINAPI (@0)
; public: void __thiscall <class <class CSecurity::NetworkServiceSid>,class CSecurity::NetworkServiceSid *>::operator class CSecurity::NetworkServiceSid *(...)throw()
??B?$AutoCleanup@V?$AutoDelete@VNetworkServiceSid@CSecurity@@@@PAVNetworkServiceSid@CSecurity@@@@QAEPAVNetworkServiceSid@CSecurity@@XZ ; has WINAPI (@0)
; public: void __thiscall <class <class NtDsApiDllLoader>,class NtDsApiDllLoader *>::operator class NtDsApiDllLoader *(...)throw()
??B?$AutoCleanup@V?$AutoDelete@VNtDsApiDllLoader@@@@PAVNtDsApiDllLoader@@@@QAEPAVNtDsApiDllLoader@@XZ ; has WINAPI (@0)
; public: void __thiscall <class <class WSMan::Client::SessionOptions::OptionValue>,class WSMan::Client::SessionOptions::OptionValue *>::operator class WSMan::Client::SessionOptions::OptionValue *(...)throw()
??B?$AutoCleanup@V?$AutoDelete@VOptionValue@SessionOptions@Client@WSMan@@@@PAVOptionValue@SessionOptions@Client@WSMan@@@@QAEPAVOptionValue@SessionOptions@Client@WSMan@@XZ ; has WINAPI (@0)
; public: void __thiscall <class <class PacketCreator>,class PacketCreator *>::operator class PacketCreator *(...)throw()
??B?$AutoCleanup@V?$AutoDelete@VPacketCreator@@@@PAVPacketCreator@@@@QAEPAVPacketCreator@@XZ ; has WINAPI (@0)
; public: void __thiscall <class <class PacketParser>,class PacketParser *>::operator class PacketParser *(...)throw()
??B?$AutoCleanup@V?$AutoDelete@VPacketParser@@@@PAVPacketParser@@@@QAEPAVPacketParser@@XZ ; has WINAPI (@0)
; public: void __thiscall <class <class Locale::Resources>,class Locale::Resources *>::operator class Locale::Resources *(...)throw()
??B?$AutoCleanup@V?$AutoDelete@VResources@Locale@@@@PAVResources@Locale@@@@QAEPAVResources@Locale@@XZ ; has WINAPI (@0)
; public: void __thiscall <class <class Catalog::SecurityEntry>,class Catalog::SecurityEntry *>::operator class Catalog::SecurityEntry *(...)throw()
??B?$AutoCleanup@V?$AutoDelete@VSecurityEntry@Catalog@@@@PAVSecurityEntry@Catalog@@@@QAEPAVSecurityEntry@Catalog@@XZ ; has WINAPI (@0)
; public: void __thiscall <class <class ServiceSoapProcessor>,class ServiceSoapProcessor *>::operator class ServiceSoapProcessor *(...)throw()
??B?$AutoCleanup@V?$AutoDelete@VServiceSoapProcessor@@@@PAVServiceSoapProcessor@@@@QAEPAVServiceSoapProcessor@@XZ ; has WINAPI (@0)
; public: void __thiscall <class <class Shell32DllLoader>,class Shell32DllLoader *>::operator class Shell32DllLoader *(...)throw()
??B?$AutoCleanup@V?$AutoDelete@VShell32DllLoader@@@@PAVShell32DllLoader@@@@QAEPAVShell32DllLoader@@XZ ; has WINAPI (@0)
; public: void __thiscall <class <class ShlWApiDllLoader>,class ShlWApiDllLoader *>::operator class ShlWApiDllLoader *(...)throw()
??B?$AutoCleanup@V?$AutoDelete@VShlWApiDllLoader@@@@PAVShlWApiDllLoader@@@@QAEPAVShlWApiDllLoader@@XZ ; has WINAPI (@0)
; public: void __thiscall <class <class SubscriptionManager>,class SubscriptionManager *>::operator class SubscriptionManager *(...)throw()
??B?$AutoCleanup@V?$AutoDelete@VSubscriptionManager@@@@PAVSubscriptionManager@@@@QAEPAVSubscriptionManager@@XZ ; has WINAPI (@0)
; public: void __thiscall <class <class TSTRBUFFER>,class TSTRBUFFER *>::operator class TSTRBUFFER *(...)throw()
??B?$AutoCleanup@V?$AutoDelete@VTSTRBUFFER@@@@PAVTSTRBUFFER@@@@QAEPAVTSTRBUFFER@@XZ ; has WINAPI (@0)
; public: void __thiscall <class <class TSTRBUFFER>,class TSTRBUFFER *>::operator class TSTRBUFFER *const(...)const throw()
??B?$AutoCleanup@V?$AutoDelete@VTSTRBUFFER@@@@PAVTSTRBUFFER@@@@QBEQAVTSTRBUFFER@@XZ ; has WINAPI (@0)
; public: void __thiscall <class <class UniqueStringOverflow>,class UniqueStringOverflow *>::operator class UniqueStringOverflow *(...)throw()
??B?$AutoCleanup@V?$AutoDelete@VUniqueStringOverflow@@@@PAVUniqueStringOverflow@@@@QAEPAVUniqueStringOverflow@@XZ ; has WINAPI (@0)
; public: void __thiscall <class <class User32DllLoader>,class User32DllLoader *>::operator class User32DllLoader *(...)throw()
??B?$AutoCleanup@V?$AutoDelete@VUser32DllLoader@@@@PAVUser32DllLoader@@@@QAEPAVUser32DllLoader@@XZ ; has WINAPI (@0)
; public: void __thiscall <class <class WSMANCONFIGTABLE_IDENTITY>,class WSMANCONFIGTABLE_IDENTITY *>::operator class WSMANCONFIGTABLE_IDENTITY *(...)throw()
??B?$AutoCleanup@V?$AutoDelete@VWSMANCONFIGTABLE_IDENTITY@@@@PAVWSMANCONFIGTABLE_IDENTITY@@@@QAEPAVWSMANCONFIGTABLE_IDENTITY@@XZ ; has WINAPI (@0)
; public: void __thiscall <class <class WSManMemCryptManager>,class WSManMemCryptManager *>::operator class WSManMemCryptManager *(...)throw()
??B?$AutoCleanup@V?$AutoDelete@VWSManMemCryptManager@@@@PAVWSManMemCryptManager@@@@QAEPAVWSManMemCryptManager@@XZ ; has WINAPI (@0)
; public: void __thiscall <class <class WmiEnumContext>,class WmiEnumContext *>::operator class WmiEnumContext *(...)throw()
??B?$AutoCleanup@V?$AutoDelete@VWmiEnumContext@@@@PAVWmiEnumContext@@@@QAEPAVWmiEnumContext@@XZ ; has WINAPI (@0)
; public: void __thiscall <class <class WmiEnumContext>,class WmiEnumContext *>::operator class WmiEnumContext *const(...)const throw()
??B?$AutoCleanup@V?$AutoDelete@VWmiEnumContext@@@@PAVWmiEnumContext@@@@QBEQAVWmiEnumContext@@XZ ; has WINAPI (@0)
; public: void __thiscall <class <class XmlReader>,class XmlReader *>::operator class XmlReader *(...)throw()
??B?$AutoCleanup@V?$AutoDelete@VXmlReader@@@@PAVXmlReader@@@@QAEPAVXmlReader@@XZ ; has WINAPI (@0)
; public: void __thiscall <class <unsigned short const>,unsigned short const *>::operator unsigned short const *(...)throw()
??B?$AutoCleanup@V?$AutoDeleteVector@$$CBG@@PBG@@QAEPBGXZ ; has WINAPI (@0)
; public: void __thiscall <class <char>,char *>::operator char *(...)throw()
??B?$AutoCleanup@V?$AutoDeleteVector@D@@PAD@@QAEPADXZ ; has WINAPI (@0)
; public: void __thiscall <class <unsigned char>,unsigned char *>::operator unsigned char *(...)throw()
??B?$AutoCleanup@V?$AutoDeleteVector@E@@PAE@@QAEPAEXZ ; has WINAPI (@0)
; public: void __thiscall <class <unsigned char>,unsigned char *>::operator unsigned char *const(...)const throw()
??B?$AutoCleanup@V?$AutoDeleteVector@E@@PAE@@QBEQAEXZ ; has WINAPI (@0)
; public: void __thiscall <class <unsigned short>,unsigned short *>::operator unsigned short *(...)throw()
??B?$AutoCleanup@V?$AutoDeleteVector@G@@PAG@@QAEPAGXZ ; has WINAPI (@0)
; public: void __thiscall <class <unsigned short>,unsigned short *>::operator unsigned short *const(...)const throw()
??B?$AutoCleanup@V?$AutoDeleteVector@G@@PAG@@QBEQAGXZ ; has WINAPI (@0)
; public: void __thiscall <class <int>,int *>::operator int *(...)throw()
??B?$AutoCleanup@V?$AutoDeleteVector@H@@PAH@@QAEPAHXZ ; has WINAPI (@0)
; public: void __thiscall <class <unsigned short *>,unsigned short **>::operator unsigned short **(...)throw()
??B?$AutoCleanup@V?$AutoDeleteVector@PAG@@PAPAG@@QAEPAPAGXZ ; has WINAPI (@0)
; public: void __thiscall <class <unsigned short *>,unsigned short **>::operator unsigned short **const(...)const throw()
??B?$AutoCleanup@V?$AutoDeleteVector@PAG@@PAPAG@@QBEQAPAGXZ ; has WINAPI (@0)
; public: void __thiscall <class <unsigned short const *>,unsigned short const **>::operator unsigned short const **(...)throw()
??B?$AutoCleanup@V?$AutoDeleteVector@PBG@@PAPBG@@QAEPAPBGXZ ; has WINAPI (@0)
; public: void __thiscall <class <unsigned short const *>,unsigned short const **>::operator unsigned short const **const(...)const throw()
??B?$AutoCleanup@V?$AutoDeleteVector@PBG@@PAPBG@@QBEQAPBGXZ ; has WINAPI (@0)
; public: void __thiscall <class <struct _CONFIG_UPDATE>,struct _CONFIG_UPDATE *>::operator struct _CONFIG_UPDATE *(...)throw()
??B?$AutoCleanup@V?$AutoDeleteVector@U_CONFIG_UPDATE@@@@PAU_CONFIG_UPDATE@@@@QAEPAU_CONFIG_UPDATE@@XZ ; has WINAPI (@0)
; public: void __thiscall <class <struct _WINRS_CREATE_SHELL_ENVIRONMENT_VARIABLE>,struct _WINRS_CREATE_SHELL_ENVIRONMENT_VARIABLE *>::operator struct _WINRS_CREATE_SHELL_ENVIRONMENT_VARIABLE *(...)throw()
??B?$AutoCleanup@V?$AutoDeleteVector@U_WINRS_CREATE_SHELL_ENVIRONMENT_VARIABLE@@@@PAU_WINRS_CREATE_SHELL_ENVIRONMENT_VARIABLE@@@@QAEPAU_WINRS_CREATE_SHELL_ENVIRONMENT_VARIABLE@@XZ ; has WINAPI (@0)
; public: void __thiscall <class <struct _WINRS_CREATE_SHELL_ENVIRONMENT_VARIABLE>,struct _WINRS_CREATE_SHELL_ENVIRONMENT_VARIABLE *>::operator struct _WINRS_CREATE_SHELL_ENVIRONMENT_VARIABLE *const(...)const throw()
??B?$AutoCleanup@V?$AutoDeleteVector@U_WINRS_CREATE_SHELL_ENVIRONMENT_VARIABLE@@@@PAU_WINRS_CREATE_SHELL_ENVIRONMENT_VARIABLE@@@@QBEQAU_WINRS_CREATE_SHELL_ENVIRONMENT_VARIABLE@@XZ ; has WINAPI (@0)
; public: void __thiscall <class <struct _WINRS_RUN_COMMAND_ARG>,struct _WINRS_RUN_COMMAND_ARG *>::operator struct _WINRS_RUN_COMMAND_ARG *(...)throw()
??B?$AutoCleanup@V?$AutoDeleteVector@U_WINRS_RUN_COMMAND_ARG@@@@PAU_WINRS_RUN_COMMAND_ARG@@@@QAEPAU_WINRS_RUN_COMMAND_ARG@@XZ ; has WINAPI (@0)
; public: void __thiscall <class <struct _WINRS_RUN_COMMAND_ARG>,struct _WINRS_RUN_COMMAND_ARG *>::operator struct _WINRS_RUN_COMMAND_ARG *const(...)const throw()
??B?$AutoCleanup@V?$AutoDeleteVector@U_WINRS_RUN_COMMAND_ARG@@@@PAU_WINRS_RUN_COMMAND_ARG@@@@QBEQAU_WINRS_RUN_COMMAND_ARG@@XZ ; has WINAPI (@0)
; public: void __thiscall <class <struct _WSMAN_OPTION>,struct _WSMAN_OPTION *>::operator struct _WSMAN_OPTION *(...)throw()
??B?$AutoCleanup@V?$AutoDeleteVector@U_WSMAN_OPTION@@@@PAU_WSMAN_OPTION@@@@QAEPAU_WSMAN_OPTION@@XZ ; has WINAPI (@0)
; public: void __thiscall <class <void>,void *>::operator void *(...)throw()
??B?$AutoCleanup@V?$AutoDeleteVector@X@@PAX@@QAEPAXXZ ; has WINAPI (@0)
; public: void __thiscall <class <unsigned char>,unsigned char *>::operator unsigned char *(...)throw()
??B?$AutoCleanup@V?$AutoFree@E@@PAE@@QAEPAEXZ ; has WINAPI (@0)
; public: void __thiscall <class <unsigned char>,unsigned char *>::operator unsigned char *const(...)const throw()
??B?$AutoCleanup@V?$AutoFree@E@@PAE@@QBEQAEXZ ; has WINAPI (@0)
; public: void __thiscall <class <class Packet>,class Packet *>::operator class Packet *(...)throw()
??B?$AutoCleanup@V?$AutoLocklessItemRecycle@VPacket@@@@PAVPacket@@@@QAEPAVPacket@@XZ ; has WINAPI (@0)
; public: void __thiscall <class <struct IAppHostChildElementCollection>,struct IAppHostChildElementCollection *>::operator struct IAppHostChildElementCollection *(...)throw()
??B?$AutoCleanup@V?$AutoRelease@UIAppHostChildElementCollection@@@@PAUIAppHostChildElementCollection@@@@QAEPAUIAppHostChildElementCollection@@XZ ; has WINAPI (@0)
; public: void __thiscall <class <struct IAppHostElement>,struct IAppHostElement *>::operator struct IAppHostElement *(...)throw()
??B?$AutoCleanup@V?$AutoRelease@UIAppHostElement@@@@PAUIAppHostElement@@@@QAEPAUIAppHostElement@@XZ ; has WINAPI (@0)
; public: void __thiscall <class <struct IAppHostElementCollection>,struct IAppHostElementCollection *>::operator struct IAppHostElementCollection *(...)throw()
??B?$AutoCleanup@V?$AutoRelease@UIAppHostElementCollection@@@@PAUIAppHostElementCollection@@@@QAEPAUIAppHostElementCollection@@XZ ; has WINAPI (@0)
; public: void __thiscall <class <struct IClientSecurity>,struct IClientSecurity *>::operator struct IClientSecurity *(...)throw()
??B?$AutoCleanup@V?$AutoRelease@UIClientSecurity@@@@PAUIClientSecurity@@@@QAEPAUIClientSecurity@@XZ ; has WINAPI (@0)
; public: void __thiscall <class <struct IClientSecurity>,struct IClientSecurity *>::operator struct IClientSecurity *const(...)const throw()
??B?$AutoCleanup@V?$AutoRelease@UIClientSecurity@@@@PAUIClientSecurity@@@@QBEQAUIClientSecurity@@XZ ; has WINAPI (@0)
; public: void __thiscall <class <struct IEnumWbemClassObject>,struct IEnumWbemClassObject *>::operator struct IEnumWbemClassObject *(...)throw()
??B?$AutoCleanup@V?$AutoRelease@UIEnumWbemClassObject@@@@PAUIEnumWbemClassObject@@@@QAEPAUIEnumWbemClassObject@@XZ ; has WINAPI (@0)
; public: void __thiscall <class <struct IEnumWbemClassObject>,struct IEnumWbemClassObject *>::operator struct IEnumWbemClassObject *const(...)const throw()
??B?$AutoCleanup@V?$AutoRelease@UIEnumWbemClassObject@@@@PAUIEnumWbemClassObject@@@@QBEQAUIEnumWbemClassObject@@XZ ; has WINAPI (@0)
; public: void __thiscall <class <struct IErrorInfo>,struct IErrorInfo *>::operator struct IErrorInfo *(...)throw()
??B?$AutoCleanup@V?$AutoRelease@UIErrorInfo@@@@PAUIErrorInfo@@@@QAEPAUIErrorInfo@@XZ ; has WINAPI (@0)
; public: void __thiscall <class <struct IErrorInfo>,struct IErrorInfo *>::operator struct IErrorInfo *const(...)const throw()
??B?$AutoCleanup@V?$AutoRelease@UIErrorInfo@@@@PAUIErrorInfo@@@@QBEQAUIErrorInfo@@XZ ; has WINAPI (@0)
; public: void __thiscall <class <struct IUnknown>,struct IUnknown *>::operator struct IUnknown *(...)throw()
??B?$AutoCleanup@V?$AutoRelease@UIUnknown@@@@PAUIUnknown@@@@QAEPAUIUnknown@@XZ ; has WINAPI (@0)
; public: void __thiscall <class <struct IUnknown>,struct IUnknown *>::operator struct IUnknown *const(...)const throw()
??B?$AutoCleanup@V?$AutoRelease@UIUnknown@@@@PAUIUnknown@@@@QBEQAUIUnknown@@XZ ; has WINAPI (@0)
; public: void __thiscall <class <struct IWbemClassObject>,struct IWbemClassObject *>::operator struct IWbemClassObject *(...)throw()
??B?$AutoCleanup@V?$AutoRelease@UIWbemClassObject@@@@PAUIWbemClassObject@@@@QAEPAUIWbemClassObject@@XZ ; has WINAPI (@0)
; public: void __thiscall <class <struct IWbemClassObject>,struct IWbemClassObject *>::operator struct IWbemClassObject *const(...)const throw()
??B?$AutoCleanup@V?$AutoRelease@UIWbemClassObject@@@@PAUIWbemClassObject@@@@QBEQAUIWbemClassObject@@XZ ; has WINAPI (@0)
; public: void __thiscall <class <struct IWbemContext>,struct IWbemContext *>::operator struct IWbemContext *(...)throw()
??B?$AutoCleanup@V?$AutoRelease@UIWbemContext@@@@PAUIWbemContext@@@@QAEPAUIWbemContext@@XZ ; has WINAPI (@0)
; public: void __thiscall <class <struct IWbemContext>,struct IWbemContext *>::operator struct IWbemContext *const(...)const throw()
??B?$AutoCleanup@V?$AutoRelease@UIWbemContext@@@@PAUIWbemContext@@@@QBEQAUIWbemContext@@XZ ; has WINAPI (@0)
; public: void __thiscall <class <struct IWbemLocator>,struct IWbemLocator *>::operator struct IWbemLocator *(...)throw()
??B?$AutoCleanup@V?$AutoRelease@UIWbemLocator@@@@PAUIWbemLocator@@@@QAEPAUIWbemLocator@@XZ ; has WINAPI (@0)
; public: void __thiscall <class <struct IWbemLocator>,struct IWbemLocator *>::operator struct IWbemLocator *const(...)const throw()
??B?$AutoCleanup@V?$AutoRelease@UIWbemLocator@@@@PAUIWbemLocator@@@@QBEQAUIWbemLocator@@XZ ; has WINAPI (@0)
; public: void __thiscall <class <struct IWbemObjectTextSrc>,struct IWbemObjectTextSrc *>::operator struct IWbemObjectTextSrc *(...)throw()
??B?$AutoCleanup@V?$AutoRelease@UIWbemObjectTextSrc@@@@PAUIWbemObjectTextSrc@@@@QAEPAUIWbemObjectTextSrc@@XZ ; has WINAPI (@0)
; public: void __thiscall <class <struct IWbemObjectTextSrc>,struct IWbemObjectTextSrc *>::operator struct IWbemObjectTextSrc *const(...)const throw()
??B?$AutoCleanup@V?$AutoRelease@UIWbemObjectTextSrc@@@@PAUIWbemObjectTextSrc@@@@QBEQAUIWbemObjectTextSrc@@XZ ; has WINAPI (@0)
; public: void __thiscall <class <struct IWbemPath>,struct IWbemPath *>::operator struct IWbemPath *(...)throw()
??B?$AutoCleanup@V?$AutoRelease@UIWbemPath@@@@PAUIWbemPath@@@@QAEPAUIWbemPath@@XZ ; has WINAPI (@0)
; public: void __thiscall <class <struct IWbemPath>,struct IWbemPath *>::operator struct IWbemPath *const(...)const throw()
??B?$AutoCleanup@V?$AutoRelease@UIWbemPath@@@@PAUIWbemPath@@@@QBEQAUIWbemPath@@XZ ; has WINAPI (@0)
; public: void __thiscall <class <struct IWbemPathKeyList>,struct IWbemPathKeyList *>::operator struct IWbemPathKeyList *(...)throw()
??B?$AutoCleanup@V?$AutoRelease@UIWbemPathKeyList@@@@PAUIWbemPathKeyList@@@@QAEPAUIWbemPathKeyList@@XZ ; has WINAPI (@0)
; public: void __thiscall <class <struct IWbemPathKeyList>,struct IWbemPathKeyList *>::operator struct IWbemPathKeyList *const(...)const throw()
??B?$AutoCleanup@V?$AutoRelease@UIWbemPathKeyList@@@@PAUIWbemPathKeyList@@@@QBEQAUIWbemPathKeyList@@XZ ; has WINAPI (@0)
; public: void __thiscall <class <struct IWbemQualifierSet>,struct IWbemQualifierSet *>::operator struct IWbemQualifierSet *(...)throw()
??B?$AutoCleanup@V?$AutoRelease@UIWbemQualifierSet@@@@PAUIWbemQualifierSet@@@@QAEPAUIWbemQualifierSet@@XZ ; has WINAPI (@0)
; public: void __thiscall <class <struct IWbemQualifierSet>,struct IWbemQualifierSet *>::operator struct IWbemQualifierSet *const(...)const throw()
??B?$AutoCleanup@V?$AutoRelease@UIWbemQualifierSet@@@@PAUIWbemQualifierSet@@@@QBEQAUIWbemQualifierSet@@XZ ; has WINAPI (@0)
; public: void __thiscall <class <struct IWbemQuery>,struct IWbemQuery *>::operator struct IWbemQuery *(...)throw()
??B?$AutoCleanup@V?$AutoRelease@UIWbemQuery@@@@PAUIWbemQuery@@@@QAEPAUIWbemQuery@@XZ ; has WINAPI (@0)
; public: void __thiscall <class <struct IWbemQuery>,struct IWbemQuery *>::operator struct IWbemQuery *const(...)const throw()
??B?$AutoCleanup@V?$AutoRelease@UIWbemQuery@@@@PAUIWbemQuery@@@@QBEQAUIWbemQuery@@XZ ; has WINAPI (@0)
; public: void __thiscall <class <struct IWbemServices>,struct IWbemServices *>::operator struct IWbemServices *(...)throw()
??B?$AutoCleanup@V?$AutoRelease@UIWbemServices@@@@PAUIWbemServices@@@@QAEPAUIWbemServices@@XZ ; has WINAPI (@0)
; public: void __thiscall <class <struct IWbemServices>,struct IWbemServices *>::operator struct IWbemServices *const(...)const throw()
??B?$AutoCleanup@V?$AutoRelease@UIWbemServices@@@@PAUIWbemServices@@@@QBEQAUIWbemServices@@XZ ; has WINAPI (@0)
; public: void __thiscall <class <class CBaseConfigCache>,class CBaseConfigCache *>::operator class CBaseConfigCache *(...)throw()
??B?$AutoCleanup@V?$AutoRelease@VCBaseConfigCache@@@@PAVCBaseConfigCache@@@@QAEPAVCBaseConfigCache@@XZ ; has WINAPI (@0)
; public: void __thiscall <class <class CClientConfigSettings>,class CClientConfigSettings *>::operator class CClientConfigSettings *(...)throw()
??B?$AutoCleanup@V?$AutoRelease@VCClientConfigSettings@@@@PAVCClientConfigSettings@@@@QAEPAVCClientConfigSettings@@XZ ; has WINAPI (@0)
; public: void __thiscall <class <class CCommonConfigSettings>,class CCommonConfigSettings *>::operator class CCommonConfigSettings *(...)throw()
??B?$AutoCleanup@V?$AutoRelease@VCCommonConfigSettings@@@@PAVCCommonConfigSettings@@@@QAEPAVCCommonConfigSettings@@XZ ; has WINAPI (@0)
; public: void __thiscall <class <class CBaseConfigCache::CConfigCacheMap>,class CBaseConfigCache::CConfigCacheMap *>::operator class CBaseConfigCache::CConfigCacheMap *(...)throw()
??B?$AutoCleanup@V?$AutoRelease@VCConfigCacheMap@CBaseConfigCache@@@@PAVCConfigCacheMap@CBaseConfigCache@@@@QAEPAVCConfigCacheMap@CBaseConfigCache@@XZ ; has WINAPI (@0)
; public: void __thiscall <class <class CConfigManager>,class CConfigManager *>::operator class CConfigManager *(...)throw()
??B?$AutoCleanup@V?$AutoRelease@VCConfigManager@@@@PAVCConfigManager@@@@QAEPAVCConfigManager@@XZ ; has WINAPI (@0)
; public: void __thiscall <class <class CRemoteSession>,class CRemoteSession *>::operator class CRemoteSession *(...)throw()
??B?$AutoCleanup@V?$AutoRelease@VCRemoteSession@@@@PAVCRemoteSession@@@@QAEPAVCRemoteSession@@XZ ; has WINAPI (@0)
; public: void __thiscall <class <class CRequestContext>,class CRequestContext *>::operator class CRequestContext *(...)throw()
??B?$AutoCleanup@V?$AutoRelease@VCRequestContext@@@@PAVCRequestContext@@@@QAEPAVCRequestContext@@XZ ; has WINAPI (@0)
; public: void __thiscall <class <class CServiceCommonConfigSettings>,class CServiceCommonConfigSettings *>::operator class CServiceCommonConfigSettings *(...)throw()
??B?$AutoCleanup@V?$AutoRelease@VCServiceCommonConfigSettings@@@@PAVCServiceCommonConfigSettings@@@@QAEPAVCServiceCommonConfigSettings@@XZ ; has WINAPI (@0)
; public: void __thiscall <class <class CServiceConfigCache>,class CServiceConfigCache *>::operator class CServiceConfigCache *(...)throw()
??B?$AutoCleanup@V?$AutoRelease@VCServiceConfigCache@@@@PAVCServiceConfigCache@@@@QAEPAVCServiceConfigCache@@XZ ; has WINAPI (@0)
; public: void __thiscall <class <class CServiceConfigSettings>,class CServiceConfigSettings *>::operator class CServiceConfigSettings *(...)throw()
??B?$AutoCleanup@V?$AutoRelease@VCServiceConfigSettings@@@@PAVCServiceConfigSettings@@@@QAEPAVCServiceConfigSettings@@XZ ; has WINAPI (@0)
; public: void __thiscall <class <class CWSManEPR>,class CWSManEPR *>::operator class CWSManEPR *(...)throw()
??B?$AutoCleanup@V?$AutoRelease@VCWSManEPR@@@@PAVCWSManEPR@@@@QAEPAVCWSManEPR@@XZ ; has WINAPI (@0)
; public: void __thiscall <class <class CWSManEPR>,class CWSManEPR *>::operator class CWSManEPR *const(...)const throw()
??B?$AutoCleanup@V?$AutoRelease@VCWSManEPR@@@@PAVCWSManEPR@@@@QBEQAVCWSManEPR@@XZ ; has WINAPI (@0)
; public: void __thiscall <class <class CWSManGroupPolicyCache>,class CWSManGroupPolicyCache *>::operator class CWSManGroupPolicyCache *(...)throw()
??B?$AutoCleanup@V?$AutoRelease@VCWSManGroupPolicyCache@@@@PAVCWSManGroupPolicyCache@@@@QAEPAVCWSManGroupPolicyCache@@XZ ; has WINAPI (@0)
; public: void __thiscall <class <class CWSManGroupPolicyManager>,class CWSManGroupPolicyManager *>::operator class CWSManGroupPolicyManager *(...)throw()
??B?$AutoCleanup@V?$AutoRelease@VCWSManGroupPolicyManager@@@@PAVCWSManGroupPolicyManager@@@@QAEPAVCWSManGroupPolicyManager@@XZ ; has WINAPI (@0)
; public: void __thiscall <class <class CWSManObject>,class CWSManObject *>::operator class CWSManObject *(...)throw()
??B?$AutoCleanup@V?$AutoRelease@VCWSManObject@@@@PAVCWSManObject@@@@QAEPAVCWSManObject@@XZ ; has WINAPI (@0)
; public: void __thiscall <class <class CWSManResource>,class CWSManResource *>::operator class CWSManResource *(...)throw()
??B?$AutoCleanup@V?$AutoRelease@VCWSManResource@@@@PAVCWSManResource@@@@QAEPAVCWSManResource@@XZ ; has WINAPI (@0)
; public: void __thiscall <class <class CWSManResource>,class CWSManResource *>::operator class CWSManResource *const(...)const throw()
??B?$AutoCleanup@V?$AutoRelease@VCWSManResource@@@@PAVCWSManResource@@@@QBEQAVCWSManResource@@XZ ; has WINAPI (@0)
; public: void __thiscall <class <class CWinRSPluginConfigCache>,class CWinRSPluginConfigCache *>::operator class CWinRSPluginConfigCache *(...)throw()
??B?$AutoCleanup@V?$AutoRelease@VCWinRSPluginConfigCache@@@@PAVCWinRSPluginConfigCache@@@@QAEPAVCWinRSPluginConfigCache@@XZ ; has WINAPI (@0)
; public: void __thiscall <class <class CWinRSPluginConfigCache>,class CWinRSPluginConfigCache *>::operator class CWinRSPluginConfigCache *const(...)const throw()
??B?$AutoCleanup@V?$AutoRelease@VCWinRSPluginConfigCache@@@@PAVCWinRSPluginConfigCache@@@@QBEQAVCWinRSPluginConfigCache@@XZ ; has WINAPI (@0)
; public: void __thiscall <class <class CWinRSPluginConfigSettings>,class CWinRSPluginConfigSettings *>::operator class CWinRSPluginConfigSettings *(...)throw()
??B?$AutoCleanup@V?$AutoRelease@VCWinRSPluginConfigSettings@@@@PAVCWinRSPluginConfigSettings@@@@QAEPAVCWinRSPluginConfigSettings@@XZ ; has WINAPI (@0)
; public: void __thiscall <class <class WSMan::Client::Command>,class WSMan::Client::Command *>::operator class WSMan::Client::Command *(...)throw()
??B?$AutoCleanup@V?$AutoRelease@VCommand@Client@WSMan@@@@PAVCommand@Client@WSMan@@@@QAEPAVCommand@Client@WSMan@@XZ ; has WINAPI (@0)
; public: void __thiscall <class <class ConfigNotification>,class ConfigNotification *>::operator class ConfigNotification *(...)throw()
??B?$AutoCleanup@V?$AutoRelease@VConfigNotification@@@@PAVConfigNotification@@@@QAEPAVConfigNotification@@XZ ; has WINAPI (@0)
; public: void __thiscall <class <class WSMan::Client::ConnectShellOperation>,class WSMan::Client::ConnectShellOperation *>::operator class WSMan::Client::ConnectShellOperation *(...)throw()
??B?$AutoCleanup@V?$AutoRelease@VConnectShellOperation@Client@WSMan@@@@PAVConnectShellOperation@Client@WSMan@@@@QAEPAVConnectShellOperation@Client@WSMan@@XZ ; has WINAPI (@0)
; public: void __thiscall <class <class WSMan::Client::CreateShellOperation>,class WSMan::Client::CreateShellOperation *>::operator class WSMan::Client::CreateShellOperation *(...)throw()
??B?$AutoCleanup@V?$AutoRelease@VCreateShellOperation@Client@WSMan@@@@PAVCreateShellOperation@Client@WSMan@@@@QAEPAVCreateShellOperation@Client@WSMan@@XZ ; has WINAPI (@0)
; public: void __thiscall <class <class WSMan::Client::DeleteShellOperation>,class WSMan::Client::DeleteShellOperation *>::operator class WSMan::Client::DeleteShellOperation *(...)throw()
??B?$AutoCleanup@V?$AutoRelease@VDeleteShellOperation@Client@WSMan@@@@PAVDeleteShellOperation@Client@WSMan@@@@QAEPAVDeleteShellOperation@Client@WSMan@@XZ ; has WINAPI (@0)
; public: void __thiscall <class <class WSMan::Client::DisconnectOperation>,class WSMan::Client::DisconnectOperation *>::operator class WSMan::Client::DisconnectOperation *(...)throw()
??B?$AutoCleanup@V?$AutoRelease@VDisconnectOperation@Client@WSMan@@@@PAVDisconnectOperation@Client@WSMan@@@@QAEPAVDisconnectOperation@Client@WSMan@@XZ ; has WINAPI (@0)
; public: void __thiscall <class <class EnumSinkEx>,class EnumSinkEx *>::operator class EnumSinkEx *(...)throw()
??B?$AutoCleanup@V?$AutoRelease@VEnumSinkEx@@@@PAVEnumSinkEx@@@@QAEPAVEnumSinkEx@@XZ ; has WINAPI (@0)
; public: void __thiscall <class <class EnumSinkEx>,class EnumSinkEx *>::operator class EnumSinkEx *const(...)const throw()
??B?$AutoCleanup@V?$AutoRelease@VEnumSinkEx@@@@PAVEnumSinkEx@@@@QBEQAVEnumSinkEx@@XZ ; has WINAPI (@0)
; public: void __thiscall <class <class GeneralSinkEx>,class GeneralSinkEx *>::operator class GeneralSinkEx *(...)throw()
??B?$AutoCleanup@V?$AutoRelease@VGeneralSinkEx@@@@PAVGeneralSinkEx@@@@QAEPAVGeneralSinkEx@@XZ ; has WINAPI (@0)
; public: void __thiscall <class <class GeneralSinkEx>,class GeneralSinkEx *>::operator class GeneralSinkEx *const(...)const throw()
??B?$AutoCleanup@V?$AutoRelease@VGeneralSinkEx@@@@PAVGeneralSinkEx@@@@QBEQAVGeneralSinkEx@@XZ ; has WINAPI (@0)
; public: void __thiscall <class <class IISConfigSettings>,class IISConfigSettings *>::operator class IISConfigSettings *(...)throw()
??B?$AutoCleanup@V?$AutoRelease@VIISConfigSettings@@@@PAVIISConfigSettings@@@@QAEPAVIISConfigSettings@@XZ ; has WINAPI (@0)
; public: void __thiscall <class <class IPCSoapProcessor>,class IPCSoapProcessor *>::operator class IPCSoapProcessor *(...)throw()
??B?$AutoCleanup@V?$AutoRelease@VIPCSoapProcessor@@@@PAVIPCSoapProcessor@@@@QAEPAVIPCSoapProcessor@@XZ ; has WINAPI (@0)
; public: void __thiscall <class <class IRequestContext>,class IRequestContext *>::operator class IRequestContext *(...)throw()
??B?$AutoCleanup@V?$AutoRelease@VIRequestContext@@@@PAVIRequestContext@@@@QAEPAVIRequestContext@@XZ ; has WINAPI (@0)
; public: void __thiscall <class <class IRequestContext>,class IRequestContext *>::operator class IRequestContext *const(...)const throw()
??B?$AutoCleanup@V?$AutoRelease@VIRequestContext@@@@PAVIRequestContext@@@@QBEQAVIRequestContext@@XZ ; has WINAPI (@0)
; public: void __thiscall <class <class ISubscription>,class ISubscription *>::operator class ISubscription *(...)throw()
??B?$AutoCleanup@V?$AutoRelease@VISubscription@@@@PAVISubscription@@@@QAEPAVISubscription@@XZ ; has WINAPI (@0)
; public: void __thiscall <class <class InboundRequestDetails>,class InboundRequestDetails *>::operator class InboundRequestDetails *(...)throw()
??B?$AutoCleanup@V?$AutoRelease@VInboundRequestDetails@@@@PAVInboundRequestDetails@@@@QAEPAVInboundRequestDetails@@XZ ; has WINAPI (@0)
; public: void __thiscall <class <class InboundRequestDetails>,class InboundRequestDetails *>::operator class InboundRequestDetails *const(...)const throw()
??B?$AutoCleanup@V?$AutoRelease@VInboundRequestDetails@@@@PAVInboundRequestDetails@@@@QBEQAVInboundRequestDetails@@XZ ; has WINAPI (@0)
; public: void __thiscall <class <class WSMan::Client::ReceiveOperation>,class WSMan::Client::ReceiveOperation *>::operator class WSMan::Client::ReceiveOperation *(...)throw()
??B?$AutoCleanup@V?$AutoRelease@VReceiveOperation@Client@WSMan@@@@PAVReceiveOperation@Client@WSMan@@@@QAEPAVReceiveOperation@Client@WSMan@@XZ ; has WINAPI (@0)
; public: void __thiscall <class <class WSMan::Client::ReconnectOperation>,class WSMan::Client::ReconnectOperation *>::operator class WSMan::Client::ReconnectOperation *(...)throw()
??B?$AutoCleanup@V?$AutoRelease@VReconnectOperation@Client@WSMan@@@@PAVReconnectOperation@Client@WSMan@@@@QAEPAVReconnectOperation@Client@WSMan@@XZ ; has WINAPI (@0)
; public: void __thiscall <class <class WSMan::Client::SendOperation>,class WSMan::Client::SendOperation *>::operator class WSMan::Client::SendOperation *(...)throw()
??B?$AutoCleanup@V?$AutoRelease@VSendOperation@Client@WSMan@@@@PAVSendOperation@Client@WSMan@@@@QAEPAVSendOperation@Client@WSMan@@XZ ; has WINAPI (@0)
; public: void __thiscall <class <class WSMan::Client::Shell>,class WSMan::Client::Shell *>::operator class WSMan::Client::Shell *(...)throw()
??B?$AutoCleanup@V?$AutoRelease@VShell@Client@WSMan@@@@PAVShell@Client@WSMan@@@@QAEPAVShell@Client@WSMan@@XZ ; has WINAPI (@0)
; public: void __thiscall <class <class WSMan::Client::Shell>,class WSMan::Client::Shell *>::operator class WSMan::Client::Shell *const(...)const throw()
??B?$AutoCleanup@V?$AutoRelease@VShell@Client@WSMan@@@@PAVShell@Client@WSMan@@@@QBEQAVShell@Client@WSMan@@XZ ; has WINAPI (@0)
; public: void __thiscall <class <class WSMan::Client::SignalOperation>,class WSMan::Client::SignalOperation *>::operator class WSMan::Client::SignalOperation *(...)throw()
??B?$AutoCleanup@V?$AutoRelease@VSignalOperation@Client@WSMan@@@@PAVSignalOperation@Client@WSMan@@@@QAEPAVSignalOperation@Client@WSMan@@XZ ; has WINAPI (@0)
; public: void __thiscall <class <class UserRecord>,class UserRecord *>::operator class UserRecord *(...)throw()
??B?$AutoCleanup@V?$AutoRelease@VUserRecord@@@@PAVUserRecord@@@@QAEPAVUserRecord@@XZ ; has WINAPI (@0)
; public: void __thiscall <class <class UserRecord>,class UserRecord *>::operator class UserRecord *const(...)const throw()
??B?$AutoCleanup@V?$AutoRelease@VUserRecord@@@@PAVUserRecord@@@@QBEQAVUserRecord@@XZ ; has WINAPI (@0)
; public: void __thiscall <class AutoBstr,unsigned short *>::operator unsigned short *(...)throw()
??B?$AutoCleanup@VAutoBstr@@PAG@@QAEPAGXZ ; has WINAPI (@0)
; public: void __thiscall <class AutoBstrNoAlloc,unsigned short *>::operator unsigned short *(...)throw()
??B?$AutoCleanup@VAutoBstrNoAlloc@@PAG@@QAEPAGXZ ; has WINAPI (@0)
; public: void __thiscall <class AutoBstrNoAlloc,unsigned short *>::operator unsigned short *const(...)const throw()
??B?$AutoCleanup@VAutoBstrNoAlloc@@PAG@@QBEQAGXZ ; has WINAPI (@0)
; public: void __thiscall <class AutoCertContext,struct _CERT_CONTEXT const *>::operator struct _CERT_CONTEXT const *(...)throw()
??B?$AutoCleanup@VAutoCertContext@@PBU_CERT_CONTEXT@@@@QAEPBU_CERT_CONTEXT@@XZ ; has WINAPI (@0)
; public: void __thiscall <class AutoHandle,void *>::operator void *(...)throw()
??B?$AutoCleanup@VAutoHandle@@PAX@@QAEPAXXZ ; has WINAPI (@0)
; public: void __thiscall <class AutoHandle,void *>::operator void *const(...)const throw()
??B?$AutoCleanup@VAutoHandle@@PAX@@QBEQAXXZ ; has WINAPI (@0)
; public: void __thiscall <class AutoImpersonateUser,void *>::operator void *(...)throw()
??B?$AutoCleanup@VAutoImpersonateUser@@PAX@@QAEPAXXZ ; has WINAPI (@0)
; public: void __thiscall <class AutoImpersonateUser,void *>::operator void *const(...)const throw()
??B?$AutoCleanup@VAutoImpersonateUser@@PAX@@QBEQAXXZ ; has WINAPI (@0)
; public: void __thiscall <class AutoLibrary,struct HINSTANCE__ *>::operator struct HINSTANCE__ *(...)throw()
??B?$AutoCleanup@VAutoLibrary@@PAUHINSTANCE__@@@@QAEPAUHINSTANCE__@@XZ ; has WINAPI (@0)
; public: void __thiscall <class AutoLocalFree,void *>::operator void *(...)throw()
??B?$AutoCleanup@VAutoLocalFree@@PAX@@QAEPAXXZ ; has WINAPI (@0)
; public: void __thiscall <class AutoMIClass,struct _MI_Class *>::operator struct _MI_Class *(...)throw()
??B?$AutoCleanup@VAutoMIClass@@PAU_MI_Class@@@@QAEPAU_MI_Class@@XZ ; has WINAPI (@0)
; public: void __thiscall <class AutoMIInstance,struct _MI_Instance *>::operator struct _MI_Instance *(...)throw()
??B?$AutoCleanup@VAutoMIInstance@@PAU_MI_Instance@@@@QAEPAU_MI_Instance@@XZ ; has WINAPI (@0)
; public: void __thiscall <class AutoRegKey,struct HKEY__ *>::operator struct HKEY__ *(...)throw()
??B?$AutoCleanup@VAutoRegKey@@PAUHKEY__@@@@QAEPAUHKEY__@@XZ ; has WINAPI (@0)
; public: void __thiscall <class AutoSecurityDescriptor,void *>::operator void *(...)throw()
??B?$AutoCleanup@VAutoSecurityDescriptor@@PAX@@QAEPAXXZ ; has WINAPI (@0)
; public: void __thiscall <class CCertMapping *,struct Empty>::operator bool(...)const throw()
??B?$SafeMap_Iterator@PAVCCertMapping@@UEmpty@@@@QBE_NXZ ; has WINAPI (@0)
; public: void __thiscall <class CListenerOperation *,struct Empty>::operator bool(...)const throw()
??B?$SafeMap_Iterator@PAVCListenerOperation@@UEmpty@@@@QBE_NXZ ; has WINAPI (@0)
; public: void __thiscall <class CShellUriSettings *,struct Empty>::operator bool(...)const throw()
??B?$SafeMap_Iterator@PAVCShellUriSettings@@UEmpty@@@@QBE_NXZ ; has WINAPI (@0)
; public: void __thiscall <class CertThumbprintKey,class CServiceConfigSettings::CertThumbprintMappedSet>::operator bool(...)const throw()
??B?$SafeMap_Iterator@VCertThumbprintKey@@VCertThumbprintMappedSet@CServiceConfigSettings@@@@QBE_NXZ ; has WINAPI (@0)
; public: void __thiscall <class Locale::Key,unsigned long>::operator bool(...)const throw()
??B?$SafeMap_Iterator@VKey@Locale@@K@@QBE_NXZ ; has WINAPI (@0)
; public: void __thiscall <class StringKeyCI,unsigned long>::operator bool(...)const throw()
??B?$SafeMap_Iterator@VStringKeyCI@@K@@QBE_NXZ ; has WINAPI (@0)
; public: void __thiscall <class StringKeyCI,struct WSManHttpListener::USER_CONTEXT_INFO>::operator bool(...)const throw()
??B?$SafeMap_Iterator@VStringKeyCI@@UUSER_CONTEXT_INFO@WSManHttpListener@@@@QBE_NXZ ; has WINAPI (@0)
; public: void __thiscall <class StringKeyStore,class ExpiredOperationIdRecord *>::operator bool(...)const throw()
??B?$SafeMap_Iterator@VStringKeyStore@@PAVExpiredOperationIdRecord@@@@QBE_NXZ ; has WINAPI (@0)
; public: void __thiscall <enum WSManSessionOption,class WSMan::Client::SessionOptions::OptionValue *>::operator bool(...)const throw()
??B?$SafeMap_Iterator@W4WSManSessionOption@@PAVOptionValue@SessionOptions@Client@WSMan@@@@QBE_NXZ ; has WINAPI (@0)
; public: struct _WSMAN_STREAM_ID_SET *__thiscall <class <struct _WSMAN_STREAM_ID_SET>,struct _WSMAN_STREAM_ID_SET *>::operator ->(void)
??C?$AutoCleanup@V?$AutoDelete@U_WSMAN_STREAM_ID_SET@@@@PAU_WSMAN_STREAM_ID_SET@@@@QAEPAU_WSMAN_STREAM_ID_SET@@XZ ; has WINAPI (@0)
; public: class <class ISubscription> *__thiscall <class <class <class ISubscription>>,class <class ISubscription> *>::operator ->(void)
??C?$AutoCleanup@V?$AutoDelete@V?$Handle@VISubscription@@@@@@PAV?$Handle@VISubscription@@@@@@QAEPAV?$Handle@VISubscription@@@@XZ ; has WINAPI (@0)
; public: class <class StringKeyCI,unsigned long> *__thiscall <class <class <class StringKeyCI,unsigned long>>,class <class StringKeyCI,unsigned long> *>::operator ->(void)
??C?$AutoCleanup@V?$AutoDelete@V?$SafeMap_Iterator@VStringKeyCI@@K@@@@PAV?$SafeMap_Iterator@VStringKeyCI@@K@@@@QAEPAV?$SafeMap_Iterator@VStringKeyCI@@K@@XZ ; has WINAPI (@0)
; public: class <enum WSManSessionOption,class WSMan::Client::SessionOptions::OptionValue *> *__thiscall <class <class <enum WSManSessionOption,class WSMan::Client::SessionOptions::OptionValue *>>,class <enum WSManSessionOption,class WSMan::Client::SessionOptions::OptionValue *> *>::operator ->(void)
??C?$AutoCleanup@V?$AutoDelete@V?$SafeMap_Iterator@W4WSManSessionOption@@PAVOptionValue@SessionOptions@Client@WSMan@@@@@@PAV?$SafeMap_Iterator@W4WSManSessionOption@@PAVOptionValue@SessionOptions@Client@WSMan@@@@@@QAEPAV?$SafeMap_Iterator@W4WSManSessionOption@@PAVOptionValue@SessionOptions@Client@WSMan@@@@XZ ; has WINAPI (@0)
; public: class <class CCertMapping *> *__thiscall <class <class <class CCertMapping *>>,class <class CCertMapping *> *>::operator ->(void)
??C?$AutoCleanup@V?$AutoDelete@V?$SafeSet@PAVCCertMapping@@@@@@PAV?$SafeSet@PAVCCertMapping@@@@@@QAEPAV?$SafeSet@PAVCCertMapping@@@@XZ ; has WINAPI (@0)
; public: class <class CShellUriSettings *> *__thiscall <class <class <class CShellUriSettings *>>,class <class CShellUriSettings *> *>::operator ->(void)
??C?$AutoCleanup@V?$AutoDelete@V?$SafeSet@PAVCShellUriSettings@@@@@@PAV?$SafeSet@PAVCShellUriSettings@@@@@@QAEPAV?$SafeSet@PAVCShellUriSettings@@@@XZ ; has WINAPI (@0)
; public: class <class CListenerOperation *> *__thiscall <class <class <class CListenerOperation *>>,class <class CListenerOperation *> *>::operator ->(void)
??C?$AutoCleanup@V?$AutoDelete@V?$SafeSet_Iterator@PAVCListenerOperation@@@@@@PAV?$SafeSet_Iterator@PAVCListenerOperation@@@@@@QAEPAV?$SafeSet_Iterator@PAVCListenerOperation@@@@XZ ; has WINAPI (@0)
; public: class std::<class CListenerSettings *,class CServiceConfigSettings::CListenerSettingsLessFunctor,class <class CListenerSettings *>> *__thiscall <class <class std::<class CListenerSettings *,class CServiceConfigSettings::CListenerSettingsLessFunctor,class <class CListenerSettings *>>>,class std::<class CListenerSettings *,class CServiceConfigSettings::CListenerSettingsLessFunctor,class <class CListenerSettings *>> *>::operator ->(void)
??C?$AutoCleanup@V?$AutoDelete@V?$set@PAVCListenerSettings@@VCListenerSettingsLessFunctor@CServiceConfigSettings@@V?$transport_allocator@PAVCListenerSettings@@@@@std@@@@PAV?$set@PAVCListenerSettings@@VCListenerSettingsLessFunctor@CServiceConfigSettings@@V?$transport_allocator@PAVCListenerSettings@@@@@std@@@@QAEPAV?$set@PAVCListenerSettings@@VCListenerSettingsLessFunctor@CServiceConfigSettings@@V?$transport_allocator@PAVCListenerSettings@@@@@std@@XZ ; has WINAPI (@0)
; public: class std::<struct sockaddr_storage,class CListenerSettings::SockAddrLessFunctor,class <struct sockaddr_storage>> *__thiscall <class <class std::<struct sockaddr_storage,class CListenerSettings::SockAddrLessFunctor,class <struct sockaddr_storage>>>,class std::<struct sockaddr_storage,class CListenerSettings::SockAddrLessFunctor,class <struct sockaddr_storage>> *>::operator ->(void)
??C?$AutoCleanup@V?$AutoDelete@V?$set@Usockaddr_storage@@VSockAddrLessFunctor@CListenerSettings@@V?$transport_allocator@Usockaddr_storage@@@@@std@@@@PAV?$set@Usockaddr_storage@@VSockAddrLessFunctor@CListenerSettings@@V?$transport_allocator@Usockaddr_storage@@@@@std@@@@QAEPAV?$set@Usockaddr_storage@@VSockAddrLessFunctor@CListenerSettings@@V?$transport_allocator@Usockaddr_storage@@@@@std@@XZ ; has WINAPI (@0)
; public: class std::<class WSMan::Client::HandleImpl *,class <class WSMan::Client::HandleImpl *>> *__thiscall <class <class std::<class WSMan::Client::HandleImpl *,class <class WSMan::Client::HandleImpl *>>>,class std::<class WSMan::Client::HandleImpl *,class <class WSMan::Client::HandleImpl *>> *>::operator ->(void)
??C?$AutoCleanup@V?$AutoDelete@V?$vector@PAVHandleImpl@Client@WSMan@@V?$transport_allocator@PAVHandleImpl@Client@WSMan@@@@@std@@@@PAV?$vector@PAVHandleImpl@Client@WSMan@@V?$transport_allocator@PAVHandleImpl@Client@WSMan@@@@@std@@@@QAEPAV?$vector@PAVHandleImpl@Client@WSMan@@V?$transport_allocator@PAVHandleImpl@Client@WSMan@@@@@std@@XZ ; has WINAPI (@0)
; public: class std::<class IServiceConfigObserver *,class <class IServiceConfigObserver *>> *__thiscall <class <class std::<class IServiceConfigObserver *,class <class IServiceConfigObserver *>>>,class std::<class IServiceConfigObserver *,class <class IServiceConfigObserver *>> *>::operator ->(void)
??C?$AutoCleanup@V?$AutoDelete@V?$vector@PAVIServiceConfigObserver@@V?$transport_allocator@PAVIServiceConfigObserver@@@@@std@@@@PAV?$vector@PAVIServiceConfigObserver@@V?$transport_allocator@PAVIServiceConfigObserver@@@@@std@@@@QAEPAV?$vector@PAVIServiceConfigObserver@@V?$transport_allocator@PAVIServiceConfigObserver@@@@@std@@XZ ; has WINAPI (@0)
; public: class BlockedRecord *__thiscall <class <class BlockedRecord>,class BlockedRecord *>::operator ->(void)
??C?$AutoCleanup@V?$AutoDelete@VBlockedRecord@@@@PAVBlockedRecord@@@@QAEPAVBlockedRecord@@XZ ; has WINAPI (@0)
; public: class CBaseConfigCache *__thiscall <class <class CBaseConfigCache>,class CBaseConfigCache *>::operator ->(void)
??C?$AutoCleanup@V?$AutoDelete@VCBaseConfigCache@@@@PAVCBaseConfigCache@@@@QAEPAVCBaseConfigCache@@XZ ; has WINAPI (@0)
; public: class CCertMapping *__thiscall <class <class CCertMapping>,class CCertMapping *>::operator ->(void)
??C?$AutoCleanup@V?$AutoDelete@VCCertMapping@@@@PAVCCertMapping@@@@QAEPAVCCertMapping@@XZ ; has WINAPI (@0)
; public: class CConfigChangeSource *__thiscall <class <class CConfigChangeSource>,class CConfigChangeSource *>::operator ->(void)
??C?$AutoCleanup@V?$AutoDelete@VCConfigChangeSource@@@@PAVCConfigChangeSource@@@@QAEPAVCConfigChangeSource@@XZ ; has WINAPI (@0)
; public: class CListenerSettings *__thiscall <class <class CListenerSettings>,class CListenerSettings *>::operator ->(void)
??C?$AutoCleanup@V?$AutoDelete@VCListenerSettings@@@@PAVCListenerSettings@@@@QAEPAVCListenerSettings@@XZ ; has WINAPI (@0)
; public: class CServiceConfigCache::CServiceWatcher *__thiscall <class <class CServiceConfigCache::CServiceWatcher>,class CServiceConfigCache::CServiceWatcher *>::operator ->(void)
??C?$AutoCleanup@V?$AutoDelete@VCServiceWatcher@CServiceConfigCache@@@@PAVCServiceWatcher@CServiceConfigCache@@@@QAEPAVCServiceWatcher@CServiceConfigCache@@XZ ; has WINAPI (@0)
; public: class CShellUriSettings *__thiscall <class <class CShellUriSettings>,class CShellUriSettings *>::operator ->(void)
??C?$AutoCleanup@V?$AutoDelete@VCShellUriSettings@@@@PAVCShellUriSettings@@@@QAEPAVCShellUriSettings@@XZ ; has WINAPI (@0)
; public: class CWSManEPR *__thiscall <class <class CWSManEPR>,class CWSManEPR *>::operator ->(void)
??C?$AutoCleanup@V?$AutoDelete@VCWSManEPR@@@@PAVCWSManEPR@@@@QAEPAVCWSManEPR@@XZ ; has WINAPI (@0)
; public: class CWSManResource *__thiscall <class <class CWSManResource>,class CWSManResource *>::operator ->(void)
??C?$AutoCleanup@V?$AutoDelete@VCWSManResource@@@@PAVCWSManResource@@@@QAEPAVCWSManResource@@XZ ; has WINAPI (@0)
; public: class CertHash *__thiscall <class <class CertHash>,class CertHash *>::operator ->(void)
??C?$AutoCleanup@V?$AutoDelete@VCertHash@@@@PAVCertHash@@@@QAEPAVCertHash@@XZ ; has WINAPI (@0)
; public: class ConfigUpdate *__thiscall <class <class ConfigUpdate>,class ConfigUpdate *>::operator ->(void)
??C?$AutoCleanup@V?$AutoDelete@VConfigUpdate@@@@PAVConfigUpdate@@@@QAEPAVConfigUpdate@@XZ ; has WINAPI (@0)
; public: class EnumSinkEx *__thiscall <class <class EnumSinkEx>,class EnumSinkEx *>::operator ->(void)
??C?$AutoCleanup@V?$AutoDelete@VEnumSinkEx@@@@PAVEnumSinkEx@@@@QAEPAVEnumSinkEx@@XZ ; has WINAPI (@0)
; public: class EnumSinkEx *const __thiscall <class <class EnumSinkEx>,class EnumSinkEx *>::operator ->(void)const 
??C?$AutoCleanup@V?$AutoDelete@VEnumSinkEx@@@@PAVEnumSinkEx@@@@QBEQAVEnumSinkEx@@XZ ; has WINAPI (@0)
; public: class ExpiredOperationIdRecord *__thiscall <class <class ExpiredOperationIdRecord>,class ExpiredOperationIdRecord *>::operator ->(void)
??C?$AutoCleanup@V?$AutoDelete@VExpiredOperationIdRecord@@@@PAVExpiredOperationIdRecord@@@@QAEPAVExpiredOperationIdRecord@@XZ ; has WINAPI (@0)
; public: class GPApiManager *__thiscall <class <class GPApiManager>,class GPApiManager *>::operator ->(void)
??C?$AutoCleanup@V?$AutoDelete@VGPApiManager@@@@PAVGPApiManager@@@@QAEPAVGPApiManager@@XZ ; has WINAPI (@0)
; public: class GeneralSinkEx *__thiscall <class <class GeneralSinkEx>,class GeneralSinkEx *>::operator ->(void)
??C?$AutoCleanup@V?$AutoDelete@VGeneralSinkEx@@@@PAVGeneralSinkEx@@@@QAEPAVGeneralSinkEx@@XZ ; has WINAPI (@0)
; public: class GeneralSinkEx *const __thiscall <class <class GeneralSinkEx>,class GeneralSinkEx *>::operator ->(void)const 
??C?$AutoCleanup@V?$AutoDelete@VGeneralSinkEx@@@@PAVGeneralSinkEx@@@@QBEQAVGeneralSinkEx@@XZ ; has WINAPI (@0)
; public: class IChannelObserverFactory *__thiscall <class <class IChannelObserverFactory>,class IChannelObserverFactory *>::operator ->(void)
??C?$AutoCleanup@V?$AutoDelete@VIChannelObserverFactory@@@@PAVIChannelObserverFactory@@@@QAEPAVIChannelObserverFactory@@XZ ; has WINAPI (@0)
; public: class IQueryDASHSMASHInterface *__thiscall <class <class IQueryDASHSMASHInterface>,class IQueryDASHSMASHInterface *>::operator ->(void)
??C?$AutoCleanup@V?$AutoDelete@VIQueryDASHSMASHInterface@@@@PAVIQueryDASHSMASHInterface@@@@QAEPAVIQueryDASHSMASHInterface@@XZ ; has WINAPI (@0)
; public: class IQueryDASHSMASHInterface *const __thiscall <class <class IQueryDASHSMASHInterface>,class IQueryDASHSMASHInterface *>::operator ->(void)const 
??C?$AutoCleanup@V?$AutoDelete@VIQueryDASHSMASHInterface@@@@PAVIQueryDASHSMASHInterface@@@@QBEQAVIQueryDASHSMASHInterface@@XZ ; has WINAPI (@0)
; public: class ISpecification *__thiscall <class <class ISpecification>,class ISpecification *>::operator ->(void)
??C?$AutoCleanup@V?$AutoDelete@VISpecification@@@@PAVISpecification@@@@QAEPAVISpecification@@XZ ; has WINAPI (@0)
; public: class ISpecification *const __thiscall <class <class ISpecification>,class ISpecification *>::operator ->(void)const 
??C?$AutoCleanup@V?$AutoDelete@VISpecification@@@@PAVISpecification@@@@QBEQAVISpecification@@XZ ; has WINAPI (@0)
; public: class CListenerReceive::MasterReceiveData *__thiscall <class <class CListenerReceive::MasterReceiveData>,class CListenerReceive::MasterReceiveData *>::operator ->(void)
??C?$AutoCleanup@V?$AutoDelete@VMasterReceiveData@CListenerReceive@@@@PAVMasterReceiveData@CListenerReceive@@@@QAEPAVMasterReceiveData@CListenerReceive@@XZ ; has WINAPI (@0)
; public: class WSMan::Client::SessionOptions::OptionValue *__thiscall <class <class WSMan::Client::SessionOptions::OptionValue>,class WSMan::Client::SessionOptions::OptionValue *>::operator ->(void)
??C?$AutoCleanup@V?$AutoDelete@VOptionValue@SessionOptions@Client@WSMan@@@@PAVOptionValue@SessionOptions@Client@WSMan@@@@QAEPAVOptionValue@SessionOptions@Client@WSMan@@XZ ; has WINAPI (@0)
; public: class PacketCreator *__thiscall <class <class PacketCreator>,class PacketCreator *>::operator ->(void)
??C?$AutoCleanup@V?$AutoDelete@VPacketCreator@@@@PAVPacketCreator@@@@QAEPAVPacketCreator@@XZ ; has WINAPI (@0)
; public: class PacketParser *__thiscall <class <class PacketParser>,class PacketParser *>::operator ->(void)
??C?$AutoCleanup@V?$AutoDelete@VPacketParser@@@@PAVPacketParser@@@@QAEPAVPacketParser@@XZ ; has WINAPI (@0)
; public: class RunAsConfiguration *__thiscall <class <class RunAsConfiguration>,class RunAsConfiguration *>::operator ->(void)
??C?$AutoCleanup@V?$AutoDelete@VRunAsConfiguration@@@@PAVRunAsConfiguration@@@@QAEPAVRunAsConfiguration@@XZ ; has WINAPI (@0)
; public: class Catalog::SecurityEntry *__thiscall <class <class Catalog::SecurityEntry>,class Catalog::SecurityEntry *>::operator ->(void)
??C?$AutoCleanup@V?$AutoDelete@VSecurityEntry@Catalog@@@@PAVSecurityEntry@Catalog@@@@QAEPAVSecurityEntry@Catalog@@XZ ; has WINAPI (@0)
; public: class RobustConnectionBuffer::SendPacketArgs *__thiscall <class <class RobustConnectionBuffer::SendPacketArgs>,class RobustConnectionBuffer::SendPacketArgs *>::operator ->(void)
??C?$AutoCleanup@V?$AutoDelete@VSendPacketArgs@RobustConnectionBuffer@@@@PAVSendPacketArgs@RobustConnectionBuffer@@@@QAEPAVSendPacketArgs@RobustConnectionBuffer@@XZ ; has WINAPI (@0)
; public: class ServiceSoapProcessor *__thiscall <class <class ServiceSoapProcessor>,class ServiceSoapProcessor *>::operator ->(void)
??C?$AutoCleanup@V?$AutoDelete@VServiceSoapProcessor@@@@PAVServiceSoapProcessor@@@@QAEPAVServiceSoapProcessor@@XZ ; has WINAPI (@0)
; public: class SubscriptionEnumerator *__thiscall <class <class SubscriptionEnumerator>,class SubscriptionEnumerator *>::operator ->(void)
??C?$AutoCleanup@V?$AutoDelete@VSubscriptionEnumerator@@@@PAVSubscriptionEnumerator@@@@QAEPAVSubscriptionEnumerator@@XZ ; has WINAPI (@0)
; public: class TSTRBUFFER *__thiscall <class <class TSTRBUFFER>,class TSTRBUFFER *>::operator ->(void)
??C?$AutoCleanup@V?$AutoDelete@VTSTRBUFFER@@@@PAVTSTRBUFFER@@@@QAEPAVTSTRBUFFER@@XZ ; has WINAPI (@0)
; public: class TSTRBUFFER *const __thiscall <class <class TSTRBUFFER>,class TSTRBUFFER *>::operator ->(void)const 
??C?$AutoCleanup@V?$AutoDelete@VTSTRBUFFER@@@@PAVTSTRBUFFER@@@@QBEQAVTSTRBUFFER@@XZ ; has WINAPI (@0)
; public: class UniqueStringOverflow *__thiscall <class <class UniqueStringOverflow>,class UniqueStringOverflow *>::operator ->(void)
??C?$AutoCleanup@V?$AutoDelete@VUniqueStringOverflow@@@@PAVUniqueStringOverflow@@@@QAEPAVUniqueStringOverflow@@XZ ; has WINAPI (@0)
; public: class WSMANCONFIGTABLE_IDENTITY *__thiscall <class <class WSMANCONFIGTABLE_IDENTITY>,class WSMANCONFIGTABLE_IDENTITY *>::operator ->(void)
??C?$AutoCleanup@V?$AutoDelete@VWSMANCONFIGTABLE_IDENTITY@@@@PAVWSMANCONFIGTABLE_IDENTITY@@@@QAEPAVWSMANCONFIGTABLE_IDENTITY@@XZ ; has WINAPI (@0)
; public: class WmiEnumContext *__thiscall <class <class WmiEnumContext>,class WmiEnumContext *>::operator ->(void)
??C?$AutoCleanup@V?$AutoDelete@VWmiEnumContext@@@@PAVWmiEnumContext@@@@QAEPAVWmiEnumContext@@XZ ; has WINAPI (@0)
; public: class WmiEnumContext *const __thiscall <class <class WmiEnumContext>,class WmiEnumContext *>::operator ->(void)const 
??C?$AutoCleanup@V?$AutoDelete@VWmiEnumContext@@@@PAVWmiEnumContext@@@@QBEQAVWmiEnumContext@@XZ ; has WINAPI (@0)
; public: class XmlReader *__thiscall <class <class XmlReader>,class XmlReader *>::operator ->(void)
??C?$AutoCleanup@V?$AutoDelete@VXmlReader@@@@PAVXmlReader@@@@QAEPAVXmlReader@@XZ ; has WINAPI (@0)
; public: unsigned char *__thiscall <class <unsigned char>,unsigned char *>::operator ->(void)
??C?$AutoCleanup@V?$AutoDeleteVector@E@@PAE@@QAEPAEXZ ; has WINAPI (@0)
; public: unsigned char *const __thiscall <class <unsigned char>,unsigned char *>::operator ->(void)const 
??C?$AutoCleanup@V?$AutoDeleteVector@E@@PAE@@QBEQAEXZ ; has WINAPI (@0)
; public: unsigned short *__thiscall <class <unsigned short>,unsigned short *>::operator ->(void)
??C?$AutoCleanup@V?$AutoDeleteVector@G@@PAG@@QAEPAGXZ ; has WINAPI (@0)
; public: unsigned short *const __thiscall <class <unsigned short>,unsigned short *>::operator ->(void)const 
??C?$AutoCleanup@V?$AutoDeleteVector@G@@PAG@@QBEQAGXZ ; has WINAPI (@0)
; public: unsigned short **__thiscall <class <unsigned short *>,unsigned short **>::operator ->(void)
??C?$AutoCleanup@V?$AutoDeleteVector@PAG@@PAPAG@@QAEPAPAGXZ ; has WINAPI (@0)
; public: unsigned short **const __thiscall <class <unsigned short *>,unsigned short **>::operator ->(void)const 
??C?$AutoCleanup@V?$AutoDeleteVector@PAG@@PAPAG@@QBEQAPAGXZ ; has WINAPI (@0)
; public: unsigned short const **__thiscall <class <unsigned short const *>,unsigned short const **>::operator ->(void)
??C?$AutoCleanup@V?$AutoDeleteVector@PBG@@PAPBG@@QAEPAPBGXZ ; has WINAPI (@0)
; public: unsigned short const **const __thiscall <class <unsigned short const *>,unsigned short const **>::operator ->(void)const 
??C?$AutoCleanup@V?$AutoDeleteVector@PBG@@PAPBG@@QBEQAPBGXZ ; has WINAPI (@0)
; public: struct _WINRS_CREATE_SHELL_ENVIRONMENT_VARIABLE *__thiscall <class <struct _WINRS_CREATE_SHELL_ENVIRONMENT_VARIABLE>,struct _WINRS_CREATE_SHELL_ENVIRONMENT_VARIABLE *>::operator ->(void)
??C?$AutoCleanup@V?$AutoDeleteVector@U_WINRS_CREATE_SHELL_ENVIRONMENT_VARIABLE@@@@PAU_WINRS_CREATE_SHELL_ENVIRONMENT_VARIABLE@@@@QAEPAU_WINRS_CREATE_SHELL_ENVIRONMENT_VARIABLE@@XZ ; has WINAPI (@0)
; public: struct _WINRS_CREATE_SHELL_ENVIRONMENT_VARIABLE *const __thiscall <class <struct _WINRS_CREATE_SHELL_ENVIRONMENT_VARIABLE>,struct _WINRS_CREATE_SHELL_ENVIRONMENT_VARIABLE *>::operator ->(void)const 
??C?$AutoCleanup@V?$AutoDeleteVector@U_WINRS_CREATE_SHELL_ENVIRONMENT_VARIABLE@@@@PAU_WINRS_CREATE_SHELL_ENVIRONMENT_VARIABLE@@@@QBEQAU_WINRS_CREATE_SHELL_ENVIRONMENT_VARIABLE@@XZ ; has WINAPI (@0)
; public: struct _WINRS_RUN_COMMAND_ARG *__thiscall <class <struct _WINRS_RUN_COMMAND_ARG>,struct _WINRS_RUN_COMMAND_ARG *>::operator ->(void)
??C?$AutoCleanup@V?$AutoDeleteVector@U_WINRS_RUN_COMMAND_ARG@@@@PAU_WINRS_RUN_COMMAND_ARG@@@@QAEPAU_WINRS_RUN_COMMAND_ARG@@XZ ; has WINAPI (@0)
; public: struct _WINRS_RUN_COMMAND_ARG *const __thiscall <class <struct _WINRS_RUN_COMMAND_ARG>,struct _WINRS_RUN_COMMAND_ARG *>::operator ->(void)const 
??C?$AutoCleanup@V?$AutoDeleteVector@U_WINRS_RUN_COMMAND_ARG@@@@PAU_WINRS_RUN_COMMAND_ARG@@@@QBEQAU_WINRS_RUN_COMMAND_ARG@@XZ ; has WINAPI (@0)
; public: struct IAppHostAdminManager *__thiscall <class <struct IAppHostAdminManager>,struct IAppHostAdminManager *>::operator ->(void)
??C?$AutoCleanup@V?$AutoRelease@UIAppHostAdminManager@@@@PAUIAppHostAdminManager@@@@QAEPAUIAppHostAdminManager@@XZ ; has WINAPI (@0)
; public: struct IAppHostChildElementCollection *__thiscall <class <struct IAppHostChildElementCollection>,struct IAppHostChildElementCollection *>::operator ->(void)
??C?$AutoCleanup@V?$AutoRelease@UIAppHostChildElementCollection@@@@PAUIAppHostChildElementCollection@@@@QAEPAUIAppHostChildElementCollection@@XZ ; has WINAPI (@0)
; public: struct IAppHostConfigException *__thiscall <class <struct IAppHostConfigException>,struct IAppHostConfigException *>::operator ->(void)
??C?$AutoCleanup@V?$AutoRelease@UIAppHostConfigException@@@@PAUIAppHostConfigException@@@@QAEPAUIAppHostConfigException@@XZ ; has WINAPI (@0)
; public: struct IAppHostElementCollection *__thiscall <class <struct IAppHostElementCollection>,struct IAppHostElementCollection *>::operator ->(void)
??C?$AutoCleanup@V?$AutoRelease@UIAppHostElementCollection@@@@PAUIAppHostElementCollection@@@@QAEPAUIAppHostElementCollection@@XZ ; has WINAPI (@0)
; public: struct IAppHostProperty *__thiscall <class <struct IAppHostProperty>,struct IAppHostProperty *>::operator ->(void)
??C?$AutoCleanup@V?$AutoRelease@UIAppHostProperty@@@@PAUIAppHostProperty@@@@QAEPAUIAppHostProperty@@XZ ; has WINAPI (@0)
; public: struct IAppHostPropertyCollection *__thiscall <class <struct IAppHostPropertyCollection>,struct IAppHostPropertyCollection *>::operator ->(void)
??C?$AutoCleanup@V?$AutoRelease@UIAppHostPropertyCollection@@@@PAUIAppHostPropertyCollection@@@@QAEPAUIAppHostPropertyCollection@@XZ ; has WINAPI (@0)
; public: struct IClientSecurity *__thiscall <class <struct IClientSecurity>,struct IClientSecurity *>::operator ->(void)
??C?$AutoCleanup@V?$AutoRelease@UIClientSecurity@@@@PAUIClientSecurity@@@@QAEPAUIClientSecurity@@XZ ; has WINAPI (@0)
; public: struct IClientSecurity *const __thiscall <class <struct IClientSecurity>,struct IClientSecurity *>::operator ->(void)const 
??C?$AutoCleanup@V?$AutoRelease@UIClientSecurity@@@@PAUIClientSecurity@@@@QBEQAUIClientSecurity@@XZ ; has WINAPI (@0)
; public: struct IEnumWbemClassObject *__thiscall <class <struct IEnumWbemClassObject>,struct IEnumWbemClassObject *>::operator ->(void)
??C?$AutoCleanup@V?$AutoRelease@UIEnumWbemClassObject@@@@PAUIEnumWbemClassObject@@@@QAEPAUIEnumWbemClassObject@@XZ ; has WINAPI (@0)
; public: struct IEnumWbemClassObject *const __thiscall <class <struct IEnumWbemClassObject>,struct IEnumWbemClassObject *>::operator ->(void)const 
??C?$AutoCleanup@V?$AutoRelease@UIEnumWbemClassObject@@@@PAUIEnumWbemClassObject@@@@QBEQAUIEnumWbemClassObject@@XZ ; has WINAPI (@0)
; public: struct IErrorInfo *__thiscall <class <struct IErrorInfo>,struct IErrorInfo *>::operator ->(void)
??C?$AutoCleanup@V?$AutoRelease@UIErrorInfo@@@@PAUIErrorInfo@@@@QAEPAUIErrorInfo@@XZ ; has WINAPI (@0)
; public: struct IErrorInfo *const __thiscall <class <struct IErrorInfo>,struct IErrorInfo *>::operator ->(void)const 
??C?$AutoCleanup@V?$AutoRelease@UIErrorInfo@@@@PAUIErrorInfo@@@@QBEQAUIErrorInfo@@XZ ; has WINAPI (@0)
; public: struct IUnknown *__thiscall <class <struct IUnknown>,struct IUnknown *>::operator ->(void)
??C?$AutoCleanup@V?$AutoRelease@UIUnknown@@@@PAUIUnknown@@@@QAEPAUIUnknown@@XZ ; has WINAPI (@0)
; public: struct IUnknown *const __thiscall <class <struct IUnknown>,struct IUnknown *>::operator ->(void)const 
??C?$AutoCleanup@V?$AutoRelease@UIUnknown@@@@PAUIUnknown@@@@QBEQAUIUnknown@@XZ ; has WINAPI (@0)
; public: struct IWbemClassObject *__thiscall <class <struct IWbemClassObject>,struct IWbemClassObject *>::operator ->(void)
??C?$AutoCleanup@V?$AutoRelease@UIWbemClassObject@@@@PAUIWbemClassObject@@@@QAEPAUIWbemClassObject@@XZ ; has WINAPI (@0)
; public: struct IWbemClassObject *const __thiscall <class <struct IWbemClassObject>,struct IWbemClassObject *>::operator ->(void)const 
??C?$AutoCleanup@V?$AutoRelease@UIWbemClassObject@@@@PAUIWbemClassObject@@@@QBEQAUIWbemClassObject@@XZ ; has WINAPI (@0)
; public: struct IWbemContext *__thiscall <class <struct IWbemContext>,struct IWbemContext *>::operator ->(void)
??C?$AutoCleanup@V?$AutoRelease@UIWbemContext@@@@PAUIWbemContext@@@@QAEPAUIWbemContext@@XZ ; has WINAPI (@0)
; public: struct IWbemContext *const __thiscall <class <struct IWbemContext>,struct IWbemContext *>::operator ->(void)const 
??C?$AutoCleanup@V?$AutoRelease@UIWbemContext@@@@PAUIWbemContext@@@@QBEQAUIWbemContext@@XZ ; has WINAPI (@0)
; public: struct IWbemLocator *__thiscall <class <struct IWbemLocator>,struct IWbemLocator *>::operator ->(void)
??C?$AutoCleanup@V?$AutoRelease@UIWbemLocator@@@@PAUIWbemLocator@@@@QAEPAUIWbemLocator@@XZ ; has WINAPI (@0)
; public: struct IWbemLocator *const __thiscall <class <struct IWbemLocator>,struct IWbemLocator *>::operator ->(void)const 
??C?$AutoCleanup@V?$AutoRelease@UIWbemLocator@@@@PAUIWbemLocator@@@@QBEQAUIWbemLocator@@XZ ; has WINAPI (@0)
; public: struct IWbemObjectTextSrc *__thiscall <class <struct IWbemObjectTextSrc>,struct IWbemObjectTextSrc *>::operator ->(void)
??C?$AutoCleanup@V?$AutoRelease@UIWbemObjectTextSrc@@@@PAUIWbemObjectTextSrc@@@@QAEPAUIWbemObjectTextSrc@@XZ ; has WINAPI (@0)
; public: struct IWbemObjectTextSrc *const __thiscall <class <struct IWbemObjectTextSrc>,struct IWbemObjectTextSrc *>::operator ->(void)const 
??C?$AutoCleanup@V?$AutoRelease@UIWbemObjectTextSrc@@@@PAUIWbemObjectTextSrc@@@@QBEQAUIWbemObjectTextSrc@@XZ ; has WINAPI (@0)
; public: struct IWbemPath *__thiscall <class <struct IWbemPath>,struct IWbemPath *>::operator ->(void)
??C?$AutoCleanup@V?$AutoRelease@UIWbemPath@@@@PAUIWbemPath@@@@QAEPAUIWbemPath@@XZ ; has WINAPI (@0)
; public: struct IWbemPath *const __thiscall <class <struct IWbemPath>,struct IWbemPath *>::operator ->(void)const 
??C?$AutoCleanup@V?$AutoRelease@UIWbemPath@@@@PAUIWbemPath@@@@QBEQAUIWbemPath@@XZ ; has WINAPI (@0)
; public: struct IWbemPathKeyList *__thiscall <class <struct IWbemPathKeyList>,struct IWbemPathKeyList *>::operator ->(void)
??C?$AutoCleanup@V?$AutoRelease@UIWbemPathKeyList@@@@PAUIWbemPathKeyList@@@@QAEPAUIWbemPathKeyList@@XZ ; has WINAPI (@0)
; public: struct IWbemPathKeyList *const __thiscall <class <struct IWbemPathKeyList>,struct IWbemPathKeyList *>::operator ->(void)const 
??C?$AutoCleanup@V?$AutoRelease@UIWbemPathKeyList@@@@PAUIWbemPathKeyList@@@@QBEQAUIWbemPathKeyList@@XZ ; has WINAPI (@0)
; public: struct IWbemQualifierSet *__thiscall <class <struct IWbemQualifierSet>,struct IWbemQualifierSet *>::operator ->(void)
??C?$AutoCleanup@V?$AutoRelease@UIWbemQualifierSet@@@@PAUIWbemQualifierSet@@@@QAEPAUIWbemQualifierSet@@XZ ; has WINAPI (@0)
; public: struct IWbemQualifierSet *const __thiscall <class <struct IWbemQualifierSet>,struct IWbemQualifierSet *>::operator ->(void)const 
??C?$AutoCleanup@V?$AutoRelease@UIWbemQualifierSet@@@@PAUIWbemQualifierSet@@@@QBEQAUIWbemQualifierSet@@XZ ; has WINAPI (@0)
; public: struct IWbemQuery *__thiscall <class <struct IWbemQuery>,struct IWbemQuery *>::operator ->(void)
??C?$AutoCleanup@V?$AutoRelease@UIWbemQuery@@@@PAUIWbemQuery@@@@QAEPAUIWbemQuery@@XZ ; has WINAPI (@0)
; public: struct IWbemQuery *const __thiscall <class <struct IWbemQuery>,struct IWbemQuery *>::operator ->(void)const 
??C?$AutoCleanup@V?$AutoRelease@UIWbemQuery@@@@PAUIWbemQuery@@@@QBEQAUIWbemQuery@@XZ ; has WINAPI (@0)
; public: struct IWbemServices *__thiscall <class <struct IWbemServices>,struct IWbemServices *>::operator ->(void)
??C?$AutoCleanup@V?$AutoRelease@UIWbemServices@@@@PAUIWbemServices@@@@QAEPAUIWbemServices@@XZ ; has WINAPI (@0)
; public: struct IWbemServices *const __thiscall <class <struct IWbemServices>,struct IWbemServices *>::operator ->(void)const 
??C?$AutoCleanup@V?$AutoRelease@UIWbemServices@@@@PAUIWbemServices@@@@QBEQAUIWbemServices@@XZ ; has WINAPI (@0)
; public: class CBaseConfigCache *__thiscall <class <class CBaseConfigCache>,class CBaseConfigCache *>::operator ->(void)
??C?$AutoCleanup@V?$AutoRelease@VCBaseConfigCache@@@@PAVCBaseConfigCache@@@@QAEPAVCBaseConfigCache@@XZ ; has WINAPI (@0)
; public: class CClientConfigSettings *__thiscall <class <class CClientConfigSettings>,class CClientConfigSettings *>::operator ->(void)
??C?$AutoCleanup@V?$AutoRelease@VCClientConfigSettings@@@@PAVCClientConfigSettings@@@@QAEPAVCClientConfigSettings@@XZ ; has WINAPI (@0)
; public: class CBaseConfigCache::CConfigCacheMap *__thiscall <class <class CBaseConfigCache::CConfigCacheMap>,class CBaseConfigCache::CConfigCacheMap *>::operator ->(void)
??C?$AutoCleanup@V?$AutoRelease@VCConfigCacheMap@CBaseConfigCache@@@@PAVCConfigCacheMap@CBaseConfigCache@@@@QAEPAVCConfigCacheMap@CBaseConfigCache@@XZ ; has WINAPI (@0)
; public: class CConfigManager *__thiscall <class <class CConfigManager>,class CConfigManager *>::operator ->(void)
??C?$AutoCleanup@V?$AutoRelease@VCConfigManager@@@@PAVCConfigManager@@@@QAEPAVCConfigManager@@XZ ; has WINAPI (@0)
; public: class CListenerReceive *__thiscall <class <class CListenerReceive>,class CListenerReceive *>::operator ->(void)
??C?$AutoCleanup@V?$AutoRelease@VCListenerReceive@@@@PAVCListenerReceive@@@@QAEPAVCListenerReceive@@XZ ; has WINAPI (@0)
; public: class CRemoteSession *__thiscall <class <class CRemoteSession>,class CRemoteSession *>::operator ->(void)
??C?$AutoCleanup@V?$AutoRelease@VCRemoteSession@@@@PAVCRemoteSession@@@@QAEPAVCRemoteSession@@XZ ; has WINAPI (@0)
; public: class CRemoteSession *const __thiscall <class <class CRemoteSession>,class CRemoteSession *>::operator ->(void)const 
??C?$AutoCleanup@V?$AutoRelease@VCRemoteSession@@@@PAVCRemoteSession@@@@QBEQAVCRemoteSession@@XZ ; has WINAPI (@0)
; public: class CRequestContext *__thiscall <class <class CRequestContext>,class CRequestContext *>::operator ->(void)
??C?$AutoCleanup@V?$AutoRelease@VCRequestContext@@@@PAVCRequestContext@@@@QAEPAVCRequestContext@@XZ ; has WINAPI (@0)
; public: class CServiceCommonConfigSettings *__thiscall <class <class CServiceCommonConfigSettings>,class CServiceCommonConfigSettings *>::operator ->(void)
??C?$AutoCleanup@V?$AutoRelease@VCServiceCommonConfigSettings@@@@PAVCServiceCommonConfigSettings@@@@QAEPAVCServiceCommonConfigSettings@@XZ ; has WINAPI (@0)
; public: class CServiceConfigCache *__thiscall <class <class CServiceConfigCache>,class CServiceConfigCache *>::operator ->(void)
??C?$AutoCleanup@V?$AutoRelease@VCServiceConfigCache@@@@PAVCServiceConfigCache@@@@QAEPAVCServiceConfigCache@@XZ ; has WINAPI (@0)
; public: class CServiceConfigSettings *__thiscall <class <class CServiceConfigSettings>,class CServiceConfigSettings *>::operator ->(void)
??C?$AutoCleanup@V?$AutoRelease@VCServiceConfigSettings@@@@PAVCServiceConfigSettings@@@@QAEPAVCServiceConfigSettings@@XZ ; has WINAPI (@0)
; public: class CWSManEPR *__thiscall <class <class CWSManEPR>,class CWSManEPR *>::operator ->(void)
??C?$AutoCleanup@V?$AutoRelease@VCWSManEPR@@@@PAVCWSManEPR@@@@QAEPAVCWSManEPR@@XZ ; has WINAPI (@0)
; public: class CWSManEPR *const __thiscall <class <class CWSManEPR>,class CWSManEPR *>::operator ->(void)const 
??C?$AutoCleanup@V?$AutoRelease@VCWSManEPR@@@@PAVCWSManEPR@@@@QBEQAVCWSManEPR@@XZ ; has WINAPI (@0)
; public: class CWSManGroupPolicyCache *__thiscall <class <class CWSManGroupPolicyCache>,class CWSManGroupPolicyCache *>::operator ->(void)
??C?$AutoCleanup@V?$AutoRelease@VCWSManGroupPolicyCache@@@@PAVCWSManGroupPolicyCache@@@@QAEPAVCWSManGroupPolicyCache@@XZ ; has WINAPI (@0)
; public: class CWSManGroupPolicyManager *__thiscall <class <class CWSManGroupPolicyManager>,class CWSManGroupPolicyManager *>::operator ->(void)
??C?$AutoCleanup@V?$AutoRelease@VCWSManGroupPolicyManager@@@@PAVCWSManGroupPolicyManager@@@@QAEPAVCWSManGroupPolicyManager@@XZ ; has WINAPI (@0)
; public: class CWSManObject *__thiscall <class <class CWSManObject>,class CWSManObject *>::operator ->(void)
??C?$AutoCleanup@V?$AutoRelease@VCWSManObject@@@@PAVCWSManObject@@@@QAEPAVCWSManObject@@XZ ; has WINAPI (@0)
; public: class CWSManResource *__thiscall <class <class CWSManResource>,class CWSManResource *>::operator ->(void)
??C?$AutoCleanup@V?$AutoRelease@VCWSManResource@@@@PAVCWSManResource@@@@QAEPAVCWSManResource@@XZ ; has WINAPI (@0)
; public: class CWinRSPluginConfigCache *__thiscall <class <class CWinRSPluginConfigCache>,class CWinRSPluginConfigCache *>::operator ->(void)
??C?$AutoCleanup@V?$AutoRelease@VCWinRSPluginConfigCache@@@@PAVCWinRSPluginConfigCache@@@@QAEPAVCWinRSPluginConfigCache@@XZ ; has WINAPI (@0)
; public: class CWinRSPluginConfigCache *const __thiscall <class <class CWinRSPluginConfigCache>,class CWinRSPluginConfigCache *>::operator ->(void)const 
??C?$AutoCleanup@V?$AutoRelease@VCWinRSPluginConfigCache@@@@PAVCWinRSPluginConfigCache@@@@QBEQAVCWinRSPluginConfigCache@@XZ ; has WINAPI (@0)
; public: class CWinRSPluginConfigSettings *__thiscall <class <class CWinRSPluginConfigSettings>,class CWinRSPluginConfigSettings *>::operator ->(void)
??C?$AutoCleanup@V?$AutoRelease@VCWinRSPluginConfigSettings@@@@PAVCWinRSPluginConfigSettings@@@@QAEPAVCWinRSPluginConfigSettings@@XZ ; has WINAPI (@0)
; public: class WSMan::Client::Command *__thiscall <class <class WSMan::Client::Command>,class WSMan::Client::Command *>::operator ->(void)
??C?$AutoCleanup@V?$AutoRelease@VCommand@Client@WSMan@@@@PAVCommand@Client@WSMan@@@@QAEPAVCommand@Client@WSMan@@XZ ; has WINAPI (@0)
; public: class ConfigNotification *__thiscall <class <class ConfigNotification>,class ConfigNotification *>::operator ->(void)
??C?$AutoCleanup@V?$AutoRelease@VConfigNotification@@@@PAVConfigNotification@@@@QAEPAVConfigNotification@@XZ ; has WINAPI (@0)
; public: class WSMan::Client::ConnectShellOperation *__thiscall <class <class WSMan::Client::ConnectShellOperation>,class WSMan::Client::ConnectShellOperation *>::operator ->(void)
??C?$AutoCleanup@V?$AutoRelease@VConnectShellOperation@Client@WSMan@@@@PAVConnectShellOperation@Client@WSMan@@@@QAEPAVConnectShellOperation@Client@WSMan@@XZ ; has WINAPI (@0)
; public: class WSMan::Client::CreateShellOperation *__thiscall <class <class WSMan::Client::CreateShellOperation>,class WSMan::Client::CreateShellOperation *>::operator ->(void)
??C?$AutoCleanup@V?$AutoRelease@VCreateShellOperation@Client@WSMan@@@@PAVCreateShellOperation@Client@WSMan@@@@QAEPAVCreateShellOperation@Client@WSMan@@XZ ; has WINAPI (@0)
; public: class WSMan::Client::DeleteShellOperation *__thiscall <class <class WSMan::Client::DeleteShellOperation>,class WSMan::Client::DeleteShellOperation *>::operator ->(void)
??C?$AutoCleanup@V?$AutoRelease@VDeleteShellOperation@Client@WSMan@@@@PAVDeleteShellOperation@Client@WSMan@@@@QAEPAVDeleteShellOperation@Client@WSMan@@XZ ; has WINAPI (@0)
; public: class WSMan::Client::DisconnectOperation *__thiscall <class <class WSMan::Client::DisconnectOperation>,class WSMan::Client::DisconnectOperation *>::operator ->(void)
??C?$AutoCleanup@V?$AutoRelease@VDisconnectOperation@Client@WSMan@@@@PAVDisconnectOperation@Client@WSMan@@@@QAEPAVDisconnectOperation@Client@WSMan@@XZ ; has WINAPI (@0)
; public: class EnumSinkEx *__thiscall <class <class EnumSinkEx>,class EnumSinkEx *>::operator ->(void)
??C?$AutoCleanup@V?$AutoRelease@VEnumSinkEx@@@@PAVEnumSinkEx@@@@QAEPAVEnumSinkEx@@XZ ; has WINAPI (@0)
; public: class EnumSinkEx *const __thiscall <class <class EnumSinkEx>,class EnumSinkEx *>::operator ->(void)const 
??C?$AutoCleanup@V?$AutoRelease@VEnumSinkEx@@@@PAVEnumSinkEx@@@@QBEQAVEnumSinkEx@@XZ ; has WINAPI (@0)
; public: class GeneralSinkEx *__thiscall <class <class GeneralSinkEx>,class GeneralSinkEx *>::operator ->(void)
??C?$AutoCleanup@V?$AutoRelease@VGeneralSinkEx@@@@PAVGeneralSinkEx@@@@QAEPAVGeneralSinkEx@@XZ ; has WINAPI (@0)
; public: class GeneralSinkEx *const __thiscall <class <class GeneralSinkEx>,class GeneralSinkEx *>::operator ->(void)const 
??C?$AutoCleanup@V?$AutoRelease@VGeneralSinkEx@@@@PAVGeneralSinkEx@@@@QBEQAVGeneralSinkEx@@XZ ; has WINAPI (@0)
; public: class IPCSoapProcessor *__thiscall <class <class IPCSoapProcessor>,class IPCSoapProcessor *>::operator ->(void)
??C?$AutoCleanup@V?$AutoRelease@VIPCSoapProcessor@@@@PAVIPCSoapProcessor@@@@QAEPAVIPCSoapProcessor@@XZ ; has WINAPI (@0)
; public: class IRequestContext *__thiscall <class <class IRequestContext>,class IRequestContext *>::operator ->(void)
??C?$AutoCleanup@V?$AutoRelease@VIRequestContext@@@@PAVIRequestContext@@@@QAEPAVIRequestContext@@XZ ; has WINAPI (@0)
; public: class IRequestContext *const __thiscall <class <class IRequestContext>,class IRequestContext *>::operator ->(void)const 
??C?$AutoCleanup@V?$AutoRelease@VIRequestContext@@@@PAVIRequestContext@@@@QBEQAVIRequestContext@@XZ ; has WINAPI (@0)
; public: class InboundRequestDetails *__thiscall <class <class InboundRequestDetails>,class InboundRequestDetails *>::operator ->(void)
??C?$AutoCleanup@V?$AutoRelease@VInboundRequestDetails@@@@PAVInboundRequestDetails@@@@QAEPAVInboundRequestDetails@@XZ ; has WINAPI (@0)
; public: class InboundRequestDetails *const __thiscall <class <class InboundRequestDetails>,class InboundRequestDetails *>::operator ->(void)const 
??C?$AutoCleanup@V?$AutoRelease@VInboundRequestDetails@@@@PAVInboundRequestDetails@@@@QBEQAVInboundRequestDetails@@XZ ; has WINAPI (@0)
; public: class WSMan::Client::ReceiveOperation *__thiscall <class <class WSMan::Client::ReceiveOperation>,class WSMan::Client::ReceiveOperation *>::operator ->(void)
??C?$AutoCleanup@V?$AutoRelease@VReceiveOperation@Client@WSMan@@@@PAVReceiveOperation@Client@WSMan@@@@QAEPAVReceiveOperation@Client@WSMan@@XZ ; has WINAPI (@0)
; public: class WSMan::Client::ReconnectOperation *__thiscall <class <class WSMan::Client::ReconnectOperation>,class WSMan::Client::ReconnectOperation *>::operator ->(void)
??C?$AutoCleanup@V?$AutoRelease@VReconnectOperation@Client@WSMan@@@@PAVReconnectOperation@Client@WSMan@@@@QAEPAVReconnectOperation@Client@WSMan@@XZ ; has WINAPI (@0)
; public: class WSMan::Client::SendOperation *__thiscall <class <class WSMan::Client::SendOperation>,class WSMan::Client::SendOperation *>::operator ->(void)
??C?$AutoCleanup@V?$AutoRelease@VSendOperation@Client@WSMan@@@@PAVSendOperation@Client@WSMan@@@@QAEPAVSendOperation@Client@WSMan@@XZ ; has WINAPI (@0)
; public: class WSMan::Client::Shell *__thiscall <class <class WSMan::Client::Shell>,class WSMan::Client::Shell *>::operator ->(void)
??C?$AutoCleanup@V?$AutoRelease@VShell@Client@WSMan@@@@PAVShell@Client@WSMan@@@@QAEPAVShell@Client@WSMan@@XZ ; has WINAPI (@0)
; public: class WSMan::Client::Shell *const __thiscall <class <class WSMan::Client::Shell>,class WSMan::Client::Shell *>::operator ->(void)const 
??C?$AutoCleanup@V?$AutoRelease@VShell@Client@WSMan@@@@PAVShell@Client@WSMan@@@@QBEQAVShell@Client@WSMan@@XZ ; has WINAPI (@0)
; public: class WSMan::Client::SignalOperation *__thiscall <class <class WSMan::Client::SignalOperation>,class WSMan::Client::SignalOperation *>::operator ->(void)
??C?$AutoCleanup@V?$AutoRelease@VSignalOperation@Client@WSMan@@@@PAVSignalOperation@Client@WSMan@@@@QAEPAVSignalOperation@Client@WSMan@@XZ ; has WINAPI (@0)
; public: class UserRecord *__thiscall <class <class UserRecord>,class UserRecord *>::operator ->(void)
??C?$AutoCleanup@V?$AutoRelease@VUserRecord@@@@PAVUserRecord@@@@QAEPAVUserRecord@@XZ ; has WINAPI (@0)
; public: class WSManHttpListener *__thiscall <class <class WSManHttpListener>,class WSManHttpListener *>::operator ->(void)
??C?$AutoCleanup@V?$AutoRelease@VWSManHttpListener@@@@PAVWSManHttpListener@@@@QAEPAVWSManHttpListener@@XZ ; has WINAPI (@0)
; public: unsigned short *__thiscall <class AutoBstrNoAlloc,unsigned short *>::operator ->(void)
??C?$AutoCleanup@VAutoBstrNoAlloc@@PAG@@QAEPAGXZ ; has WINAPI (@0)
; public: unsigned short *const __thiscall <class AutoBstrNoAlloc,unsigned short *>::operator ->(void)const 
??C?$AutoCleanup@VAutoBstrNoAlloc@@PAG@@QBEQAGXZ ; has WINAPI (@0)
; public: struct _CERT_CHAIN_CONTEXT const *__thiscall <class AutoChainContext,struct _CERT_CHAIN_CONTEXT const *>::operator ->(void)
??C?$AutoCleanup@VAutoChainContext@@PBU_CERT_CHAIN_CONTEXT@@@@QAEPBU_CERT_CHAIN_CONTEXT@@XZ ; has WINAPI (@0)
; public: void *__thiscall <class AutoImpersonateUser,void *>::operator ->(void)
??C?$AutoCleanup@VAutoImpersonateUser@@PAX@@QAEPAXXZ ; has WINAPI (@0)
; public: void *const __thiscall <class AutoImpersonateUser,void *>::operator ->(void)const 
??C?$AutoCleanup@VAutoImpersonateUser@@PAX@@QBEQAXXZ ; has WINAPI (@0)
; public: struct _MI_Class *__thiscall <class AutoMIClass,struct _MI_Class *>::operator ->(void)
??C?$AutoCleanup@VAutoMIClass@@PAU_MI_Class@@@@QAEPAU_MI_Class@@XZ ; has WINAPI (@0)
; public: class ExpiredOperationIdRecord *&__thiscall <class StringKeyStore,class ExpiredOperationIdRecord *>::operator ->(void)const 
??C?$SafeMap_Iterator@VStringKeyStore@@PAVExpiredOperationIdRecord@@@@QBEAAPAVExpiredOperationIdRecord@@XZ ; has WINAPI (@0)
; public: class CListenerOperation *const &__thiscall <class CListenerOperation *>::operator ->(void)const 
??C?$SafeSet_Iterator@PAVCListenerOperation@@@@QBEABQAVCListenerOperation@@XZ ; has WINAPI (@0)
; public: class CServiceConfigSettings::CertThumbprintMappedSet &__thiscall <class CertThumbprintKey,class CServiceConfigSettings::CertThumbprintMappedSet>::operator *(void)const 
??D?$SafeMap_Iterator@VCertThumbprintKey@@VCertThumbprintMappedSet@CServiceConfigSettings@@@@QBEAAVCertThumbprintMappedSet@CServiceConfigSettings@@XZ ; has WINAPI (@0)
; public: unsigned long &__thiscall <class Locale::Key,unsigned long>::operator *(void)const 
??D?$SafeMap_Iterator@VKey@Locale@@K@@QBEAAKXZ ; has WINAPI (@0)
; public: class ExpiredOperationIdRecord *&__thiscall <class StringKeyStore,class ExpiredOperationIdRecord *>::operator *(void)const 
??D?$SafeMap_Iterator@VStringKeyStore@@PAVExpiredOperationIdRecord@@@@QBEAAPAVExpiredOperationIdRecord@@XZ ; has WINAPI (@0)
; public: class WSMan::Client::SessionOptions::OptionValue *&__thiscall <enum WSManSessionOption,class WSMan::Client::SessionOptions::OptionValue *>::operator *(void)const 
??D?$SafeMap_Iterator@W4WSManSessionOption@@PAVOptionValue@SessionOptions@Client@WSMan@@@@QBEAAPAVOptionValue@SessionOptions@Client@WSMan@@XZ ; has WINAPI (@0)
; public: class CCertMapping *const &__thiscall <class CCertMapping *>::operator *(void)const 
??D?$SafeSet_Iterator@PAVCCertMapping@@@@QBEABQAVCCertMapping@@XZ ; has WINAPI (@0)
; public: class CListenerOperation *const &__thiscall <class CListenerOperation *>::operator *(void)const 
??D?$SafeSet_Iterator@PAVCListenerOperation@@@@QBEABQAVCListenerOperation@@XZ ; has WINAPI (@0)
; public: class CShellUriSettings *const &__thiscall <class CShellUriSettings *>::operator *(void)const 
??D?$SafeSet_Iterator@PAVCShellUriSettings@@@@QBEABQAVCShellUriSettings@@XZ ; has WINAPI (@0)
; public: void __thiscall <class CCertMapping *,struct Empty>::operator ++(int)
??E?$SafeMap_Iterator@PAVCCertMapping@@UEmpty@@@@QAEXH@Z ; has WINAPI (@4)
; public: void __thiscall <class CListenerOperation *,struct Empty>::operator ++(int)
??E?$SafeMap_Iterator@PAVCListenerOperation@@UEmpty@@@@QAEXH@Z ; has WINAPI (@4)
; public: void __thiscall <class CShellUriSettings *,struct Empty>::operator ++(int)
??E?$SafeMap_Iterator@PAVCShellUriSettings@@UEmpty@@@@QAEXH@Z ; has WINAPI (@4)
; public: void __thiscall <class CertThumbprintKey,class CServiceConfigSettings::CertThumbprintMappedSet>::operator ++(int)
??E?$SafeMap_Iterator@VCertThumbprintKey@@VCertThumbprintMappedSet@CServiceConfigSettings@@@@QAEXH@Z ; has WINAPI (@4)
; public: void __thiscall <class StringKeyCI,unsigned long>::operator ++(int)
??E?$SafeMap_Iterator@VStringKeyCI@@K@@QAEXH@Z ; has WINAPI (@4)
; public: void __thiscall <class StringKeyCI,struct WSManHttpListener::USER_CONTEXT_INFO>::operator ++(int)
??E?$SafeMap_Iterator@VStringKeyCI@@UUSER_CONTEXT_INFO@WSManHttpListener@@@@QAEXH@Z ; has WINAPI (@4)
; public: void __thiscall <class StringKeyStore,class ExpiredOperationIdRecord *>::operator ++(int)
??E?$SafeMap_Iterator@VStringKeyStore@@PAVExpiredOperationIdRecord@@@@QAEXH@Z ; has WINAPI (@4)
; public: void __thiscall <enum WSManSessionOption,class WSMan::Client::SessionOptions::OptionValue *>::operator ++(int)
??E?$SafeMap_Iterator@W4WSManSessionOption@@PAVOptionValue@SessionOptions@Client@WSMan@@@@QAEXH@Z ; has WINAPI (@4)
; const <class CCertMapping *,struct Empty,class <class CCertMapping *>>::$vftable
??_7?$SafeMap@PAVCCertMapping@@UEmpty@@V?$SafeSet_Iterator@PAVCCertMapping@@@@@@6B@ DATA
; const <class CListenerOperation *,struct Empty,class <class CListenerOperation *>>::$vftable
??_7?$SafeMap@PAVCListenerOperation@@UEmpty@@V?$SafeSet_Iterator@PAVCListenerOperation@@@@@@6B@ DATA
; const <class CShellUriSettings *,struct Empty,class <class CShellUriSettings *>>::$vftable
??_7?$SafeMap@PAVCShellUriSettings@@UEmpty@@V?$SafeSet_Iterator@PAVCShellUriSettings@@@@@@6B@ DATA
; const <class Collector *,struct Empty,class <class Collector *>>::$vftable
??_7?$SafeMap@PAVCollector@@UEmpty@@V?$SafeSet_Iterator@PAVCollector@@@@@@6B@ DATA
; const <class HostOperation *,struct Empty,class <class HostOperation *>>::$vftable
??_7?$SafeMap@PAVHostOperation@@UEmpty@@V?$SafeSet_Iterator@PAVHostOperation@@@@@@6B@ DATA
; const <class IOperation *,struct Empty,class <class IOperation *>>::$vftable
??_7?$SafeMap@PAVIOperation@@UEmpty@@V?$SafeSet_Iterator@PAVIOperation@@@@@@6B@ DATA
; const <class ListenerSourceSubscription *,struct Empty,class <class ListenerSourceSubscription *>>::$vftable
??_7?$SafeMap@PAVListenerSourceSubscription@@UEmpty@@V?$SafeSet_Iterator@PAVListenerSourceSubscription@@@@@@6B@ DATA
; const <class PushSubscription *,struct Empty,class <class PushSubscription *>>::$vftable
??_7?$SafeMap@PAVPushSubscription@@UEmpty@@V?$SafeSet_Iterator@PAVPushSubscription@@@@@@6B@ DATA
; const <void *,struct Empty,class <void *>>::$vftable
??_7?$SafeMap@PAXUEmpty@@V?$SafeSet_Iterator@PAX@@@@6B@ DATA
; const <struct PluginKey,unsigned long,class <struct PluginKey,unsigned long>>::$vftable
??_7?$SafeMap@UPluginKey@@KV?$SafeMap_Iterator@UPluginKey@@K@@@@6B@ DATA
; const <struct UserKey,class BlockedRecord *,class <struct UserKey,class BlockedRecord *>>::$vftable
??_7?$SafeMap@UUserKey@@PAVBlockedRecord@@V?$SafeMap_Iterator@UUserKey@@PAVBlockedRecord@@@@@@6B@ DATA
; const <class CertThumbprintKey,class CServiceConfigSettings::CertThumbprintMappedSet,class <class CertThumbprintKey,class CServiceConfigSettings::CertThumbprintMappedSet>>::$vftable
??_7?$SafeMap@VCertThumbprintKey@@VCertThumbprintMappedSet@CServiceConfigSettings@@V?$SafeMap_Iterator@VCertThumbprintKey@@VCertThumbprintMappedSet@CServiceConfigSettings@@@@@@6B@ DATA
; const <class Locale::Key,unsigned long,class <class Locale::Key,unsigned long>>::$vftable
??_7?$SafeMap@VKey@Locale@@KV?$SafeMap_Iterator@VKey@Locale@@K@@@@6B@ DATA
; const <class StringKeyCI,unsigned long,class <class StringKeyCI,unsigned long>>::$vftable
??_7?$SafeMap@VStringKeyCI@@KV?$SafeMap_Iterator@VStringKeyCI@@K@@@@6B@ DATA
; const <class StringKeyCI,struct Empty,class <class StringKeyCI>>::$vftable
??_7?$SafeMap@VStringKeyCI@@UEmpty@@V?$SafeSet_Iterator@VStringKeyCI@@@@@@6B@ DATA
; const <class StringKeyCI,struct WSManHttpListener::USER_CONTEXT_INFO,class <class StringKeyCI,struct WSManHttpListener::USER_CONTEXT_INFO>>::$vftable
??_7?$SafeMap@VStringKeyCI@@UUSER_CONTEXT_INFO@WSManHttpListener@@V?$SafeMap_Iterator@VStringKeyCI@@UUSER_CONTEXT_INFO@WSManHttpListener@@@@@@6B@ DATA
; const <class StringKeyStore,class ExpiredOperationIdRecord *,class <class StringKeyStore,class ExpiredOperationIdRecord *>>::$vftable
??_7?$SafeMap@VStringKeyStore@@PAVExpiredOperationIdRecord@@V?$SafeMap_Iterator@VStringKeyStore@@PAVExpiredOperationIdRecord@@@@@@6B@ DATA
; const <class StringKeyStore,class ServerFullDuplexChannel *,class <class StringKeyStore,class ServerFullDuplexChannel *>>::$vftable
??_7?$SafeMap@VStringKeyStore@@PAVServerFullDuplexChannel@@V?$SafeMap_Iterator@VStringKeyStore@@PAVServerFullDuplexChannel@@@@@@6B@ DATA
; const <enum WSManSessionOption,class WSMan::Client::SessionOptions::OptionValue *,class <enum WSManSessionOption,class WSMan::Client::SessionOptions::OptionValue *>>::$vftable
??_7?$SafeMap@W4WSManSessionOption@@PAVOptionValue@SessionOptions@Client@WSMan@@V?$SafeMap_Iterator@W4WSManSessionOption@@PAVOptionValue@SessionOptions@Client@WSMan@@@@@@6B@ DATA
; const <unsigned __int64,class RobustConnectionBuffer::SendPacketArgs *,class <unsigned __int64,class RobustConnectionBuffer::SendPacketArgs *>>::$vftable
??_7?$SafeMap@_KPAVSendPacketArgs@RobustConnectionBuffer@@V?$SafeMap_Iterator@_KPAVSendPacketArgs@RobustConnectionBuffer@@@@@@6B@ DATA
; const <class CCertMapping *>::$vftable
??_7?$SafeSet@PAVCCertMapping@@@@6B@ DATA
; const <class CListenerOperation *>::$vftable
??_7?$SafeSet@PAVCListenerOperation@@@@6B@ DATA
; const <class CShellUriSettings *>::$vftable
??_7?$SafeSet@PAVCShellUriSettings@@@@6B@ DATA
; const <void *>::$vftable
??_7?$SafeSet@PAX@@6B@ DATA
; const BufferFormatter::$vftable
??_7BufferFormatter@@6B@ DATA
; const CBaseConfigCache::$vftable {for 'IConfigChangeObserver' }
??_7CBaseConfigCache@@6BIConfigChangeObserver@@@ DATA
; const CBaseConfigCache::$vftable {for 'ILifeTimeMgmt' }
??_7CBaseConfigCache@@6BILifeTimeMgmt@@@ DATA
; const CClientConfigCache::$vftable {for 'IConfigChangeObserver' }
??_7CClientConfigCache@@6BIConfigChangeObserver@@@ DATA
; const CClientConfigCache::$vftable {for 'ILifeTimeMgmt' }
??_7CClientConfigCache@@6BILifeTimeMgmt@@@ DATA
; const CConfigManager::$vftable
??_7CConfigManager@@6B@ DATA
; const CErrorContext::$vftable
??_7CErrorContext@@6B@ DATA
; const CRequestContext::$vftable {for 'CErrorContext' }
??_7CRequestContext@@6BCErrorContext@@@ DATA
; const CRequestContext::$vftable {for 'EtwCorrelationHelper' }
??_7CRequestContext@@6BEtwCorrelationHelper@@@ DATA
; const CServiceConfigCache::$vftable {for 'IConfigChangeObserver' }
??_7CServiceConfigCache@@6BIConfigChangeObserver@@@ DATA
; const CServiceConfigCache::$vftable {for 'ILifeTimeMgmt' }
??_7CServiceConfigCache@@6BILifeTimeMgmt@@@ DATA
; const CWSManEPR::$vftable
??_7CWSManEPR@@6B@ DATA
; const CWSManGroupPolicyManager::$vftable
??_7CWSManGroupPolicyManager@@6B@ DATA
; const CWSManResource::$vftable
??_7CWSManResource@@6B@ DATA
; const CWSManResourceNoResourceUri::$vftable
??_7CWSManResourceNoResourceUri@@6B@ DATA
; const CWSManSecurityUI::$vftable
??_7CWSManSecurityUI@@6B@ DATA
; const CWinRSPluginConfigCache::$vftable {for 'IConfigChangeObserver' }
??_7CWinRSPluginConfigCache@@6BIConfigChangeObserver@@@ DATA
; const CWinRSPluginConfigCache::$vftable {for 'ILifeTimeMgmt' }
??_7CWinRSPluginConfigCache@@6BILifeTimeMgmt@@@ DATA
; const CircularBufferFormatter::$vftable
??_7CircularBufferFormatter@@6B@ DATA
; const EtwCorrelationHelper::$vftable
??_7EtwCorrelationHelper@@6B@ DATA
; const IConfigChangeObserver::$vftable
??_7IConfigChangeObserver@@6B@ DATA
; const ILifeTimeMgmt::$vftable
??_7ILifeTimeMgmt@@6B@ DATA
; const IRequestContext::$vftable
??_7IRequestContext@@6B@ DATA
; const IWSManGroupPolicyObserver::$vftable
??_7IWSManGroupPolicyObserver@@6B@ DATA
; const IWSManGroupPolicyPublisher::$vftable
??_7IWSManGroupPolicyPublisher@@6B@ DATA
; const PacketParser::$vftable
??_7PacketParser@@6B@ DATA
; const UserAuthzRecord::$vftable
??_7UserAuthzRecord@@6B@ DATA
; const UserRecord::$vftable
??_7UserRecord@@6B@ DATA
; public: void __thiscall CErrorContext::__dflt_ctor_closure(void)
??_FCErrorContext@@QAEXXZ ; has WINAPI (@0)
; public: void __thiscall RBUFFER::__dflt_ctor_closure(void)
??_FRBUFFER@@QAEXXZ ; has WINAPI (@0)
; public: virtual void __thiscall <class CCertMapping *,struct Empty,class <class CCertMapping *,struct Empty>>::Acquire(void)const 
?Acquire@?$SafeMap@PAVCCertMapping@@UEmpty@@V?$SafeMap_Iterator@PAVCCertMapping@@UEmpty@@@@@@UBEXXZ ; has WINAPI (@0)
; public: virtual void __thiscall <class CCertMapping *,struct Empty,class <class CCertMapping *>>::Acquire(void)const 
?Acquire@?$SafeMap@PAVCCertMapping@@UEmpty@@V?$SafeSet_Iterator@PAVCCertMapping@@@@@@UBEXXZ ; has WINAPI (@0)
; public: virtual void __thiscall <class CListenerConnect *,class CListenerConnect *,class <class CListenerConnect *,class CListenerConnect *>>::Acquire(void)const 
?Acquire@?$SafeMap@PAVCListenerConnect@@PAV1@V?$SafeMap_Iterator@PAVCListenerConnect@@PAV1@@@@@UBEXXZ ; has WINAPI (@0)
; public: virtual void __thiscall <class CListenerOperation *,struct Empty,class <class CListenerOperation *,struct Empty>>::Acquire(void)const 
?Acquire@?$SafeMap@PAVCListenerOperation@@UEmpty@@V?$SafeMap_Iterator@PAVCListenerOperation@@UEmpty@@@@@@UBEXXZ ; has WINAPI (@0)
; public: virtual void __thiscall <class CListenerOperation *,struct Empty,class <class CListenerOperation *>>::Acquire(void)const 
?Acquire@?$SafeMap@PAVCListenerOperation@@UEmpty@@V?$SafeSet_Iterator@PAVCListenerOperation@@@@@@UBEXXZ ; has WINAPI (@0)
; public: virtual void __thiscall <class CListenerReceive *,class CListenerReceive *,class <class CListenerReceive *,class CListenerReceive *>>::Acquire(void)const 
?Acquire@?$SafeMap@PAVCListenerReceive@@PAV1@V?$SafeMap_Iterator@PAVCListenerReceive@@PAV1@@@@@UBEXXZ ; has WINAPI (@0)
; public: virtual void __thiscall <class CListenerSend *,class CListenerSend *,class <class CListenerSend *,class CListenerSend *>>::Acquire(void)const 
?Acquire@?$SafeMap@PAVCListenerSend@@PAV1@V?$SafeMap_Iterator@PAVCListenerSend@@PAV1@@@@@UBEXXZ ; has WINAPI (@0)
; public: virtual void __thiscall <class CListenerSignal *,class CListenerSignal *,class <class CListenerSignal *,class CListenerSignal *>>::Acquire(void)const 
?Acquire@?$SafeMap@PAVCListenerSignal@@PAV1@V?$SafeMap_Iterator@PAVCListenerSignal@@PAV1@@@@@UBEXXZ ; has WINAPI (@0)
; public: virtual void __thiscall <class CShellUriSettings *,struct Empty,class <class CShellUriSettings *>>::Acquire(void)const 
?Acquire@?$SafeMap@PAVCShellUriSettings@@UEmpty@@V?$SafeSet_Iterator@PAVCShellUriSettings@@@@@@UBEXXZ ; has WINAPI (@0)
; public: virtual void __thiscall <class Collector *,struct Empty,class <class Collector *,struct Empty>>::Acquire(void)const 
?Acquire@?$SafeMap@PAVCollector@@UEmpty@@V?$SafeMap_Iterator@PAVCollector@@UEmpty@@@@@@UBEXXZ ; has WINAPI (@0)
; public: virtual void __thiscall <class Collector *,struct Empty,class <class Collector *>>::Acquire(void)const 
?Acquire@?$SafeMap@PAVCollector@@UEmpty@@V?$SafeSet_Iterator@PAVCollector@@@@@@UBEXXZ ; has WINAPI (@0)
; public: virtual void __thiscall <class HostOperation *,struct Empty,class <class HostOperation *,struct Empty>>::Acquire(void)const 
?Acquire@?$SafeMap@PAVHostOperation@@UEmpty@@V?$SafeMap_Iterator@PAVHostOperation@@UEmpty@@@@@@UBEXXZ ; has WINAPI (@0)
; public: virtual void __thiscall <class HostOperation *,struct Empty,class <class HostOperation *>>::Acquire(void)const 
?Acquire@?$SafeMap@PAVHostOperation@@UEmpty@@V?$SafeSet_Iterator@PAVHostOperation@@@@@@UBEXXZ ; has WINAPI (@0)
; public: virtual void __thiscall <class IOperation *,struct Empty,class <class IOperation *,struct Empty>>::Acquire(void)const 
?Acquire@?$SafeMap@PAVIOperation@@UEmpty@@V?$SafeMap_Iterator@PAVIOperation@@UEmpty@@@@@@UBEXXZ ; has WINAPI (@0)
; public: virtual void __thiscall <class IOperation *,struct Empty,class <class IOperation *>>::Acquire(void)const 
?Acquire@?$SafeMap@PAVIOperation@@UEmpty@@V?$SafeSet_Iterator@PAVIOperation@@@@@@UBEXXZ ; has WINAPI (@0)
; public: virtual void __thiscall <class ListenerSourceSubscription *,struct Empty,class <class ListenerSourceSubscription *,struct Empty>>::Acquire(void)const 
?Acquire@?$SafeMap@PAVListenerSourceSubscription@@UEmpty@@V?$SafeMap_Iterator@PAVListenerSourceSubscription@@UEmpty@@@@@@UBEXXZ ; has WINAPI (@0)
; public: virtual void __thiscall <class ListenerSourceSubscription *,struct Empty,class <class ListenerSourceSubscription *>>::Acquire(void)const 
?Acquire@?$SafeMap@PAVListenerSourceSubscription@@UEmpty@@V?$SafeSet_Iterator@PAVListenerSourceSubscription@@@@@@UBEXXZ ; has WINAPI (@0)
; public: virtual void __thiscall <class PushSubscription *,struct Empty,class <class PushSubscription *,struct Empty>>::Acquire(void)const 
?Acquire@?$SafeMap@PAVPushSubscription@@UEmpty@@V?$SafeMap_Iterator@PAVPushSubscription@@UEmpty@@@@@@UBEXXZ ; has WINAPI (@0)
; public: virtual void __thiscall <class PushSubscription *,struct Empty,class <class PushSubscription *>>::Acquire(void)const 
?Acquire@?$SafeMap@PAVPushSubscription@@UEmpty@@V?$SafeSet_Iterator@PAVPushSubscription@@@@@@UBEXXZ ; has WINAPI (@0)
; public: virtual void __thiscall <void *,struct Empty,class <void *>>::Acquire(void)const 
?Acquire@?$SafeMap@PAXUEmpty@@V?$SafeSet_Iterator@PAX@@@@UBEXXZ ; has WINAPI (@0)
; public: virtual void __thiscall <struct PluginKey,unsigned long,class <struct PluginKey,unsigned long>>::Acquire(void)const 
?Acquire@?$SafeMap@UPluginKey@@KV?$SafeMap_Iterator@UPluginKey@@K@@@@UBEXXZ ; has WINAPI (@0)
; public: virtual void __thiscall <struct UserKey,class BlockedRecord *,class <struct UserKey,class BlockedRecord *>>::Acquire(void)const 
?Acquire@?$SafeMap@UUserKey@@PAVBlockedRecord@@V?$SafeMap_Iterator@UUserKey@@PAVBlockedRecord@@@@@@UBEXXZ ; has WINAPI (@0)
; public: virtual void __thiscall <class CertThumbprintKey,class CServiceConfigSettings::CertThumbprintMappedSet,class <class CertThumbprintKey,class CServiceConfigSettings::CertThumbprintMappedSet>>::Acquire(void)const 
?Acquire@?$SafeMap@VCertThumbprintKey@@VCertThumbprintMappedSet@CServiceConfigSettings@@V?$SafeMap_Iterator@VCertThumbprintKey@@VCertThumbprintMappedSet@CServiceConfigSettings@@@@@@UBEXXZ ; has WINAPI (@0)
; public: virtual void __thiscall <class GuidKey,class CListenerCommand *,class <class GuidKey,class CListenerCommand *>>::Acquire(void)const 
?Acquire@?$SafeMap@VGuidKey@@PAVCListenerCommand@@V?$SafeMap_Iterator@VGuidKey@@PAVCListenerCommand@@@@@@UBEXXZ ; has WINAPI (@0)
; public: virtual void __thiscall <class CWmiPtrCache::Key,class CWmiPtrCache::Mapping,class <class CWmiPtrCache::Key,class CWmiPtrCache::Mapping>>::Acquire(void)const 
?Acquire@?$SafeMap@VKey@CWmiPtrCache@@VMapping@2@V?$SafeMap_Iterator@VKey@CWmiPtrCache@@VMapping@2@@@@@UBEXXZ ; has WINAPI (@0)
; public: virtual void __thiscall <class Locale::Key,unsigned long,class <class Locale::Key,unsigned long>>::Acquire(void)const 
?Acquire@?$SafeMap@VKey@Locale@@KV?$SafeMap_Iterator@VKey@Locale@@K@@@@UBEXXZ ; has WINAPI (@0)
; public: virtual void __thiscall <class StringKey,class ListenerEvents *,class <class StringKey,class ListenerEvents *>>::Acquire(void)const 
?Acquire@?$SafeMap@VStringKey@@PAVListenerEvents@@V?$SafeMap_Iterator@VStringKey@@PAVListenerEvents@@@@@@UBEXXZ ; has WINAPI (@0)
; public: virtual void __thiscall <class StringKey,class ListenerSourceSubscription *,class <class StringKey,class ListenerSourceSubscription *>>::Acquire(void)const 
?Acquire@?$SafeMap@VStringKey@@PAVListenerSourceSubscription@@V?$SafeMap_Iterator@VStringKey@@PAVListenerSourceSubscription@@@@@@UBEXXZ ; has WINAPI (@0)
; public: virtual void __thiscall <class StringKey,struct WinRM_OperationOptions::Option,class <class StringKey,struct WinRM_OperationOptions::Option>>::Acquire(void)const 
?Acquire@?$SafeMap@VStringKey@@UOption@WinRM_OperationOptions@@V?$SafeMap_Iterator@VStringKey@@UOption@WinRM_OperationOptions@@@@@@UBEXXZ ; has WINAPI (@0)
; public: virtual void __thiscall <class StringKeyCI,unsigned long,class <class StringKeyCI,unsigned long>>::Acquire(void)const 
?Acquire@?$SafeMap@VStringKeyCI@@KV?$SafeMap_Iterator@VStringKeyCI@@K@@@@UBEXXZ ; has WINAPI (@0)
; public: virtual void __thiscall <class StringKeyCI,class IISEndpoint *,class <class StringKeyCI,class IISEndpoint *>>::Acquire(void)const 
?Acquire@?$SafeMap@VStringKeyCI@@PAVIISEndpoint@@V?$SafeMap_Iterator@VStringKeyCI@@PAVIISEndpoint@@@@@@UBEXXZ ; has WINAPI (@0)
; public: virtual void __thiscall <class StringKeyCI,struct Empty,class <class StringKeyCI,struct Empty>>::Acquire(void)const 
?Acquire@?$SafeMap@VStringKeyCI@@UEmpty@@V?$SafeMap_Iterator@VStringKeyCI@@UEmpty@@@@@@UBEXXZ ; has WINAPI (@0)
; public: virtual void __thiscall <class StringKeyCI,struct Empty,class <class StringKeyCI>>::Acquire(void)const 
?Acquire@?$SafeMap@VStringKeyCI@@UEmpty@@V?$SafeSet_Iterator@VStringKeyCI@@@@@@UBEXXZ ; has WINAPI (@0)
; public: virtual void __thiscall <class StringKeyCI,struct WSManHttpListener::USER_CONTEXT_INFO,class <class StringKeyCI,struct WSManHttpListener::USER_CONTEXT_INFO>>::Acquire(void)const 
?Acquire@?$SafeMap@VStringKeyCI@@UUSER_CONTEXT_INFO@WSManHttpListener@@V?$SafeMap_Iterator@VStringKeyCI@@UUSER_CONTEXT_INFO@WSManHttpListener@@@@@@UBEXXZ ; has WINAPI (@0)
; public: virtual void __thiscall <class StringKeyStore,class ExpiredOperationIdRecord *,class <class StringKeyStore,class ExpiredOperationIdRecord *>>::Acquire(void)const 
?Acquire@?$SafeMap@VStringKeyStore@@PAVExpiredOperationIdRecord@@V?$SafeMap_Iterator@VStringKeyStore@@PAVExpiredOperationIdRecord@@@@@@UBEXXZ ; has WINAPI (@0)
; public: virtual void __thiscall <class StringKeyStore,class ServerFullDuplexChannel *,class <class StringKeyStore,class ServerFullDuplexChannel *>>::Acquire(void)const 
?Acquire@?$SafeMap@VStringKeyStore@@PAVServerFullDuplexChannel@@V?$SafeMap_Iterator@VStringKeyStore@@PAVServerFullDuplexChannel@@@@@@UBEXXZ ; has WINAPI (@0)
; public: virtual void __thiscall <class ServiceSoapProcessor::TokenCacheKey,class ServiceSoapProcessor::TokenCacheMapping,class <class ServiceSoapProcessor::TokenCacheKey,class ServiceSoapProcessor::TokenCacheMapping>>::Acquire(void)const 
?Acquire@?$SafeMap@VTokenCacheKey@ServiceSoapProcessor@@VTokenCacheMapping@2@V?$SafeMap_Iterator@VTokenCacheKey@ServiceSoapProcessor@@VTokenCacheMapping@2@@@@@UBEXXZ ; has WINAPI (@0)
; public: virtual void __thiscall <enum WSManSessionOption,class WSMan::Client::SessionOptions::OptionValue *,class <enum WSManSessionOption,class WSMan::Client::SessionOptions::OptionValue *>>::Acquire(void)const 
?Acquire@?$SafeMap@W4WSManSessionOption@@PAVOptionValue@SessionOptions@Client@WSMan@@V?$SafeMap_Iterator@W4WSManSessionOption@@PAVOptionValue@SessionOptions@Client@WSMan@@@@@@UBEXXZ ; has WINAPI (@0)
; public: virtual void __thiscall <unsigned __int64,class RobustConnectionBuffer::SendPacketArgs *,class <unsigned __int64,class RobustConnectionBuffer::SendPacketArgs *>>::Acquire(void)const 
?Acquire@?$SafeMap@_KPAVSendPacketArgs@RobustConnectionBuffer@@V?$SafeMap_Iterator@_KPAVSendPacketArgs@RobustConnectionBuffer@@@@@@UBEXXZ ; has WINAPI (@0)
; public: void __thiscall <class CCertMapping *,struct Empty,class <class CCertMapping *,struct Empty>>::Acquire(void)
?Acquire@?$SafeMap_Lock@PAVCCertMapping@@UEmpty@@V?$SafeMap_Iterator@PAVCCertMapping@@UEmpty@@@@@@QAEXXZ ; has WINAPI (@0)
; public: void __thiscall <class CCertMapping *,struct Empty,class <class CCertMapping *>>::Acquire(void)
?Acquire@?$SafeMap_Lock@PAVCCertMapping@@UEmpty@@V?$SafeSet_Iterator@PAVCCertMapping@@@@@@QAEXXZ ; has WINAPI (@0)
; public: void __thiscall <class CListenerOperation *,struct Empty,class <class CListenerOperation *,struct Empty>>::Acquire(void)
?Acquire@?$SafeMap_Lock@PAVCListenerOperation@@UEmpty@@V?$SafeMap_Iterator@PAVCListenerOperation@@UEmpty@@@@@@QAEXXZ ; has WINAPI (@0)
; public: void __thiscall <class CListenerOperation *,struct Empty,class <class CListenerOperation *>>::Acquire(void)
?Acquire@?$SafeMap_Lock@PAVCListenerOperation@@UEmpty@@V?$SafeSet_Iterator@PAVCListenerOperation@@@@@@QAEXXZ ; has WINAPI (@0)
; public: void __thiscall <class CShellUriSettings *,struct Empty,class <class CShellUriSettings *,struct Empty>>::Acquire(void)
?Acquire@?$SafeMap_Lock@PAVCShellUriSettings@@UEmpty@@V?$SafeMap_Iterator@PAVCShellUriSettings@@UEmpty@@@@@@QAEXXZ ; has WINAPI (@0)
; public: void __thiscall <class CShellUriSettings *,struct Empty,class <class CShellUriSettings *>>::Acquire(void)
?Acquire@?$SafeMap_Lock@PAVCShellUriSettings@@UEmpty@@V?$SafeSet_Iterator@PAVCShellUriSettings@@@@@@QAEXXZ ; has WINAPI (@0)
; public: void __thiscall <void *,struct Empty,class <void *,struct Empty>>::Acquire(void)
?Acquire@?$SafeMap_Lock@PAXUEmpty@@V?$SafeMap_Iterator@PAXUEmpty@@@@@@QAEXXZ ; has WINAPI (@0)
; public: void __thiscall <void *,struct Empty,class <void *>>::Acquire(void)
?Acquire@?$SafeMap_Lock@PAXUEmpty@@V?$SafeSet_Iterator@PAX@@@@QAEXXZ ; has WINAPI (@0)
; public: void __thiscall <struct PluginKey,unsigned long,class <struct PluginKey,unsigned long>>::Acquire(void)
?Acquire@?$SafeMap_Lock@UPluginKey@@KV?$SafeMap_Iterator@UPluginKey@@K@@@@QAEXXZ ; has WINAPI (@0)
; public: void __thiscall <struct UserKey,class BlockedRecord *,class <struct UserKey,class BlockedRecord *>>::Acquire(void)
?Acquire@?$SafeMap_Lock@UUserKey@@PAVBlockedRecord@@V?$SafeMap_Iterator@UUserKey@@PAVBlockedRecord@@@@@@QAEXXZ ; has WINAPI (@0)
; public: void __thiscall <class CertThumbprintKey,class CServiceConfigSettings::CertThumbprintMappedSet,class <class CertThumbprintKey,class CServiceConfigSettings::CertThumbprintMappedSet>>::Acquire(void)
?Acquire@?$SafeMap_Lock@VCertThumbprintKey@@VCertThumbprintMappedSet@CServiceConfigSettings@@V?$SafeMap_Iterator@VCertThumbprintKey@@VCertThumbprintMappedSet@CServiceConfigSettings@@@@@@QAEXXZ ; has WINAPI (@0)
; public: void __thiscall <class Locale::Key,unsigned long,class <class Locale::Key,unsigned long>>::Acquire(void)
?Acquire@?$SafeMap_Lock@VKey@Locale@@KV?$SafeMap_Iterator@VKey@Locale@@K@@@@QAEXXZ ; has WINAPI (@0)
; public: void __thiscall <class StringKeyCI,unsigned long,class <class StringKeyCI,unsigned long>>::Acquire(void)
?Acquire@?$SafeMap_Lock@VStringKeyCI@@KV?$SafeMap_Iterator@VStringKeyCI@@K@@@@QAEXXZ ; has WINAPI (@0)
; public: void __thiscall <class StringKeyCI,struct Empty,class <class StringKeyCI>>::Acquire(void)
?Acquire@?$SafeMap_Lock@VStringKeyCI@@UEmpty@@V?$SafeSet_Iterator@VStringKeyCI@@@@@@QAEXXZ ; has WINAPI (@0)
; public: void __thiscall <class StringKeyCI,struct WSManHttpListener::USER_CONTEXT_INFO,class <class StringKeyCI,struct WSManHttpListener::USER_CONTEXT_INFO>>::Acquire(void)
?Acquire@?$SafeMap_Lock@VStringKeyCI@@UUSER_CONTEXT_INFO@WSManHttpListener@@V?$SafeMap_Iterator@VStringKeyCI@@UUSER_CONTEXT_INFO@WSManHttpListener@@@@@@QAEXXZ ; has WINAPI (@0)
; public: void __thiscall <class StringKeyStore,class ExpiredOperationIdRecord *,class <class StringKeyStore,class ExpiredOperationIdRecord *>>::Acquire(void)
?Acquire@?$SafeMap_Lock@VStringKeyStore@@PAVExpiredOperationIdRecord@@V?$SafeMap_Iterator@VStringKeyStore@@PAVExpiredOperationIdRecord@@@@@@QAEXXZ ; has WINAPI (@0)
; public: void __thiscall <class StringKeyStore,class ServerFullDuplexChannel *,class <class StringKeyStore,class ServerFullDuplexChannel *>>::Acquire(void)
?Acquire@?$SafeMap_Lock@VStringKeyStore@@PAVServerFullDuplexChannel@@V?$SafeMap_Iterator@VStringKeyStore@@PAVServerFullDuplexChannel@@@@@@QAEXXZ ; has WINAPI (@0)
; public: void __thiscall <enum WSManSessionOption,class WSMan::Client::SessionOptions::OptionValue *,class <enum WSManSessionOption,class WSMan::Client::SessionOptions::OptionValue *>>::Acquire(void)
?Acquire@?$SafeMap_Lock@W4WSManSessionOption@@PAVOptionValue@SessionOptions@Client@WSMan@@V?$SafeMap_Iterator@W4WSManSessionOption@@PAVOptionValue@SessionOptions@Client@WSMan@@@@@@QAEXXZ ; has WINAPI (@0)
; public: void __thiscall <unsigned __int64,class RobustConnectionBuffer::SendPacketArgs *,class <unsigned __int64,class RobustConnectionBuffer::SendPacketArgs *>>::Acquire(void)
?Acquire@?$SafeMap_Lock@_KPAVSendPacketArgs@RobustConnectionBuffer@@V?$SafeMap_Iterator@_KPAVSendPacketArgs@RobustConnectionBuffer@@@@@@QAEXXZ ; has WINAPI (@0)
; public: void __thiscall CWSManCriticalSection::Acquire(void)
?Acquire@CWSManCriticalSection@@QAEXXZ ; has WINAPI (@0)
; public: void __thiscall FastLock::AcquireExclusive(void)
?AcquireExclusive@FastLock@@QAEXXZ ; has WINAPI (@0)
; public: void __thiscall FastLock::AcquireShared(void)
?AcquireShared@FastLock@@QAEXXZ ; has WINAPI (@0)
; public: bool __thiscall <class CCertMapping *,struct Empty,class <class CCertMapping *,struct Empty>>::Acquired(void)
?Acquired@?$SafeMap_Lock@PAVCCertMapping@@UEmpty@@V?$SafeMap_Iterator@PAVCCertMapping@@UEmpty@@@@@@QAE_NXZ ; has WINAPI (@0)
; public: bool __thiscall <class CListenerConnect *,class CListenerConnect *,class <class CListenerConnect *,class CListenerConnect *>>::Acquired(void)
?Acquired@?$SafeMap_Lock@PAVCListenerConnect@@PAV1@V?$SafeMap_Iterator@PAVCListenerConnect@@PAV1@@@@@QAE_NXZ ; has WINAPI (@0)
; public: bool __thiscall <class CListenerOperation *,struct Empty,class <class CListenerOperation *,struct Empty>>::Acquired(void)
?Acquired@?$SafeMap_Lock@PAVCListenerOperation@@UEmpty@@V?$SafeMap_Iterator@PAVCListenerOperation@@UEmpty@@@@@@QAE_NXZ ; has WINAPI (@0)
; public: bool __thiscall <class CListenerReceive *,class CListenerReceive *,class <class CListenerReceive *,class CListenerReceive *>>::Acquired(void)
?Acquired@?$SafeMap_Lock@PAVCListenerReceive@@PAV1@V?$SafeMap_Iterator@PAVCListenerReceive@@PAV1@@@@@QAE_NXZ ; has WINAPI (@0)
; public: bool __thiscall <class CListenerSend *,class CListenerSend *,class <class CListenerSend *,class CListenerSend *>>::Acquired(void)
?Acquired@?$SafeMap_Lock@PAVCListenerSend@@PAV1@V?$SafeMap_Iterator@PAVCListenerSend@@PAV1@@@@@QAE_NXZ ; has WINAPI (@0)
; public: bool __thiscall <class CListenerSignal *,class CListenerSignal *,class <class CListenerSignal *,class CListenerSignal *>>::Acquired(void)
?Acquired@?$SafeMap_Lock@PAVCListenerSignal@@PAV1@V?$SafeMap_Iterator@PAVCListenerSignal@@PAV1@@@@@QAE_NXZ ; has WINAPI (@0)
; public: bool __thiscall <class CShellUriSettings *,struct Empty,class <class CShellUriSettings *,struct Empty>>::Acquired(void)
?Acquired@?$SafeMap_Lock@PAVCShellUriSettings@@UEmpty@@V?$SafeMap_Iterator@PAVCShellUriSettings@@UEmpty@@@@@@QAE_NXZ ; has WINAPI (@0)
; public: bool __thiscall <class Collector *,struct Empty,class <class Collector *,struct Empty>>::Acquired(void)
?Acquired@?$SafeMap_Lock@PAVCollector@@UEmpty@@V?$SafeMap_Iterator@PAVCollector@@UEmpty@@@@@@QAE_NXZ ; has WINAPI (@0)
; public: bool __thiscall <class HostOperation *,struct Empty,class <class HostOperation *,struct Empty>>::Acquired(void)
?Acquired@?$SafeMap_Lock@PAVHostOperation@@UEmpty@@V?$SafeMap_Iterator@PAVHostOperation@@UEmpty@@@@@@QAE_NXZ ; has WINAPI (@0)
; public: bool __thiscall <class IOperation *,struct Empty,class <class IOperation *,struct Empty>>::Acquired(void)
?Acquired@?$SafeMap_Lock@PAVIOperation@@UEmpty@@V?$SafeMap_Iterator@PAVIOperation@@UEmpty@@@@@@QAE_NXZ ; has WINAPI (@0)
; public: bool __thiscall <class ListenerSourceSubscription *,struct Empty,class <class ListenerSourceSubscription *,struct Empty>>::Acquired(void)
?Acquired@?$SafeMap_Lock@PAVListenerSourceSubscription@@UEmpty@@V?$SafeMap_Iterator@PAVListenerSourceSubscription@@UEmpty@@@@@@QAE_NXZ ; has WINAPI (@0)
; public: bool __thiscall <class PushSubscription *,struct Empty,class <class PushSubscription *,struct Empty>>::Acquired(void)
?Acquired@?$SafeMap_Lock@PAVPushSubscription@@UEmpty@@V?$SafeMap_Iterator@PAVPushSubscription@@UEmpty@@@@@@QAE_NXZ ; has WINAPI (@0)
; public: bool __thiscall <void *,struct Empty,class <void *,struct Empty>>::Acquired(void)
?Acquired@?$SafeMap_Lock@PAXUEmpty@@V?$SafeMap_Iterator@PAXUEmpty@@@@@@QAE_NXZ ; has WINAPI (@0)
; public: bool __thiscall <struct PluginKey,unsigned long,class <struct PluginKey,unsigned long>>::Acquired(void)
?Acquired@?$SafeMap_Lock@UPluginKey@@KV?$SafeMap_Iterator@UPluginKey@@K@@@@QAE_NXZ ; has WINAPI (@0)
; public: bool __thiscall <struct UserKey,class BlockedRecord *,class <struct UserKey,class BlockedRecord *>>::Acquired(void)
?Acquired@?$SafeMap_Lock@UUserKey@@PAVBlockedRecord@@V?$SafeMap_Iterator@UUserKey@@PAVBlockedRecord@@@@@@QAE_NXZ ; has WINAPI (@0)
; public: bool __thiscall <class CertThumbprintKey,class CServiceConfigSettings::CertThumbprintMappedSet,class <class CertThumbprintKey,class CServiceConfigSettings::CertThumbprintMappedSet>>::Acquired(void)
?Acquired@?$SafeMap_Lock@VCertThumbprintKey@@VCertThumbprintMappedSet@CServiceConfigSettings@@V?$SafeMap_Iterator@VCertThumbprintKey@@VCertThumbprintMappedSet@CServiceConfigSettings@@@@@@QAE_NXZ ; has WINAPI (@0)
; public: bool __thiscall <class GuidKey,class CListenerCommand *,class <class GuidKey,class CListenerCommand *>>::Acquired(void)
?Acquired@?$SafeMap_Lock@VGuidKey@@PAVCListenerCommand@@V?$SafeMap_Iterator@VGuidKey@@PAVCListenerCommand@@@@@@QAE_NXZ ; has WINAPI (@0)
; public: bool __thiscall <class Locale::Key,unsigned long,class <class Locale::Key,unsigned long>>::Acquired(void)
?Acquired@?$SafeMap_Lock@VKey@Locale@@KV?$SafeMap_Iterator@VKey@Locale@@K@@@@QAE_NXZ ; has WINAPI (@0)
; public: bool __thiscall <class StringKeyCI,unsigned long,class <class StringKeyCI,unsigned long>>::Acquired(void)
?Acquired@?$SafeMap_Lock@VStringKeyCI@@KV?$SafeMap_Iterator@VStringKeyCI@@K@@@@QAE_NXZ ; has WINAPI (@0)
; public: bool __thiscall <class StringKeyCI,struct Empty,class <class StringKeyCI,struct Empty>>::Acquired(void)
?Acquired@?$SafeMap_Lock@VStringKeyCI@@UEmpty@@V?$SafeMap_Iterator@VStringKeyCI@@UEmpty@@@@@@QAE_NXZ ; has WINAPI (@0)
; public: bool __thiscall <class StringKeyCI,struct WSManHttpListener::USER_CONTEXT_INFO,class <class StringKeyCI,struct WSManHttpListener::USER_CONTEXT_INFO>>::Acquired(void)
?Acquired@?$SafeMap_Lock@VStringKeyCI@@UUSER_CONTEXT_INFO@WSManHttpListener@@V?$SafeMap_Iterator@VStringKeyCI@@UUSER_CONTEXT_INFO@WSManHttpListener@@@@@@QAE_NXZ ; has WINAPI (@0)
; public: bool __thiscall <class StringKeyStore,class ExpiredOperationIdRecord *,class <class StringKeyStore,class ExpiredOperationIdRecord *>>::Acquired(void)
?Acquired@?$SafeMap_Lock@VStringKeyStore@@PAVExpiredOperationIdRecord@@V?$SafeMap_Iterator@VStringKeyStore@@PAVExpiredOperationIdRecord@@@@@@QAE_NXZ ; has WINAPI (@0)
; public: bool __thiscall <class StringKeyStore,class ServerFullDuplexChannel *,class <class StringKeyStore,class ServerFullDuplexChannel *>>::Acquired(void)
?Acquired@?$SafeMap_Lock@VStringKeyStore@@PAVServerFullDuplexChannel@@V?$SafeMap_Iterator@VStringKeyStore@@PAVServerFullDuplexChannel@@@@@@QAE_NXZ ; has WINAPI (@0)
; public: bool __thiscall <enum WSManSessionOption,class WSMan::Client::SessionOptions::OptionValue *,class <enum WSManSessionOption,class WSMan::Client::SessionOptions::OptionValue *>>::Acquired(void)
?Acquired@?$SafeMap_Lock@W4WSManSessionOption@@PAVOptionValue@SessionOptions@Client@WSMan@@V?$SafeMap_Iterator@W4WSManSessionOption@@PAVOptionValue@SessionOptions@Client@WSMan@@@@@@QAE_NXZ ; has WINAPI (@0)
; public: bool __thiscall <unsigned __int64,class RobustConnectionBuffer::SendPacketArgs *,class <unsigned __int64,class RobustConnectionBuffer::SendPacketArgs *>>::Acquired(void)
?Acquired@?$SafeMap_Lock@_KPAVSendPacketArgs@RobustConnectionBuffer@@V?$SafeMap_Iterator@_KPAVSendPacketArgs@RobustConnectionBuffer@@@@@@QAE_NXZ ; has WINAPI (@0)
; public: bool __thiscall <class CCertMapping *,struct Empty,class <class CCertMapping *>>::Add(class CCertMapping *const &,struct Empty const &,class IRequestContext &)
?Add@?$SafeMap@PAVCCertMapping@@UEmpty@@V?$SafeSet_Iterator@PAVCCertMapping@@@@@@QAE_NABQAVCCertMapping@@ABUEmpty@@AAVIRequestContext@@@Z ; has WINAPI (@12)
; public: bool __thiscall <class CListenerOperation *,struct Empty,class <class CListenerOperation *>>::Add(class CListenerOperation *const &,struct Empty const &,class IRequestContext &)
?Add@?$SafeMap@PAVCListenerOperation@@UEmpty@@V?$SafeSet_Iterator@PAVCListenerOperation@@@@@@QAE_NABQAVCListenerOperation@@ABUEmpty@@AAVIRequestContext@@@Z ; has WINAPI (@12)
; public: bool __thiscall <class CShellUriSettings *,struct Empty,class <class CShellUriSettings *>>::Add(class CShellUriSettings *const &,struct Empty const &,class IRequestContext &)
?Add@?$SafeMap@PAVCShellUriSettings@@UEmpty@@V?$SafeSet_Iterator@PAVCShellUriSettings@@@@@@QAE_NABQAVCShellUriSettings@@ABUEmpty@@AAVIRequestContext@@@Z ; has WINAPI (@12)
; public: bool __thiscall <void *,struct Empty,class <void *>>::Add(void *const &,struct Empty const &,class IRequestContext &)
?Add@?$SafeMap@PAXUEmpty@@V?$SafeSet_Iterator@PAX@@@@QAE_NABQAXABUEmpty@@AAVIRequestContext@@@Z ; has WINAPI (@12)
; public: bool __thiscall <struct PluginKey,unsigned long,class <struct PluginKey,unsigned long>>::Add(struct PluginKey const &,unsigned long const &,class IRequestContext &)
?Add@?$SafeMap@UPluginKey@@KV?$SafeMap_Iterator@UPluginKey@@K@@@@QAE_NABUPluginKey@@ABKAAVIRequestContext@@@Z ; has WINAPI (@12)
; public: bool __thiscall <struct UserKey,class BlockedRecord *,class <struct UserKey,class BlockedRecord *>>::Add(struct UserKey const &,class BlockedRecord *const &,class IRequestContext &)
?Add@?$SafeMap@UUserKey@@PAVBlockedRecord@@V?$SafeMap_Iterator@UUserKey@@PAVBlockedRecord@@@@@@QAE_NABUUserKey@@ABQAVBlockedRecord@@AAVIRequestContext@@@Z ; has WINAPI (@12)
; public: bool __thiscall <class CertThumbprintKey,class CServiceConfigSettings::CertThumbprintMappedSet,class <class CertThumbprintKey,class CServiceConfigSettings::CertThumbprintMappedSet>>::Add(class CertThumbprintKey const &,class CServiceConfigSettings::CertThumbprintMappedSet const &,class IRequestContext &)
?Add@?$SafeMap@VCertThumbprintKey@@VCertThumbprintMappedSet@CServiceConfigSettings@@V?$SafeMap_Iterator@VCertThumbprintKey@@VCertThumbprintMappedSet@CServiceConfigSettings@@@@@@QAE_NABVCertThumbprintKey@@ABVCertThumbprintMappedSet@CServiceConfigSettings@@AAVIRequestContext@@@Z ; has WINAPI (@12)
; public: bool __thiscall <class Locale::Key,unsigned long,class <class Locale::Key,unsigned long>>::Add(class Locale::Key const &,unsigned long const &,class IRequestContext &)
?Add@?$SafeMap@VKey@Locale@@KV?$SafeMap_Iterator@VKey@Locale@@K@@@@QAE_NABVKey@Locale@@ABKAAVIRequestContext@@@Z ; has WINAPI (@12)
; public: bool __thiscall <class StringKeyCI,unsigned long,class <class StringKeyCI,unsigned long>>::Add(class StringKeyCI const &,unsigned long const &,class IRequestContext &)
?Add@?$SafeMap@VStringKeyCI@@KV?$SafeMap_Iterator@VStringKeyCI@@K@@@@QAE_NABVStringKeyCI@@ABKAAVIRequestContext@@@Z ; has WINAPI (@12)
; public: bool __thiscall <class StringKeyCI,struct Empty,class <class StringKeyCI>>::Add(class StringKeyCI const &,struct Empty const &,class IRequestContext &)
?Add@?$SafeMap@VStringKeyCI@@UEmpty@@V?$SafeSet_Iterator@VStringKeyCI@@@@@@QAE_NABVStringKeyCI@@ABUEmpty@@AAVIRequestContext@@@Z ; has WINAPI (@12)
; public: bool __thiscall <class StringKeyCI,struct WSManHttpListener::USER_CONTEXT_INFO,class <class StringKeyCI,struct WSManHttpListener::USER_CONTEXT_INFO>>::Add(class StringKeyCI const &,struct WSManHttpListener::USER_CONTEXT_INFO const &,class IRequestContext &)
?Add@?$SafeMap@VStringKeyCI@@UUSER_CONTEXT_INFO@WSManHttpListener@@V?$SafeMap_Iterator@VStringKeyCI@@UUSER_CONTEXT_INFO@WSManHttpListener@@@@@@QAE_NABVStringKeyCI@@ABUUSER_CONTEXT_INFO@WSManHttpListener@@AAVIRequestContext@@@Z ; has WINAPI (@12)
; public: bool __thiscall <class StringKeyStore,class ExpiredOperationIdRecord *,class <class StringKeyStore,class ExpiredOperationIdRecord *>>::Add(class StringKeyStore const &,class ExpiredOperationIdRecord *const &,class IRequestContext &)
?Add@?$SafeMap@VStringKeyStore@@PAVExpiredOperationIdRecord@@V?$SafeMap_Iterator@VStringKeyStore@@PAVExpiredOperationIdRecord@@@@@@QAE_NABVStringKeyStore@@ABQAVExpiredOperationIdRecord@@AAVIRequestContext@@@Z ; has WINAPI (@12)
; public: bool __thiscall <class StringKeyStore,class ServerFullDuplexChannel *,class <class StringKeyStore,class ServerFullDuplexChannel *>>::Add(class StringKeyStore const &,class ServerFullDuplexChannel *const &,class IRequestContext &)
?Add@?$SafeMap@VStringKeyStore@@PAVServerFullDuplexChannel@@V?$SafeMap_Iterator@VStringKeyStore@@PAVServerFullDuplexChannel@@@@@@QAE_NABVStringKeyStore@@ABQAVServerFullDuplexChannel@@AAVIRequestContext@@@Z ; has WINAPI (@12)
; public: bool __thiscall <enum WSManSessionOption,class WSMan::Client::SessionOptions::OptionValue *,class <enum WSManSessionOption,class WSMan::Client::SessionOptions::OptionValue *>>::Add(enum WSManSessionOption const &,class WSMan::Client::SessionOptions::OptionValue *const &,class IRequestContext &)
?Add@?$SafeMap@W4WSManSessionOption@@PAVOptionValue@SessionOptions@Client@WSMan@@V?$SafeMap_Iterator@W4WSManSessionOption@@PAVOptionValue@SessionOptions@Client@WSMan@@@@@@QAE_NABW4WSManSessionOption@@ABQAVOptionValue@SessionOptions@Client@WSMan@@AAVIRequestContext@@@Z ; has WINAPI (@12)
; public: bool __thiscall <unsigned __int64,class RobustConnectionBuffer::SendPacketArgs *,class <unsigned __int64,class RobustConnectionBuffer::SendPacketArgs *>>::Add(unsigned __int64 const &,class RobustConnectionBuffer::SendPacketArgs *const &,class IRequestContext &)
?Add@?$SafeMap@_KPAVSendPacketArgs@RobustConnectionBuffer@@V?$SafeMap_Iterator@_KPAVSendPacketArgs@RobustConnectionBuffer@@@@@@QAE_NAB_KABQAVSendPacketArgs@RobustConnectionBuffer@@AAVIRequestContext@@@Z ; has WINAPI (@12)
; public: bool __thiscall <class CCertMapping *>::Add(class CCertMapping *const &,class IRequestContext &)
?Add@?$SafeSet@PAVCCertMapping@@@@QAE_NABQAVCCertMapping@@AAVIRequestContext@@@Z ; has WINAPI (@8)
; public: bool __thiscall <class CListenerOperation *>::Add(class CListenerOperation *const &,class IRequestContext &)
?Add@?$SafeSet@PAVCListenerOperation@@@@QAE_NABQAVCListenerOperation@@AAVIRequestContext@@@Z ; has WINAPI (@8)
; public: bool __thiscall <class CShellUriSettings *>::Add(class CShellUriSettings *const &,class IRequestContext &)
?Add@?$SafeSet@PAVCShellUriSettings@@@@QAE_NABQAVCShellUriSettings@@AAVIRequestContext@@@Z ; has WINAPI (@8)
; public: bool __thiscall <void *>::Add(void *const &,class IRequestContext &)
?Add@?$SafeSet@PAX@@QAE_NABQAXAAVIRequestContext@@@Z ; has WINAPI (@8)
; public: bool __thiscall <class StringKeyCI>::Add(class StringKeyCI const &,class IRequestContext &)
?Add@?$SafeSet@VStringKeyCI@@@@QAE_NABVStringKeyCI@@AAVIRequestContext@@@Z ; has WINAPI (@8)
; public: static int __stdcall ConfigUpdate::AddDefaultPlugins(class IRequestContext *,int)
?AddDefaultPlugins@ConfigUpdate@@SGHPAVIRequestContext@@H@Z ; has WINAPI (@8)
; public: int __thiscall CWSManResourceNoResourceUri::AddKey(unsigned short const *,unsigned short const *,class IRequestContext *)
?AddKey@CWSManResourceNoResourceUri@@QAEHPBG0PAVIRequestContext@@@Z ; has WINAPI (@12)
; private: int __thiscall CRequestContext::AddMessage(unsigned short const *,char **)
?AddMessage@CRequestContext@@AAEHPBGPAPAD@Z ; has WINAPI (@8)
; public: int __thiscall CWSManResourceNoResourceUri::AddOption(unsigned short const *,unsigned short const *,int,class IRequestContext *)
?AddOption@CWSManResourceNoResourceUri@@QAEHPBG0HPAVIRequestContext@@@Z ; has WINAPI (@16)
; public: int __thiscall CWSManResourceNoResourceUri::AddOptionSet(struct _WSMAN_OPTION_SET *,class IRequestContext *)
?AddOptionSet@CWSManResourceNoResourceUri@@QAEHPAU_WSMAN_OPTION_SET@@PAVIRequestContext@@@Z ; has WINAPI (@8)
; public: bool __thiscall PacketParser::AddPacket(class Packet *,bool,bool,bool)
?AddPacket@PacketParser@@QAE_NPAVPacket@@_N11@Z ; has WINAPI (@16)
; public: virtual unsigned long __stdcall CWSManSecurityUI::AddRef(void)
?AddRef@CWSManSecurityUI@@UAGKXZ ; has WINAPI (@4)
; public: virtual long __thiscall ILifeTimeMgmt::AddRef(void)
?AddRef@ILifeTimeMgmt@@UAEJXZ ; has WINAPI (@0)
; public: bool __thiscall UserRecord::AddRef(class IRequestContext &)
?AddRef@UserRecord@@QAE_NAAVIRequestContext@@@Z ; has WINAPI (@4)
; protected: int __thiscall CBaseConfigCache::AddSource(class IRequestContext *,class CConfigChangeSource *)
?AddSource@CBaseConfigCache@@IAEHPAVIRequestContext@@PAVCConfigChangeSource@@@Z ; has WINAPI (@8)
; private: int __thiscall CBaseConfigCache::AddToMap(class IRequestContext *,class AutoLocalFree &)
?AddToMap@CBaseConfigCache@@AAEHPAVIRequestContext@@AAVAutoLocalFree@@@Z ; has WINAPI (@8)
; public: static void *__stdcall WSManMemory::Alloc(unsigned int,int,enum _NitsFaultMode)
?Alloc@WSManMemory@@SGPAXIHW4_NitsFaultMode@@@Z ; has WINAPI (@12)
; public: static unsigned short *__stdcall WSManMemory::AllocBstr(unsigned short const *,int,int)
?AllocBstr@WSManMemory@@SGPAGPBGHH@Z ; has WINAPI (@12)
; public: static unsigned short *__stdcall WSManMemory::AllocBstrLen(unsigned short const *,unsigned int,int,int)
?AllocBstrLen@WSManMemory@@SGPAGPBGIHH@Z ; has WINAPI (@16)
; private: static class CBaseConfigCache *__stdcall CClientConfigCache::AllocCache(void)
?AllocCache@CClientConfigCache@@CGPAVCBaseConfigCache@@XZ ; has WINAPI (@0)
; private: static class CBaseConfigCache *__stdcall CServiceConfigCache::AllocCache(void)
?AllocCache@CServiceConfigCache@@CGPAVCBaseConfigCache@@XZ ; has WINAPI (@0)
; private: static class CBaseConfigCache *__stdcall CWinRSPluginConfigCache::AllocCache(void)
?AllocCache@CWinRSPluginConfigCache@@CGPAVCBaseConfigCache@@XZ ; has WINAPI (@0)
; public: long __thiscall TSTRBUFFER::AllocSysString(unsigned short **)const 
?AllocSysString@TSTRBUFFER@@QBEJPAPAG@Z ; has WINAPI (@4)
; public: virtual int __thiscall CCommonConfigSettings::AllowBasic(void)const 
?AllowBasic@CCommonConfigSettings@@UBEHXZ ; has WINAPI (@0)
; public: virtual int __thiscall CCommonConfigSettings::AllowClientCertificate(void)const 
?AllowClientCertificate@CCommonConfigSettings@@UBEHXZ ; has WINAPI (@0)
; public: virtual int __thiscall CCommonConfigSettings::AllowCredSsp(void)const 
?AllowCredSsp@CCommonConfigSettings@@UBEHXZ ; has WINAPI (@0)
; public: virtual int __thiscall CCommonConfigSettings::AllowKerberos(void)const 
?AllowKerberos@CCommonConfigSettings@@UBEHXZ ; has WINAPI (@0)
; public: virtual int __thiscall CCommonConfigSettings::AllowNegotiate(void)const 
?AllowNegotiate@CCommonConfigSettings@@UBEHXZ ; has WINAPI (@0)
; public: virtual int __thiscall CCommonConfigSettings::AllowUnencrypted(void)const 
?AllowUnencrypted@CCommonConfigSettings@@UBEHXZ ; has WINAPI (@0)
; public: long __thiscall SBUFFER::Append(unsigned char *,unsigned int)
?Append@SBUFFER@@QAEJPAEI@Z ; has WINAPI (@8)
; public: long __thiscall SBUFFER::Append(class SBUFFER *)
?Append@SBUFFER@@QAEJPAV1@@Z ; has WINAPI (@4)
; public: long __thiscall TSTRBUFFER::Append(unsigned short const *)
?Append@TSTRBUFFER@@QAEJPBG@Z ; has WINAPI (@4)
; public: long __thiscall TSTRBUFFER::Append(unsigned short const *,unsigned int,unsigned int)
?Append@TSTRBUFFER@@QAEJPBGII@Z ; has WINAPI (@12)
; public: long __thiscall TSTRBUFFER::AppendChar(unsigned short)
?AppendChar@TSTRBUFFER@@QAEJG@Z ; has WINAPI (@4)
; public: long __thiscall TSTRBUFFER::AppendEscapeXmlAttribute(unsigned short const *,unsigned short)
?AppendEscapeXmlAttribute@TSTRBUFFER@@QAEJPBGG@Z ; has WINAPI (@8)
; public: long __thiscall TSTRBUFFER::AppendEscapeXmlContent(unsigned short const *,bool)
?AppendEscapeXmlContent@TSTRBUFFER@@QAEJPBG_N@Z ; has WINAPI (@8)
; public: long __thiscall TSTRBUFFER::AppendXmlElem(unsigned short const *,unsigned short const *,int,unsigned long,struct _XML_ATTRIB *)
?AppendXmlElem@TSTRBUFFER@@QAEJPBG0HKPAU_XML_ATTRIB@@@Z ; has WINAPI (@20)
; public: long __thiscall TSTRBUFFER::AppendXmlElemWithNamespace(unsigned short const *,unsigned short const *,unsigned short const *,int,unsigned long,struct _XML_ATTRIB *)
?AppendXmlElemWithNamespace@TSTRBUFFER@@QAEJPBG00HKPAU_XML_ATTRIB@@@Z ; has WINAPI (@24)
; public: long __thiscall TSTRBUFFER::AppendXmlElemWithNamespaceAndPrefix(unsigned short const *,unsigned short const *,unsigned short const *,unsigned short const *,int,unsigned long,struct _XML_ATTRIB *)
?AppendXmlElemWithNamespaceAndPrefix@TSTRBUFFER@@QAEJPBG000HKPAU_XML_ATTRIB@@@Z ; has WINAPI (@28)
; public: long __thiscall TSTRBUFFER::AppendXmlElemWithPrefix(unsigned short const *,unsigned short const *,unsigned short const *,int,unsigned long,struct _XML_ATTRIB *)
?AppendXmlElemWithPrefix@TSTRBUFFER@@QAEJPBG00HKPAU_XML_ATTRIB@@@Z ; has WINAPI (@24)
; public: long __thiscall TSTRBUFFER::AppendXmlEndElem(unsigned short const *)
?AppendXmlEndElem@TSTRBUFFER@@QAEJPBG@Z ; has WINAPI (@4)
; public: long __thiscall TSTRBUFFER::AppendXmlEndElemWithPrefix(unsigned short const *,unsigned short const *)
?AppendXmlEndElemWithPrefix@TSTRBUFFER@@QAEJPBG0@Z ; has WINAPI (@8)
; public: long __thiscall TSTRBUFFER::AppendXmlEndFragment(void)
?AppendXmlEndFragment@TSTRBUFFER@@QAEJXZ ; has WINAPI (@0)
; public: long __thiscall TSTRBUFFER::AppendXmlEndItem(void)
?AppendXmlEndItem@TSTRBUFFER@@QAEJXZ ; has WINAPI (@0)
; public: long __thiscall TSTRBUFFER::AppendXmlStartElem(unsigned short const *,int,unsigned long,struct _XML_ATTRIB *)
?AppendXmlStartElem@TSTRBUFFER@@QAEJPBGHKPAU_XML_ATTRIB@@@Z ; has WINAPI (@16)
; public: long __thiscall TSTRBUFFER::AppendXmlStartElemWithNamespace(unsigned short const *,unsigned short const *,int,unsigned long,struct _XML_ATTRIB *)
?AppendXmlStartElemWithNamespace@TSTRBUFFER@@QAEJPBG0HKPAU_XML_ATTRIB@@@Z ; has WINAPI (@20)
; public: long __thiscall TSTRBUFFER::AppendXmlStartElemWithNamespaceAndPrefix(unsigned short const *,unsigned short const *,unsigned short const *,int,unsigned long,struct _XML_ATTRIB *)
?AppendXmlStartElemWithNamespaceAndPrefix@TSTRBUFFER@@QAEJPBG00HKPAU_XML_ATTRIB@@@Z ; has WINAPI (@24)
; public: long __thiscall TSTRBUFFER::AppendXmlStartElemWithNamespaces(unsigned short const *,unsigned long,struct _XML_NAMESPACE_PREFIX *,int,unsigned long,struct _XML_ATTRIB *)
?AppendXmlStartElemWithNamespaces@TSTRBUFFER@@QAEJPBGKPAU_XML_NAMESPACE_PREFIX@@HKPAU_XML_ATTRIB@@@Z ; has WINAPI (@24)
; public: long __thiscall TSTRBUFFER::AppendXmlStartElemWithNamespacesAndPrefixes(unsigned short const *,unsigned short const *,unsigned long,struct _XML_NAMESPACE_PREFIX *,int,unsigned long,struct _XML_ATTRIB *)
?AppendXmlStartElemWithNamespacesAndPrefixes@TSTRBUFFER@@QAEJPBG0KPAU_XML_NAMESPACE_PREFIX@@HKPAU_XML_ATTRIB@@@Z ; has WINAPI (@28)
; public: long __thiscall TSTRBUFFER::AppendXmlStartElemWithPrefix(unsigned short const *,unsigned short const *,int,unsigned long,struct _XML_ATTRIB *)
?AppendXmlStartElemWithPrefix@TSTRBUFFER@@QAEJPBG0HKPAU_XML_ATTRIB@@@Z ; has WINAPI (@20)
; public: long __thiscall TSTRBUFFER::AppendXmlStartFragment(void)
?AppendXmlStartFragment@TSTRBUFFER@@QAEJXZ ; has WINAPI (@0)
; public: long __thiscall TSTRBUFFER::AppendXmlStartItem(void)
?AppendXmlStartItem@TSTRBUFFER@@QAEJXZ ; has WINAPI (@0)
; public: bool __thiscall UserRecord::ApplyQuota(enum OperationType,class IRequestContext &,class Catalog::Provider const *,class CServiceConfigSettings *)
?ApplyQuota@UserRecord@@QAE_NW4OperationType@@AAVIRequestContext@@PBVProvider@Catalog@@PAVCServiceConfigSettings@@@Z ; has WINAPI (@16)
; protected: int __thiscall ConfigRegistry::ApplySecurity(class IRequestContext *,struct HKEY__ *,unsigned short const *,unsigned short const *)
?ApplySecurity@ConfigRegistry@@IAEHPAVIRequestContext@@PAUHKEY__@@PBG2@Z ; has WINAPI (@16)
; public: class <class CCertMapping *,struct Empty,class <class CCertMapping *>> &__thiscall <class CCertMapping *,struct Empty,class <class CCertMapping *>>::AsReference(void)
?AsReference@?$SafeMap@PAVCCertMapping@@UEmpty@@V?$SafeSet_Iterator@PAVCCertMapping@@@@@@QAEAAV1@XZ ; has WINAPI (@0)
; public: class <class CListenerOperation *,struct Empty,class <class CListenerOperation *>> &__thiscall <class CListenerOperation *,struct Empty,class <class CListenerOperation *>>::AsReference(void)
?AsReference@?$SafeMap@PAVCListenerOperation@@UEmpty@@V?$SafeSet_Iterator@PAVCListenerOperation@@@@@@QAEAAV1@XZ ; has WINAPI (@0)
; public: class <class CShellUriSettings *,struct Empty,class <class CShellUriSettings *>> &__thiscall <class CShellUriSettings *,struct Empty,class <class CShellUriSettings *>>::AsReference(void)
?AsReference@?$SafeMap@PAVCShellUriSettings@@UEmpty@@V?$SafeSet_Iterator@PAVCShellUriSettings@@@@@@QAEAAV1@XZ ; has WINAPI (@0)
; public: class <void *,struct Empty,class <void *>> &__thiscall <void *,struct Empty,class <void *>>::AsReference(void)
?AsReference@?$SafeMap@PAXUEmpty@@V?$SafeSet_Iterator@PAX@@@@QAEAAV1@XZ ; has WINAPI (@0)
; public: class <struct PluginKey,unsigned long,class <struct PluginKey,unsigned long>> &__thiscall <struct PluginKey,unsigned long,class <struct PluginKey,unsigned long>>::AsReference(void)
?AsReference@?$SafeMap@UPluginKey@@KV?$SafeMap_Iterator@UPluginKey@@K@@@@QAEAAV1@XZ ; has WINAPI (@0)
; public: class <struct UserKey,class BlockedRecord *,class <struct UserKey,class BlockedRecord *>> &__thiscall <struct UserKey,class BlockedRecord *,class <struct UserKey,class BlockedRecord *>>::AsReference(void)
?AsReference@?$SafeMap@UUserKey@@PAVBlockedRecord@@V?$SafeMap_Iterator@UUserKey@@PAVBlockedRecord@@@@@@QAEAAV1@XZ ; has WINAPI (@0)
; public: class <class CertThumbprintKey,class CServiceConfigSettings::CertThumbprintMappedSet,class <class CertThumbprintKey,class CServiceConfigSettings::CertThumbprintMappedSet>> &__thiscall <class CertThumbprintKey,class CServiceConfigSettings::CertThumbprintMappedSet,class <class CertThumbprintKey,class CServiceConfigSettings::CertThumbprintMappedSet>>::AsReference(void)
?AsReference@?$SafeMap@VCertThumbprintKey@@VCertThumbprintMappedSet@CServiceConfigSettings@@V?$SafeMap_Iterator@VCertThumbprintKey@@VCertThumbprintMappedSet@CServiceConfigSettings@@@@@@QAEAAV1@XZ ; has WINAPI (@0)
; public: class <class Locale::Key,unsigned long,class <class Locale::Key,unsigned long>> &__thiscall <class Locale::Key,unsigned long,class <class Locale::Key,unsigned long>>::AsReference(void)
?AsReference@?$SafeMap@VKey@Locale@@KV?$SafeMap_Iterator@VKey@Locale@@K@@@@QAEAAV1@XZ ; has WINAPI (@0)
; public: class <class StringKeyCI,unsigned long,class <class StringKeyCI,unsigned long>> &__thiscall <class StringKeyCI,unsigned long,class <class StringKeyCI,unsigned long>>::AsReference(void)
?AsReference@?$SafeMap@VStringKeyCI@@KV?$SafeMap_Iterator@VStringKeyCI@@K@@@@QAEAAV1@XZ ; has WINAPI (@0)
; public: class <class StringKeyCI,struct WSManHttpListener::USER_CONTEXT_INFO,class <class StringKeyCI,struct WSManHttpListener::USER_CONTEXT_INFO>> &__thiscall <class StringKeyCI,struct WSManHttpListener::USER_CONTEXT_INFO,class <class StringKeyCI,struct WSManHttpListener::USER_CONTEXT_INFO>>::AsReference(void)
?AsReference@?$SafeMap@VStringKeyCI@@UUSER_CONTEXT_INFO@WSManHttpListener@@V?$SafeMap_Iterator@VStringKeyCI@@UUSER_CONTEXT_INFO@WSManHttpListener@@@@@@QAEAAV1@XZ ; has WINAPI (@0)
; public: class <class StringKeyStore,class ExpiredOperationIdRecord *,class <class StringKeyStore,class ExpiredOperationIdRecord *>> &__thiscall <class StringKeyStore,class ExpiredOperationIdRecord *,class <class StringKeyStore,class ExpiredOperationIdRecord *>>::AsReference(void)
?AsReference@?$SafeMap@VStringKeyStore@@PAVExpiredOperationIdRecord@@V?$SafeMap_Iterator@VStringKeyStore@@PAVExpiredOperationIdRecord@@@@@@QAEAAV1@XZ ; has WINAPI (@0)
; public: class <class StringKeyStore,class ServerFullDuplexChannel *,class <class StringKeyStore,class ServerFullDuplexChannel *>> &__thiscall <class StringKeyStore,class ServerFullDuplexChannel *,class <class StringKeyStore,class ServerFullDuplexChannel *>>::AsReference(void)
?AsReference@?$SafeMap@VStringKeyStore@@PAVServerFullDuplexChannel@@V?$SafeMap_Iterator@VStringKeyStore@@PAVServerFullDuplexChannel@@@@@@QAEAAV1@XZ ; has WINAPI (@0)
; public: class <enum WSManSessionOption,class WSMan::Client::SessionOptions::OptionValue *,class <enum WSManSessionOption,class WSMan::Client::SessionOptions::OptionValue *>> &__thiscall <enum WSManSessionOption,class WSMan::Client::SessionOptions::OptionValue *,class <enum WSManSessionOption,class WSMan::Client::SessionOptions::OptionValue *>>::AsReference(void)
?AsReference@?$SafeMap@W4WSManSessionOption@@PAVOptionValue@SessionOptions@Client@WSMan@@V?$SafeMap_Iterator@W4WSManSessionOption@@PAVOptionValue@SessionOptions@Client@WSMan@@@@@@QAEAAV1@XZ ; has WINAPI (@0)
; public: class <unsigned __int64,class RobustConnectionBuffer::SendPacketArgs *,class <unsigned __int64,class RobustConnectionBuffer::SendPacketArgs *>> &__thiscall <unsigned __int64,class RobustConnectionBuffer::SendPacketArgs *,class <unsigned __int64,class RobustConnectionBuffer::SendPacketArgs *>>::AsReference(void)
?AsReference@?$SafeMap@_KPAVSendPacketArgs@RobustConnectionBuffer@@V?$SafeMap_Iterator@_KPAVSendPacketArgs@RobustConnectionBuffer@@@@@@QAEAAV1@XZ ; has WINAPI (@0)
; public: virtual unsigned long __thiscall UserRecord::AuthzComplete(void *,void *,enum UserAuthzRecord::AdministratorType,unsigned long,unsigned short const *)
?AuthzComplete@UserRecord@@UAEKPAX0W4AdministratorType@UserAuthzRecord@@KPBG@Z ; has WINAPI (@20)
; private: static struct PacketFormatter::BOMInfo const *const const PacketFormatter::BOMS
?BOMS@PacketFormatter@@0QBUBOMInfo@1@B DATA
; public: static int __stdcall CSecurity::BeginRevertToSelf(void **,unsigned long)
?BeginRevertToSelf@CSecurity@@SGHPAPAXK@Z ; has WINAPI (@8)
; public: virtual int __thiscall CWSManResourceNoResourceUri::BuildFragmentTransfer(class BufferFormatter &)
?BuildFragmentTransfer@CWSManResourceNoResourceUri@@UAEHAAVBufferFormatter@@@Z ; has WINAPI (@4)
; public: int __thiscall CWSManResourceNoResourceUri::BuildOptionSet(class BufferFormatter &)
?BuildOptionSet@CWSManResourceNoResourceUri@@QAEHAAVBufferFormatter@@@Z ; has WINAPI (@4)
; public: virtual int __thiscall CWSManEPR::BuildSelectorSet(class BufferFormatter &)
?BuildSelectorSet@CWSManEPR@@UAEHAAVBufferFormatter@@@Z ; has WINAPI (@4)
; public: virtual int __thiscall CWSManResourceNoResourceUri::BuildSelectorSet(class BufferFormatter &)
?BuildSelectorSet@CWSManResourceNoResourceUri@@UAEHAAVBufferFormatter@@@Z ; has WINAPI (@4)
; private: static struct PacketFormatter::CharsetInfo const *const const PacketFormatter::CHARSETS
?CHARSETS@PacketFormatter@@0QBUCharsetInfo@1@B DATA
; public: void __thiscall CServiceConfigCache::ChangeLogging(enum ErrorLogging)
?ChangeLogging@CServiceConfigCache@@QAEXW4ErrorLogging@@@Z ; has WINAPI (@4)
; protected: int __thiscall ConfigRegistry::CheckSharedSSLConfiguration(class IRequestContext *,unsigned short const *,unsigned short const *,int,int *)
?CheckSharedSSLConfiguration@ConfigRegistry@@IAEHPAVIRequestContext@@PBG1HPAH@Z ; has WINAPI (@20)
; public: void __thiscall <struct PluginKey,unsigned long,class <struct PluginKey,unsigned long>>::Clear(void)
?Clear@?$SafeMap@UPluginKey@@KV?$SafeMap_Iterator@UPluginKey@@K@@@@QAEXXZ ; has WINAPI (@0)
; public: void __thiscall <class StringKeyCI,unsigned long,class <class StringKeyCI,unsigned long>>::Clear(void)
?Clear@?$SafeMap@VStringKeyCI@@KV?$SafeMap_Iterator@VStringKeyCI@@K@@@@QAEXXZ ; has WINAPI (@0)
; public: void __thiscall <class StringKeyCI,struct WSManHttpListener::USER_CONTEXT_INFO,class <class StringKeyCI,struct WSManHttpListener::USER_CONTEXT_INFO>>::Clear(void)
?Clear@?$SafeMap@VStringKeyCI@@UUSER_CONTEXT_INFO@WSManHttpListener@@V?$SafeMap_Iterator@VStringKeyCI@@UUSER_CONTEXT_INFO@WSManHttpListener@@@@@@QAEXXZ ; has WINAPI (@0)
; public: void __thiscall <class StringKeyStore,class ExpiredOperationIdRecord *,class <class StringKeyStore,class ExpiredOperationIdRecord *>>::Clear(void)
?Clear@?$SafeMap@VStringKeyStore@@PAVExpiredOperationIdRecord@@V?$SafeMap_Iterator@VStringKeyStore@@PAVExpiredOperationIdRecord@@@@@@QAEXXZ ; has WINAPI (@0)
; public: int __thiscall CWSManResourceNoResourceUri::ClearKeys(void)
?ClearKeys@CWSManResourceNoResourceUri@@QAEHXZ ; has WINAPI (@0)
; public: int __thiscall CWSManResourceNoResourceUri::ClearOptions(void)
?ClearOptions@CWSManResourceNoResourceUri@@QAEHXZ ; has WINAPI (@0)
; protected: int __thiscall ConfigRegistry::ClearRegistryKeys(class IRequestContext *)
?ClearRegistryKeys@ConfigRegistry@@IAEHPAVIRequestContext@@@Z ; has WINAPI (@4)
; int __stdcall ClearSubKeys(struct HKEY__ *,class IRequestContext *)
?ClearSubKeys@@YGHPAUHKEY__@@PAVIRequestContext@@@Z ; has WINAPI (@8)
; public: void __thiscall CRequestContext::CompleteWithErrorContext(struct _WSMAN_PLUGIN_REQUEST *)
?CompleteWithErrorContext@CRequestContext@@QAEXPAU_WSMAN_PLUGIN_REQUEST@@@Z ; has WINAPI (@4)
; public: static unsigned long const ExtendedSemantic::Confirm
?Confirm@ExtendedSemantic@@2KB ; has WINAPI (@0)
; public: long __thiscall TSTRBUFFER::Copy(unsigned short const *)
?Copy@TSTRBUFFER@@QAEJPBG@Z ; has WINAPI (@4)
; unsigned short *__stdcall CopyString(class IRequestContext *,enum CallSiteId,unsigned short const *)
?CopyString@@YGPAGPAVIRequestContext@@W4CallSiteId@@PBG@Z ; has WINAPI (@12)
; unsigned short *__stdcall CopyString(unsigned short const *,int const &,class IRequestContext &)
?CopyString@@YGPAGPBGABHAAVIRequestContext@@@Z ; has WINAPI (@12)
; public: unsigned long __thiscall PacketParser::MessageId::CopyString(unsigned short const *,int)
?CopyString@MessageId@PacketParser@@QAEKPBGH@Z ; has WINAPI (@8)
; public: virtual void __thiscall CErrorContext::CopyTo(class IRequestContext *)const 
?CopyTo@CErrorContext@@UBEXPAVIRequestContext@@@Z ; has WINAPI (@4)
; public: virtual void __thiscall CRequestContext::CopyTo(class IRequestContext *)const 
?CopyTo@CRequestContext@@UBEXPAVIRequestContext@@@Z ; has WINAPI (@4)
; public: static void __stdcall WSMan::EventHandler::CreateActivityId(struct _GUID &)
?CreateActivityId@EventHandler@WSMan@@SGXAAU_GUID@@@Z ; has WINAPI (@4)
; public: unsigned long __thiscall SoapSemanticConverter::CreateAnEvent(unsigned long,class SemanticMessage *,class BufferFormatter &,class IRequestContext *)
?CreateAnEvent@SoapSemanticConverter@@QAEKKPAVSemanticMessage@@AAVBufferFormatter@@PAVIRequestContext@@@Z ; has WINAPI (@16)
; private: int __thiscall CConfigManager::CreateAutoConfiguredListener(class IRequestContext *,class LISTENER_IDENTITY *)
?CreateAutoConfiguredListener@CConfigManager@@AAEHPAVIRequestContext@@PAVLISTENER_IDENTITY@@@Z ; has WINAPI (@8)
; protected: bool __thiscall <class CSecurity::AdminSid>::CreateInstance(class IRequestContext &)
?CreateInstance@?$ILoader@VAdminSid@CSecurity@@@@IAE_NAAVIRequestContext@@@Z ; has WINAPI (@4)
; protected: bool __thiscall <class CredUIDllLoader>::CreateInstance(class IRequestContext &)
?CreateInstance@?$ILoader@VCredUIDllLoader@@@@IAE_NAAVIRequestContext@@@Z ; has WINAPI (@4)
; protected: bool __thiscall <class WSMan::EventHandler>::CreateInstance(class IRequestContext &)
?CreateInstance@?$ILoader@VEventHandler@WSMan@@@@IAE_NAAVIRequestContext@@@Z ; has WINAPI (@4)
; protected: bool __thiscall <class CSecurity::InteractiveSid>::CreateInstance(class IRequestContext &)
?CreateInstance@?$ILoader@VInteractiveSid@CSecurity@@@@IAE_NAAVIRequestContext@@@Z ; has WINAPI (@4)
; protected: bool __thiscall <class IpHlpApiDllLoader>::CreateInstance(class IRequestContext &)
?CreateInstance@?$ILoader@VIpHlpApiDllLoader@@@@IAE_NAAVIRequestContext@@@Z ; has WINAPI (@4)
; protected: bool __thiscall <class MachineName>::CreateInstance(class IRequestContext &)
?CreateInstance@?$ILoader@VMachineName@@@@IAE_NAAVIRequestContext@@@Z ; has WINAPI (@4)
; protected: bool __thiscall <class CSecurity::NetworkServiceSid>::CreateInstance(class IRequestContext &)
?CreateInstance@?$ILoader@VNetworkServiceSid@CSecurity@@@@IAE_NAAVIRequestContext@@@Z ; has WINAPI (@4)
; protected: bool __thiscall <class NtDsApiDllLoader>::CreateInstance(class IRequestContext &)
?CreateInstance@?$ILoader@VNtDsApiDllLoader@@@@IAE_NAAVIRequestContext@@@Z ; has WINAPI (@4)
; protected: bool __thiscall <class Locale::Resources>::CreateInstance(class IRequestContext &)
?CreateInstance@?$ILoader@VResources@Locale@@@@IAE_NAAVIRequestContext@@@Z ; has WINAPI (@4)
; protected: bool __thiscall <class Shell32DllLoader>::CreateInstance(class IRequestContext &)
?CreateInstance@?$ILoader@VShell32DllLoader@@@@IAE_NAAVIRequestContext@@@Z ; has WINAPI (@4)
; protected: bool __thiscall <class ShlWApiDllLoader>::CreateInstance(class IRequestContext &)
?CreateInstance@?$ILoader@VShlWApiDllLoader@@@@IAE_NAAVIRequestContext@@@Z ; has WINAPI (@4)
; protected: bool __thiscall <class SubscriptionManager>::CreateInstance(class IRequestContext &)
?CreateInstance@?$ILoader@VSubscriptionManager@@@@IAE_NAAVIRequestContext@@@Z ; has WINAPI (@4)
; protected: bool __thiscall <class User32DllLoader>::CreateInstance(class IRequestContext &)
?CreateInstance@?$ILoader@VUser32DllLoader@@@@IAE_NAAVIRequestContext@@@Z ; has WINAPI (@4)
; protected: bool __thiscall <class WSManMemCryptManager>::CreateInstance(class IRequestContext &)
?CreateInstance@?$ILoader@VWSManMemCryptManager@@@@IAE_NAAVIRequestContext@@@Z ; has WINAPI (@4)
; protected: int __thiscall ConfigRegistry::CreateKey(class IRequestContext *,unsigned short const *,struct HKEY__ **,unsigned short const *,unsigned long,unsigned long *)
?CreateKey@ConfigRegistry@@IAEHPAVIRequestContext@@PBGPAPAUHKEY__@@1KPAK@Z ; has WINAPI (@24)
; private: static class CBaseConfigCache *__stdcall CBaseConfigCache::CreateNew(class IRequestContext *,class CBaseConfigCache::CConfigCacheMap *,class CBaseConfigCache *(__stdcall *)(void),enum ErrorLogging,int)
?CreateNew@CBaseConfigCache@@CGPAV1@PAVIRequestContext@@PAVCConfigCacheMap@1@P6GPAV1@XZW4ErrorLogging@@H@Z ; has WINAPI (@20)
CreateProvHost@16
; private: int __thiscall CWSManSecurityUI::CreateRenderingInformation(class IRequestContext *)
?CreateRenderingInformation@CWSManSecurityUI@@AAEHPAVIRequestContext@@@Z ; has WINAPI (@4)
; public: unsigned long __thiscall SoapSemanticConverter::CreateResponse(unsigned long,enum _MI_OperationCallback_ResponseType,class BufferFormatter &,class IRequestContext *)
?CreateResponse@SoapSemanticConverter@@QAEKKW4_MI_OperationCallback_ResponseType@@AAVBufferFormatter@@PAVIRequestContext@@@Z ; has WINAPI (@16)
; public: unsigned long __thiscall PacketParser::SessionId::CreateSessionGuid(unsigned short const *,int)
?CreateSessionGuid@SessionId@PacketParser@@QAEKPBGH@Z ; has WINAPI (@8)
; protected: class <class CCertMapping *,struct Empty> &__thiscall <class CCertMapping *,struct Empty>::Data(void)const 
?Data@?$SafeMap_Iterator@PAVCCertMapping@@UEmpty@@@@IBEAAV?$STLMap@PAVCCertMapping@@UEmpty@@@@XZ ; has WINAPI (@0)
; protected: class <class CListenerOperation *,struct Empty> &__thiscall <class CListenerOperation *,struct Empty>::Data(void)const 
?Data@?$SafeMap_Iterator@PAVCListenerOperation@@UEmpty@@@@IBEAAV?$STLMap@PAVCListenerOperation@@UEmpty@@@@XZ ; has WINAPI (@0)
; protected: class <class CShellUriSettings *,struct Empty> &__thiscall <class CShellUriSettings *,struct Empty>::Data(void)const 
?Data@?$SafeMap_Iterator@PAVCShellUriSettings@@UEmpty@@@@IBEAAV?$STLMap@PAVCShellUriSettings@@UEmpty@@@@XZ ; has WINAPI (@0)
; protected: class <void *,struct Empty> &__thiscall <void *,struct Empty>::Data(void)const 
?Data@?$SafeMap_Iterator@PAXUEmpty@@@@IBEAAV?$STLMap@PAXUEmpty@@@@XZ ; has WINAPI (@0)
; protected: class <struct PluginKey,unsigned long> &__thiscall <struct PluginKey,unsigned long>::Data(void)const 
?Data@?$SafeMap_Iterator@UPluginKey@@K@@IBEAAV?$STLMap@UPluginKey@@K@@XZ ; has WINAPI (@0)
; protected: class <struct UserKey,class BlockedRecord *> &__thiscall <struct UserKey,class BlockedRecord *>::Data(void)const 
?Data@?$SafeMap_Iterator@UUserKey@@PAVBlockedRecord@@@@IBEAAV?$STLMap@UUserKey@@PAVBlockedRecord@@@@XZ ; has WINAPI (@0)
; protected: class <class CertThumbprintKey,class CServiceConfigSettings::CertThumbprintMappedSet> &__thiscall <class CertThumbprintKey,class CServiceConfigSettings::CertThumbprintMappedSet>::Data(void)const 
?Data@?$SafeMap_Iterator@VCertThumbprintKey@@VCertThumbprintMappedSet@CServiceConfigSettings@@@@IBEAAV?$STLMap@VCertThumbprintKey@@VCertThumbprintMappedSet@CServiceConfigSettings@@@@XZ ; has WINAPI (@0)
; protected: class <class Locale::Key,unsigned long> &__thiscall <class Locale::Key,unsigned long>::Data(void)const 
?Data@?$SafeMap_Iterator@VKey@Locale@@K@@IBEAAV?$STLMap@VKey@Locale@@K@@XZ ; has WINAPI (@0)
; protected: class <class StringKeyCI,unsigned long> &__thiscall <class StringKeyCI,unsigned long>::Data(void)const 
?Data@?$SafeMap_Iterator@VStringKeyCI@@K@@IBEAAV?$STLMap@VStringKeyCI@@K@@XZ ; has WINAPI (@0)
; protected: class <class StringKeyCI,struct WSManHttpListener::USER_CONTEXT_INFO> &__thiscall <class StringKeyCI,struct WSManHttpListener::USER_CONTEXT_INFO>::Data(void)const 
?Data@?$SafeMap_Iterator@VStringKeyCI@@UUSER_CONTEXT_INFO@WSManHttpListener@@@@IBEAAV?$STLMap@VStringKeyCI@@UUSER_CONTEXT_INFO@WSManHttpListener@@@@XZ ; has WINAPI (@0)
; protected: class <class StringKeyStore,class ExpiredOperationIdRecord *> &__thiscall <class StringKeyStore,class ExpiredOperationIdRecord *>::Data(void)const 
?Data@?$SafeMap_Iterator@VStringKeyStore@@PAVExpiredOperationIdRecord@@@@IBEAAV?$STLMap@VStringKeyStore@@PAVExpiredOperationIdRecord@@@@XZ ; has WINAPI (@0)
; protected: class <class StringKeyStore,class ServerFullDuplexChannel *> &__thiscall <class StringKeyStore,class ServerFullDuplexChannel *>::Data(void)const 
?Data@?$SafeMap_Iterator@VStringKeyStore@@PAVServerFullDuplexChannel@@@@IBEAAV?$STLMap@VStringKeyStore@@PAVServerFullDuplexChannel@@@@XZ ; has WINAPI (@0)
; protected: class <enum WSManSessionOption,class WSMan::Client::SessionOptions::OptionValue *> &__thiscall <enum WSManSessionOption,class WSMan::Client::SessionOptions::OptionValue *>::Data(void)const 
?Data@?$SafeMap_Iterator@W4WSManSessionOption@@PAVOptionValue@SessionOptions@Client@WSMan@@@@IBEAAV?$STLMap@W4WSManSessionOption@@PAVOptionValue@SessionOptions@Client@WSMan@@@@XZ ; has WINAPI (@0)
; protected: class <unsigned __int64,class RobustConnectionBuffer::SendPacketArgs *> &__thiscall <unsigned __int64,class RobustConnectionBuffer::SendPacketArgs *>::Data(void)const 
?Data@?$SafeMap_Iterator@_KPAVSendPacketArgs@RobustConnectionBuffer@@@@IBEAAV?$STLMap@_KPAVSendPacketArgs@RobustConnectionBuffer@@@@XZ ; has WINAPI (@0)
; public: virtual bool __thiscall <class CCertMapping *,struct Empty,class <class CCertMapping *,struct Empty>>::DeInitialize(class IRequestContext &)
?DeInitialize@?$SafeMap@PAVCCertMapping@@UEmpty@@V?$SafeMap_Iterator@PAVCCertMapping@@UEmpty@@@@@@UAE_NAAVIRequestContext@@@Z ; has WINAPI (@4)
; public: virtual bool __thiscall <class CCertMapping *,struct Empty,class <class CCertMapping *>>::DeInitialize(class IRequestContext &)
?DeInitialize@?$SafeMap@PAVCCertMapping@@UEmpty@@V?$SafeSet_Iterator@PAVCCertMapping@@@@@@UAE_NAAVIRequestContext@@@Z ; has WINAPI (@4)
; public: virtual bool __thiscall <class CListenerConnect *,class CListenerConnect *,class <class CListenerConnect *,class CListenerConnect *>>::DeInitialize(class IRequestContext &)
?DeInitialize@?$SafeMap@PAVCListenerConnect@@PAV1@V?$SafeMap_Iterator@PAVCListenerConnect@@PAV1@@@@@UAE_NAAVIRequestContext@@@Z ; has WINAPI (@4)
; public: virtual bool __thiscall <class CListenerOperation *,struct Empty,class <class CListenerOperation *,struct Empty>>::DeInitialize(class IRequestContext &)
?DeInitialize@?$SafeMap@PAVCListenerOperation@@UEmpty@@V?$SafeMap_Iterator@PAVCListenerOperation@@UEmpty@@@@@@UAE_NAAVIRequestContext@@@Z ; has WINAPI (@4)
; public: virtual bool __thiscall <class CListenerOperation *,struct Empty,class <class CListenerOperation *>>::DeInitialize(class IRequestContext &)
?DeInitialize@?$SafeMap@PAVCListenerOperation@@UEmpty@@V?$SafeSet_Iterator@PAVCListenerOperation@@@@@@UAE_NAAVIRequestContext@@@Z ; has WINAPI (@4)
; public: virtual bool __thiscall <class CListenerReceive *,class CListenerReceive *,class <class CListenerReceive *,class CListenerReceive *>>::DeInitialize(class IRequestContext &)
?DeInitialize@?$SafeMap@PAVCListenerReceive@@PAV1@V?$SafeMap_Iterator@PAVCListenerReceive@@PAV1@@@@@UAE_NAAVIRequestContext@@@Z ; has WINAPI (@4)
; public: virtual bool __thiscall <class CListenerSend *,class CListenerSend *,class <class CListenerSend *,class CListenerSend *>>::DeInitialize(class IRequestContext &)
?DeInitialize@?$SafeMap@PAVCListenerSend@@PAV1@V?$SafeMap_Iterator@PAVCListenerSend@@PAV1@@@@@UAE_NAAVIRequestContext@@@Z ; has WINAPI (@4)
; public: virtual bool __thiscall <class CListenerSignal *,class CListenerSignal *,class <class CListenerSignal *,class CListenerSignal *>>::DeInitialize(class IRequestContext &)
?DeInitialize@?$SafeMap@PAVCListenerSignal@@PAV1@V?$SafeMap_Iterator@PAVCListenerSignal@@PAV1@@@@@UAE_NAAVIRequestContext@@@Z ; has WINAPI (@4)
; public: virtual bool __thiscall <class CShellUriSettings *,struct Empty,class <class CShellUriSettings *>>::DeInitialize(class IRequestContext &)
?DeInitialize@?$SafeMap@PAVCShellUriSettings@@UEmpty@@V?$SafeSet_Iterator@PAVCShellUriSettings@@@@@@UAE_NAAVIRequestContext@@@Z ; has WINAPI (@4)
; public: virtual bool __thiscall <class Collector *,struct Empty,class <class Collector *,struct Empty>>::DeInitialize(class IRequestContext &)
?DeInitialize@?$SafeMap@PAVCollector@@UEmpty@@V?$SafeMap_Iterator@PAVCollector@@UEmpty@@@@@@UAE_NAAVIRequestContext@@@Z ; has WINAPI (@4)
; public: virtual bool __thiscall <class Collector *,struct Empty,class <class Collector *>>::DeInitialize(class IRequestContext &)
?DeInitialize@?$SafeMap@PAVCollector@@UEmpty@@V?$SafeSet_Iterator@PAVCollector@@@@@@UAE_NAAVIRequestContext@@@Z ; has WINAPI (@4)
; public: virtual bool __thiscall <class HostOperation *,struct Empty,class <class HostOperation *,struct Empty>>::DeInitialize(class IRequestContext &)
?DeInitialize@?$SafeMap@PAVHostOperation@@UEmpty@@V?$SafeMap_Iterator@PAVHostOperation@@UEmpty@@@@@@UAE_NAAVIRequestContext@@@Z ; has WINAPI (@4)
; public: virtual bool __thiscall <class HostOperation *,struct Empty,class <class HostOperation *>>::DeInitialize(class IRequestContext &)
?DeInitialize@?$SafeMap@PAVHostOperation@@UEmpty@@V?$SafeSet_Iterator@PAVHostOperation@@@@@@UAE_NAAVIRequestContext@@@Z ; has WINAPI (@4)
; public: virtual bool __thiscall <class IOperation *,struct Empty,class <class IOperation *,struct Empty>>::DeInitialize(class IRequestContext &)
?DeInitialize@?$SafeMap@PAVIOperation@@UEmpty@@V?$SafeMap_Iterator@PAVIOperation@@UEmpty@@@@@@UAE_NAAVIRequestContext@@@Z ; has WINAPI (@4)
; public: virtual bool __thiscall <class IOperation *,struct Empty,class <class IOperation *>>::DeInitialize(class IRequestContext &)
?DeInitialize@?$SafeMap@PAVIOperation@@UEmpty@@V?$SafeSet_Iterator@PAVIOperation@@@@@@UAE_NAAVIRequestContext@@@Z ; has WINAPI (@4)
; public: virtual bool __thiscall <class ListenerSourceSubscription *,struct Empty,class <class ListenerSourceSubscription *,struct Empty>>::DeInitialize(class IRequestContext &)
?DeInitialize@?$SafeMap@PAVListenerSourceSubscription@@UEmpty@@V?$SafeMap_Iterator@PAVListenerSourceSubscription@@UEmpty@@@@@@UAE_NAAVIRequestContext@@@Z ; has WINAPI (@4)
; public: virtual bool __thiscall <class ListenerSourceSubscription *,struct Empty,class <class ListenerSourceSubscription *>>::DeInitialize(class IRequestContext &)
?DeInitialize@?$SafeMap@PAVListenerSourceSubscription@@UEmpty@@V?$SafeSet_Iterator@PAVListenerSourceSubscription@@@@@@UAE_NAAVIRequestContext@@@Z ; has WINAPI (@4)
; public: virtual bool __thiscall <class PushSubscription *,struct Empty,class <class PushSubscription *,struct Empty>>::DeInitialize(class IRequestContext &)
?DeInitialize@?$SafeMap@PAVPushSubscription@@UEmpty@@V?$SafeMap_Iterator@PAVPushSubscription@@UEmpty@@@@@@UAE_NAAVIRequestContext@@@Z ; has WINAPI (@4)
; public: virtual bool __thiscall <class PushSubscription *,struct Empty,class <class PushSubscription *>>::DeInitialize(class IRequestContext &)
?DeInitialize@?$SafeMap@PAVPushSubscription@@UEmpty@@V?$SafeSet_Iterator@PAVPushSubscription@@@@@@UAE_NAAVIRequestContext@@@Z ; has WINAPI (@4)
; public: virtual bool __thiscall <void *,struct Empty,class <void *>>::DeInitialize(class IRequestContext &)
?DeInitialize@?$SafeMap@PAXUEmpty@@V?$SafeSet_Iterator@PAX@@@@UAE_NAAVIRequestContext@@@Z ; has WINAPI (@4)
; public: virtual bool __thiscall <struct PluginKey,unsigned long,class <struct PluginKey,unsigned long>>::DeInitialize(class IRequestContext &)
?DeInitialize@?$SafeMap@UPluginKey@@KV?$SafeMap_Iterator@UPluginKey@@K@@@@UAE_NAAVIRequestContext@@@Z ; has WINAPI (@4)
; public: virtual bool __thiscall <struct UserKey,class BlockedRecord *,class <struct UserKey,class BlockedRecord *>>::DeInitialize(class IRequestContext &)
?DeInitialize@?$SafeMap@UUserKey@@PAVBlockedRecord@@V?$SafeMap_Iterator@UUserKey@@PAVBlockedRecord@@@@@@UAE_NAAVIRequestContext@@@Z ; has WINAPI (@4)
; public: virtual bool __thiscall <class CertThumbprintKey,class CServiceConfigSettings::CertThumbprintMappedSet,class <class CertThumbprintKey,class CServiceConfigSettings::CertThumbprintMappedSet>>::DeInitialize(class IRequestContext &)
?DeInitialize@?$SafeMap@VCertThumbprintKey@@VCertThumbprintMappedSet@CServiceConfigSettings@@V?$SafeMap_Iterator@VCertThumbprintKey@@VCertThumbprintMappedSet@CServiceConfigSettings@@@@@@UAE_NAAVIRequestContext@@@Z ; has WINAPI (@4)
; public: virtual bool __thiscall <class GuidKey,class CListenerCommand *,class <class GuidKey,class CListenerCommand *>>::DeInitialize(class IRequestContext &)
?DeInitialize@?$SafeMap@VGuidKey@@PAVCListenerCommand@@V?$SafeMap_Iterator@VGuidKey@@PAVCListenerCommand@@@@@@UAE_NAAVIRequestContext@@@Z ; has WINAPI (@4)
; public: virtual bool __thiscall <class CWmiPtrCache::Key,class CWmiPtrCache::Mapping,class <class CWmiPtrCache::Key,class CWmiPtrCache::Mapping>>::DeInitialize(class IRequestContext &)
?DeInitialize@?$SafeMap@VKey@CWmiPtrCache@@VMapping@2@V?$SafeMap_Iterator@VKey@CWmiPtrCache@@VMapping@2@@@@@UAE_NAAVIRequestContext@@@Z ; has WINAPI (@4)
; public: virtual bool __thiscall <class Locale::Key,unsigned long,class <class Locale::Key,unsigned long>>::DeInitialize(class IRequestContext &)
?DeInitialize@?$SafeMap@VKey@Locale@@KV?$SafeMap_Iterator@VKey@Locale@@K@@@@UAE_NAAVIRequestContext@@@Z ; has WINAPI (@4)
; public: virtual bool __thiscall <class StringKey,class ListenerEvents *,class <class StringKey,class ListenerEvents *>>::DeInitialize(class IRequestContext &)
?DeInitialize@?$SafeMap@VStringKey@@PAVListenerEvents@@V?$SafeMap_Iterator@VStringKey@@PAVListenerEvents@@@@@@UAE_NAAVIRequestContext@@@Z ; has WINAPI (@4)
; public: virtual bool __thiscall <class StringKey,class ListenerSourceSubscription *,class <class StringKey,class ListenerSourceSubscription *>>::DeInitialize(class IRequestContext &)
?DeInitialize@?$SafeMap@VStringKey@@PAVListenerSourceSubscription@@V?$SafeMap_Iterator@VStringKey@@PAVListenerSourceSubscription@@@@@@UAE_NAAVIRequestContext@@@Z ; has WINAPI (@4)
; public: virtual bool __thiscall <class StringKey,struct WinRM_OperationOptions::Option,class <class StringKey,struct WinRM_OperationOptions::Option>>::DeInitialize(class IRequestContext &)
?DeInitialize@?$SafeMap@VStringKey@@UOption@WinRM_OperationOptions@@V?$SafeMap_Iterator@VStringKey@@UOption@WinRM_OperationOptions@@@@@@UAE_NAAVIRequestContext@@@Z ; has WINAPI (@4)
; public: virtual bool __thiscall <class StringKeyCI,unsigned long,class <class StringKeyCI,unsigned long>>::DeInitialize(class IRequestContext &)
?DeInitialize@?$SafeMap@VStringKeyCI@@KV?$SafeMap_Iterator@VStringKeyCI@@K@@@@UAE_NAAVIRequestContext@@@Z ; has WINAPI (@4)
; public: virtual bool __thiscall <class StringKeyCI,class IISEndpoint *,class <class StringKeyCI,class IISEndpoint *>>::DeInitialize(class IRequestContext &)
?DeInitialize@?$SafeMap@VStringKeyCI@@PAVIISEndpoint@@V?$SafeMap_Iterator@VStringKeyCI@@PAVIISEndpoint@@@@@@UAE_NAAVIRequestContext@@@Z ; has WINAPI (@4)
; public: virtual bool __thiscall <class StringKeyCI,struct Empty,class <class StringKeyCI,struct Empty>>::DeInitialize(class IRequestContext &)
?DeInitialize@?$SafeMap@VStringKeyCI@@UEmpty@@V?$SafeMap_Iterator@VStringKeyCI@@UEmpty@@@@@@UAE_NAAVIRequestContext@@@Z ; has WINAPI (@4)
; public: virtual bool __thiscall <class StringKeyCI,struct Empty,class <class StringKeyCI>>::DeInitialize(class IRequestContext &)
?DeInitialize@?$SafeMap@VStringKeyCI@@UEmpty@@V?$SafeSet_Iterator@VStringKeyCI@@@@@@UAE_NAAVIRequestContext@@@Z ; has WINAPI (@4)
; public: virtual bool __thiscall <class StringKeyCI,struct WSManHttpListener::USER_CONTEXT_INFO,class <class StringKeyCI,struct WSManHttpListener::USER_CONTEXT_INFO>>::DeInitialize(class IRequestContext &)
?DeInitialize@?$SafeMap@VStringKeyCI@@UUSER_CONTEXT_INFO@WSManHttpListener@@V?$SafeMap_Iterator@VStringKeyCI@@UUSER_CONTEXT_INFO@WSManHttpListener@@@@@@UAE_NAAVIRequestContext@@@Z ; has WINAPI (@4)
; public: virtual bool __thiscall <class StringKeyStore,class ExpiredOperationIdRecord *,class <class StringKeyStore,class ExpiredOperationIdRecord *>>::DeInitialize(class IRequestContext &)
?DeInitialize@?$SafeMap@VStringKeyStore@@PAVExpiredOperationIdRecord@@V?$SafeMap_Iterator@VStringKeyStore@@PAVExpiredOperationIdRecord@@@@@@UAE_NAAVIRequestContext@@@Z ; has WINAPI (@4)
; public: virtual bool __thiscall <class StringKeyStore,class ServerFullDuplexChannel *,class <class StringKeyStore,class ServerFullDuplexChannel *>>::DeInitialize(class IRequestContext &)
?DeInitialize@?$SafeMap@VStringKeyStore@@PAVServerFullDuplexChannel@@V?$SafeMap_Iterator@VStringKeyStore@@PAVServerFullDuplexChannel@@@@@@UAE_NAAVIRequestContext@@@Z ; has WINAPI (@4)
; public: virtual bool __thiscall <class ServiceSoapProcessor::TokenCacheKey,class ServiceSoapProcessor::TokenCacheMapping,class <class ServiceSoapProcessor::TokenCacheKey,class ServiceSoapProcessor::TokenCacheMapping>>::DeInitialize(class IRequestContext &)
?DeInitialize@?$SafeMap@VTokenCacheKey@ServiceSoapProcessor@@VTokenCacheMapping@2@V?$SafeMap_Iterator@VTokenCacheKey@ServiceSoapProcessor@@VTokenCacheMapping@2@@@@@UAE_NAAVIRequestContext@@@Z ; has WINAPI (@4)
; public: virtual bool __thiscall <enum WSManSessionOption,class WSMan::Client::SessionOptions::OptionValue *,class <enum WSManSessionOption,class WSMan::Client::SessionOptions::OptionValue *>>::DeInitialize(class IRequestContext &)
?DeInitialize@?$SafeMap@W4WSManSessionOption@@PAVOptionValue@SessionOptions@Client@WSMan@@V?$SafeMap_Iterator@W4WSManSessionOption@@PAVOptionValue@SessionOptions@Client@WSMan@@@@@@UAE_NAAVIRequestContext@@@Z ; has WINAPI (@4)
; public: virtual bool __thiscall <unsigned __int64,class RobustConnectionBuffer::SendPacketArgs *,class <unsigned __int64,class RobustConnectionBuffer::SendPacketArgs *>>::DeInitialize(class IRequestContext &)
?DeInitialize@?$SafeMap@_KPAVSendPacketArgs@RobustConnectionBuffer@@V?$SafeMap_Iterator@_KPAVSendPacketArgs@RobustConnectionBuffer@@@@@@UAE_NAAVIRequestContext@@@Z ; has WINAPI (@4)
; private: int __thiscall CWSManGroupPolicyManager::DeInitialize(void)
?DeInitialize@CWSManGroupPolicyManager@@AAEHXZ ; has WINAPI (@0)
; public: bool __thiscall WSMan::EventHandler::DeInitialize(class IRequestContext &)
?DeInitialize@EventHandler@WSMan@@QAE_NAAVIRequestContext@@@Z ; has WINAPI (@4)
; public: static unsigned long const ExtendedSemantic::Debug
?Debug@ExtendedSemantic@@2KB ; has WINAPI (@0)
; public: unsigned long __thiscall PacketFormatter::Decode(class Packet **)const 
?Decode@PacketFormatter@@QBEKPAPAVPacket@@@Z ; has WINAPI (@4)
; private: unsigned long __thiscall CRequestContext::DecodeFaultObject(struct _FWXML_ELEMENT *,unsigned short const *&,unsigned short const *&,unsigned short const *&)
?DecodeFaultObject@CRequestContext@@AAEKPAU_FWXML_ELEMENT@@AAPBG11@Z ; has WINAPI (@16)
; private: unsigned long __thiscall CRequestContext::DecodeFaultObject(unsigned short const *,unsigned long,unsigned short const *&,unsigned short const *&,unsigned short const *&)
?DecodeFaultObject@CRequestContext@@AAEKPBGKAAPBG11@Z ; has WINAPI (@20)
; private: unsigned long __thiscall CRequestContext::DecodeFaultObjectProvider(struct _FWXML_ELEMENT *,unsigned short const *&,unsigned short const *&)
