;
; Definition file of bitsperf.dll
; Automatic generated by gendef
; written by Kai Tietz 2008
;
LIBRARY "bitsperf.dll"
EXPORTS
; public: __cdecl CPerfMon::CPerfMon(unsigned short *__ptr64,struct CPerfMon::_PERF_ITEM *__ptr64)__ptr64 
??0CPerfMon@@QEAA@PEAGPEAU_PERF_ITEM@0@@Z
; public: __cdecl CPerfMon::~CPerfMon(void)__ptr64 
??1CPerfMon@@QEAA@XZ
; public: class CPerfMon &__ptr64 __cdecl CPerfMon::operator =(class CPerfMon const &__ptr64 )__ptr64 
??4CPerfMon@@QEAAAEAV0@AEBV0@@Z
; private: unsigned long __cdecl CPerfMon::CalcBytesForPerfObject(struct CPerfMon::__OBJECT_ORD *__ptr64)const __ptr64 
?CalcBytesForPerfObject@CPerfMon@@AEBAKPEAU__OBJECT_ORD@1@@Z
; private: void __cdecl CPerfMon::CalcPerfMetrics(struct CPerfMon::__OBJECT_ORD *__ptr64,struct CPerfMon::__INSTANCE_ID *__ptr64,struct CPerfMon::_PERF_METRICS *__ptr64,struct CPerfMon::_PERF_ITEM *__ptr64 *__ptr64)const __ptr64 
?CalcPerfMetrics@CPerfMon@@AEBAXPEAU__OBJECT_ORD@1@PEAU__INSTANCE_ID@1@PEAU_PERF_METRICS@1@PEAPEAU_PERF_ITEM@1@@Z
; public: unsigned long __cdecl CPerfMon::Collect(unsigned short *__ptr64,unsigned char *__ptr64 *__ptr64,unsigned long *__ptr64,unsigned long *__ptr64)__ptr64 
?Collect@CPerfMon@@QEAAKPEAGPEAPEAEPEAK2@Z
; private: unsigned long __cdecl CPerfMon::CollectAllObjects(unsigned short *__ptr64,unsigned char *__ptr64 *__ptr64,unsigned long *__ptr64,unsigned long *__ptr64)const __ptr64 
?CollectAllObjects@CPerfMon@@AEBAKPEAGPEAPEAEPEAK2@Z
; private: unsigned long __cdecl CPerfMon::CollectAnObject(struct CPerfMon::__OBJECT_ORD *__ptr64,unsigned char *__ptr64 *__ptr64)const __ptr64 
?CollectAnObject@CPerfMon@@AEBAKPEAU__OBJECT_ORD@1@PEAPEAE@Z
; private: int __cdecl CPerfMon::ConvertInstIdToInUseInstId(struct CPerfMon::__OBJECT_ORD *__ptr64,struct CPerfMon::__INSTANCE_ID *__ptr64)const __ptr64 
?ConvertInstIdToInUseInstId@CPerfMon@@AEBAHPEAU__OBJECT_ORD@1@PEAU__INSTANCE_ID@1@@Z
; private: struct CPerfMon::__OBJECT_ORD *__ptr64 __cdecl CPerfMon::CounterIdToObjectOrd(struct CPerfMon::__COUNTER_ID *__ptr64,int *__ptr64)const __ptr64 
?CounterIdToObjectOrd@CPerfMon@@AEBAPEAU__OBJECT_ORD@1@PEAU__COUNTER_ID@1@PEAH@Z
; private: struct CPerfMon::_PERF_ITEM *__ptr64 __cdecl CPerfMon::CounterIdToPerfItem(struct CPerfMon::__COUNTER_ID *__ptr64)const __ptr64 
?CounterIdToPerfItem@CPerfMon@@AEBAPEAU_PERF_ITEM@1@PEAU__COUNTER_ID@1@@Z
; private: int __cdecl CPerfMon::CounterIdToPerfItemIndex(struct CPerfMon::__COUNTER_ID *__ptr64,int *__ptr64)const __ptr64 
?CounterIdToPerfItemIndex@CPerfMon@@AEBAHPEAU__COUNTER_ID@1@PEAH@Z
; private: struct CPerfMon::_PERF_ITEM *__ptr64 __cdecl CPerfMon::CounterOrdToPerfItem(struct CPerfMon::__OBJECT_ORD *__ptr64,struct CPerfMon::__COUNTER_ORD *__ptr64)const __ptr64 
?CounterOrdToPerfItem@CPerfMon@@AEBAPEAU_PERF_ITEM@1@PEAU__OBJECT_ORD@1@PEAU__COUNTER_ORD@1@@Z
; private: void __cdecl CPerfMon::DetermineObjectsToCollect(struct CPerfMon::__OBJECT_ORD *__ptr64)const __ptr64 
?DetermineObjectsToCollect@CPerfMon@@AEBAXPEAU__OBJECT_ORD@1@@Z
; public: long *__ptr64 __cdecl CPerfMon::GetCounter32(struct CPerfMon::__COUNTER_ID *__ptr64,struct CPerfMon::__INSTANCE_ID *__ptr64)__ptr64 
?GetCounter32@CPerfMon@@QEAAPEAJPEAU__COUNTER_ID@1@PEAU__INSTANCE_ID@1@@Z
; public: __int64 *__ptr64 __cdecl CPerfMon::GetCounter64(struct CPerfMon::__COUNTER_ID *__ptr64,struct CPerfMon::__INSTANCE_ID *__ptr64)__ptr64 
?GetCounter64@CPerfMon@@QEAAPEA_JPEAU__COUNTER_ID@1@PEAU__INSTANCE_ID@1@@Z
; private: unsigned char *__ptr64 __cdecl CPerfMon::GetCounter(struct CPerfMon::__COUNTER_ID *__ptr64,struct CPerfMon::__INSTANCE_ID *__ptr64)__ptr64 
?GetCounter@CPerfMon@@AEAAPEAEPEAU__COUNTER_ID@1@PEAU__INSTANCE_ID@1@@Z
; private: int __cdecl CPerfMon::HowManyInstancesAreInUse(struct CPerfMon::__OBJECT_ORD *__ptr64)const __ptr64 
?HowManyInstancesAreInUse@CPerfMon@@AEBAHPEAU__OBJECT_ORD@1@@Z
; private: int __cdecl CPerfMon::IdToPerfItemIndex(int,unsigned __int64)const __ptr64 
?IdToPerfItemIndex@CPerfMon@@AEBAHH_K@Z
; public: unsigned long __cdecl CPerfMon::Initialize(int)__ptr64 
?Initialize@CPerfMon@@QEAAKH@Z
; private: unsigned long __cdecl CPerfMon::InitializePerfMon(int)__ptr64 
?InitializePerfMon@CPerfMon@@AEAAKH@Z
; private: int __cdecl CPerfMon::IsValidInstId(struct CPerfMon::__OBJECT_ORD *__ptr64,struct CPerfMon::__INSTANCE_ID *__ptr64)const __ptr64 
?IsValidInstId@CPerfMon@@AEBAHPEAU__OBJECT_ORD@1@PEAU__INSTANCE_ID@1@@Z
; private: int __cdecl CPerfMon::IsValidObjOrd(struct CPerfMon::__OBJECT_ORD *__ptr64)const __ptr64 
?IsValidObjOrd@CPerfMon@@AEBAHPEAU__OBJECT_ORD@1@@Z
; private: struct CPerfMon::__OBJECT_ORD *__ptr64 __cdecl CPerfMon::ObjectIdToObjectOrd(struct CPerfMon::__OBJECT_ID *__ptr64)const __ptr64 
?ObjectIdToObjectOrd@CPerfMon@@AEBAPEAU__OBJECT_ORD@1@PEAU__OBJECT_ID@1@@Z
; private: struct CPerfMon::_PERF_ITEM *__ptr64 __cdecl CPerfMon::ObjectIdToPerfItem(struct CPerfMon::__OBJECT_ID *__ptr64)const __ptr64 
?ObjectIdToPerfItem@CPerfMon@@AEBAPEAU_PERF_ITEM@1@PEAU__OBJECT_ID@1@@Z
; private: int __cdecl CPerfMon::ObjectIdToPerfItemIndex(struct CPerfMon::__OBJECT_ID *__ptr64)const __ptr64 
?ObjectIdToPerfItemIndex@CPerfMon@@AEBAHPEAU__OBJECT_ID@1@@Z
; private: struct CPerfMon::_PERF_ITEM *__ptr64 __cdecl CPerfMon::ObjectOrdToPerfItem(struct CPerfMon::__OBJECT_ORD *__ptr64)const __ptr64 
?ObjectOrdToPerfItem@CPerfMon@@AEBAPEAU_PERF_ITEM@1@PEAU__OBJECT_ORD@1@@Z
; private: int __cdecl CPerfMon::ObjectOrdToPerfItemIndex(struct CPerfMon::__OBJECT_ORD *__ptr64)const __ptr64 
?ObjectOrdToPerfItemIndex@CPerfMon@@AEBAHPEAU__OBJECT_ORD@1@@Z
; private: unsigned long __cdecl CPerfMon::VerifyPerfItemTable(void)__ptr64 
?VerifyPerfItemTable@CPerfMon@@AEAAKXZ
PerfMon_Close
PerfMon_Collect
PerfMon_Open
