;
; Definition file of msvcp60.dll
; Automatic generated by gendef
; written by Kai Tietz 2008
;
LIBRARY "msvcp60.dll"
EXPORTS
; class std::<char,struct std::<char>> &__ptr64 __cdecl std::<char,struct std::<char>>(class std::<char,struct std::<char>> &__ptr64 ,signed char &__ptr64 )
??$?5DU?$char_traits@D@std@@@std@@YAAEAV?$basic_istream@DU?$char_traits@D@std@@@0@AEAV10@AEAC@Z
; class std::<char,struct std::<char>> &__ptr64 __cdecl std::<char,struct std::<char>>(class std::<char,struct std::<char>> &__ptr64 ,char &__ptr64 )
??$?5DU?$char_traits@D@std@@@std@@YAAEAV?$basic_istream@DU?$char_traits@D@std@@@0@AEAV10@AEAD@Z
; class std::<char,struct std::<char>> &__ptr64 __cdecl std::<char,struct std::<char>>(class std::<char,struct std::<char>> &__ptr64 ,unsigned char &__ptr64 )
??$?5DU?$char_traits@D@std@@@std@@YAAEAV?$basic_istream@DU?$char_traits@D@std@@@0@AEAV10@AEAE@Z
; class std::<char,struct std::<char>> &__ptr64 __cdecl std::<char,struct std::<char>>(class std::<char,struct std::<char>> &__ptr64 ,signed char *__ptr64)
??$?5DU?$char_traits@D@std@@@std@@YAAEAV?$basic_istream@DU?$char_traits@D@std@@@0@AEAV10@PEAC@Z
; class std::<char,struct std::<char>> &__ptr64 __cdecl std::<char,struct std::<char>>(class std::<char,struct std::<char>> &__ptr64 ,char *__ptr64)
??$?5DU?$char_traits@D@std@@@std@@YAAEAV?$basic_istream@DU?$char_traits@D@std@@@0@AEAV10@PEAD@Z
; class std::<char,struct std::<char>> &__ptr64 __cdecl std::<char,struct std::<char>>(class std::<char,struct std::<char>> &__ptr64 ,unsigned char *__ptr64)
??$?5DU?$char_traits@D@std@@@std@@YAAEAV?$basic_istream@DU?$char_traits@D@std@@@0@AEAV10@PEAE@Z
; class std::<char,struct std::<char>> &__ptr64 __cdecl std::<char,struct std::<char>,float>(class std::<char,struct std::<char>> &__ptr64 ,class std::<float> &__ptr64 )
??$?5DU?$char_traits@D@std@@M@std@@YAAEAV?$basic_istream@DU?$char_traits@D@std@@@0@AEAV10@AEAV?$complex@M@0@@Z
; class std::<char,struct std::<char>> &__ptr64 __cdecl std::<char,struct std::<char>,double>(class std::<char,struct std::<char>> &__ptr64 ,class std::<double> &__ptr64 )
??$?5DU?$char_traits@D@std@@N@std@@YAAEAV?$basic_istream@DU?$char_traits@D@std@@@0@AEAV10@AEAV?$complex@N@0@@Z
; class std::<char,struct std::<char>> &__ptr64 __cdecl std::<char,struct std::<char>,long double>(class std::<char,struct std::<char>> &__ptr64 ,class std::<long double> &__ptr64 )
??$?5DU?$char_traits@D@std@@O@std@@YAAEAV?$basic_istream@DU?$char_traits@D@std@@@0@AEAV10@AEAV?$complex@O@0@@Z
; class std::<char,struct std::<char>> &__ptr64 __cdecl std::<char,struct std::<char>,class std::<char>>(class std::<char,struct std::<char>> &__ptr64 ,class std::<char,struct std::<char>,class std::<char>> &__ptr64 )
??$?5DU?$char_traits@D@std@@V?$allocator@D@1@@std@@YAAEAV?$basic_istream@DU?$char_traits@D@std@@@0@AEAV10@AEAV?$basic_string@DU?$char_traits@D@std@@V?$allocator@D@2@@0@@Z
; class std::<unsigned short,struct std::<unsigned short>> &__ptr64 __cdecl std::<unsigned short,struct std::<unsigned short>>(class std::<unsigned short,struct std::<unsigned short>> &__ptr64 ,unsigned short &__ptr64 )
??$?5GU?$char_traits@G@std@@@std@@YAAEAV?$basic_istream@GU?$char_traits@G@std@@@0@AEAV10@AEAG@Z
; class std::<unsigned short,struct std::<unsigned short>> &__ptr64 __cdecl std::<unsigned short,struct std::<unsigned short>>(class std::<unsigned short,struct std::<unsigned short>> &__ptr64 ,short *__ptr64)
??$?5GU?$char_traits@G@std@@@std@@YAAEAV?$basic_istream@GU?$char_traits@G@std@@@0@AEAV10@PEAF@Z
; class std::<unsigned short,struct std::<unsigned short>> &__ptr64 __cdecl std::<unsigned short,struct std::<unsigned short>>(class std::<unsigned short,struct std::<unsigned short>> &__ptr64 ,unsigned short *__ptr64)
??$?5GU?$char_traits@G@std@@@std@@YAAEAV?$basic_istream@GU?$char_traits@G@std@@@0@AEAV10@PEAG@Z
; class std::<unsigned short,struct std::<unsigned short>> &__ptr64 __cdecl std::<unsigned short,struct std::<unsigned short>,float>(class std::<unsigned short,struct std::<unsigned short>> &__ptr64 ,class std::<float> &__ptr64 )
??$?5GU?$char_traits@G@std@@M@std@@YAAEAV?$basic_istream@GU?$char_traits@G@std@@@0@AEAV10@AEAV?$complex@M@0@@Z
; class std::<unsigned short,struct std::<unsigned short>> &__ptr64 __cdecl std::<unsigned short,struct std::<unsigned short>,double>(class std::<unsigned short,struct std::<unsigned short>> &__ptr64 ,class std::<double> &__ptr64 )
??$?5GU?$char_traits@G@std@@N@std@@YAAEAV?$basic_istream@GU?$char_traits@G@std@@@0@AEAV10@AEAV?$complex@N@0@@Z
; class std::<unsigned short,struct std::<unsigned short>> &__ptr64 __cdecl std::<unsigned short,struct std::<unsigned short>,long double>(class std::<unsigned short,struct std::<unsigned short>> &__ptr64 ,class std::<long double> &__ptr64 )
??$?5GU?$char_traits@G@std@@O@std@@YAAEAV?$basic_istream@GU?$char_traits@G@std@@@0@AEAV10@AEAV?$complex@O@0@@Z
; class std::<unsigned short,struct std::<unsigned short>> &__ptr64 __cdecl std::<unsigned short,struct std::<unsigned short>,class std::<unsigned short>>(class std::<unsigned short,struct std::<unsigned short>> &__ptr64 ,class std::<unsigned short,struct std::<unsigned short>,class std::<unsigned short>> &__ptr64 )
??$?5GU?$char_traits@G@std@@V?$allocator@G@1@@std@@YAAEAV?$basic_istream@GU?$char_traits@G@std@@@0@AEAV10@AEAV?$basic_string@GU?$char_traits@G@std@@V?$allocator@G@2@@0@@Z
; class std::<char,struct std::<char>> &__ptr64 __cdecl std::<char,struct std::<char>>(class std::<char,struct std::<char>> &__ptr64 ,signed char)
??$?6DU?$char_traits@D@std@@@std@@YAAEAV?$basic_ostream@DU?$char_traits@D@std@@@0@AEAV10@C@Z
; class std::<char,struct std::<char>> &__ptr64 __cdecl std::<char,struct std::<char>>(class std::<char,struct std::<char>> &__ptr64 ,char)
??$?6DU?$char_traits@D@std@@@std@@YAAEAV?$basic_ostream@DU?$char_traits@D@std@@@0@AEAV10@D@Z
; class std::<char,struct std::<char>> &__ptr64 __cdecl std::<char,struct std::<char>>(class std::<char,struct std::<char>> &__ptr64 ,unsigned char)
??$?6DU?$char_traits@D@std@@@std@@YAAEAV?$basic_ostream@DU?$char_traits@D@std@@@0@AEAV10@E@Z
; class std::<char,struct std::<char>> &__ptr64 __cdecl std::<char,struct std::<char>>(class std::<char,struct std::<char>> &__ptr64 ,signed char const *__ptr64)
??$?6DU?$char_traits@D@std@@@std@@YAAEAV?$basic_ostream@DU?$char_traits@D@std@@@0@AEAV10@PEBC@Z
; class std::<char,struct std::<char>> &__ptr64 __cdecl std::<char,struct std::<char>>(class std::<char,struct std::<char>> &__ptr64 ,char const *__ptr64)
??$?6DU?$char_traits@D@std@@@std@@YAAEAV?$basic_ostream@DU?$char_traits@D@std@@@0@AEAV10@PEBD@Z
; class std::<char,struct std::<char>> &__ptr64 __cdecl std::<char,struct std::<char>>(class std::<char,struct std::<char>> &__ptr64 ,unsigned char const *__ptr64)
??$?6DU?$char_traits@D@std@@@std@@YAAEAV?$basic_ostream@DU?$char_traits@D@std@@@0@AEAV10@PEBE@Z
; class std::<char,struct std::<char>> &__ptr64 __cdecl std::<char,struct std::<char>,float>(class std::<char,struct std::<char>> &__ptr64 ,class std::<float> const &__ptr64 )
??$?6DU?$char_traits@D@std@@M@std@@YAAEAV?$basic_ostream@DU?$char_traits@D@std@@@0@AEAV10@AEBV?$complex@M@0@@Z
; class std::<char,struct std::<char>> &__ptr64 __cdecl std::<char,struct std::<char>,double>(class std::<char,struct std::<char>> &__ptr64 ,class std::<double> const &__ptr64 )
??$?6DU?$char_traits@D@std@@N@std@@YAAEAV?$basic_ostream@DU?$char_traits@D@std@@@0@AEAV10@AEBV?$complex@N@0@@Z
; class std::<char,struct std::<char>> &__ptr64 __cdecl std::<char,struct std::<char>,long double>(class std::<char,struct std::<char>> &__ptr64 ,class std::<long double> const &__ptr64 )
??$?6DU?$char_traits@D@std@@O@std@@YAAEAV?$basic_ostream@DU?$char_traits@D@std@@@0@AEAV10@AEBV?$complex@O@0@@Z
; class std::<char,struct std::<char>> &__ptr64 __cdecl std::<char,struct std::<char>,class std::<char>>(class std::<char,struct std::<char>> &__ptr64 ,class std::<char,struct std::<char>,class std::<char>> const &__ptr64 )
??$?6DU?$char_traits@D@std@@V?$allocator@D@1@@std@@YAAEAV?$basic_ostream@DU?$char_traits@D@std@@@0@AEAV10@AEBV?$basic_string@DU?$char_traits@D@std@@V?$allocator@D@2@@0@@Z
; class std::<unsigned short,struct std::<unsigned short>> &__ptr64 __cdecl std::<unsigned short,struct std::<unsigned short>>(class std::<unsigned short,struct std::<unsigned short>> &__ptr64 ,unsigned short)
??$?6GU?$char_traits@G@std@@@std@@YAAEAV?$basic_ostream@GU?$char_traits@G@std@@@0@AEAV10@G@Z
; class std::<unsigned short,struct std::<unsigned short>> &__ptr64 __cdecl std::<unsigned short,struct std::<unsigned short>>(class std::<unsigned short,struct std::<unsigned short>> &__ptr64 ,short const *__ptr64)
??$?6GU?$char_traits@G@std@@@std@@YAAEAV?$basic_ostream@GU?$char_traits@G@std@@@0@AEAV10@PEBF@Z
; class std::<unsigned short,struct std::<unsigned short>> &__ptr64 __cdecl std::<unsigned short,struct std::<unsigned short>>(class std::<unsigned short,struct std::<unsigned short>> &__ptr64 ,unsigned short const *__ptr64)
??$?6GU?$char_traits@G@std@@@std@@YAAEAV?$basic_ostream@GU?$char_traits@G@std@@@0@AEAV10@PEBG@Z
; class std::<unsigned short,struct std::<unsigned short>> &__ptr64 __cdecl std::<unsigned short,struct std::<unsigned short>,float>(class std::<unsigned short,struct std::<unsigned short>> &__ptr64 ,class std::<float> const &__ptr64 )
??$?6GU?$char_traits@G@std@@M@std@@YAAEAV?$basic_ostream@GU?$char_traits@G@std@@@0@AEAV10@AEBV?$complex@M@0@@Z
; class std::<unsigned short,struct std::<unsigned short>> &__ptr64 __cdecl std::<unsigned short,struct std::<unsigned short>,double>(class std::<unsigned short,struct std::<unsigned short>> &__ptr64 ,class std::<double> const &__ptr64 )
??$?6GU?$char_traits@G@std@@N@std@@YAAEAV?$basic_ostream@GU?$char_traits@G@std@@@0@AEAV10@AEBV?$complex@N@0@@Z
; class std::<unsigned short,struct std::<unsigned short>> &__ptr64 __cdecl std::<unsigned short,struct std::<unsigned short>,long double>(class std::<unsigned short,struct std::<unsigned short>> &__ptr64 ,class std::<long double> const &__ptr64 )
??$?6GU?$char_traits@G@std@@O@std@@YAAEAV?$basic_ostream@GU?$char_traits@G@std@@@0@AEAV10@AEBV?$complex@O@0@@Z
; class std::<unsigned short,struct std::<unsigned short>> &__ptr64 __cdecl std::<unsigned short,struct std::<unsigned short>,class std::<unsigned short>>(class std::<unsigned short,struct std::<unsigned short>> &__ptr64 ,class std::<unsigned short,struct std::<unsigned short>,class std::<unsigned short>> const &__ptr64 )
??$?6GU?$char_traits@G@std@@V?$allocator@G@1@@std@@YAAEAV?$basic_ostream@GU?$char_traits@G@std@@@0@AEAV10@AEBV?$basic_string@GU?$char_traits@G@std@@V?$allocator@G@2@@0@@Z
; bool __cdecl std::<char,struct std::<char>,class std::<char>>(class std::<char,struct std::<char>,class std::<char>> const &__ptr64 ,class std::<char,struct std::<char>,class std::<char>> const &__ptr64 )
??$?8DU?$char_traits@D@std@@V?$allocator@D@1@@std@@YA_NAEBV?$basic_string@DU?$char_traits@D@std@@V?$allocator@D@2@@0@0@Z
; bool __cdecl std::<char,struct std::<char>,class std::<char>>(class std::<char,struct std::<char>,class std::<char>> const &__ptr64 ,char const *__ptr64)
??$?8DU?$char_traits@D@std@@V?$allocator@D@1@@std@@YA_NAEBV?$basic_string@DU?$char_traits@D@std@@V?$allocator@D@2@@0@PEBD@Z
; bool __cdecl std::<char,struct std::<char>,class std::<char>>(char const *__ptr64,class std::<char,struct std::<char>,class std::<char>> const &__ptr64 )
??$?8DU?$char_traits@D@std@@V?$allocator@D@1@@std@@YA_NPEBDAEBV?$basic_string@DU?$char_traits@D@std@@V?$allocator@D@2@@0@@Z
; bool __cdecl std::<unsigned short,struct std::<unsigned short>,class std::<unsigned short>>(class std::<unsigned short,struct std::<unsigned short>,class std::<unsigned short>> const &__ptr64 ,class std::<unsigned short,struct std::<unsigned short>,class std::<unsigned short>> const &__ptr64 )
??$?8GU?$char_traits@G@std@@V?$allocator@G@1@@std@@YA_NAEBV?$basic_string@GU?$char_traits@G@std@@V?$allocator@G@2@@0@0@Z
; bool __cdecl std::<unsigned short,struct std::<unsigned short>,class std::<unsigned short>>(class std::<unsigned short,struct std::<unsigned short>,class std::<unsigned short>> const &__ptr64 ,unsigned short const *__ptr64)
??$?8GU?$char_traits@G@std@@V?$allocator@G@1@@std@@YA_NAEBV?$basic_string@GU?$char_traits@G@std@@V?$allocator@G@2@@0@PEBG@Z
; bool __cdecl std::<unsigned short,struct std::<unsigned short>,class std::<unsigned short>>(unsigned short const *__ptr64,class std::<unsigned short,struct std::<unsigned short>,class std::<unsigned short>> const &__ptr64 )
??$?8GU?$char_traits@G@std@@V?$allocator@G@1@@std@@YA_NPEBGAEBV?$basic_string@GU?$char_traits@G@std@@V?$allocator@G@2@@0@@Z
; bool __cdecl std::<float>(float const &__ptr64 ,class std::<float> const &__ptr64 )
??$?8M@std@@YA_NAEBMAEBV?$complex@M@0@@Z
; bool __cdecl std::<float>(class std::<float> const &__ptr64 ,class std::<float> const &__ptr64 )
??$?8M@std@@YA_NAEBV?$complex@M@0@0@Z
; bool __cdecl std::<float>(class std::<float> const &__ptr64 ,float const &__ptr64 )
??$?8M@std@@YA_NAEBV?$complex@M@0@AEBM@Z
; bool __cdecl std::<double>(double const &__ptr64 ,class std::<double> const &__ptr64 )
??$?8N@std@@YA_NAEBNAEBV?$complex@N@0@@Z
; bool __cdecl std::<double>(class std::<double> const &__ptr64 ,class std::<double> const &__ptr64 )
??$?8N@std@@YA_NAEBV?$complex@N@0@0@Z
; bool __cdecl std::<double>(class std::<double> const &__ptr64 ,double const &__ptr64 )
??$?8N@std@@YA_NAEBV?$complex@N@0@AEBN@Z
; bool __cdecl std::<long double>(long double const &__ptr64 ,class std::<long double> const &__ptr64 )
??$?8O@std@@YA_NAEBOAEBV?$complex@O@0@@Z
; bool __cdecl std::<long double>(class std::<long double> const &__ptr64 ,class std::<long double> const &__ptr64 )
??$?8O@std@@YA_NAEBV?$complex@O@0@0@Z
; bool __cdecl std::<long double>(class std::<long double> const &__ptr64 ,long double const &__ptr64 )
??$?8O@std@@YA_NAEBV?$complex@O@0@AEBO@Z
; bool __cdecl std::<char,struct std::<char>,class std::<char>>(class std::<char,struct std::<char>,class std::<char>> const &__ptr64 ,class std::<char,struct std::<char>,class std::<char>> const &__ptr64 )
??$?9DU?$char_traits@D@std@@V?$allocator@D@1@@std@@YA_NAEBV?$basic_string@DU?$char_traits@D@std@@V?$allocator@D@2@@0@0@Z
; bool __cdecl std::<char,struct std::<char>,class std::<char>>(class std::<char,struct std::<char>,class std::<char>> const &__ptr64 ,char const *__ptr64)
??$?9DU?$char_traits@D@std@@V?$allocator@D@1@@std@@YA_NAEBV?$basic_string@DU?$char_traits@D@std@@V?$allocator@D@2@@0@PEBD@Z
; bool __cdecl std::<char,struct std::<char>,class std::<char>>(char const *__ptr64,class std::<char,struct std::<char>,class std::<char>> const &__ptr64 )
??$?9DU?$char_traits@D@std@@V?$allocator@D@1@@std@@YA_NPEBDAEBV?$basic_string@DU?$char_traits@D@std@@V?$allocator@D@2@@0@@Z
; bool __cdecl std::<unsigned short,struct std::<unsigned short>,class std::<unsigned short>>(class std::<unsigned short,struct std::<unsigned short>,class std::<unsigned short>> const &__ptr64 ,class std::<unsigned short,struct std::<unsigned short>,class std::<unsigned short>> const &__ptr64 )
??$?9GU?$char_traits@G@std@@V?$allocator@G@1@@std@@YA_NAEBV?$basic_string@GU?$char_traits@G@std@@V?$allocator@G@2@@0@0@Z
; bool __cdecl std::<unsigned short,struct std::<unsigned short>,class std::<unsigned short>>(class std::<unsigned short,struct std::<unsigned short>,class std::<unsigned short>> const &__ptr64 ,unsigned short const *__ptr64)
??$?9GU?$char_traits@G@std@@V?$allocator@G@1@@std@@YA_NAEBV?$basic_string@GU?$char_traits@G@std@@V?$allocator@G@2@@0@PEBG@Z
; bool __cdecl std::<unsigned short,struct std::<unsigned short>,class std::<unsigned short>>(unsigned short const *__ptr64,class std::<unsigned short,struct std::<unsigned short>,class std::<unsigned short>> const &__ptr64 )
??$?9GU?$char_traits@G@std@@V?$allocator@G@1@@std@@YA_NPEBGAEBV?$basic_string@GU?$char_traits@G@std@@V?$allocator@G@2@@0@@Z
; bool __cdecl std::<float>(float const &__ptr64 ,class std::<float> const &__ptr64 )
??$?9M@std@@YA_NAEBMAEBV?$complex@M@0@@Z
; bool __cdecl std::<float>(class std::<float> const &__ptr64 ,class std::<float> const &__ptr64 )
??$?9M@std@@YA_NAEBV?$complex@M@0@0@Z
; bool __cdecl std::<float>(class std::<float> const &__ptr64 ,float const &__ptr64 )
??$?9M@std@@YA_NAEBV?$complex@M@0@AEBM@Z
; bool __cdecl std::<double>(double const &__ptr64 ,class std::<double> const &__ptr64 )
??$?9N@std@@YA_NAEBNAEBV?$complex@N@0@@Z
; bool __cdecl std::<double>(class std::<double> const &__ptr64 ,class std::<double> const &__ptr64 )
??$?9N@std@@YA_NAEBV?$complex@N@0@0@Z
; bool __cdecl std::<double>(class std::<double> const &__ptr64 ,double const &__ptr64 )
??$?9N@std@@YA_NAEBV?$complex@N@0@AEBN@Z
; bool __cdecl std::<long double>(long double const &__ptr64 ,class std::<long double> const &__ptr64 )
??$?9O@std@@YA_NAEBOAEBV?$complex@O@0@@Z
; bool __cdecl std::<long double>(class std::<long double> const &__ptr64 ,class std::<long double> const &__ptr64 )
??$?9O@std@@YA_NAEBV?$complex@O@0@0@Z
; bool __cdecl std::<long double>(class std::<long double> const &__ptr64 ,long double const &__ptr64 )
??$?9O@std@@YA_NAEBV?$complex@O@0@AEBO@Z
; class std::<float> __cdecl std::<float>(float const &__ptr64 ,class std::<float> const &__ptr64 )
??$?DM@std@@YA?AV?$complex@M@0@AEBMAEBV10@@Z
; class std::<float> __cdecl std::<float>(class std::<float> const &__ptr64 ,class std::<float> const &__ptr64 )
??$?DM@std@@YA?AV?$complex@M@0@AEBV10@0@Z
; class std::<float> __cdecl std::<float>(class std::<float> const &__ptr64 ,float const &__ptr64 )
??$?DM@std@@YA?AV?$complex@M@0@AEBV10@AEBM@Z
; class std::<double> __cdecl std::<double>(double const &__ptr64 ,class std::<double> const &__ptr64 )
??$?DN@std@@YA?AV?$complex@N@0@AEBNAEBV10@@Z
; class std::<double> __cdecl std::<double>(class std::<double> const &__ptr64 ,class std::<double> const &__ptr64 )
??$?DN@std@@YA?AV?$complex@N@0@AEBV10@0@Z
; class std::<double> __cdecl std::<double>(class std::<double> const &__ptr64 ,double const &__ptr64 )
??$?DN@std@@YA?AV?$complex@N@0@AEBV10@AEBN@Z
; class std::<long double> __cdecl std::<long double>(long double const &__ptr64 ,class std::<long double> const &__ptr64 )
??$?DO@std@@YA?AV?$complex@O@0@AEBOAEBV10@@Z
; class std::<long double> __cdecl std::<long double>(class std::<long double> const &__ptr64 ,class std::<long double> const &__ptr64 )
??$?DO@std@@YA?AV?$complex@O@0@AEBV10@0@Z
; class std::<long double> __cdecl std::<long double>(class std::<long double> const &__ptr64 ,long double const &__ptr64 )
??$?DO@std@@YA?AV?$complex@O@0@AEBV10@AEBO@Z
; class std::<float> __cdecl std::<float>(float const &__ptr64 ,class std::<float> const &__ptr64 )
??$?GM@std@@YA?AV?$complex@M@0@AEBMAEBV10@@Z
; class std::<float> __cdecl std::<float>(class std::<float> const &__ptr64 ,class std::<float> const &__ptr64 )
??$?GM@std@@YA?AV?$complex@M@0@AEBV10@0@Z
; class std::<float> __cdecl std::<float>(class std::<float> const &__ptr64 )
??$?GM@std@@YA?AV?$complex@M@0@AEBV10@@Z
; class std::<float> __cdecl std::<float>(class std::<float> const &__ptr64 ,float const &__ptr64 )
??$?GM@std@@YA?AV?$complex@M@0@AEBV10@AEBM@Z
; class std::<double> __cdecl std::<double>(double const &__ptr64 ,class std::<double> const &__ptr64 )
??$?GN@std@@YA?AV?$complex@N@0@AEBNAEBV10@@Z
; class std::<double> __cdecl std::<double>(class std::<double> const &__ptr64 ,class std::<double> const &__ptr64 )
??$?GN@std@@YA?AV?$complex@N@0@AEBV10@0@Z
; class std::<double> __cdecl std::<double>(class std::<double> const &__ptr64 )
??$?GN@std@@YA?AV?$complex@N@0@AEBV10@@Z
; class std::<double> __cdecl std::<double>(class std::<double> const &__ptr64 ,double const &__ptr64 )
??$?GN@std@@YA?AV?$complex@N@0@AEBV10@AEBN@Z
; class std::<long double> __cdecl std::<long double>(long double const &__ptr64 ,class std::<long double> const &__ptr64 )
??$?GO@std@@YA?AV?$complex@O@0@AEBOAEBV10@@Z
; class std::<long double> __cdecl std::<long double>(class std::<long double> const &__ptr64 ,class std::<long double> const &__ptr64 )
??$?GO@std@@YA?AV?$complex@O@0@AEBV10@0@Z
; class std::<long double> __cdecl std::<long double>(class std::<long double> const &__ptr64 )
??$?GO@std@@YA?AV?$complex@O@0@AEBV10@@Z
; class std::<long double> __cdecl std::<long double>(class std::<long double> const &__ptr64 ,long double const &__ptr64 )
??$?GO@std@@YA?AV?$complex@O@0@AEBV10@AEBO@Z
; class std::<char,struct std::<char>,class std::<char>> __cdecl std::<char,struct std::<char>,class std::<char>>(class std::<char,struct std::<char>,class std::<char>> const &__ptr64 ,class std::<char,struct std::<char>,class std::<char>> const &__ptr64 )
??$?HDU?$char_traits@D@std@@V?$allocator@D@1@@std@@YA?AV?$basic_string@DU?$char_traits@D@std@@V?$allocator@D@2@@0@AEBV10@0@Z
; class std::<char,struct std::<char>,class std::<char>> __cdecl std::<char,struct std::<char>,class std::<char>>(class std::<char,struct std::<char>,class std::<char>> const &__ptr64 ,char)
??$?HDU?$char_traits@D@std@@V?$allocator@D@1@@std@@YA?AV?$basic_string@DU?$char_traits@D@std@@V?$allocator@D@2@@0@AEBV10@D@Z
; class std::<char,struct std::<char>,class std::<char>> __cdecl std::<char,struct std::<char>,class std::<char>>(class std::<char,struct std::<char>,class std::<char>> const &__ptr64 ,char const *__ptr64)
??$?HDU?$char_traits@D@std@@V?$allocator@D@1@@std@@YA?AV?$basic_string@DU?$char_traits@D@std@@V?$allocator@D@2@@0@AEBV10@PEBD@Z
; class std::<char,struct std::<char>,class std::<char>> __cdecl std::<char,struct std::<char>,class std::<char>>(char,class std::<char,struct std::<char>,class std::<char>> const &__ptr64 )
??$?HDU?$char_traits@D@std@@V?$allocator@D@1@@std@@YA?AV?$basic_string@DU?$char_traits@D@std@@V?$allocator@D@2@@0@DAEBV10@@Z
; class std::<char,struct std::<char>,class std::<char>> __cdecl std::<char,struct std::<char>,class std::<char>>(char const *__ptr64,class std::<char,struct std::<char>,class std::<char>> const &__ptr64 )
??$?HDU?$char_traits@D@std@@V?$allocator@D@1@@std@@YA?AV?$basic_string@DU?$char_traits@D@std@@V?$allocator@D@2@@0@PEBDAEBV10@@Z
; class std::<unsigned short,struct std::<unsigned short>,class std::<unsigned short>> __cdecl std::<unsigned short,struct std::<unsigned short>,class std::<unsigned short>>(class std::<unsigned short,struct std::<unsigned short>,class std::<unsigned short>> const &__ptr64 ,class std::<unsigned short,struct std::<unsigned short>,class std::<unsigned short>> const &__ptr64 )
??$?HGU?$char_traits@G@std@@V?$allocator@G@1@@std@@YA?AV?$basic_string@GU?$char_traits@G@std@@V?$allocator@G@2@@0@AEBV10@0@Z
; class std::<unsigned short,struct std::<unsigned short>,class std::<unsigned short>> __cdecl std::<unsigned short,struct std::<unsigned short>,class std::<unsigned short>>(class std::<unsigned short,struct std::<unsigned short>,class std::<unsigned short>> const &__ptr64 ,unsigned short)
??$?HGU?$char_traits@G@std@@V?$allocator@G@1@@std@@YA?AV?$basic_string@GU?$char_traits@G@std@@V?$allocator@G@2@@0@AEBV10@G@Z
; class std::<unsigned short,struct std::<unsigned short>,class std::<unsigned short>> __cdecl std::<unsigned short,struct std::<unsigned short>,class std::<unsigned short>>(class std::<unsigned short,struct std::<unsigned short>,class std::<unsigned short>> const &__ptr64 ,unsigned short const *__ptr64)
??$?HGU?$char_traits@G@std@@V?$allocator@G@1@@std@@YA?AV?$basic_string@GU?$char_traits@G@std@@V?$allocator@G@2@@0@AEBV10@PEBG@Z
; class std::<unsigned short,struct std::<unsigned short>,class std::<unsigned short>> __cdecl std::<unsigned short,struct std::<unsigned short>,class std::<unsigned short>>(unsigned short,class std::<unsigned short,struct std::<unsigned short>,class std::<unsigned short>> const &__ptr64 )
??$?HGU?$char_traits@G@std@@V?$allocator@G@1@@std@@YA?AV?$basic_string@GU?$char_traits@G@std@@V?$allocator@G@2@@0@GAEBV10@@Z
; class std::<unsigned short,struct std::<unsigned short>,class std::<unsigned short>> __cdecl std::<unsigned short,struct std::<unsigned short>,class std::<unsigned short>>(unsigned short const *__ptr64,class std::<unsigned short,struct std::<unsigned short>,class std::<unsigned short>> const &__ptr64 )
??$?HGU?$char_traits@G@std@@V?$allocator@G@1@@std@@YA?AV?$basic_string@GU?$char_traits@G@std@@V?$allocator@G@2@@0@PEBGAEBV10@@Z
; class std::<float> __cdecl std::<float>(float const &__ptr64 ,class std::<float> const &__ptr64 )
??$?HM@std@@YA?AV?$complex@M@0@AEBMAEBV10@@Z
; class std::<float> __cdecl std::<float>(class std::<float> const &__ptr64 ,class std::<float> const &__ptr64 )
??$?HM@std@@YA?AV?$complex@M@0@AEBV10@0@Z
; class std::<float> __cdecl std::<float>(class std::<float> const &__ptr64 )
??$?HM@std@@YA?AV?$complex@M@0@AEBV10@@Z
; class std::<float> __cdecl std::<float>(class std::<float> const &__ptr64 ,float const &__ptr64 )
??$?HM@std@@YA?AV?$complex@M@0@AEBV10@AEBM@Z
; class std::<double> __cdecl std::<double>(double const &__ptr64 ,class std::<double> const &__ptr64 )
??$?HN@std@@YA?AV?$complex@N@0@AEBNAEBV10@@Z
; class std::<double> __cdecl std::<double>(class std::<double> const &__ptr64 ,class std::<double> const &__ptr64 )
??$?HN@std@@YA?AV?$complex@N@0@AEBV10@0@Z
; class std::<double> __cdecl std::<double>(class std::<double> const &__ptr64 )
??$?HN@std@@YA?AV?$complex@N@0@AEBV10@@Z
; class std::<double> __cdecl std::<double>(class std::<double> const &__ptr64 ,double const &__ptr64 )
??$?HN@std@@YA?AV?$complex@N@0@AEBV10@AEBN@Z
; class std::<long double> __cdecl std::<long double>(long double const &__ptr64 ,class std::<long double> const &__ptr64 )
??$?HO@std@@YA?AV?$complex@O@0@AEBOAEBV10@@Z
; class std::<long double> __cdecl std::<long double>(class std::<long double> const &__ptr64 ,class std::<long double> const &__ptr64 )
??$?HO@std@@YA?AV?$complex@O@0@AEBV10@0@Z
; class std::<long double> __cdecl std::<long double>(class std::<long double> const &__ptr64 )
??$?HO@std@@YA?AV?$complex@O@0@AEBV10@@Z
; class std::<long double> __cdecl std::<long double>(class std::<long double> const &__ptr64 ,long double const &__ptr64 )
??$?HO@std@@YA?AV?$complex@O@0@AEBV10@AEBO@Z
; class std::<float> __cdecl std::<float>(float const &__ptr64 ,class std::<float> const &__ptr64 )
??$?KM@std@@YA?AV?$complex@M@0@AEBMAEBV10@@Z
; class std::<float> __cdecl std::<float>(class std::<float> const &__ptr64 ,class std::<float> const &__ptr64 )
??$?KM@std@@YA?AV?$complex@M@0@AEBV10@0@Z
; class std::<float> __cdecl std::<float>(class std::<float> const &__ptr64 ,float const &__ptr64 )
??$?KM@std@@YA?AV?$complex@M@0@AEBV10@AEBM@Z
; class std::<double> __cdecl std::<double>(double const &__ptr64 ,class std::<double> const &__ptr64 )
??$?KN@std@@YA?AV?$complex@N@0@AEBNAEBV10@@Z
; class std::<double> __cdecl std::<double>(class std::<double> const &__ptr64 ,class std::<double> const &__ptr64 )
??$?KN@std@@YA?AV?$complex@N@0@AEBV10@0@Z
; class std::<double> __cdecl std::<double>(class std::<double> const &__ptr64 ,double const &__ptr64 )
??$?KN@std@@YA?AV?$complex@N@0@AEBV10@AEBN@Z
; class std::<long double> __cdecl std::<long double>(long double const &__ptr64 ,class std::<long double> const &__ptr64 )
??$?KO@std@@YA?AV?$complex@O@0@AEBOAEBV10@@Z
; class std::<long double> __cdecl std::<long double>(class std::<long double> const &__ptr64 ,class std::<long double> const &__ptr64 )
??$?KO@std@@YA?AV?$complex@O@0@AEBV10@0@Z
; class std::<long double> __cdecl std::<long double>(class std::<long double> const &__ptr64 ,long double const &__ptr64 )
??$?KO@std@@YA?AV?$complex@O@0@AEBV10@AEBO@Z
; bool __cdecl std::<char,struct std::<char>,class std::<char>>(class std::<char,struct std::<char>,class std::<char>> const &__ptr64 ,class std::<char,struct std::<char>,class std::<char>> const &__ptr64 )
??$?MDU?$char_traits@D@std@@V?$allocator@D@1@@std@@YA_NAEBV?$basic_string@DU?$char_traits@D@std@@V?$allocator@D@2@@0@0@Z
; bool __cdecl std::<char,struct std::<char>,class std::<char>>(class std::<char,struct std::<char>,class std::<char>> const &__ptr64 ,char const *__ptr64)
??$?MDU?$char_traits@D@std@@V?$allocator@D@1@@std@@YA_NAEBV?$basic_string@DU?$char_traits@D@std@@V?$allocator@D@2@@0@PEBD@Z
; bool __cdecl std::<char,struct std::<char>,class std::<char>>(char const *__ptr64,class std::<char,struct std::<char>,class std::<char>> const &__ptr64 )
??$?MDU?$char_traits@D@std@@V?$allocator@D@1@@std@@YA_NPEBDAEBV?$basic_string@DU?$char_traits@D@std@@V?$allocator@D@2@@0@@Z
; bool __cdecl std::<unsigned short,struct std::<unsigned short>,class std::<unsigned short>>(class std::<unsigned short,struct std::<unsigned short>,class std::<unsigned short>> const &__ptr64 ,class std::<unsigned short,struct std::<unsigned short>,class std::<unsigned short>> const &__ptr64 )
??$?MGU?$char_traits@G@std@@V?$allocator@G@1@@std@@YA_NAEBV?$basic_string@GU?$char_traits@G@std@@V?$allocator@G@2@@0@0@Z
; bool __cdecl std::<unsigned short,struct std::<unsigned short>,class std::<unsigned short>>(class std::<unsigned short,struct std::<unsigned short>,class std::<unsigned short>> const &__ptr64 ,unsigned short const *__ptr64)
??$?MGU?$char_traits@G@std@@V?$allocator@G@1@@std@@YA_NAEBV?$basic_string@GU?$char_traits@G@std@@V?$allocator@G@2@@0@PEBG@Z
; bool __cdecl std::<unsigned short,struct std::<unsigned short>,class std::<unsigned short>>(unsigned short const *__ptr64,class std::<unsigned short,struct std::<unsigned short>,class std::<unsigned short>> const &__ptr64 )
??$?MGU?$char_traits@G@std@@V?$allocator@G@1@@std@@YA_NPEBGAEBV?$basic_string@GU?$char_traits@G@std@@V?$allocator@G@2@@0@@Z
; bool __cdecl std::<char,struct std::<char>,class std::<char>>(class std::<char,struct std::<char>,class std::<char>> const &__ptr64 ,class std::<char,struct std::<char>,class std::<char>> const &__ptr64 )
??$?NDU?$char_traits@D@std@@V?$allocator@D@1@@std@@YA_NAEBV?$basic_string@DU?$char_traits@D@std@@V?$allocator@D@2@@0@0@Z
; bool __cdecl std::<char,struct std::<char>,class std::<char>>(class std::<char,struct std::<char>,class std::<char>> const &__ptr64 ,char const *__ptr64)
??$?NDU?$char_traits@D@std@@V?$allocator@D@1@@std@@YA_NAEBV?$basic_string@DU?$char_traits@D@std@@V?$allocator@D@2@@0@PEBD@Z
; bool __cdecl std::<char,struct std::<char>,class std::<char>>(char const *__ptr64,class std::<char,struct std::<char>,class std::<char>> const &__ptr64 )
??$?NDU?$char_traits@D@std@@V?$allocator@D@1@@std@@YA_NPEBDAEBV?$basic_string@DU?$char_traits@D@std@@V?$allocator@D@2@@0@@Z
; bool __cdecl std::<unsigned short,struct std::<unsigned short>,class std::<unsigned short>>(class std::<unsigned short,struct std::<unsigned short>,class std::<unsigned short>> const &__ptr64 ,class std::<unsigned short,struct std::<unsigned short>,class std::<unsigned short>> const &__ptr64 )
??$?NGU?$char_traits@G@std@@V?$allocator@G@1@@std@@YA_NAEBV?$basic_string@GU?$char_traits@G@std@@V?$allocator@G@2@@0@0@Z
; bool __cdecl std::<unsigned short,struct std::<unsigned short>,class std::<unsigned short>>(class std::<unsigned short,struct std::<unsigned short>,class std::<unsigned short>> const &__ptr64 ,unsigned short const *__ptr64)
??$?NGU?$char_traits@G@std@@V?$allocator@G@1@@std@@YA_NAEBV?$basic_string@GU?$char_traits@G@std@@V?$allocator@G@2@@0@PEBG@Z
; bool __cdecl std::<unsigned short,struct std::<unsigned short>,class std::<unsigned short>>(unsigned short const *__ptr64,class std::<unsigned short,struct std::<unsigned short>,class std::<unsigned short>> const &__ptr64 )
??$?NGU?$char_traits@G@std@@V?$allocator@G@1@@std@@YA_NPEBGAEBV?$basic_string@GU?$char_traits@G@std@@V?$allocator@G@2@@0@@Z
; bool __cdecl std::<char,struct std::<char>,class std::<char>>(class std::<char,struct std::<char>,class std::<char>> const &__ptr64 ,class std::<char,struct std::<char>,class std::<char>> const &__ptr64 )
??$?ODU?$char_traits@D@std@@V?$allocator@D@1@@std@@YA_NAEBV?$basic_string@DU?$char_traits@D@std@@V?$allocator@D@2@@0@0@Z
; bool __cdecl std::<char,struct std::<char>,class std::<char>>(class std::<char,struct std::<char>,class std::<char>> const &__ptr64 ,char const *__ptr64)
??$?ODU?$char_traits@D@std@@V?$allocator@D@1@@std@@YA_NAEBV?$basic_string@DU?$char_traits@D@std@@V?$allocator@D@2@@0@PEBD@Z
; bool __cdecl std::<char,struct std::<char>,class std::<char>>(char const *__ptr64,class std::<char,struct std::<char>,class std::<char>> const &__ptr64 )
??$?ODU?$char_traits@D@std@@V?$allocator@D@1@@std@@YA_NPEBDAEBV?$basic_string@DU?$char_traits@D@std@@V?$allocator@D@2@@0@@Z
; bool __cdecl std::<unsigned short,struct std::<unsigned short>,class std::<unsigned short>>(class std::<unsigned short,struct std::<unsigned short>,class std::<unsigned short>> const &__ptr64 ,class std::<unsigned short,struct std::<unsigned short>,class std::<unsigned short>> const &__ptr64 )
??$?OGU?$char_traits@G@std@@V?$allocator@G@1@@std@@YA_NAEBV?$basic_string@GU?$char_traits@G@std@@V?$allocator@G@2@@0@0@Z
; bool __cdecl std::<unsigned short,struct std::<unsigned short>,class std::<unsigned short>>(class std::<unsigned short,struct std::<unsigned short>,class std::<unsigned short>> const &__ptr64 ,unsigned short const *__ptr64)
??$?OGU?$char_traits@G@std@@V?$allocator@G@1@@std@@YA_NAEBV?$basic_string@GU?$char_traits@G@std@@V?$allocator@G@2@@0@PEBG@Z
; bool __cdecl std::<unsigned short,struct std::<unsigned short>,class std::<unsigned short>>(unsigned short const *__ptr64,class std::<unsigned short,struct std::<unsigned short>,class std::<unsigned short>> const &__ptr64 )
??$?OGU?$char_traits@G@std@@V?$allocator@G@1@@std@@YA_NPEBGAEBV?$basic_string@GU?$char_traits@G@std@@V?$allocator@G@2@@0@@Z
; bool __cdecl std::<char,struct std::<char>,class std::<char>>(class std::<char,struct std::<char>,class std::<char>> const &__ptr64 ,class std::<char,struct std::<char>,class std::<char>> const &__ptr64 )
??$?PDU?$char_traits@D@std@@V?$allocator@D@1@@std@@YA_NAEBV?$basic_string@DU?$char_traits@D@std@@V?$allocator@D@2@@0@0@Z
; bool __cdecl std::<char,struct std::<char>,class std::<char>>(class std::<char,struct std::<char>,class std::<char>> const &__ptr64 ,char const *__ptr64)
??$?PDU?$char_traits@D@std@@V?$allocator@D@1@@std@@YA_NAEBV?$basic_string@DU?$char_traits@D@std@@V?$allocator@D@2@@0@PEBD@Z
; bool __cdecl std::<char,struct std::<char>,class std::<char>>(char const *__ptr64,class std::<char,struct std::<char>,class std::<char>> const &__ptr64 )
??$?PDU?$char_traits@D@std@@V?$allocator@D@1@@std@@YA_NPEBDAEBV?$basic_string@DU?$char_traits@D@std@@V?$allocator@D@2@@0@@Z
; bool __cdecl std::<unsigned short,struct std::<unsigned short>,class std::<unsigned short>>(class std::<unsigned short,struct std::<unsigned short>,class std::<unsigned short>> const &__ptr64 ,class std::<unsigned short,struct std::<unsigned short>,class std::<unsigned short>> const &__ptr64 )
??$?PGU?$char_traits@G@std@@V?$allocator@G@1@@std@@YA_NAEBV?$basic_string@GU?$char_traits@G@std@@V?$allocator@G@2@@0@0@Z
; bool __cdecl std::<unsigned short,struct std::<unsigned short>,class std::<unsigned short>>(class std::<unsigned short,struct std::<unsigned short>,class std::<unsigned short>> const &__ptr64 ,unsigned short const *__ptr64)
??$?PGU?$char_traits@G@std@@V?$allocator@G@1@@std@@YA_NAEBV?$basic_string@GU?$char_traits@G@std@@V?$allocator@G@2@@0@PEBG@Z
; bool __cdecl std::<unsigned short,struct std::<unsigned short>,class std::<unsigned short>>(unsigned short const *__ptr64,class std::<unsigned short,struct std::<unsigned short>,class std::<unsigned short>> const &__ptr64 )
??$?PGU?$char_traits@G@std@@V?$allocator@G@1@@std@@YA_NPEBGAEBV?$basic_string@GU?$char_traits@G@std@@V?$allocator@G@2@@0@@Z
; class std::<float> &__ptr64 __cdecl std::<float,float>(class std::<float> &__ptr64 ,class std::<float> const &__ptr64 )
??$?XMM@std@@YAAEAV?$complex@M@0@AEAV10@AEBV10@@Z
; class std::<double> &__ptr64 __cdecl std::<double,double>(class std::<double> &__ptr64 ,class std::<double> const &__ptr64 )
??$?XNN@std@@YAAEAV?$complex@N@0@AEAV10@AEBV10@@Z
; class std::<long double> &__ptr64 __cdecl std::<long double,long double>(class std::<long double> &__ptr64 ,class std::<long double> const &__ptr64 )
??$?XOO@std@@YAAEAV?$complex@O@0@AEAV10@AEBV10@@Z
; class std::<float> &__ptr64 __cdecl std::<float,float>(class std::<float> &__ptr64 ,class std::<float> const &__ptr64 )
??$?YMM@std@@YAAEAV?$complex@M@0@AEAV10@AEBV10@@Z
; class std::<double> &__ptr64 __cdecl std::<double,double>(class std::<double> &__ptr64 ,class std::<double> const &__ptr64 )
??$?YNN@std@@YAAEAV?$complex@N@0@AEAV10@AEBV10@@Z
; class std::<long double> &__ptr64 __cdecl std::<long double,long double>(class std::<long double> &__ptr64 ,class std::<long double> const &__ptr64 )
??$?YOO@std@@YAAEAV?$complex@O@0@AEAV10@AEBV10@@Z
; class std::<float> &__ptr64 __cdecl std::<float,float>(class std::<float> &__ptr64 ,class std::<float> const &__ptr64 )
??$?ZMM@std@@YAAEAV?$complex@M@0@AEAV10@AEBV10@@Z
; class std::<double> &__ptr64 __cdecl std::<double,double>(class std::<double> &__ptr64 ,class std::<double> const &__ptr64 )
??$?ZNN@std@@YAAEAV?$complex@N@0@AEAV10@AEBV10@@Z
; class std::<long double> &__ptr64 __cdecl std::<long double,long double>(class std::<long double> &__ptr64 ,class std::<long double> const &__ptr64 )
??$?ZOO@std@@YAAEAV?$complex@O@0@AEAV10@AEBV10@@Z
; class std::<float> &__ptr64 __cdecl std::<float,float>(class std::<float> &__ptr64 ,class std::<float> const &__ptr64 )
??$?_0MM@std@@YAAEAV?$complex@M@0@AEAV10@AEBV10@@Z
; class std::<double> &__ptr64 __cdecl std::<double,double>(class std::<double> &__ptr64 ,class std::<double> const &__ptr64 )
??$?_0NN@std@@YAAEAV?$complex@N@0@AEAV10@AEBV10@@Z
; class std::<long double> &__ptr64 __cdecl std::<long double,long double>(class std::<long double> &__ptr64 ,class std::<long double> const &__ptr64 )
??$?_0OO@std@@YAAEAV?$complex@O@0@AEAV10@AEBV10@@Z
; float __cdecl std::<float>(class std::<float> const &__ptr64 ,int *__ptr64)
??$_Fabs@M@std@@YAMAEBV?$complex@M@0@PEAH@Z
; float __cdecl std::<float>(class <float>::<float> const &__ptr64 ,int *__ptr64)
??$_Fabs@M@std@@YAMAEBV?$complex@M@1@PEAH@Z
; double __cdecl std::<double>(class std::<double> const &__ptr64 ,int *__ptr64)
??$_Fabs@N@std@@YANAEBV?$complex@N@0@PEAH@Z
; double __cdecl std::<double>(class <double>::<double> const &__ptr64 ,int *__ptr64)
??$_Fabs@N@std@@YANAEBV?$complex@N@1@PEAH@Z
; long double __cdecl std::<long double>(class std::<long double> const &__ptr64 ,int *__ptr64)
??$_Fabs@O@std@@YAOAEBV?$complex@O@0@PEAH@Z
; long double __cdecl std::<long double>(class <long double>::<long double> const &__ptr64 ,int *__ptr64)
??$_Fabs@O@std@@YAOAEBV?$complex@O@1@PEAH@Z
; float __cdecl std::<float>(class std::<float> const &__ptr64 )
??$abs@M@std@@YAMAEBV?$complex@M@0@@Z
; float __cdecl std::<float>(class <float>::<float> const &__ptr64 )
??$abs@M@std@@YAMAEBV?$complex@M@1@@Z
; double __cdecl std::<double>(class std::<double> const &__ptr64 )
??$abs@N@std@@YANAEBV?$complex@N@0@@Z
; double __cdecl std::<double>(class <double>::<double> const &__ptr64 )
??$abs@N@std@@YANAEBV?$complex@N@1@@Z
; long double __cdecl std::<long double>(class std::<long double> const &__ptr64 )
??$abs@O@std@@YAOAEBV?$complex@O@0@@Z
; long double __cdecl std::<long double>(class <long double>::<long double> const &__ptr64 )
??$abs@O@std@@YAOAEBV?$complex@O@1@@Z
; float __cdecl std::<float>(class std::<float> const &__ptr64 )
??$arg@M@std@@YAMAEBV?$complex@M@0@@Z
; float __cdecl std::<float>(class <float>::<float> const &__ptr64 )
??$arg@M@std@@YAMAEBV?$complex@M@1@@Z
; double __cdecl std::<double>(class std::<double> const &__ptr64 )
??$arg@N@std@@YANAEBV?$complex@N@0@@Z
; double __cdecl std::<double>(class <double>::<double> const &__ptr64 )
??$arg@N@std@@YANAEBV?$complex@N@1@@Z
; long double __cdecl std::<long double>(class std::<long double> const &__ptr64 )
??$arg@O@std@@YAOAEBV?$complex@O@0@@Z
; long double __cdecl std::<long double>(class <long double>::<long double> const &__ptr64 )
??$arg@O@std@@YAOAEBV?$complex@O@1@@Z
; class std::<float> __cdecl std::<float>(class std::<float> const &__ptr64 )
??$conj@M@std@@YA?AV?$complex@M@0@AEBV10@@Z
; class <float>::<float> __cdecl std::<float>(class const &__ptr64 ,)throw()
??$conj@M@std@@YA?AV?$complex@M@1@AEBV21@@Z
; class std::<double> __cdecl std::<double>(class std::<double> const &__ptr64 )
??$conj@N@std@@YA?AV?$complex@N@0@AEBV10@@Z
; class <double>::<double> __cdecl std::<double>(class const &__ptr64 ,)throw()
??$conj@N@std@@YA?AV?$complex@N@1@AEBV21@@Z
; class std::<long double> __cdecl std::<long double>(class std::<long double> const &__ptr64 )
??$conj@O@std@@YA?AV?$complex@O@0@AEBV10@@Z
; class <long double>::<long double> __cdecl std::<long double>(class const &__ptr64 ,)throw()
??$conj@O@std@@YA?AV?$complex@O@1@AEBV21@@Z
; class std::<float> __cdecl std::<float>(class std::<float> const &__ptr64 )
??$cos@M@std@@YA?AV?$complex@M@0@AEBV10@@Z
; class <float>::<float> __cdecl std::<float>(class const &__ptr64 ,)throw()
??$cos@M@std@@YA?AV?$complex@M@1@AEBV21@@Z
; class std::<double> __cdecl std::<double>(class std::<double> const &__ptr64 )
??$cos@N@std@@YA?AV?$complex@N@0@AEBV10@@Z
; class <double>::<double> __cdecl std::<double>(class const &__ptr64 ,)throw()
??$cos@N@std@@YA?AV?$complex@N@1@AEBV21@@Z
; class std::<long double> __cdecl std::<long double>(class std::<long double> const &__ptr64 )
??$cos@O@std@@YA?AV?$complex@O@0@AEBV10@@Z
; class <long double>::<long double> __cdecl std::<long double>(class const &__ptr64 ,)throw()
??$cos@O@std@@YA?AV?$complex@O@1@AEBV21@@Z
; class std::<float> __cdecl std::<float>(class std::<float> const &__ptr64 )
??$cosh@M@std@@YA?AV?$complex@M@0@AEBV10@@Z
; class <float>::<float> __cdecl std::<float>(class const &__ptr64 ,)throw()
??$cosh@M@std@@YA?AV?$complex@M@1@AEBV21@@Z
; class std::<double> __cdecl std::<double>(class std::<double> const &__ptr64 )
??$cosh@N@std@@YA?AV?$complex@N@0@AEBV10@@Z
; class <double>::<double> __cdecl std::<double>(class const &__ptr64 ,)throw()
??$cosh@N@std@@YA?AV?$complex@N@1@AEBV21@@Z
; class std::<long double> __cdecl std::<long double>(class std::<long double> const &__ptr64 )
??$cosh@O@std@@YA?AV?$complex@O@0@AEBV10@@Z
; class <long double>::<long double> __cdecl std::<long double>(class const &__ptr64 ,)throw()
??$cosh@O@std@@YA?AV?$complex@O@1@AEBV21@@Z
; class std::<float> __cdecl std::<float>(class std::<float> const &__ptr64 )
??$exp@M@std@@YA?AV?$complex@M@0@AEBV10@@Z
; class <float>::<float> __cdecl std::<float>(class const &__ptr64 ,)throw()
??$exp@M@std@@YA?AV?$complex@M@1@AEBV21@@Z
; class std::<double> __cdecl std::<double>(class std::<double> const &__ptr64 )
??$exp@N@std@@YA?AV?$complex@N@0@AEBV10@@Z
; class <double>::<double> __cdecl std::<double>(class const &__ptr64 ,)throw()
??$exp@N@std@@YA?AV?$complex@N@1@AEBV21@@Z
; class std::<long double> __cdecl std::<long double>(class std::<long double> const &__ptr64 )
??$exp@O@std@@YA?AV?$complex@O@0@AEBV10@@Z
; class <long double>::<long double> __cdecl std::<long double>(class const &__ptr64 ,)throw()
??$exp@O@std@@YA?AV?$complex@O@1@AEBV21@@Z
; class std::<char,struct std::<char>> &__ptr64 __cdecl std::<char,struct std::<char>,class std::<char>>(class std::<char,struct std::<char>> &__ptr64 ,class std::<char,struct std::<char>,class std::<char>> &__ptr64 )
??$getline@DU?$char_traits@D@std@@V?$allocator@D@2@@std@@YAAEAV?$basic_istream@DU?$char_traits@D@std@@@0@AEAV10@AEAV?$basic_string@DU?$char_traits@D@std@@V?$allocator@D@2@@0@@Z
; class std::<char,struct std::<char>> &__ptr64 __cdecl std::<char,struct std::<char>,class std::<char>>(class std::<char,struct std::<char>> &__ptr64 ,class std::<char,struct std::<char>,class std::<char>> &__ptr64 ,char)
??$getline@DU?$char_traits@D@std@@V?$allocator@D@2@@std@@YAAEAV?$basic_istream@DU?$char_traits@D@std@@@0@AEAV10@AEAV?$basic_string@DU?$char_traits@D@std@@V?$allocator@D@2@@0@D@Z
; class <char,struct std::<char>>::<char,struct std::<char>> &__ptr64 __cdecl std::<char,struct std::<char>,class std::<char>>(class &__ptr64 ,)throw(class <char,struct std::<char>>::<char,struct std::<char>,class std::<char>> &__ptr64 )
??$getline@DU?$char_traits@D@std@@V?$allocator@D@2@@std@@YAAEAV?$basic_istream@DU?$char_traits@D@std@@@1@AEAV21@AEAV?$basic_string@DU?$char_traits@D@std@@V?$allocator@D@2@@1@@Z
; class <char,struct std::<char>>::<char,struct std::<char>> &__ptr64 __cdecl std::<char,struct std::<char>,class std::<char>>(class &__ptr64 ,)throw(class <char,struct std::<char>>::<char,struct std::<char>,class std::<char>> &__ptr64 ,char)
??$getline@DU?$char_traits@D@std@@V?$allocator@D@2@@std@@YAAEAV?$basic_istream@DU?$char_traits@D@std@@@1@AEAV21@AEAV?$basic_string@DU?$char_traits@D@std@@V?$allocator@D@2@@1@D@Z
; class std::<unsigned short,struct std::<unsigned short>> &__ptr64 __cdecl std::<unsigned short,struct std::<unsigned short>,class std::<unsigned short>>(class std::<unsigned short,struct std::<unsigned short>> &__ptr64 ,class std::<unsigned short,struct std::<unsigned short>,class std::<unsigned short>> &__ptr64 )
??$getline@GU?$char_traits@G@std@@V?$allocator@G@2@@std@@YAAEAV?$basic_istream@GU?$char_traits@G@std@@@0@AEAV10@AEAV?$basic_string@GU?$char_traits@G@std@@V?$allocator@G@2@@0@@Z
; class std::<unsigned short,struct std::<unsigned short>> &__ptr64 __cdecl std::<unsigned short,struct std::<unsigned short>,class std::<unsigned short>>(class std::<unsigned short,struct std::<unsigned short>> &__ptr64 ,class std::<unsigned short,struct std::<unsigned short>,class std::<unsigned short>> &__ptr64 ,unsigned short)
??$getline@GU?$char_traits@G@std@@V?$allocator@G@2@@std@@YAAEAV?$basic_istream@GU?$char_traits@G@std@@@0@AEAV10@AEAV?$basic_string@GU?$char_traits@G@std@@V?$allocator@G@2@@0@G@Z
; class <unsigned short,struct std::<unsigned short>>::<unsigned short,struct std::<unsigned short>> &__ptr64 __cdecl std::<unsigned short,struct std::<unsigned short>,class std::<unsigned short>>(class &__ptr64 ,)throw(class <unsigned short,struct std::<unsigned short>>::<unsigned short,struct std::<unsigned short>,class std::<unsigned short>> &__ptr64 )
??$getline@GU?$char_traits@G@std@@V?$allocator@G@2@@std@@YAAEAV?$basic_istream@GU?$char_traits@G@std@@@1@AEAV21@AEAV?$basic_string@GU?$char_traits@G@std@@V?$allocator@G@2@@1@@Z
; class <unsigned short,struct std::<unsigned short>>::<unsigned short,struct std::<unsigned short>> &__ptr64 __cdecl std::<unsigned short,struct std::<unsigned short>,class std::<unsigned short>>(class &__ptr64 ,)throw(class <unsigned short,struct std::<unsigned short>>::<unsigned short,struct std::<unsigned short>,class std::<unsigned short>> &__ptr64 ,unsigned short)
??$getline@GU?$char_traits@G@std@@V?$allocator@G@2@@std@@YAAEAV?$basic_istream@GU?$char_traits@G@std@@@1@AEAV21@AEAV?$basic_string@GU?$char_traits@G@std@@V?$allocator@G@2@@1@G@Z
; float __cdecl std::<float>(class std::<float> const &__ptr64 )
??$imag@M@std@@YAMAEBV?$complex@M@0@@Z
; float __cdecl std::<float>(class <float>::<float> const &__ptr64 )
??$imag@M@std@@YAMAEBV?$complex@M@1@@Z
; double __cdecl std::<double>(class std::<double> const &__ptr64 )
??$imag@N@std@@YANAEBV?$complex@N@0@@Z
; double __cdecl std::<double>(class <double>::<double> const &__ptr64 )
??$imag@N@std@@YANAEBV?$complex@N@1@@Z
; long double __cdecl std::<long double>(class std::<long double> const &__ptr64 )
??$imag@O@std@@YAOAEBV?$complex@O@0@@Z
; long double __cdecl std::<long double>(class <long double>::<long double> const &__ptr64 )
??$imag@O@std@@YAOAEBV?$complex@O@1@@Z
; class std::<float> __cdecl std::<float>(class std::<float> const &__ptr64 )
??$log10@M@std@@YA?AV?$complex@M@0@AEBV10@@Z
; class <float>::<float> __cdecl std::<float>(class const &__ptr64 ,)throw()
??$log10@M@std@@YA?AV?$complex@M@1@AEBV21@@Z
; class std::<double> __cdecl std::<double>(class std::<double> const &__ptr64 )
??$log10@N@std@@YA?AV?$complex@N@0@AEBV10@@Z
; class <double>::<double> __cdecl std::<double>(class const &__ptr64 ,)throw()
??$log10@N@std@@YA?AV?$complex@N@1@AEBV21@@Z
; class std::<long double> __cdecl std::<long double>(class std::<long double> const &__ptr64 )
??$log10@O@std@@YA?AV?$complex@O@0@AEBV10@@Z
; class <long double>::<long double> __cdecl std::<long double>(class const &__ptr64 ,)throw()
??$log10@O@std@@YA?AV?$complex@O@1@AEBV21@@Z
; class std::<float> __cdecl std::<float>(class std::<float> const &__ptr64 )
??$log@M@std@@YA?AV?$complex@M@0@AEBV10@@Z
; class <float>::<float> __cdecl std::<float>(class const &__ptr64 ,)throw()
??$log@M@std@@YA?AV?$complex@M@1@AEBV21@@Z
; class std::<double> __cdecl std::<double>(class std::<double> const &__ptr64 )
??$log@N@std@@YA?AV?$complex@N@0@AEBV10@@Z
; class <double>::<double> __cdecl std::<double>(class const &__ptr64 ,)throw()
??$log@N@std@@YA?AV?$complex@N@1@AEBV21@@Z
; class std::<long double> __cdecl std::<long double>(class std::<long double> const &__ptr64 )
??$log@O@std@@YA?AV?$complex@O@0@AEBV10@@Z
; class <long double>::<long double> __cdecl std::<long double>(class const &__ptr64 ,)throw()
??$log@O@std@@YA?AV?$complex@O@1@AEBV21@@Z
; float __cdecl std::<float>(class std::<float> const &__ptr64 )
??$norm@M@std@@YAMAEBV?$complex@M@0@@Z
; float __cdecl std::<float>(class <float>::<float> const &__ptr64 )
??$norm@M@std@@YAMAEBV?$complex@M@1@@Z
; double __cdecl std::<double>(class std::<double> const &__ptr64 )
??$norm@N@std@@YANAEBV?$complex@N@0@@Z
; double __cdecl std::<double>(class <double>::<double> const &__ptr64 )
??$norm@N@std@@YANAEBV?$complex@N@1@@Z
; long double __cdecl std::<long double>(class std::<long double> const &__ptr64 )
??$norm@O@std@@YAOAEBV?$complex@O@0@@Z
; long double __cdecl std::<long double>(class <long double>::<long double> const &__ptr64 )
??$norm@O@std@@YAOAEBV?$complex@O@1@@Z
; class std::<float> __cdecl std::<float>(float const &__ptr64 ,float const &__ptr64 )
??$polar@M@std@@YA?AV?$complex@M@0@AEBM0@Z
; class std::<float> __cdecl std::<float>(float const &__ptr64 )
??$polar@M@std@@YA?AV?$complex@M@0@AEBM@Z
; class <float>::<float> __cdecl std::<float>(float const &__ptr64 ,float const &__ptr64 )
??$polar@M@std@@YA?AV?$complex@M@1@AEBM0@Z
; class <float>::<float> __cdecl std::<float>(float const &__ptr64 )
??$polar@M@std@@YA?AV?$complex@M@1@AEBM@Z
; class std::<double> __cdecl std::<double>(double const &__ptr64 ,double const &__ptr64 )
??$polar@N@std@@YA?AV?$complex@N@0@AEBN0@Z
; class std::<double> __cdecl std::<double>(double const &__ptr64 )
??$polar@N@std@@YA?AV?$complex@N@0@AEBN@Z
; class <double>::<double> __cdecl std::<double>(double const &__ptr64 ,double const &__ptr64 )
??$polar@N@std@@YA?AV?$complex@N@1@AEBN0@Z
; class <double>::<double> __cdecl std::<double>(double const &__ptr64 )
??$polar@N@std@@YA?AV?$complex@N@1@AEBN@Z
; class std::<long double> __cdecl std::<long double>(long double const &__ptr64 ,long double const &__ptr64 )
??$polar@O@std@@YA?AV?$complex@O@0@AEBO0@Z
; class std::<long double> __cdecl std::<long double>(long double const &__ptr64 )
??$polar@O@std@@YA?AV?$complex@O@0@AEBO@Z
; class <long double>::<long double> __cdecl std::<long double>(long double const &__ptr64 ,long double const &__ptr64 )
??$polar@O@std@@YA?AV?$complex@O@1@AEBO0@Z
; class <long double>::<long double> __cdecl std::<long double>(long double const &__ptr64 )
??$polar@O@std@@YA?AV?$complex@O@1@AEBO@Z
; class std::<float> __cdecl std::<float>(float const &__ptr64 ,class std::<float> const &__ptr64 )
??$pow@M@std@@YA?AV?$complex@M@0@AEBMAEBV10@@Z
; class std::<float> __cdecl std::<float>(class std::<float> const &__ptr64 ,class std::<float> const &__ptr64 )
??$pow@M@std@@YA?AV?$complex@M@0@AEBV10@0@Z
; class std::<float> __cdecl std::<float>(class std::<float> const &__ptr64 ,float const &__ptr64 )
??$pow@M@std@@YA?AV?$complex@M@0@AEBV10@AEBM@Z
; class std::<float> __cdecl std::<float>(class std::<float> const &__ptr64 ,int)
??$pow@M@std@@YA?AV?$complex@M@0@AEBV10@H@Z
; class <float>::<float> __cdecl std::<float>(float const &__ptr64 ,class const &__ptr64 ,class const &__ptr64 )throw()
??$pow@M@std@@YA?AV?$complex@M@1@AEBMAEBV21@@Z
; class <float>::<float> __cdecl std::<float>(class const &__ptr64 ,)throw(class const &__ptr64 )
??$pow@M@std@@YA?AV?$complex@M@1@AEBV21@0@Z
; class <float>::<float> __cdecl std::<float>(class const &__ptr64 ,)throw(float const &__ptr64 )
??$pow@M@std@@YA?AV?$complex@M@1@AEBV21@AEBM@Z
; class <float>::<float> __cdecl std::<float>(class const &__ptr64 ,)throw(int)
??$pow@M@std@@YA?AV?$complex@M@1@AEBV21@H@Z
; class std::<double> __cdecl std::<double>(double const &__ptr64 ,class std::<double> const &__ptr64 )
??$pow@N@std@@YA?AV?$complex@N@0@AEBNAEBV10@@Z
; class std::<double> __cdecl std::<double>(class std::<double> const &__ptr64 ,class std::<double> const &__ptr64 )
??$pow@N@std@@YA?AV?$complex@N@0@AEBV10@0@Z
; class std::<double> __cdecl std::<double>(class std::<double> const &__ptr64 ,double const &__ptr64 )
??$pow@N@std@@YA?AV?$complex@N@0@AEBV10@AEBN@Z
; class std::<double> __cdecl std::<double>(class std::<double> const &__ptr64 ,int)
??$pow@N@std@@YA?AV?$complex@N@0@AEBV10@H@Z
; class <double>::<double> __cdecl std::<double>(double const &__ptr64 ,class const &__ptr64 ,class const &__ptr64 )throw()
??$pow@N@std@@YA?AV?$complex@N@1@AEBNAEBV21@@Z
; class <double>::<double> __cdecl std::<double>(class const &__ptr64 ,)throw(class const &__ptr64 )
??$pow@N@std@@YA?AV?$complex@N@1@AEBV21@0@Z
; class <double>::<double> __cdecl std::<double>(class const &__ptr64 ,)throw(double const &__ptr64 )
??$pow@N@std@@YA?AV?$complex@N@1@AEBV21@AEBN@Z
; class <double>::<double> __cdecl std::<double>(class const &__ptr64 ,)throw(int)
??$pow@N@std@@YA?AV?$complex@N@1@AEBV21@H@Z
; class std::<long double> __cdecl std::<long double>(long double const &__ptr64 ,class std::<long double> const &__ptr64 )
??$pow@O@std@@YA?AV?$complex@O@0@AEBOAEBV10@@Z
; class std::<long double> __cdecl std::<long double>(class std::<long double> const &__ptr64 ,class std::<long double> const &__ptr64 )
??$pow@O@std@@YA?AV?$complex@O@0@AEBV10@0@Z
; class std::<long double> __cdecl std::<long double>(class std::<long double> const &__ptr64 ,long double const &__ptr64 )
??$pow@O@std@@YA?AV?$complex@O@0@AEBV10@AEBO@Z
; class std::<long double> __cdecl std::<long double>(class std::<long double> const &__ptr64 ,int)
??$pow@O@std@@YA?AV?$complex@O@0@AEBV10@H@Z
; class <long double>::<long double> __cdecl std::<long double>(long double const &__ptr64 ,class const &__ptr64 ,class const &__ptr64 )throw()
??$pow@O@std@@YA?AV?$complex@O@1@AEBOAEBV21@@Z
; class <long double>::<long double> __cdecl std::<long double>(class const &__ptr64 ,)throw(class const &__ptr64 )
??$pow@O@std@@YA?AV?$complex@O@1@AEBV21@0@Z
; class <long double>::<long double> __cdecl std::<long double>(class const &__ptr64 ,)throw(long double const &__ptr64 )
??$pow@O@std@@YA?AV?$complex@O@1@AEBV21@AEBO@Z
; class <long double>::<long double> __cdecl std::<long double>(class const &__ptr64 ,)throw(int)
??$pow@O@std@@YA?AV?$complex@O@1@AEBV21@H@Z
; float __cdecl std::<float>(class std::<float> const &__ptr64 )
??$real@M@std@@YAMAEBV?$complex@M@0@@Z
; float __cdecl std::<float>(class <float>::<float> const &__ptr64 )
??$real@M@std@@YAMAEBV?$complex@M@1@@Z
; double __cdecl std::<double>(class std::<double> const &__ptr64 )
??$real@N@std@@YANAEBV?$complex@N@0@@Z
; double __cdecl std::<double>(class <double>::<double> const &__ptr64 )
??$real@N@std@@YANAEBV?$complex@N@1@@Z
; long double __cdecl std::<long double>(class std::<long double> const &__ptr64 )
??$real@O@std@@YAOAEBV?$complex@O@0@@Z
; long double __cdecl std::<long double>(class <long double>::<long double> const &__ptr64 )
??$real@O@std@@YAOAEBV?$complex@O@1@@Z
; class std::<float> __cdecl std::<float>(class std::<float> const &__ptr64 )
??$sin@M@std@@YA?AV?$complex@M@0@AEBV10@@Z
; class <float>::<float> __cdecl std::<float>(class const &__ptr64 ,)throw()
??$sin@M@std@@YA?AV?$complex@M@1@AEBV21@@Z
; class std::<double> __cdecl std::<double>(class std::<double> const &__ptr64 )
??$sin@N@std@@YA?AV?$complex@N@0@AEBV10@@Z
; class <double>::<double> __cdecl std::<double>(class const &__ptr64 ,)throw()
??$sin@N@std@@YA?AV?$complex@N@1@AEBV21@@Z
; class std::<long double> __cdecl std::<long double>(class std::<long double> const &__ptr64 )
??$sin@O@std@@YA?AV?$complex@O@0@AEBV10@@Z
; class <long double>::<long double> __cdecl std::<long double>(class const &__ptr64 ,)throw()
??$sin@O@std@@YA?AV?$complex@O@1@AEBV21@@Z
; class std::<float> __cdecl std::<float>(class std::<float> const &__ptr64 )
??$sinh@M@std@@YA?AV?$complex@M@0@AEBV10@@Z
; class <float>::<float> __cdecl std::<float>(class const &__ptr64 ,)throw()
??$sinh@M@std@@YA?AV?$complex@M@1@AEBV21@@Z
; class std::<double> __cdecl std::<double>(class std::<double> const &__ptr64 )
??$sinh@N@std@@YA?AV?$complex@N@0@AEBV10@@Z
; class <double>::<double> __cdecl std::<double>(class const &__ptr64 ,)throw()
??$sinh@N@std@@YA?AV?$complex@N@1@AEBV21@@Z
; class std::<long double> __cdecl std::<long double>(class std::<long double> const &__ptr64 )
??$sinh@O@std@@YA?AV?$complex@O@0@AEBV10@@Z
; class <long double>::<long double> __cdecl std::<long double>(class const &__ptr64 ,)throw()
??$sinh@O@std@@YA?AV?$complex@O@1@AEBV21@@Z
; class std::<float> __cdecl std::<float>(class std::<float> const &__ptr64 )
??$sqrt@M@std@@YA?AV?$complex@M@0@AEBV10@@Z
; class <float>::<float> __cdecl std::<float>(class const &__ptr64 ,)throw()
??$sqrt@M@std@@YA?AV?$complex@M@1@AEBV21@@Z
; class std::<double> __cdecl std::<double>(class std::<double> const &__ptr64 )
??$sqrt@N@std@@YA?AV?$complex@N@0@AEBV10@@Z
; class <double>::<double> __cdecl std::<double>(class const &__ptr64 ,)throw()
??$sqrt@N@std@@YA?AV?$complex@N@1@AEBV21@@Z
; class std::<long double> __cdecl std::<long double>(class std::<long double> const &__ptr64 )
??$sqrt@O@std@@YA?AV?$complex@O@0@AEBV10@@Z
; class <long double>::<long double> __cdecl std::<long double>(class const &__ptr64 ,)throw()
??$sqrt@O@std@@YA?AV?$complex@O@1@AEBV21@@Z
; public: __cdecl std::<float>::<float>(float const &__ptr64 ,float const &__ptr64 )__ptr64 
??0?$_Complex_base@M@std@@QEAA@AEBM0@Z
; public: __cdecl std::<double>::<double>(double const &__ptr64 ,double const &__ptr64 )__ptr64 
??0?$_Complex_base@N@std@@QEAA@AEBN0@Z
; public: __cdecl std::<long double>::<long double>(long double const &__ptr64 ,long double const &__ptr64 )__ptr64 
??0?$_Complex_base@O@std@@QEAA@AEBO0@Z
; public: __cdecl std::<char>::<char>(class std::_Locinfo const &__ptr64 ,unsigned __int64,bool)__ptr64 
??0?$_Mpunct@D@std@@QEAA@AEBV_Locinfo@1@_K_N@Z
; public: __cdecl std::<char>::<char>(unsigned __int64,bool)__ptr64 
??0?$_Mpunct@D@std@@QEAA@_K_N@Z
; public: __cdecl std::<unsigned short>::<unsigned short>(class std::_Locinfo const &__ptr64 ,unsigned __int64,bool)__ptr64 
??0?$_Mpunct@G@std@@QEAA@AEBV_Locinfo@1@_K_N@Z
; public: __cdecl std::<unsigned short>::<unsigned short>(unsigned __int64,bool)__ptr64 
??0?$_Mpunct@G@std@@QEAA@_K_N@Z
; public: __cdecl std::<char,struct std::<char>>::<char,struct std::<char>>(class std::<char,struct std::<char>> const &__ptr64 )__ptr64 
??0?$basic_filebuf@DU?$char_traits@D@std@@@std@@QEAA@AEBV01@@Z
; public: __cdecl std::<char,struct std::<char>>::<char,struct std::<char>>(struct _iobuf *__ptr64)__ptr64 
??0?$basic_filebuf@DU?$char_traits@D@std@@@std@@QEAA@PEAU_iobuf@@@Z
; public: __cdecl std::<char,struct std::<char>>::<char,struct std::<char>>(enum std::_Uninitialized)__ptr64 
??0?$basic_filebuf@DU?$char_traits@D@std@@@std@@QEAA@W4_Uninitialized@1@@Z
; public: __cdecl std::<unsigned short,struct std::<unsigned short>>::<unsigned short,struct std::<unsigned short>>(class std::<unsigned short,struct std::<unsigned short>> const &__ptr64 )__ptr64 
??0?$basic_filebuf@GU?$char_traits@G@std@@@std@@QEAA@AEBV01@@Z
; public: __cdecl std::<unsigned short,struct std::<unsigned short>>::<unsigned short,struct std::<unsigned short>>(struct _iobuf *__ptr64)__ptr64 
??0?$basic_filebuf@GU?$char_traits@G@std@@@std@@QEAA@PEAU_iobuf@@@Z
; public: __cdecl std::<unsigned short,struct std::<unsigned short>>::<unsigned short,struct std::<unsigned short>>(enum std::_Uninitialized)__ptr64 
??0?$basic_filebuf@GU?$char_traits@G@std@@@std@@QEAA@W4_Uninitialized@1@@Z
; public: __cdecl std::<char,struct std::<char>>::<char,struct std::<char>>(class std::<char,struct std::<char>> const &__ptr64 )__ptr64 
??0?$basic_fstream@DU?$char_traits@D@std@@@std@@QEAA@AEBV01@@Z
; public: __cdecl std::<char,struct std::<char>>::<char,struct std::<char>>(char const *__ptr64,int)__ptr64 
??0?$basic_fstream@DU?$char_traits@D@std@@@std@@QEAA@PEBDH@Z
; public: __cdecl std::<char,struct std::<char>>::<char,struct std::<char>>(void)__ptr64 
??0?$basic_fstream@DU?$char_traits@D@std@@@std@@QEAA@XZ
; public: __cdecl std::<unsigned short,struct std::<unsigned short>>::<unsigned short,struct std::<unsigned short>>(class std::<unsigned short,struct std::<unsigned short>> const &__ptr64 )__ptr64 
??0?$basic_fstream@GU?$char_traits@G@std@@@std@@QEAA@AEBV01@@Z
; public: __cdecl std::<unsigned short,struct std::<unsigned short>>::<unsigned short,struct std::<unsigned short>>(char const *__ptr64,int)__ptr64 
??0?$basic_fstream@GU?$char_traits@G@std@@@std@@QEAA@PEBDH@Z
; public: __cdecl std::<unsigned short,struct std::<unsigned short>>::<unsigned short,struct std::<unsigned short>>(void)__ptr64 
??0?$basic_fstream@GU?$char_traits@G@std@@@std@@QEAA@XZ
; public: __cdecl std::<char,struct std::<char>>::<char,struct std::<char>>(class std::<char,struct std::<char>> const &__ptr64 )__ptr64 
??0?$basic_ifstream@DU?$char_traits@D@std@@@std@@QEAA@AEBV01@@Z
; public: __cdecl std::<char,struct std::<char>>::<char,struct std::<char>>(char const *__ptr64,int)__ptr64 
??0?$basic_ifstream@DU?$char_traits@D@std@@@std@@QEAA@PEBDH@Z
; public: __cdecl std::<char,struct std::<char>>::<char,struct std::<char>>(void)__ptr64 
??0?$basic_ifstream@DU?$char_traits@D@std@@@std@@QEAA@XZ
; public: __cdecl std::<unsigned short,struct std::<unsigned short>>::<unsigned short,struct std::<unsigned short>>(class std::<unsigned short,struct std::<unsigned short>> const &__ptr64 )__ptr64 
??0?$basic_ifstream@GU?$char_traits@G@std@@@std@@QEAA@AEBV01@@Z
; public: __cdecl std::<unsigned short,struct std::<unsigned short>>::<unsigned short,struct std::<unsigned short>>(char const *__ptr64,int)__ptr64 
??0?$basic_ifstream@GU?$char_traits@G@std@@@std@@QEAA@PEBDH@Z
; public: __cdecl std::<unsigned short,struct std::<unsigned short>>::<unsigned short,struct std::<unsigned short>>(void)__ptr64 
??0?$basic_ifstream@GU?$char_traits@G@std@@@std@@QEAA@XZ
; protected: __cdecl std::<char,struct std::<char>>::<char,struct std::<char>>(void)__ptr64 
??0?$basic_ios@DU?$char_traits@D@std@@@std@@IEAA@XZ
; public: __cdecl std::<char,struct std::<char>>::<char,struct std::<char>>(class std::<char,struct std::<char>> const &__ptr64 )__ptr64 
??0?$basic_ios@DU?$char_traits@D@std@@@std@@QEAA@AEBV01@@Z
; public: __cdecl std::<char,struct std::<char>>::<char,struct std::<char>>(class std::<char,struct std::<char>> *__ptr64)__ptr64 
??0?$basic_ios@DU?$char_traits@D@std@@@std@@QEAA@PEAV?$basic_streambuf@DU?$char_traits@D@std@@@1@@Z
; protected: __cdecl std::<unsigned short,struct std::<unsigned short>>::<unsigned short,struct std::<unsigned short>>(void)__ptr64 
??0?$basic_ios@GU?$char_traits@G@std@@@std@@IEAA@XZ
; public: __cdecl std::<unsigned short,struct std::<unsigned short>>::<unsigned short,struct std::<unsigned short>>(class std::<unsigned short,struct std::<unsigned short>> const &__ptr64 )__ptr64 
??0?$basic_ios@GU?$char_traits@G@std@@@std@@QEAA@AEBV01@@Z
; public: __cdecl std::<unsigned short,struct std::<unsigned short>>::<unsigned short,struct std::<unsigned short>>(class std::<unsigned short,struct std::<unsigned short>> *__ptr64)__ptr64 
??0?$basic_ios@GU?$char_traits@G@std@@@std@@QEAA@PEAV?$basic_streambuf@GU?$char_traits@G@std@@@1@@Z
; public: __cdecl std::<char,struct std::<char>>::<char,struct std::<char>>(class std::<char,struct std::<char>> const &__ptr64 )__ptr64 
??0?$basic_iostream@DU?$char_traits@D@std@@@std@@QEAA@AEBV01@@Z
; public: __cdecl std::<char,struct std::<char>>::<char,struct std::<char>>(class std::<char,struct std::<char>> *__ptr64)__ptr64 
??0?$basic_iostream@DU?$char_traits@D@std@@@std@@QEAA@PEAV?$basic_streambuf@DU?$char_traits@D@std@@@1@@Z
; public: __cdecl std::<unsigned short,struct std::<unsigned short>>::<unsigned short,struct std::<unsigned short>>(class std::<unsigned short,struct std::<unsigned short>> const &__ptr64 )__ptr64 
??0?$basic_iostream@GU?$char_traits@G@std@@@std@@QEAA@AEBV01@@Z
; public: __cdecl std::<unsigned short,struct std::<unsigned short>>::<unsigned short,struct std::<unsigned short>>(class std::<unsigned short,struct std::<unsigned short>> *__ptr64)__ptr64 
??0?$basic_iostream@GU?$char_traits@G@std@@@std@@QEAA@PEAV?$basic_streambuf@GU?$char_traits@G@std@@@1@@Z
; public: __cdecl std::<char,struct std::<char>>::<char,struct std::<char>>(class std::<char,struct std::<char>> const &__ptr64 )__ptr64 
??0?$basic_istream@DU?$char_traits@D@std@@@std@@QEAA@AEBV01@@Z
; public: __cdecl std::<char,struct std::<char>>::<char,struct std::<char>>(class std::<char,struct std::<char>> *__ptr64,bool)__ptr64 
??0?$basic_istream@DU?$char_traits@D@std@@@std@@QEAA@PEAV?$basic_streambuf@DU?$char_traits@D@std@@@1@_N@Z
; public: __cdecl std::<char,struct std::<char>>::<char,struct std::<char>>(enum std::_Uninitialized)__ptr64 
??0?$basic_istream@DU?$char_traits@D@std@@@std@@QEAA@W4_Uninitialized@1@@Z
; public: __cdecl std::<unsigned short,struct std::<unsigned short>>::<unsigned short,struct std::<unsigned short>>(class std::<unsigned short,struct std::<unsigned short>> const &__ptr64 )__ptr64 
??0?$basic_istream@GU?$char_traits@G@std@@@std@@QEAA@AEBV01@@Z
; public: __cdecl std::<unsigned short,struct std::<unsigned short>>::<unsigned short,struct std::<unsigned short>>(class std::<unsigned short,struct std::<unsigned short>> *__ptr64,bool)__ptr64 
??0?$basic_istream@GU?$char_traits@G@std@@@std@@QEAA@PEAV?$basic_streambuf@GU?$char_traits@G@std@@@1@_N@Z
; public: __cdecl std::<unsigned short,struct std::<unsigned short>>::<unsigned short,struct std::<unsigned short>>(enum std::_Uninitialized)__ptr64 
??0?$basic_istream@GU?$char_traits@G@std@@@std@@QEAA@W4_Uninitialized@1@@Z
; public: __cdecl std::<char,struct std::<char>,class std::<char>>::<char,struct std::<char>,class std::<char>>(class std::<char,struct std::<char>,class std::<char>> const &__ptr64 )__ptr64 
??0?$basic_istringstream@DU?$char_traits@D@std@@V?$allocator@D@2@@std@@QEAA@AEBV01@@Z
; public: __cdecl std::<char,struct std::<char>,class std::<char>>::<char,struct std::<char>,class std::<char>>(class std::<char,struct std::<char>,class std::<char>> const &__ptr64 ,int)__ptr64 
??0?$basic_istringstream@DU?$char_traits@D@std@@V?$allocator@D@2@@std@@QEAA@AEBV?$basic_string@DU?$char_traits@D@std@@V?$allocator@D@2@@1@H@Z
; public: __cdecl std::<char,struct std::<char>,class std::<char>>::<char,struct std::<char>,class std::<char>>(int)__ptr64 
??0?$basic_istringstream@DU?$char_traits@D@std@@V?$allocator@D@2@@std@@QEAA@H@Z
; public: __cdecl std::<unsigned short,struct std::<unsigned short>,class std::<unsigned short>>::<unsigned short,struct std::<unsigned short>,class std::<unsigned short>>(class std::<unsigned short,struct std::<unsigned short>,class std::<unsigned short>> const &__ptr64 )__ptr64 
??0?$basic_istringstream@GU?$char_traits@G@std@@V?$allocator@G@2@@std@@QEAA@AEBV01@@Z
; public: __cdecl std::<unsigned short,struct std::<unsigned short>,class std::<unsigned short>>::<unsigned short,struct std::<unsigned short>,class std::<unsigned short>>(class std::<unsigned short,struct std::<unsigned short>,class std::<unsigned short>> const &__ptr64 ,int)__ptr64 
??0?$basic_istringstream@GU?$char_traits@G@std@@V?$allocator@G@2@@std@@QEAA@AEBV?$basic_string@GU?$char_traits@G@std@@V?$allocator@G@2@@1@H@Z
; public: __cdecl std::<unsigned short,struct std::<unsigned short>,class std::<unsigned short>>::<unsigned short,struct std::<unsigned short>,class std::<unsigned short>>(int)__ptr64 
??0?$basic_istringstream@GU?$char_traits@G@std@@V?$allocator@G@2@@std@@QEAA@H@Z
; public: __cdecl std::<char,struct std::<char>>::<char,struct std::<char>>(class std::<char,struct std::<char>> const &__ptr64 )__ptr64 
??0?$basic_ofstream@DU?$char_traits@D@std@@@std@@QEAA@AEBV01@@Z
; public: __cdecl std::<char,struct std::<char>>::<char,struct std::<char>>(char const *__ptr64,int)__ptr64 
??0?$basic_ofstream@DU?$char_traits@D@std@@@std@@QEAA@PEBDH@Z
; public: __cdecl std::<char,struct std::<char>>::<char,struct std::<char>>(void)__ptr64 
??0?$basic_ofstream@DU?$char_traits@D@std@@@std@@QEAA@XZ
; public: __cdecl std::<unsigned short,struct std::<unsigned short>>::<unsigned short,struct std::<unsigned short>>(class std::<unsigned short,struct std::<unsigned short>> const &__ptr64 )__ptr64 
??0?$basic_ofstream@GU?$char_traits@G@std@@@std@@QEAA@AEBV01@@Z
; public: __cdecl std::<unsigned short,struct std::<unsigned short>>::<unsigned short,struct std::<unsigned short>>(char const *__ptr64,int)__ptr64 
??0?$basic_ofstream@GU?$char_traits@G@std@@@std@@QEAA@PEBDH@Z
; public: __cdecl std::<unsigned short,struct std::<unsigned short>>::<unsigned short,struct std::<unsigned short>>(void)__ptr64 
??0?$basic_ofstream@GU?$char_traits@G@std@@@std@@QEAA@XZ
; public: __cdecl std::<char,struct std::<char>>::<char,struct std::<char>>(class std::<char,struct std::<char>> const &__ptr64 )__ptr64 
??0?$basic_ostream@DU?$char_traits@D@std@@@std@@QEAA@AEBV01@@Z
; public: __cdecl std::<char,struct std::<char>>::<char,struct std::<char>>(class std::<char,struct std::<char>> *__ptr64,bool,bool)__ptr64 
??0?$basic_ostream@DU?$char_traits@D@std@@@std@@QEAA@PEAV?$basic_streambuf@DU?$char_traits@D@std@@@1@_N1@Z
; public: __cdecl std::<char,struct std::<char>>::<char,struct std::<char>>(enum std::_Uninitialized)__ptr64 
??0?$basic_ostream@DU?$char_traits@D@std@@@std@@QEAA@W4_Uninitialized@1@@Z
; public: __cdecl std::<unsigned short,struct std::<unsigned short>>::<unsigned short,struct std::<unsigned short>>(class std::<unsigned short,struct std::<unsigned short>> const &__ptr64 )__ptr64 
??0?$basic_ostream@GU?$char_traits@G@std@@@std@@QEAA@AEBV01@@Z
; public: __cdecl std::<unsigned short,struct std::<unsigned short>>::<unsigned short,struct std::<unsigned short>>(class std::<unsigned short,struct std::<unsigned short>> *__ptr64,bool,bool)__ptr64 
??0?$basic_ostream@GU?$char_traits@G@std@@@std@@QEAA@PEAV?$basic_streambuf@GU?$char_traits@G@std@@@1@_N1@Z
; public: __cdecl std::<unsigned short,struct std::<unsigned short>>::<unsigned short,struct std::<unsigned short>>(enum std::_Uninitialized)__ptr64 
??0?$basic_ostream@GU?$char_traits@G@std@@@std@@QEAA@W4_Uninitialized@1@@Z
; public: __cdecl std::<char,struct std::<char>,class std::<char>>::<char,struct std::<char>,class std::<char>>(class std::<char,struct std::<char>,class std::<char>> const &__ptr64 )__ptr64 
??0?$basic_ostringstream@DU?$char_traits@D@std@@V?$allocator@D@2@@std@@QEAA@AEBV01@@Z
; public: __cdecl std::<char,struct std::<char>,class std::<char>>::<char,struct std::<char>,class std::<char>>(class std::<char,struct std::<char>,class std::<char>> const &__ptr64 ,int)__ptr64 
??0?$basic_ostringstream@DU?$char_traits@D@std@@V?$allocator@D@2@@std@@QEAA@AEBV?$basic_string@DU?$char_traits@D@std@@V?$allocator@D@2@@1@H@Z
; public: __cdecl std::<char,struct std::<char>,class std::<char>>::<char,struct std::<char>,class std::<char>>(int)__ptr64 
??0?$basic_ostringstream@DU?$char_traits@D@std@@V?$allocator@D@2@@std@@QEAA@H@Z
; public: __cdecl std::<unsigned short,struct std::<unsigned short>,class std::<unsigned short>>::<unsigned short,struct std::<unsigned short>,class std::<unsigned short>>(class std::<unsigned short,struct std::<unsigned short>,class std::<unsigned short>> const &__ptr64 )__ptr64 
??0?$basic_ostringstream@GU?$char_traits@G@std@@V?$allocator@G@2@@std@@QEAA@AEBV01@@Z
; public: __cdecl std::<unsigned short,struct std::<unsigned short>,class std::<unsigned short>>::<unsigned short,struct std::<unsigned short>,class std::<unsigned short>>(class std::<unsigned short,struct std::<unsigned short>,class std::<unsigned short>> const &__ptr64 ,int)__ptr64 
??0?$basic_ostringstream@GU?$char_traits@G@std@@V?$allocator@G@2@@std@@QEAA@AEBV?$basic_string@GU?$char_traits@G@std@@V?$allocator@G@2@@1@H@Z
; public: __cdecl std::<unsigned short,struct std::<unsigned short>,class std::<unsigned short>>::<unsigned short,struct std::<unsigned short>,class std::<unsigned short>>(int)__ptr64 
??0?$basic_ostringstream@GU?$char_traits@G@std@@V?$allocator@G@2@@std@@QEAA@H@Z
; protected: __cdecl std::<char,struct std::<char>>::<char,struct std::<char>>(enum std::_Uninitialized)__ptr64 
??0?$basic_streambuf@DU?$char_traits@D@std@@@std@@IEAA@W4_Uninitialized@1@@Z
; protected: __cdecl std::<char,struct std::<char>>::<char,struct std::<char>>(void)__ptr64 
??0?$basic_streambuf@DU?$char_traits@D@std@@@std@@IEAA@XZ
; public: __cdecl std::<char,struct std::<char>>::<char,struct std::<char>>(class std::<char,struct std::<char>> const &__ptr64 )__ptr64 
??0?$basic_streambuf@DU?$char_traits@D@std@@@std@@QEAA@AEBV01@@Z
; protected: __cdecl std::<unsigned short,struct std::<unsigned short>>::<unsigned short,struct std::<unsigned short>>(enum std::_Uninitialized)__ptr64 
??0?$basic_streambuf@GU?$char_traits@G@std@@@std@@IEAA@W4_Uninitialized@1@@Z
; protected: __cdecl std::<unsigned short,struct std::<unsigned short>>::<unsigned short,struct std::<unsigned short>>(void)__ptr64 
??0?$basic_streambuf@GU?$char_traits@G@std@@@std@@IEAA@XZ
; public: __cdecl std::<unsigned short,struct std::<unsigned short>>::<unsigned short,struct std::<unsigned short>>(class std::<unsigned short,struct std::<unsigned short>> const &__ptr64 )__ptr64 
??0?$basic_streambuf@GU?$char_traits@G@std@@@std@@QEAA@AEBV01@@Z
; public: __cdecl std::<char,struct std::<char>,class std::<char>>::<char,struct std::<char>,class std::<char>>(class std::<char,struct std::<char>,class std::<char>> const &__ptr64 )__ptr64 
??0?$basic_string@DU?$char_traits@D@std@@V?$allocator@D@2@@std@@QEAA@AEBV01@@Z
; public: __cdecl std::<char,struct std::<char>,class std::<char>>::<char,struct std::<char>,class std::<char>>(class std::<char,struct std::<char>,class std::<char>> const &__ptr64 ,unsigned __int64,unsigned __int64,class std::<char> const &__ptr64 )__ptr64 
??0?$basic_string@DU?$char_traits@D@std@@V?$allocator@D@2@@std@@QEAA@AEBV01@_K1AEBV?$allocator@D@1@@Z
; public: __cdecl std::<char,struct std::<char>,class std::<char>>::<char,struct std::<char>,class std::<char>>(class std::<char> const &__ptr64 )__ptr64 
??0?$basic_string@DU?$char_traits@D@std@@V?$allocator@D@2@@std@@QEAA@AEBV?$allocator@D@1@@Z
; public: __cdecl std::<char,struct std::<char>,class std::<char>>::<char,struct std::<char>,class std::<char>>(char const *__ptr64,char const *__ptr64,class std::<char> const &__ptr64 )__ptr64 
??0?$basic_string@DU?$char_traits@D@std@@V?$allocator@D@2@@std@@QEAA@PEBD0AEBV?$allocator@D@1@@Z
; public: __cdecl std::<char,struct std::<char>,class std::<char>>::<char,struct std::<char>,class std::<char>>(char const *__ptr64,class std::<char> const &__ptr64 )__ptr64 
??0?$basic_string@DU?$char_traits@D@std@@V?$allocator@D@2@@std@@QEAA@PEBDAEBV?$allocator@D@1@@Z
; public: __cdecl std::<char,struct std::<char>,class std::<char>>::<char,struct std::<char>,class std::<char>>(char const *__ptr64,unsigned __int64,class std::<char> const &__ptr64 )__ptr64 
??0?$basic_string@DU?$char_traits@D@std@@V?$allocator@D@2@@std@@QEAA@PEBD_KAEBV?$allocator@D@1@@Z
; public: __cdecl std::<char,struct std::<char>,class std::<char>>::<char,struct std::<char>,class std::<char>>(unsigned __int64,char,class std::<char> const &__ptr64 )__ptr64 
??0?$basic_string@DU?$char_traits@D@std@@V?$allocator@D@2@@std@@QEAA@_KDAEBV?$allocator@D@1@@Z
; public: __cdecl std::<unsigned short,struct std::<unsigned short>,class std::<unsigned short>>::<unsigned short,struct std::<unsigned short>,class std::<unsigned short>>(class std::<unsigned short,struct std::<unsigned short>,class std::<unsigned short>> const &__ptr64 )__ptr64 
??0?$basic_string@GU?$char_traits@G@std@@V?$allocator@G@2@@std@@QEAA@AEBV01@@Z
; public: __cdecl std::<unsigned short,struct std::<unsigned short>,class std::<unsigned short>>::<unsigned short,struct std::<unsigned short>,class std::<unsigned short>>(class std::<unsigned short,struct std::<unsigned short>,class std::<unsigned short>> const &__ptr64 ,unsigned __int64,unsigned __int64,class std::<unsigned short> const &__ptr64 )__ptr64 
??0?$basic_string@GU?$char_traits@G@std@@V?$allocator@G@2@@std@@QEAA@AEBV01@_K1AEBV?$allocator@G@1@@Z
; public: __cdecl std::<unsigned short,struct std::<unsigned short>,class std::<unsigned short>>::<unsigned short,struct std::<unsigned short>,class std::<unsigned short>>(class std::<unsigned short> const &__ptr64 )__ptr64 
??0?$basic_string@GU?$char_traits@G@std@@V?$allocator@G@2@@std@@QEAA@AEBV?$allocator@G@1@@Z
; public: __cdecl std::<unsigned short,struct std::<unsigned short>,class std::<unsigned short>>::<unsigned short,struct std::<unsigned short>,class std::<unsigned short>>(unsigned short const *__ptr64,unsigned short const *__ptr64,class std::<unsigned short> const &__ptr64 )__ptr64 
??0?$basic_string@GU?$char_traits@G@std@@V?$allocator@G@2@@std@@QEAA@PEBG0AEBV?$allocator@G@1@@Z
; public: __cdecl std::<unsigned short,struct std::<unsigned short>,class std::<unsigned short>>::<unsigned short,struct std::<unsigned short>,class std::<unsigned short>>(unsigned short const *__ptr64,class std::<unsigned short> const &__ptr64 )__ptr64 
??0?$basic_string@GU?$char_traits@G@std@@V?$allocator@G@2@@std@@QEAA@PEBGAEBV?$allocator@G@1@@Z
; public: __cdecl std::<unsigned short,struct std::<unsigned short>,class std::<unsigned short>>::<unsigned short,struct std::<unsigned short>,class std::<unsigned short>>(unsigned short const *__ptr64,unsigned __int64,class std::<unsigned short> const &__ptr64 )__ptr64 
??0?$basic_string@GU?$char_traits@G@std@@V?$allocator@G@2@@std@@QEAA@PEBG_KAEBV?$allocator@G@1@@Z
; public: __cdecl std::<unsigned short,struct std::<unsigned short>,class std::<unsigned short>>::<unsigned short,struct std::<unsigned short>,class std::<unsigned short>>(unsigned __int64,unsigned short,class std::<unsigned short> const &__ptr64 )__ptr64 
??0?$basic_string@GU?$char_traits@G@std@@V?$allocator@G@2@@std@@QEAA@_KGAEBV?$allocator@G@1@@Z
; public: __cdecl std::<char,struct std::<char>,class std::<char>>::<char,struct std::<char>,class std::<char>>(class std::<char,struct std::<char>,class std::<char>> const &__ptr64 )__ptr64 
??0?$basic_stringbuf@DU?$char_traits@D@std@@V?$allocator@D@2@@std@@QEAA@AEBV01@@Z
; public: __cdecl std::<char,struct std::<char>,class std::<char>>::<char,struct std::<char>,class std::<char>>(class std::<char,struct std::<char>,class std::<char>> const &__ptr64 ,int)__ptr64 
??0?$basic_stringbuf@DU?$char_traits@D@std@@V?$allocator@D@2@@std@@QEAA@AEBV?$basic_string@DU?$char_traits@D@std@@V?$allocator@D@2@@1@H@Z
; public: __cdecl std::<char,struct std::<char>,class std::<char>>::<char,struct std::<char>,class std::<char>>(int)__ptr64 
??0?$basic_stringbuf@DU?$char_traits@D@std@@V?$allocator@D@2@@std@@QEAA@H@Z
; public: __cdecl std::<unsigned short,struct std::<unsigned short>,class std::<unsigned short>>::<unsigned short,struct std::<unsigned short>,class std::<unsigned short>>(class std::<unsigned short,struct std::<unsigned short>,class std::<unsigned short>> const &__ptr64 )__ptr64 
??0?$basic_stringbuf@GU?$char_traits@G@std@@V?$allocator@G@2@@std@@QEAA@AEBV01@@Z
; public: __cdecl std::<unsigned short,struct std::<unsigned short>,class std::<unsigned short>>::<unsigned short,struct std::<unsigned short>,class std::<unsigned short>>(class std::<unsigned short,struct std::<unsigned short>,class std::<unsigned short>> const &__ptr64 ,int)__ptr64 
??0?$basic_stringbuf@GU?$char_traits@G@std@@V?$allocator@G@2@@std@@QEAA@AEBV?$basic_string@GU?$char_traits@G@std@@V?$allocator@G@2@@1@H@Z
; public: __cdecl std::<unsigned short,struct std::<unsigned short>,class std::<unsigned short>>::<unsigned short,struct std::<unsigned short>,class std::<unsigned short>>(int)__ptr64 
??0?$basic_stringbuf@GU?$char_traits@G@std@@V?$allocator@G@2@@std@@QEAA@H@Z
; public: __cdecl std::<char,struct std::<char>,class std::<char>>::<char,struct std::<char>,class std::<char>>(class std::<char,struct std::<char>,class std::<char>> const &__ptr64 )__ptr64 
??0?$basic_stringstream@DU?$char_traits@D@std@@V?$allocator@D@2@@std@@QEAA@AEBV01@@Z
; public: __cdecl std::<char,struct std::<char>,class std::<char>>::<char,struct std::<char>,class std::<char>>(class std::<char,struct std::<char>,class std::<char>> const &__ptr64 ,int)__ptr64 
??0?$basic_stringstream@DU?$char_traits@D@std@@V?$allocator@D@2@@std@@QEAA@AEBV?$basic_string@DU?$char_traits@D@std@@V?$allocator@D@2@@1@H@Z
; public: __cdecl std::<char,struct std::<char>,class std::<char>>::<char,struct std::<char>,class std::<char>>(int)__ptr64 
??0?$basic_stringstream@DU?$char_traits@D@std@@V?$allocator@D@2@@std@@QEAA@H@Z
; public: __cdecl std::<unsigned short,struct std::<unsigned short>,class std::<unsigned short>>::<unsigned short,struct std::<unsigned short>,class std::<unsigned short>>(class std::<unsigned short,struct std::<unsigned short>,class std::<unsigned short>> const &__ptr64 )__ptr64 
??0?$basic_stringstream@GU?$char_traits@G@std@@V?$allocator@G@2@@std@@QEAA@AEBV01@@Z
; public: __cdecl std::<unsigned short,struct std::<unsigned short>,class std::<unsigned short>>::<unsigned short,struct std::<unsigned short>,class std::<unsigned short>>(class std::<unsigned short,struct std::<unsigned short>,class std::<unsigned short>> const &__ptr64 ,int)__ptr64 
??0?$basic_stringstream@GU?$char_traits@G@std@@V?$allocator@G@2@@std@@QEAA@AEBV?$basic_string@GU?$char_traits@G@std@@V?$allocator@G@2@@1@H@Z
; public: __cdecl std::<unsigned short,struct std::<unsigned short>,class std::<unsigned short>>::<unsigned short,struct std::<unsigned short>,class std::<unsigned short>>(int)__ptr64 
??0?$basic_stringstream@GU?$char_traits@G@std@@V?$allocator@G@2@@std@@QEAA@H@Z
; public: __cdecl std::<char,char,int>::<char,char,int>(class std::_Locinfo const &__ptr64 ,unsigned __int64)__ptr64 
??0?$codecvt@DDH@std@@QEAA@AEBV_Locinfo@1@_K@Z
; public: __cdecl std::<char,char,int>::<char,char,int>(unsigned __int64)__ptr64 
??0?$codecvt@DDH@std@@QEAA@_K@Z
; public: __cdecl std::<unsigned short,char,int>::<unsigned short,char,int>(class std::_Locinfo const &__ptr64 ,unsigned __int64)__ptr64 
??0?$codecvt@GDH@std@@QEAA@AEBV_Locinfo@1@_K@Z
; public: __cdecl std::<unsigned short,char,int>::<unsigned short,char,int>(unsigned __int64)__ptr64 
??0?$codecvt@GDH@std@@QEAA@_K@Z
; public: __cdecl std::<char>::<char>(class std::_Locinfo const &__ptr64 ,unsigned __int64)__ptr64 
??0?$collate@D@std@@QEAA@AEBV_Locinfo@1@_K@Z
; public: __cdecl std::<char>::<char>(unsigned __int64)__ptr64 
??0?$collate@D@std@@QEAA@_K@Z
; public: __cdecl std::<unsigned short>::<unsigned short>(class std::_Locinfo const &__ptr64 ,unsigned __int64)__ptr64 
??0?$collate@G@std@@QEAA@AEBV_Locinfo@1@_K@Z
; public: __cdecl std::<unsigned short>::<unsigned short>(unsigned __int64)__ptr64 
??0?$collate@G@std@@QEAA@_K@Z
; public: __cdecl std::<float>::<float>(float const &__ptr64 ,float const &__ptr64 )__ptr64 
??0?$complex@M@std@@QEAA@AEBM0@Z
; public: __cdecl std::<float>::<float>(class std::<double> const &__ptr64 )__ptr64 
??0?$complex@M@std@@QEAA@AEBV?$complex@N@1@@Z
; public: __cdecl std::<float>::<float>(class std::<long double> const &__ptr64 )__ptr64 
??0?$complex@M@std@@QEAA@AEBV?$complex@O@1@@Z
; public: __cdecl std::<double>::<double>(double const &__ptr64 ,double const &__ptr64 )__ptr64 
??0?$complex@N@std@@QEAA@AEBN0@Z
; public: __cdecl std::<double>::<double>(class std::<float> const &__ptr64 )__ptr64 
??0?$complex@N@std@@QEAA@AEBV?$complex@M@1@@Z
; public: __cdecl std::<double>::<double>(class std::<long double> const &__ptr64 )__ptr64 
??0?$complex@N@std@@QEAA@AEBV?$complex@O@1@@Z
; public: __cdecl std::<long double>::<long double>(long double const &__ptr64 ,long double const &__ptr64 )__ptr64 
??0?$complex@O@std@@QEAA@AEBO0@Z
; public: __cdecl std::<long double>::<long double>(class std::<float> const &__ptr64 )__ptr64 
??0?$complex@O@std@@QEAA@AEBV?$complex@M@1@@Z
; public: __cdecl std::<long double>::<long double>(class std::<double> const &__ptr64 )__ptr64 
??0?$complex@O@std@@QEAA@AEBV?$complex@N@1@@Z
; public: __cdecl std::<char>::<char>(class std::_Locinfo const &__ptr64 ,unsigned __int64)__ptr64 
??0?$ctype@D@std@@QEAA@AEBV_Locinfo@1@_K@Z
; public: __cdecl std::<char>::<char>(short const *__ptr64,bool,unsigned __int64)__ptr64 
??0?$ctype@D@std@@QEAA@PEBF_N_K@Z
; public: __cdecl std::<unsigned short>::<unsigned short>(class std::_Locinfo const &__ptr64 ,unsigned __int64)__ptr64 
??0?$ctype@G@std@@QEAA@AEBV_Locinfo@1@_K@Z
; public: __cdecl std::<unsigned short>::<unsigned short>(unsigned __int64)__ptr64 
??0?$ctype@G@std@@QEAA@_K@Z
; public: __cdecl std::<char>::<char>(class std::_Locinfo const &__ptr64 ,unsigned __int64)__ptr64 
??0?$messages@D@std@@QEAA@AEBV_Locinfo@1@_K@Z
; public: __cdecl std::<char>::<char>(unsigned __int64)__ptr64 
??0?$messages@D@std@@QEAA@_K@Z
; public: __cdecl std::<unsigned short>::<unsigned short>(class std::_Locinfo const &__ptr64 ,unsigned __int64)__ptr64 
??0?$messages@G@std@@QEAA@AEBV_Locinfo@1@_K@Z
; public: __cdecl std::<unsigned short>::<unsigned short>(unsigned __int64)__ptr64 
??0?$messages@G@std@@QEAA@_K@Z
; public: __cdecl std::<char,class std::<char,struct std::<char>>>::<char,class std::<char,struct std::<char>>>(class std::_Locinfo const &__ptr64 ,unsigned __int64)__ptr64 
??0?$money_get@DV?$istreambuf_iterator@DU?$char_traits@D@std@@@std@@@std@@QEAA@AEBV_Locinfo@1@_K@Z
; public: __cdecl std::<char,class std::<char,struct std::<char>>>::<char,class std::<char,struct std::<char>>>(unsigned __int64)__ptr64 
??0?$money_get@DV?$istreambuf_iterator@DU?$char_traits@D@std@@@std@@@std@@QEAA@_K@Z
; public: __cdecl std::<unsigned short,class std::<unsigned short,struct std::<unsigned short>>>::<unsigned short,class std::<unsigned short,struct std::<unsigned short>>>(class std::_Locinfo const &__ptr64 ,unsigned __int64)__ptr64 
??0?$money_get@GV?$istreambuf_iterator@GU?$char_traits@G@std@@@std@@@std@@QEAA@AEBV_Locinfo@1@_K@Z
; public: __cdecl std::<unsigned short,class std::<unsigned short,struct std::<unsigned short>>>::<unsigned short,class std::<unsigned short,struct std::<unsigned short>>>(unsigned __int64)__ptr64 
??0?$money_get@GV?$istreambuf_iterator@GU?$char_traits@G@std@@@std@@@std@@QEAA@_K@Z
; public: __cdecl std::<char,class std::<char,struct std::<char>>>::<char,class std::<char,struct std::<char>>>(class std::_Locinfo const &__ptr64 ,unsigned __int64)__ptr64 
??0?$money_put@DV?$ostreambuf_iterator@DU?$char_traits@D@std@@@std@@@std@@QEAA@AEBV_Locinfo@1@_K@Z
; public: __cdecl std::<char,class std::<char,struct std::<char>>>::<char,class std::<char,struct std::<char>>>(unsigned __int64)__ptr64 
??0?$money_put@DV?$ostreambuf_iterator@DU?$char_traits@D@std@@@std@@@std@@QEAA@_K@Z
; public: __cdecl std::<unsigned short,class std::<unsigned short,struct std::<unsigned short>>>::<unsigned short,class std::<unsigned short,struct std::<unsigned short>>>(class std::_Locinfo const &__ptr64 ,unsigned __int64)__ptr64 
??0?$money_put@GV?$ostreambuf_iterator@GU?$char_traits@G@std@@@std@@@std@@QEAA@AEBV_Locinfo@1@_K@Z
; public: __cdecl std::<unsigned short,class std::<unsigned short,struct std::<unsigned short>>>::<unsigned short,class std::<unsigned short,struct std::<unsigned short>>>(unsigned __int64)__ptr64 
??0?$money_put@GV?$ostreambuf_iterator@GU?$char_traits@G@std@@@std@@@std@@QEAA@_K@Z
; public: __cdecl std::<char,0x1ULL>::<char,0x1ULL>(class std::_Locinfo const &__ptr64 ,unsigned __int64)__ptr64 
??0?$moneypunct@D$00@std@@QEAA@AEBV_Locinfo@1@_K@Z
; public: __cdecl std::<char,0x1ULL>::<char,0x1ULL>(unsigned __int64)__ptr64 
??0?$moneypunct@D$00@std@@QEAA@_K@Z
; public: __cdecl std::<char,0x0ULL>::<char,0x0ULL>(class std::_Locinfo const &__ptr64 ,unsigned __int64)__ptr64 
??0?$moneypunct@D$0A@@std@@QEAA@AEBV_Locinfo@1@_K@Z
; public: __cdecl std::<char,0x0ULL>::<char,0x0ULL>(unsigned __int64)__ptr64 
??0?$moneypunct@D$0A@@std@@QEAA@_K@Z
; public: __cdecl std::<unsigned short,0x1ULL>::<unsigned short,0x1ULL>(class std::_Locinfo const &__ptr64 ,unsigned __int64)__ptr64 
??0?$moneypunct@G$00@std@@QEAA@AEBV_Locinfo@1@_K@Z
; public: __cdecl std::<unsigned short,0x1ULL>::<unsigned short,0x1ULL>(unsigned __int64)__ptr64 
??0?$moneypunct@G$00@std@@QEAA@_K@Z
; public: __cdecl std::<unsigned short,0x0ULL>::<unsigned short,0x0ULL>(class std::_Locinfo const &__ptr64 ,unsigned __int64)__ptr64 
??0?$moneypunct@G$0A@@std@@QEAA@AEBV_Locinfo@1@_K@Z
; public: __cdecl std::<unsigned short,0x0ULL>::<unsigned short,0x0ULL>(unsigned __int64)__ptr64 
??0?$moneypunct@G$0A@@std@@QEAA@_K@Z
; public: __cdecl std::<char,class std::<char,struct std::<char>>>::<char,class std::<char,struct std::<char>>>(class std::_Locinfo const &__ptr64 ,unsigned __int64)__ptr64 
??0?$num_get@DV?$istreambuf_iterator@DU?$char_traits@D@std@@@std@@@std@@QEAA@AEBV_Locinfo@1@_K@Z
; public: __cdecl std::<char,class std::<char,struct std::<char>>>::<char,class std::<char,struct std::<char>>>(unsigned __int64)__ptr64 
??0?$num_get@DV?$istreambuf_iterator@DU?$char_traits@D@std@@@std@@@std@@QEAA@_K@Z
; public: __cdecl std::<unsigned short,class std::<unsigned short,struct std::<unsigned short>>>::<unsigned short,class std::<unsigned short,struct std::<unsigned short>>>(class std::_Locinfo const &__ptr64 ,unsigned __int64)__ptr64 
??0?$num_get@GV?$istreambuf_iterator@GU?$char_traits@G@std@@@std@@@std@@QEAA@AEBV_Locinfo@1@_K@Z
; public: __cdecl std::<unsigned short,class std::<unsigned short,struct std::<unsigned short>>>::<unsigned short,class std::<unsigned short,struct std::<unsigned short>>>(unsigned __int64)__ptr64 
??0?$num_get@GV?$istreambuf_iterator@GU?$char_traits@G@std@@@std@@@std@@QEAA@_K@Z
; public: __cdecl std::<char,class std::<char,struct std::<char>>>::<char,class std::<char,struct std::<char>>>(class std::_Locinfo const &__ptr64 ,unsigned __int64)__ptr64 
??0?$num_put@DV?$ostreambuf_iterator@DU?$char_traits@D@std@@@std@@@std@@QEAA@AEBV_Locinfo@1@_K@Z
; public: __cdecl std::<char,class std::<char,struct std::<char>>>::<char,class std::<char,struct std::<char>>>(unsigned __int64)__ptr64 
??0?$num_put@DV?$ostreambuf_iterator@DU?$char_traits@D@std@@@std@@@std@@QEAA@_K@Z
; public: __cdecl std::<unsigned short,class std::<unsigned short,struct std::<unsigned short>>>::<unsigned short,class std::<unsigned short,struct std::<unsigned short>>>(class std::_Locinfo const &__ptr64 ,unsigned __int64)__ptr64 
??0?$num_put@GV?$ostreambuf_iterator@GU?$char_traits@G@std@@@std@@@std@@QEAA@AEBV_Locinfo@1@_K@Z
; public: __cdecl std::<unsigned short,class std::<unsigned short,struct std::<unsigned short>>>::<unsigned short,class std::<unsigned short,struct std::<unsigned short>>>(unsigned __int64)__ptr64 
??0?$num_put@GV?$ostreambuf_iterator@GU?$char_traits@G@std@@@std@@@std@@QEAA@_K@Z
; public: __cdecl std::<char>::<char>(class std::_Locinfo const &__ptr64 ,unsigned __int64)__ptr64 
??0?$numpunct@D@std@@QEAA@AEBV_Locinfo@1@_K@Z
; public: __cdecl std::<char>::<char>(unsigned __int64)__ptr64 
??0?$numpunct@D@std@@QEAA@_K@Z
; public: __cdecl std::<unsigned short>::<unsigned short>(class std::_Locinfo const &__ptr64 ,unsigned __int64)__ptr64 
??0?$numpunct@G@std@@QEAA@AEBV_Locinfo@1@_K@Z
; public: __cdecl std::<unsigned short>::<unsigned short>(unsigned __int64)__ptr64 
??0?$numpunct@G@std@@QEAA@_K@Z
; public: __cdecl std::<char,class std::<char,struct std::<char>>>::<char,class std::<char,struct std::<char>>>(class std::_Locinfo const &__ptr64 ,unsigned __int64)__ptr64 
??0?$time_get@DV?$istreambuf_iterator@DU?$char_traits@D@std@@@std@@@std@@QEAA@AEBV_Locinfo@1@_K@Z
; public: __cdecl std::<char,class std::<char,struct std::<char>>>::<char,class std::<char,struct std::<char>>>(unsigned __int64)__ptr64 
??0?$time_get@DV?$istreambuf_iterator@DU?$char_traits@D@std@@@std@@@std@@QEAA@_K@Z
; public: __cdecl std::<unsigned short,class std::<unsigned short,struct std::<unsigned short>>>::<unsigned short,class std::<unsigned short,struct std::<unsigned short>>>(class std::_Locinfo const &__ptr64 ,unsigned __int64)__ptr64 
??0?$time_get@GV?$istreambuf_iterator@GU?$char_traits@G@std@@@std@@@std@@QEAA@AEBV_Locinfo@1@_K@Z
; public: __cdecl std::<unsigned short,class std::<unsigned short,struct std::<unsigned short>>>::<unsigned short,class std::<unsigned short,struct std::<unsigned short>>>(unsigned __int64)__ptr64 
??0?$time_get@GV?$istreambuf_iterator@GU?$char_traits@G@std@@@std@@@std@@QEAA@_K@Z
; public: __cdecl std::<char,class std::<char,struct std::<char>>>::<char,class std::<char,struct std::<char>>>(class std::_Locinfo const &__ptr64 ,unsigned __int64)__ptr64 
??0?$time_put@DV?$ostreambuf_iterator@DU?$char_traits@D@std@@@std@@@std@@QEAA@AEBV_Locinfo@1@_K@Z
; public: __cdecl std::<char,class std::<char,struct std::<char>>>::<char,class std::<char,struct std::<char>>>(unsigned __int64)__ptr64 
??0?$time_put@DV?$ostreambuf_iterator@DU?$char_traits@D@std@@@std@@@std@@QEAA@_K@Z
; public: __cdecl std::<unsigned short,class std::<unsigned short,struct std::<unsigned short>>>::<unsigned short,class std::<unsigned short,struct std::<unsigned short>>>(class std::_Locinfo const &__ptr64 ,unsigned __int64)__ptr64 
??0?$time_put@GV?$ostreambuf_iterator@GU?$char_traits@G@std@@@std@@@std@@QEAA@AEBV_Locinfo@1@_K@Z
; public: __cdecl std::<unsigned short,class std::<unsigned short,struct std::<unsigned short>>>::<unsigned short,class std::<unsigned short,struct std::<unsigned short>>>(unsigned __int64)__ptr64 
??0?$time_put@GV?$ostreambuf_iterator@GU?$char_traits@G@std@@@std@@@std@@QEAA@_K@Z
; public: __cdecl std::ios_base::Init::Init(void)__ptr64 
??0Init@ios_base@std@@QEAA@XZ
; public: __cdecl std::_Locinfo::_Locinfo(class std::_Locinfo const &__ptr64 )__ptr64 
??0_Locinfo@std@@QEAA@AEBV01@@Z
; public: __cdecl std::_Locinfo::_Locinfo(int,char const *__ptr64)__ptr64 
??0_Locinfo@std@@QEAA@HPEBD@Z
; public: __cdecl std::_Locinfo::_Locinfo(char const *__ptr64)__ptr64 
??0_Locinfo@std@@QEAA@PEBD@Z
; public: __cdecl std::_Lockit::_Lockit(void)__ptr64 
??0_Lockit@std@@QEAA@XZ
; public: __cdecl std::_Timevec::_Timevec(class std::_Timevec const &__ptr64 )__ptr64 
??0_Timevec@std@@QEAA@AEBV01@@Z
; public: __cdecl std::_Timevec::_Timevec(void *__ptr64)__ptr64 
??0_Timevec@std@@QEAA@PEAX@Z
; public: __cdecl std::_Winit::_Winit(void)__ptr64 
??0_Winit@std@@QEAA@XZ
; public: __cdecl std::__non_rtti_object::__non_rtti_object(class std::__non_rtti_object const &__ptr64 )__ptr64 
??0__non_rtti_object@std@@QEAA@AEBV01@@Z
; public: __cdecl std::__non_rtti_object::__non_rtti_object(char const *__ptr64)__ptr64 
??0__non_rtti_object@std@@QEAA@PEBD@Z
; public: __cdecl std::bad_alloc::bad_alloc(class std::bad_alloc const &__ptr64 )__ptr64 
??0bad_alloc@std@@QEAA@AEBV01@@Z
; public: __cdecl std::bad_alloc::bad_alloc(char const *__ptr64)__ptr64 
??0bad_alloc@std@@QEAA@PEBD@Z
; public: __cdecl std::bad_alloc::bad_alloc(void)__ptr64 
??0bad_alloc@std@@QEAA@XZ
; public: __cdecl std::bad_cast::bad_cast(class std::bad_cast const &__ptr64 )__ptr64 
??0bad_cast@std@@QEAA@AEBV01@@Z
; public: __cdecl std::bad_cast::bad_cast(char const *__ptr64)__ptr64 
??0bad_cast@std@@QEAA@PEBD@Z
; public: __cdecl std::bad_exception::bad_exception(class std::bad_exception const &__ptr64 )__ptr64 
??0bad_exception@std@@QEAA@AEBV01@@Z
; public: __cdecl std::bad_exception::bad_exception(char const *__ptr64)__ptr64 
??0bad_exception@std@@QEAA@PEBD@Z
; public: __cdecl std::bad_typeid::bad_typeid(class std::bad_typeid const &__ptr64 )__ptr64 
??0bad_typeid@std@@QEAA@AEBV01@@Z
; public: __cdecl std::bad_typeid::bad_typeid(char const *__ptr64)__ptr64 
??0bad_typeid@std@@QEAA@PEBD@Z
; public: __cdecl std::codecvt_base::codecvt_base(unsigned __int64)__ptr64 
??0codecvt_base@std@@QEAA@_K@Z
; public: __cdecl std::ctype_base::ctype_base(unsigned __int64)__ptr64 
??0ctype_base@std@@QEAA@_K@Z
; public: __cdecl std::domain_error::domain_error(class std::domain_error const &__ptr64 )__ptr64 
??0domain_error@std@@QEAA@AEBV01@@Z
; public: __cdecl std::domain_error::domain_error(class std::<char,struct std::<char>,class std::<char>> const &__ptr64 )__ptr64 
??0domain_error@std@@QEAA@AEBV?$basic_string@DU?$char_traits@D@std@@V?$allocator@D@2@@1@@Z
; protected: __cdecl std::locale::facet::facet(unsigned __int64)__ptr64 
??0facet@locale@std@@IEAA@_K@Z
; protected: __cdecl std::ios_base::ios_base(void)__ptr64 
??0ios_base@std@@IEAA@XZ
; public: __cdecl std::ios_base::ios_base(class std::ios_base const &__ptr64 )__ptr64 
??0ios_base@std@@QEAA@AEBV01@@Z
; public: __cdecl std::length_error::length_error(class std::length_error const &__ptr64 )__ptr64 
??0length_error@std@@QEAA@AEBV01@@Z
; public: __cdecl std::length_error::length_error(class std::<char,struct std::<char>,class std::<char>> const &__ptr64 )__ptr64 
??0length_error@std@@QEAA@AEBV?$basic_string@DU?$char_traits@D@std@@V?$allocator@D@2@@1@@Z
; private: __cdecl std::locale::locale(class std::locale::_Locimp *__ptr64)__ptr64 
??0locale@std@@AEAA@PEAV_Locimp@01@@Z
; public: __cdecl std::locale::locale(class std::locale const &__ptr64 ,class std::locale const &__ptr64 ,int)__ptr64 
??0locale@std@@QEAA@AEBV01@0H@Z
; public: __cdecl std::locale::locale(class std::locale const &__ptr64 )__ptr64 
??0locale@std@@QEAA@AEBV01@@Z
; public: __cdecl std::locale::locale(class std::locale const &__ptr64 ,char const *__ptr64,int)__ptr64 
??0locale@std@@QEAA@AEBV01@PEBDH@Z
; public: __cdecl std::locale::locale(char const *__ptr64,int)__ptr64 
??0locale@std@@QEAA@PEBDH@Z
; public: __cdecl std::locale::locale(enum std::_Uninitialized)__ptr64 
??0locale@std@@QEAA@W4_Uninitialized@1@@Z
; public: __cdecl std::locale::locale(void)__ptr64 
??0locale@std@@QEAA@XZ
; public: __cdecl std::logic_error::logic_error(class std::logic_error const &__ptr64 )__ptr64 
??0logic_error@std@@QEAA@AEBV01@@Z
; public: __cdecl std::logic_error::logic_error(class std::<char,struct std::<char>,class std::<char>> const &__ptr64 )__ptr64 
??0logic_error@std@@QEAA@AEBV?$basic_string@DU?$char_traits@D@std@@V?$allocator@D@2@@1@@Z
; public: __cdecl std::messages_base::messages_base(unsigned __int64)__ptr64 
??0messages_base@std@@QEAA@_K@Z
; public: __cdecl std::money_base::money_base(unsigned __int64)__ptr64 
??0money_base@std@@QEAA@_K@Z
; public: __cdecl std::ostrstream::ostrstream(char *__ptr64,__int64,int)__ptr64 
??0ostrstream@std@@QEAA@PEAD_JH@Z
; public: __cdecl std::out_of_range::out_of_range(class std::out_of_range const &__ptr64 )__ptr64 
??0out_of_range@std@@QEAA@AEBV01@@Z
; public: __cdecl std::out_of_range::out_of_range(class std::<char,struct std::<char>,class std::<char>> const &__ptr64 )__ptr64 
??0out_of_range@std@@QEAA@AEBV?$basic_string@DU?$char_traits@D@std@@V?$allocator@D@2@@1@@Z
; public: __cdecl std::overflow_error::overflow_error(class std::overflow_error const &__ptr64 )__ptr64 
??0overflow_error@std@@QEAA@AEBV01@@Z
; public: __cdecl std::overflow_error::overflow_error(class std::<char,struct std::<char>,class std::<char>> const &__ptr64 )__ptr64 
??0overflow_error@std@@QEAA@AEBV?$basic_string@DU?$char_traits@D@std@@V?$allocator@D@2@@1@@Z
; public: __cdecl std::range_error::range_error(class std::range_error const &__ptr64 )__ptr64 
??0range_error@std@@QEAA@AEBV01@@Z
; public: __cdecl std::range_error::range_error(class std::<char,struct std::<char>,class std::<char>> const &__ptr64 )__ptr64 
??0range_error@std@@QEAA@AEBV?$basic_string@DU?$char_traits@D@std@@V?$allocator@D@2@@1@@Z
; public: __cdecl std::runtime_error::runtime_error(class std::runtime_error const &__ptr64 )__ptr64 
??0runtime_error@std@@QEAA@AEBV01@@Z
; public: __cdecl std::runtime_error::runtime_error(class std::<char,struct std::<char>,class std::<char>> const &__ptr64 )__ptr64 
??0runtime_error@std@@QEAA@AEBV?$basic_string@DU?$char_traits@D@std@@V?$allocator@D@2@@1@@Z
; public: __cdecl std::strstream::strstream(char *__ptr64,__int64,int)__ptr64 
??0strstream@std@@QEAA@PEAD_JH@Z
; public: __cdecl std::time_base::time_base(unsigned __int64)__ptr64 
??0time_base@std@@QEAA@_K@Z
; public: __cdecl std::underflow_error::underflow_error(class std::underflow_error const &__ptr64 )__ptr64 
??0underflow_error@std@@QEAA@AEBV01@@Z
; public: __cdecl std::underflow_error::underflow_error(class std::<char,struct std::<char>,class std::<char>> const &__ptr64 )__ptr64 
??0underflow_error@std@@QEAA@AEBV?$basic_string@DU?$char_traits@D@std@@V?$allocator@D@2@@1@@Z
; public: virtual __cdecl std::<char>::~<char>(void)__ptr64 
??1?$_Mpunct@D@std@@UEAA@XZ
; public: virtual __cdecl std::<unsigned short>::~<unsigned short>(void)__ptr64 
??1?$_Mpunct@G@std@@UEAA@XZ
; public: virtual __cdecl std::<char,struct std::<char>>::~<char,struct std::<char>>(void)__ptr64 
??1?$basic_filebuf@DU?$char_traits@D@std@@@std@@UEAA@XZ
; public: virtual __cdecl std::<unsigned short,struct std::<unsigned short>>::~<unsigned short,struct std::<unsigned short>>(void)__ptr64 
??1?$basic_filebuf@GU?$char_traits@G@std@@@std@@UEAA@XZ
; public: virtual __cdecl std::<char,struct std::<char>>::~<char,struct std::<char>>(void)__ptr64 
??1?$basic_fstream@DU?$char_traits@D@std@@@std@@UEAA@XZ
; public: virtual __cdecl std::<unsigned short,struct std::<unsigned short>>::~<unsigned short,struct std::<unsigned short>>(void)__ptr64 
??1?$basic_fstream@GU?$char_traits@G@std@@@std@@UEAA@XZ
; public: virtual __cdecl std::<char,struct std::<char>>::~<char,struct std::<char>>(void)__ptr64 
??1?$basic_ifstream@DU?$char_traits@D@std@@@std@@UEAA@XZ
; public: virtual __cdecl std::<unsigned short,struct std::<unsigned short>>::~<unsigned short,struct std::<unsigned short>>(void)__ptr64 
??1?$basic_ifstream@GU?$char_traits@G@std@@@std@@UEAA@XZ
; public: virtual __cdecl std::<char,struct std::<char>>::~<char,struct std::<char>>(void)__ptr64 
??1?$basic_ios@DU?$char_traits@D@std@@@std@@UEAA@XZ
; public: virtual __cdecl std::<unsigned short,struct std::<unsigned short>>::~<unsigned short,struct std::<unsigned short>>(void)__ptr64 
??1?$basic_ios@GU?$char_traits@G@std@@@std@@UEAA@XZ
; public: virtual __cdecl std::<char,struct std::<char>>::~<char,struct std::<char>>(void)__ptr64 
??1?$basic_iostream@DU?$char_traits@D@std@@@std@@UEAA@XZ
; public: virtual __cdecl std::<unsigned short,struct std::<unsigned short>>::~<unsigned short,struct std::<unsigned short>>(void)__ptr64 
??1?$basic_iostream@GU?$char_traits@G@std@@@std@@UEAA@XZ
; public: virtual __cdecl std::<char,struct std::<char>>::~<char,struct std::<char>>(void)__ptr64 
??1?$basic_istream@DU?$char_traits@D@std@@@std@@UEAA@XZ
; public: virtual __cdecl std::<unsigned short,struct std::<unsigned short>>::~<unsigned short,struct std::<unsigned short>>(void)__ptr64 
??1?$basic_istream@GU?$char_traits@G@std@@@std@@UEAA@XZ
; public: virtual __cdecl std::<char,struct std::<char>,class std::<char>>::~<char,struct std::<char>,class std::<char>>(void)__ptr64 
??1?$basic_istringstream@DU?$char_traits@D@std@@V?$allocator@D@2@@std@@UEAA@XZ
; public: virtual __cdecl std::<unsigned short,struct std::<unsigned short>,class std::<unsigned short>>::~<unsigned short,struct std::<unsigned short>,class std::<unsigned short>>(void)__ptr64 
??1?$basic_istringstream@GU?$char_traits@G@std@@V?$allocator@G@2@@std@@UEAA@XZ
; public: virtual __cdecl std::<char,struct std::<char>>::~<char,struct std::<char>>(void)__ptr64 
??1?$basic_ofstream@DU?$char_traits@D@std@@@std@@UEAA@XZ
; public: virtual __cdecl std::<unsigned short,struct std::<unsigned short>>::~<unsigned short,struct std::<unsigned short>>(void)__ptr64 
??1?$basic_ofstream@GU?$char_traits@G@std@@@std@@UEAA@XZ
; public: virtual __cdecl std::<char,struct std::<char>>::~<char,struct std::<char>>(void)__ptr64 
??1?$basic_ostream@DU?$char_traits@D@std@@@std@@UEAA@XZ
; public: virtual __cdecl std::<unsigned short,struct std::<unsigned short>>::~<unsigned short,struct std::<unsigned short>>(void)__ptr64 
??1?$basic_ostream@GU?$char_traits@G@std@@@std@@UEAA@XZ
; public: virtual __cdecl std::<char,struct std::<char>,class std::<char>>::~<char,struct std::<char>,class std::<char>>(void)__ptr64 
??1?$basic_ostringstream@DU?$char_traits@D@std@@V?$allocator@D@2@@std@@UEAA@XZ
; public: virtual __cdecl std::<unsigned short,struct std::<unsigned short>,class std::<unsigned short>>::~<unsigned short,struct std::<unsigned short>,class std::<unsigned short>>(void)__ptr64 
??1?$basic_ostringstream@GU?$char_traits@G@std@@V?$allocator@G@2@@std@@UEAA@XZ
; public: virtual __cdecl std::<char,struct std::<char>>::~<char,struct std::<char>>(void)__ptr64 
??1?$basic_streambuf@DU?$char_traits@D@std@@@std@@UEAA@XZ
; public: virtual __cdecl std::<unsigned short,struct std::<unsigned short>>::~<unsigned short,struct std::<unsigned short>>(void)__ptr64 
??1?$basic_streambuf@GU?$char_traits@G@std@@@std@@UEAA@XZ
; public: __cdecl std::<char,struct std::<char>,class std::<char>>::~<char,struct std::<char>,class std::<char>>(void)__ptr64 
??1?$basic_string@DU?$char_traits@D@std@@V?$allocator@D@2@@std@@QEAA@XZ
; public: __cdecl std::<unsigned short,struct std::<unsigned short>,class std::<unsigned short>>::~<unsigned short,struct std::<unsigned short>,class std::<unsigned short>>(void)__ptr64 
??1?$basic_string@GU?$char_traits@G@std@@V?$allocator@G@2@@std@@QEAA@XZ
; public: virtual __cdecl std::<char,struct std::<char>,class std::<char>>::~<char,struct std::<char>,class std::<char>>(void)__ptr64 
??1?$basic_stringbuf@DU?$char_traits@D@std@@V?$allocator@D@2@@std@@UEAA@XZ
; public: virtual __cdecl std::<unsigned short,struct std::<unsigned short>,class std::<unsigned short>>::~<unsigned short,struct std::<unsigned short>,class std::<unsigned short>>(void)__ptr64 
??1?$basic_stringbuf@GU?$char_traits@G@std@@V?$allocator@G@2@@std@@UEAA@XZ
; public: virtual __cdecl std::<char,struct std::<char>,class std::<char>>::~<char,struct std::<char>,class std::<char>>(void)__ptr64 
??1?$basic_stringstream@DU?$char_traits@D@std@@V?$allocator@D@2@@std@@UEAA@XZ
; public: virtual __cdecl std::<unsigned short,struct std::<unsigned short>,class std::<unsigned short>>::~<unsigned short,struct std::<unsigned short>,class std::<unsigned short>>(void)__ptr64 
??1?$basic_stringstream@GU?$char_traits@G@std@@V?$allocator@G@2@@std@@UEAA@XZ
; public: virtual __cdecl std::<char,char,int>::~<char,char,int>(void)__ptr64 
??1?$codecvt@DDH@std@@UEAA@XZ
; public: virtual __cdecl std::<unsigned short,char,int>::~<unsigned short,char,int>(void)__ptr64 
??1?$codecvt@GDH@std@@UEAA@XZ
; public: virtual __cdecl std::<char>::~<char>(void)__ptr64 
??1?$collate@D@std@@UEAA@XZ
; public: virtual __cdecl std::<unsigned short>::~<unsigned short>(void)__ptr64 
??1?$collate@G@std@@UEAA@XZ
; public: virtual __cdecl std::<char>::~<char>(void)__ptr64 
??1?$ctype@D@std@@UEAA@XZ
; public: virtual __cdecl std::<unsigned short>::~<unsigned short>(void)__ptr64 
??1?$ctype@G@std@@UEAA@XZ
; public: virtual __cdecl std::<char>::~<char>(void)__ptr64 
??1?$messages@D@std@@UEAA@XZ
; public: virtual __cdecl std::<unsigned short>::~<unsigned short>(void)__ptr64 
??1?$messages@G@std@@UEAA@XZ
; public: virtual __cdecl std::<char,class std::<char,struct std::<char>>>::~<char,class std::<char,struct std::<char>>>(void)__ptr64 
??1?$money_get@DV?$istreambuf_iterator@DU?$char_traits@D@std@@@std@@@std@@UEAA@XZ
; public: virtual __cdecl std::<unsigned short,class std::<unsigned short,struct std::<unsigned short>>>::~<unsigned short,class std::<unsigned short,struct std::<unsigned short>>>(void)__ptr64 
??1?$money_get@GV?$istreambuf_iterator@GU?$char_traits@G@std@@@std@@@std@@UEAA@XZ
; public: virtual __cdecl std::<char,class std::<char,struct std::<char>>>::~<char,class std::<char,struct std::<char>>>(void)__ptr64 
??1?$money_put@DV?$ostreambuf_iterator@DU?$char_traits@D@std@@@std@@@std@@UEAA@XZ
; public: virtual __cdecl std::<unsigned short,class std::<unsigned short,struct std::<unsigned short>>>::~<unsigned short,class std::<unsigned short,struct std::<unsigned short>>>(void)__ptr64 
??1?$money_put@GV?$ostreambuf_iterator@GU?$char_traits@G@std@@@std@@@std@@UEAA@XZ
; public: virtual __cdecl std::<char,0x1ULL>::~<char,0x1ULL>(void)__ptr64 
??1?$moneypunct@D$00@std@@UEAA@XZ
; public: virtual __cdecl std::<char,0x0ULL>::~<char,0x0ULL>(void)__ptr64 
??1?$moneypunct@D$0A@@std@@UEAA@XZ
; public: virtual __cdecl std::<unsigned short,0x1ULL>::~<unsigned short,0x1ULL>(void)__ptr64 
??1?$moneypunct@G$00@std@@UEAA@XZ
; public: virtual __cdecl std::<unsigned short,0x0ULL>::~<unsigned short,0x0ULL>(void)__ptr64 
??1?$moneypunct@G$0A@@std@@UEAA@XZ
; public: virtual __cdecl std::<char,class std::<char,struct std::<char>>>::~<char,class std::<char,struct std::<char>>>(void)__ptr64 
??1?$num_get@DV?$istreambuf_iterator@DU?$char_traits@D@std@@@std@@@std@@UEAA@XZ
; public: virtual __cdecl std::<unsigned short,class std::<unsigned short,struct std::<unsigned short>>>::~<unsigned short,class std::<unsigned short,struct std::<unsigned short>>>(void)__ptr64 
??1?$num_get@GV?$istreambuf_iterator@GU?$char_traits@G@std@@@std@@@std@@UEAA@XZ
; public: virtual __cdecl std::<char,class std::<char,struct std::<char>>>::~<char,class std::<char,struct std::<char>>>(void)__ptr64 
??1?$num_put@DV?$ostreambuf_iterator@DU?$char_traits@D@std@@@std@@@std@@UEAA@XZ
; public: virtual __cdecl std::<unsigned short,class std::<unsigned short,struct std::<unsigned short>>>::~<unsigned short,class std::<unsigned short,struct std::<unsigned short>>>(void)__ptr64 
??1?$num_put@GV?$ostreambuf_iterator@GU?$char_traits@G@std@@@std@@@std@@UEAA@XZ
; public: virtual __cdecl std::<char>::~<char>(void)__ptr64 
??1?$numpunct@D@std@@UEAA@XZ
; public: virtual __cdecl std::<unsigned short>::~<unsigned short>(void)__ptr64 
??1?$numpunct@G@std@@UEAA@XZ
; public: virtual __cdecl std::<char,class std::<char,struct std::<char>>>::~<char,class std::<char,struct std::<char>>>(void)__ptr64 
??1?$time_get@DV?$istreambuf_iterator@DU?$char_traits@D@std@@@std@@@std@@UEAA@XZ
; public: virtual __cdecl std::<unsigned short,class std::<unsigned short,struct std::<unsigned short>>>::~<unsigned short,class std::<unsigned short,struct std::<unsigned short>>>(void)__ptr64 
??1?$time_get@GV?$istreambuf_iterator@GU?$char_traits@G@std@@@std@@@std@@UEAA@XZ
; public: virtual __cdecl std::<char,class std::<char,struct std::<char>>>::~<char,class std::<char,struct std::<char>>>(void)__ptr64 
??1?$time_put@DV?$ostreambuf_iterator@DU?$char_traits@D@std@@@std@@@std@@UEAA@XZ
; public: virtual __cdecl std::<unsigned short,class std::<unsigned short,struct std::<unsigned short>>>::~<unsigned short,class std::<unsigned short,struct std::<unsigned short>>>(void)__ptr64 
??1?$time_put@GV?$ostreambuf_iterator@GU?$char_traits@G@std@@@std@@@std@@UEAA@XZ
; public: __cdecl std::ios_base::Init::~Init(void)__ptr64 
??1Init@ios_base@std@@QEAA@XZ
; public: __cdecl std::_Locinfo::~_Locinfo(void)__ptr64 
??1_Locinfo@std@@QEAA@XZ
; public: __cdecl std::_Lockit::~_Lockit(void)__ptr64 
??1_Lockit@std@@QEAA@XZ
; public: __cdecl std::_Timevec::~_Timevec(void)__ptr64 
??1_Timevec@std@@QEAA@XZ
; public: __cdecl std::_Winit::~_Winit(void)__ptr64 
??1_Winit@std@@QEAA@XZ
; public: virtual __cdecl std::__non_rtti_object::~__non_rtti_object(void)__ptr64 
??1__non_rtti_object@std@@UEAA@XZ
; public: virtual __cdecl std::bad_alloc::~bad_alloc(void)__ptr64 
??1bad_alloc@std@@UEAA@XZ
; public: virtual __cdecl std::bad_cast::~bad_cast(void)__ptr64 
??1bad_cast@std@@UEAA@XZ
; public: virtual __cdecl std::bad_exception::~bad_exception(void)__ptr64 
??1bad_exception@std@@UEAA@XZ
; public: virtual __cdecl std::bad_typeid::~bad_typeid(void)__ptr64 
??1bad_typeid@std@@UEAA@XZ
; public: virtual __cdecl std::codecvt_base::~codecvt_base(void)__ptr64 
??1codecvt_base@std@@UEAA@XZ
; public: virtual __cdecl std::ctype_base::~ctype_base(void)__ptr64 
??1ctype_base@std@@UEAA@XZ
; public: virtual __cdecl std::domain_error::~domain_error(void)__ptr64 
??1domain_error@std@@UEAA@XZ
; public: virtual __cdecl std::locale::facet::~facet(void)__ptr64 
??1facet@locale@std@@UEAA@XZ
; public: virtual __cdecl std::ios_base::~ios_base(void)__ptr64 
??1ios_base@std@@UEAA@XZ
; public: virtual __cdecl std::istrstream::~istrstream(void)__ptr64 
??1istrstream@std@@UEAA@XZ
; public: virtual __cdecl std::length_error::~length_error(void)__ptr64 
??1length_error@std@@UEAA@XZ
; public: __cdecl std::locale::~locale(void)__ptr64 
??1locale@std@@QEAA@XZ
; public: virtual __cdecl std::logic_error::~logic_error(void)__ptr64 
??1logic_error@std@@UEAA@XZ
; public: virtual __cdecl std::messages_base::~messages_base(void)__ptr64 
??1messages_base@std@@UEAA@XZ
; public: virtual __cdecl std::money_base::~money_base(void)__ptr64 
??1money_base@std@@UEAA@XZ
; public: virtual __cdecl std::ostrstream::~ostrstream(void)__ptr64 
??1ostrstream@std@@UEAA@XZ
; public: virtual __cdecl std::out_of_range::~out_of_range(void)__ptr64 
??1out_of_range@std@@UEAA@XZ
; public: virtual __cdecl std::overflow_error::~overflow_error(void)__ptr64 
??1overflow_error@std@@UEAA@XZ
; public: virtual __cdecl std::range_error::~range_error(void)__ptr64 
??1range_error@std@@UEAA@XZ
; public: virtual __cdecl std::runtime_error::~runtime_error(void)__ptr64 
??1runtime_error@std@@UEAA@XZ
; public: virtual __cdecl std::strstream::~strstream(void)__ptr64 
??1strstream@std@@UEAA@XZ
; public: virtual __cdecl std::strstreambuf::~strstreambuf(void)__ptr64 
??1strstreambuf@std@@UEAA@XZ
; public: virtual __cdecl std::time_base::~time_base(void)__ptr64 
??1time_base@std@@UEAA@XZ
; public: virtual __cdecl std::underflow_error::~underflow_error(void)__ptr64 
??1underflow_error@std@@UEAA@XZ
; public: class std::<float> &__ptr64 __cdecl std::<float>::operator =(class std::<float> const &__ptr64 )__ptr64 
??4?$_Complex_base@M@std@@QEAAAEAV01@AEBV01@@Z
; public: class std::<double> &__ptr64 __cdecl std::<double>::operator =(class std::<double> const &__ptr64 )__ptr64 
??4?$_Complex_base@N@std@@QEAAAEAV01@AEBV01@@Z
; public: class std::<long double> &__ptr64 __cdecl std::<long double>::operator =(class std::<long double> const &__ptr64 )__ptr64 
??4?$_Complex_base@O@std@@QEAAAEAV01@AEBV01@@Z
; public: class std::<float> &__ptr64 __cdecl std::<float>::operator =(class std::<float> const &__ptr64 )__ptr64 
??4?$_Ctr@M@std@@QEAAAEAV01@AEBV01@@Z
; public: class std::<double> &__ptr64 __cdecl std::<double>::operator =(class std::<double> const &__ptr64 )__ptr64 
??4?$_Ctr@N@std@@QEAAAEAV01@AEBV01@@Z
; public: class std::<long double> &__ptr64 __cdecl std::<long double>::operator =(class std::<long double> const &__ptr64 )__ptr64 
??4?$_Ctr@O@std@@QEAAAEAV01@AEBV01@@Z
; public: class std::<void> &__ptr64 __cdecl std::<void>::operator =(class std::<void> const &__ptr64 )__ptr64 
??4?$allocator@X@std@@QEAAAEAV01@AEBV01@@Z
; public: class std::<char,struct std::<char>> &__ptr64 __cdecl std::<char,struct std::<char>>::operator =(class std::<char,struct std::<char>> const &__ptr64 )__ptr64 
??4?$basic_filebuf@DU?$char_traits@D@std@@@std@@QEAAAEAV01@AEBV01@@Z
; public: class std::<unsigned short,struct std::<unsigned short>> &__ptr64 __cdecl std::<unsigned short,struct std::<unsigned short>>::operator =(class std::<unsigned short,struct std::<unsigned short>> const &__ptr64 )__ptr64 
??4?$basic_filebuf@GU?$char_traits@G@std@@@std@@QEAAAEAV01@AEBV01@@Z
; public: class std::<char,struct std::<char>> &__ptr64 __cdecl std::<char,struct std::<char>>::operator =(class std::<char,struct std::<char>> const &__ptr64 )__ptr64 
??4?$basic_fstream@DU?$char_traits@D@std@@@std@@QEAAAEAV01@AEBV01@@Z
; public: class std::<unsigned short,struct std::<unsigned short>> &__ptr64 __cdecl std::<unsigned short,struct std::<unsigned short>>::operator =(class std::<unsigned short,struct std::<unsigned short>> const &__ptr64 )__ptr64 
??4?$basic_fstream@GU?$char_traits@G@std@@@std@@QEAAAEAV01@AEBV01@@Z
; public: class std::<char,struct std::<char>> &__ptr64 __cdecl std::<char,struct std::<char>>::operator =(class std::<char,struct std::<char>> const &__ptr64 )__ptr64 
??4?$basic_ifstream@DU?$char_traits@D@std@@@std@@QEAAAEAV01@AEBV01@@Z
; public: class std::<unsigned short,struct std::<unsigned short>> &__ptr64 __cdecl std::<unsigned short,struct std::<unsigned short>>::operator =(class std::<unsigned short,struct std::<unsigned short>> const &__ptr64 )__ptr64 
??4?$basic_ifstream@GU?$char_traits@G@std@@@std@@QEAAAEAV01@AEBV01@@Z
; public: class std::<char,struct std::<char>> &__ptr64 __cdecl std::<char,struct std::<char>>::operator =(class std::<char,struct std::<char>> const &__ptr64 )__ptr64 
??4?$basic_ios@DU?$char_traits@D@std@@@std@@QEAAAEAV01@AEBV01@@Z
; public: class std::<unsigned short,struct std::<unsigned short>> &__ptr64 __cdecl std::<unsigned short,struct std::<unsigned short>>::operator =(class std::<unsigned short,struct std::<unsigned short>> const &__ptr64 )__ptr64 
??4?$basic_ios@GU?$char_traits@G@std@@@std@@QEAAAEAV01@AEBV01@@Z
; public: class std::<char,struct std::<char>> &__ptr64 __cdecl std::<char,struct std::<char>>::operator =(class std::<char,struct std::<char>> const &__ptr64 )__ptr64 
??4?$basic_iostream@DU?$char_traits@D@std@@@std@@QEAAAEAV01@AEBV01@@Z
; public: class std::<unsigned short,struct std::<unsigned short>> &__ptr64 __cdecl std::<unsigned short,struct std::<unsigned short>>::operator =(class std::<unsigned short,struct std::<unsigned short>> const &__ptr64 )__ptr64 
??4?$basic_iostream@GU?$char_traits@G@std@@@std@@QEAAAEAV01@AEBV01@@Z
; public: class std::<char,struct std::<char>> &__ptr64 __cdecl std::<char,struct std::<char>>::operator =(class std::<char,struct std::<char>> const &__ptr64 )__ptr64 
??4?$basic_istream@DU?$char_traits@D@std@@@std@@QEAAAEAV01@AEBV01@@Z
; public: class std::<unsigned short,struct std::<unsigned short>> &__ptr64 __cdecl std::<unsigned short,struct std::<unsigned short>>::operator =(class std::<unsigned short,struct std::<unsigned short>> const &__ptr64 )__ptr64 
??4?$basic_istream@GU?$char_traits@G@std@@@std@@QEAAAEAV01@AEBV01@@Z
; public: class std::<char,struct std::<char>,class std::<char>> &__ptr64 __cdecl std::<char,struct std::<char>,class std::<char>>::operator =(class std::<char,struct std::<char>,class std::<char>> const &__ptr64 )__ptr64 
??4?$basic_istringstream@DU?$char_traits@D@std@@V?$allocator@D@2@@std@@QEAAAEAV01@AEBV01@@Z
; public: class std::<unsigned short,struct std::<unsigned short>,class std::<unsigned short>> &__ptr64 __cdecl std::<unsigned short,struct std::<unsigned short>,class std::<unsigned short>>::operator =(class std::<unsigned short,struct std::<unsigned short>,class std::<unsigned short>> const &__ptr64 )__ptr64 
??4?$basic_istringstream@GU?$char_traits@G@std@@V?$allocator@G@2@@std@@QEAAAEAV01@AEBV01@@Z
; public: class std::<char,struct std::<char>> &__ptr64 __cdecl std::<char,struct std::<char>>::operator =(class std::<char,struct std::<char>> const &__ptr64 )__ptr64 
??4?$basic_ofstream@DU?$char_traits@D@std@@@std@@QEAAAEAV01@AEBV01@@Z
; public: class std::<unsigned short,struct std::<unsigned short>> &__ptr64 __cdecl std::<unsigned short,struct std::<unsigned short>>::operator =(class std::<unsigned short,struct std::<unsigned short>> const &__ptr64 )__ptr64 
??4?$basic_ofstream@GU?$char_traits@G@std@@@std@@QEAAAEAV01@AEBV01@@Z
; public: class std::<char,struct std::<char>> &__ptr64 __cdecl std::<char,struct std::<char>>::operator =(class std::<char,struct std::<char>> const &__ptr64 )__ptr64 
??4?$basic_ostream@DU?$char_traits@D@std@@@std@@QEAAAEAV01@AEBV01@@Z
; public: class std::<unsigned short,struct std::<unsigned short>> &__ptr64 __cdecl std::<unsigned short,struct std::<unsigned short>>::operator =(class std::<unsigned short,struct std::<unsigned short>> const &__ptr64 )__ptr64 
??4?$basic_ostream@GU?$char_traits@G@std@@@std@@QEAAAEAV01@AEBV01@@Z
; public: class std::<char,struct std::<char>,class std::<char>> &__ptr64 __cdecl std::<char,struct std::<char>,class std::<char>>::operator =(class std::<char,struct std::<char>,class std::<char>> const &__ptr64 )__ptr64 
??4?$basic_ostringstream@DU?$char_traits@D@std@@V?$allocator@D@2@@std@@QEAAAEAV01@AEBV01@@Z
; public: class std::<unsigned short,struct std::<unsigned short>,class std::<unsigned short>> &__ptr64 __cdecl std::<unsigned short,struct std::<unsigned short>,class std::<unsigned short>>::operator =(class std::<unsigned short,struct std::<unsigned short>,class std::<unsigned short>> const &__ptr64 )__ptr64 
??4?$basic_ostringstream@GU?$char_traits@G@std@@V?$allocator@G@2@@std@@QEAAAEAV01@AEBV01@@Z
; public: class std::<char,struct std::<char>> &__ptr64 __cdecl std::<char,struct std::<char>>::operator =(class std::<char,struct std::<char>> const &__ptr64 )__ptr64 
??4?$basic_streambuf@DU?$char_traits@D@std@@@std@@QEAAAEAV01@AEBV01@@Z
; public: class std::<unsigned short,struct std::<unsigned short>> &__ptr64 __cdecl std::<unsigned short,struct std::<unsigned short>>::operator =(class std::<unsigned short,struct std::<unsigned short>> const &__ptr64 )__ptr64 
??4?$basic_streambuf@GU?$char_traits@G@std@@@std@@QEAAAEAV01@AEBV01@@Z
; public: class std::<char,struct std::<char>,class std::<char>> &__ptr64 __cdecl std::<char,struct std::<char>,class std::<char>>::operator =(class std::<char,struct std::<char>,class std::<char>> const &__ptr64 )__ptr64 
??4?$basic_string@DU?$char_traits@D@std@@V?$allocator@D@2@@std@@QEAAAEAV01@AEBV01@@Z
; public: class std::<char,struct std::<char>,class std::<char>> &__ptr64 __cdecl std::<char,struct std::<char>,class std::<char>>::operator =(char)__ptr64 
??4?$basic_string@DU?$char_traits@D@std@@V?$allocator@D@2@@std@@QEAAAEAV01@D@Z
; public: class std::<char,struct std::<char>,class std::<char>> &__ptr64 __cdecl std::<char,struct std::<char>,class std::<char>>::operator =(char const *__ptr64)__ptr64 
??4?$basic_string@DU?$char_traits@D@std@@V?$allocator@D@2@@std@@QEAAAEAV01@PEBD@Z
; public: class std::<unsigned short,struct std::<unsigned short>,class std::<unsigned short>> &__ptr64 __cdecl std::<unsigned short,struct std::<unsigned short>,class std::<unsigned short>>::operator =(class std::<unsigned short,struct std::<unsigned short>,class std::<unsigned short>> const &__ptr64 )__ptr64 
??4?$basic_string@GU?$char_traits@G@std@@V?$allocator@G@2@@std@@QEAAAEAV01@AEBV01@@Z
; public: class std::<unsigned short,struct std::<unsigned short>,class std::<unsigned short>> &__ptr64 __cdecl std::<unsigned short,struct std::<unsigned short>,class std::<unsigned short>>::operator =(unsigned short)__ptr64 
??4?$basic_string@GU?$char_traits@G@std@@V?$allocator@G@2@@std@@QEAAAEAV01@G@Z
; public: class std::<unsigned short,struct std::<unsigned short>,class std::<unsigned short>> &__ptr64 __cdecl std::<unsigned short,struct std::<unsigned short>,class std::<unsigned short>>::operator =(unsigned short const *__ptr64)__ptr64 
??4?$basic_string@GU?$char_traits@G@std@@V?$allocator@G@2@@std@@QEAAAEAV01@PEBG@Z
; public: class std::<char,struct std::<char>,class std::<char>> &__ptr64 __cdecl std::<char,struct std::<char>,class std::<char>>::operator =(class std::<char,struct std::<char>,class std::<char>> const &__ptr64 )__ptr64 
??4?$basic_stringbuf@DU?$char_traits@D@std@@V?$allocator@D@2@@std@@QEAAAEAV01@AEBV01@@Z
; public: class std::<unsigned short,struct std::<unsigned short>,class std::<unsigned short>> &__ptr64 __cdecl std::<unsigned short,struct std::<unsigned short>,class std::<unsigned short>>::operator =(class std::<unsigned short,struct std::<unsigned short>,class std::<unsigned short>> const &__ptr64 )__ptr64 
??4?$basic_stringbuf@GU?$char_traits@G@std@@V?$allocator@G@2@@std@@QEAAAEAV01@AEBV01@@Z
; public: class std::<char,struct std::<char>,class std::<char>> &__ptr64 __cdecl std::<char,struct std::<char>,class std::<char>>::operator =(class std::<char,struct std::<char>,class std::<char>> const &__ptr64 )__ptr64 
??4?$basic_stringstream@DU?$char_traits@D@std@@V?$allocator@D@2@@std@@QEAAAEAV01@AEBV01@@Z
; public: class std::<unsigned short,struct std::<unsigned short>,class std::<unsigned short>> &__ptr64 __cdecl std::<unsigned short,struct std::<unsigned short>,class std::<unsigned short>>::operator =(class std::<unsigned short,struct std::<unsigned short>,class std::<unsigned short>> const &__ptr64 )__ptr64 
??4?$basic_stringstream@GU?$char_traits@G@std@@V?$allocator@G@2@@std@@QEAAAEAV01@AEBV01@@Z
; public: struct std::<char> &__ptr64 __cdecl std::<char>::operator =(struct std::<char> const &__ptr64 )__ptr64 
??4?$char_traits@D@std@@QEAAAEAU01@AEBU01@@Z
; public: struct std::<unsigned short> &__ptr64 __cdecl std::<unsigned short>::operator =(struct std::<unsigned short> const &__ptr64 )__ptr64 
??4?$char_traits@G@std@@QEAAAEAU01@AEBU01@@Z
; public: class std::<float> &__ptr64 __cdecl std::<float>::operator =(float const &__ptr64 )__ptr64 
??4?$complex@M@std@@QEAAAEAV01@AEBM@Z
; public: class std::<float> &__ptr64 __cdecl std::<float>::operator =(class std::<float> const &__ptr64 )__ptr64 
??4?$complex@M@std@@QEAAAEAV01@AEBV01@@Z
; public: class std::<double> &__ptr64 __cdecl std::<double>::operator =(double const &__ptr64 )__ptr64 
??4?$complex@N@std@@QEAAAEAV01@AEBN@Z
; public: class std::<double> &__ptr64 __cdecl std::<double>::operator =(class std::<double> const &__ptr64 )__ptr64 
??4?$complex@N@std@@QEAAAEAV01@AEBV01@@Z
; public: class std::<long double> &__ptr64 __cdecl std::<long double>::operator =(long double const &__ptr64 )__ptr64 
??4?$complex@O@std@@QEAAAEAV01@AEBO@Z
; public: class std::<long double> &__ptr64 __cdecl std::<long double>::operator =(class std::<long double> const &__ptr64 )__ptr64 
??4?$complex@O@std@@QEAAAEAV01@AEBV01@@Z
; public: class std::<signed char> &__ptr64 __cdecl std::<signed char>::operator =(class std::<signed char> const &__ptr64 )__ptr64 
??4?$numeric_limits@C@std@@QEAAAEAV01@AEBV01@@Z
; public: class std::<char> &__ptr64 __cdecl std::<char>::operator =(class std::<char> const &__ptr64 )__ptr64 
??4?$numeric_limits@D@std@@QEAAAEAV01@AEBV01@@Z
; public: class std::<unsigned char> &__ptr64 __cdecl std::<unsigned char>::operator =(class std::<unsigned char> const &__ptr64 )__ptr64 
??4?$numeric_limits@E@std@@QEAAAEAV01@AEBV01@@Z
; public: class std::<short> &__ptr64 __cdecl std::<short>::operator =(class std::<short> const &__ptr64 )__ptr64 
??4?$numeric_limits@F@std@@QEAAAEAV01@AEBV01@@Z
; public: class std::<unsigned short> &__ptr64 __cdecl std::<unsigned short>::operator =(class std::<unsigned short> const &__ptr64 )__ptr64 
??4?$numeric_limits@G@std@@QEAAAEAV01@AEBV01@@Z
; public: class std::<int> &__ptr64 __cdecl std::<int>::operator =(class std::<int> const &__ptr64 )__ptr64 
??4?$numeric_limits@H@std@@QEAAAEAV01@AEBV01@@Z
; public: class std::<unsigned int> &__ptr64 __cdecl std::<unsigned int>::operator =(class std::<unsigned int> const &__ptr64 )__ptr64 
??4?$numeric_limits@I@std@@QEAAAEAV01@AEBV01@@Z
; public: class std::<long> &__ptr64 __cdecl std::<long>::operator =(class std::<long> const &__ptr64 )__ptr64 
??4?$numeric_limits@J@std@@QEAAAEAV01@AEBV01@@Z
; public: class std::<unsigned long> &__ptr64 __cdecl std::<unsigned long>::operator =(class std::<unsigned long> const &__ptr64 )__ptr64 
??4?$numeric_limits@K@std@@QEAAAEAV01@AEBV01@@Z
; public: class std::<float> &__ptr64 __cdecl std::<float>::operator =(class std::<float> const &__ptr64 )__ptr64 
??4?$numeric_limits@M@std@@QEAAAEAV01@AEBV01@@Z
; public: class std::<double> &__ptr64 __cdecl std::<double>::operator =(class std::<double> const &__ptr64 )__ptr64 
??4?$numeric_limits@N@std@@QEAAAEAV01@AEBV01@@Z
; public: class std::<long double> &__ptr64 __cdecl std::<long double>::operator =(class std::<long double> const &__ptr64 )__ptr64 
??4?$numeric_limits@O@std@@QEAAAEAV01@AEBV01@@Z
; public: class std::<bool> &__ptr64 __cdecl std::<bool>::operator =(class std::<bool> const &__ptr64 )__ptr64 
??4?$numeric_limits@_N@std@@QEAAAEAV01@AEBV01@@Z
; public: class std::ios_base::Init &__ptr64 __cdecl std::ios_base::Init::operator =(class std::ios_base::Init const &__ptr64 )__ptr64 
??4Init@ios_base@std@@QEAAAEAV012@AEBV012@@Z
; public: class std::_Locinfo &__ptr64 __cdecl std::_Locinfo::operator =(class std::_Locinfo const &__ptr64 )__ptr64 
??4_Locinfo@std@@QEAAAEAV01@AEBV01@@Z
; public: class std::_Lockit &__ptr64 __cdecl std::_Lockit::operator =(class std::_Lockit const &__ptr64 )__ptr64 
??4_Lockit@std@@QEAAAEAV01@AEBV01@@Z
; public: struct std::_Num_base &__ptr64 __cdecl std::_Num_base::operator =(struct std::_Num_base const &__ptr64 )__ptr64 
??4_Num_base@std@@QEAAAEAU01@AEBU01@@Z
; public: struct std::_Num_float_base &__ptr64 __cdecl std::_Num_float_base::operator =(struct std::_Num_float_base const &__ptr64 )__ptr64 
??4_Num_float_base@std@@QEAAAEAU01@AEBU01@@Z
; public: struct std::_Num_int_base &__ptr64 __cdecl std::_Num_int_base::operator =(struct std::_Num_int_base const &__ptr64 )__ptr64 
??4_Num_int_base@std@@QEAAAEAU01@AEBU01@@Z
; public: class std::_Timevec &__ptr64 __cdecl std::_Timevec::operator =(class std::_Timevec const &__ptr64 )__ptr64 
??4_Timevec@std@@QEAAAEAV01@AEBV01@@Z
; public: class std::_Winit &__ptr64 __cdecl std::_Winit::operator =(class std::_Winit const &__ptr64 )__ptr64 
??4_Winit@std@@QEAAAEAV01@AEBV01@@Z
; public: class std::__non_rtti_object &__ptr64 __cdecl std::__non_rtti_object::operator =(class std::__non_rtti_object const &__ptr64 )__ptr64 
??4__non_rtti_object@std@@QEAAAEAV01@AEBV01@@Z
; public: class std::bad_alloc &__ptr64 __cdecl std::bad_alloc::operator =(class std::bad_alloc const &__ptr64 )__ptr64 
??4bad_alloc@std@@QEAAAEAV01@AEBV01@@Z
; public: class std::bad_cast &__ptr64 __cdecl std::bad_cast::operator =(class std::bad_cast const &__ptr64 )__ptr64 
??4bad_cast@std@@QEAAAEAV01@AEBV01@@Z
; public: class std::bad_exception &__ptr64 __cdecl std::bad_exception::operator =(class std::bad_exception const &__ptr64 )__ptr64 
??4bad_exception@std@@QEAAAEAV01@AEBV01@@Z
; public: class std::bad_typeid &__ptr64 __cdecl std::bad_typeid::operator =(class std::bad_typeid const &__ptr64 )__ptr64 
??4bad_typeid@std@@QEAAAEAV01@AEBV01@@Z
; public: class std::domain_error &__ptr64 __cdecl std::domain_error::operator =(class std::domain_error const &__ptr64 )__ptr64 
??4domain_error@std@@QEAAAEAV01@AEBV01@@Z
; public: class std::locale::id &__ptr64 __cdecl std::locale::id::operator =(class std::locale::id const &__ptr64 )__ptr64 
??4id@locale@std@@QEAAAEAV012@AEBV012@@Z
; public: class std::ios_base &__ptr64 __cdecl std::ios_base::operator =(class std::ios_base const &__ptr64 )__ptr64 
??4ios_base@std@@QEAAAEAV01@AEBV01@@Z
; public: class std::length_error &__ptr64 __cdecl std::length_error::operator =(class std::length_error const &__ptr64 )__ptr64 
??4length_error@std@@QEAAAEAV01@AEBV01@@Z
; public: class std::locale &__ptr64 __cdecl std::locale::operator =(class std::locale const &__ptr64 )__ptr64 
??4locale@std@@QEAAAEAV01@AEBV01@@Z
; public: class std::logic_error &__ptr64 __cdecl std::logic_error::operator =(class std::logic_error const &__ptr64 )__ptr64 
??4logic_error@std@@QEAAAEAV01@AEBV01@@Z
; public: class std::out_of_range &__ptr64 __cdecl std::out_of_range::operator =(class std::out_of_range const &__ptr64 )__ptr64 
??4out_of_range@std@@QEAAAEAV01@AEBV01@@Z
; public: class std::overflow_error &__ptr64 __cdecl std::overflow_error::operator =(class std::overflow_error const &__ptr64 )__ptr64 
??4overflow_error@std@@QEAAAEAV01@AEBV01@@Z
; public: class std::range_error &__ptr64 __cdecl std::range_error::operator =(class std::range_error const &__ptr64 )__ptr64 
??4range_error@std@@QEAAAEAV01@AEBV01@@Z
; public: class std::runtime_error &__ptr64 __cdecl std::runtime_error::operator =(class std::runtime_error const &__ptr64 )__ptr64 
??4runtime_error@std@@QEAAAEAV01@AEBV01@@Z
; public: class std::underflow_error &__ptr64 __cdecl std::underflow_error::operator =(class std::underflow_error const &__ptr64 )__ptr64 
??4underflow_error@std@@QEAAAEAV01@AEBV01@@Z
; public: class std::<char,struct std::<char>> &__ptr64 __cdecl std::<char,struct std::<char>>::operator >>(short &__ptr64 )__ptr64 
??5?$basic_istream@DU?$char_traits@D@std@@@std@@QEAAAEAV01@AEAF@Z
; public: class std::<char,struct std::<char>> &__ptr64 __cdecl std::<char,struct std::<char>>::operator >>(unsigned short &__ptr64 )__ptr64 
??5?$basic_istream@DU?$char_traits@D@std@@@std@@QEAAAEAV01@AEAG@Z
; public: class std::<char,struct std::<char>> &__ptr64 __cdecl std::<char,struct std::<char>>::operator >>(int &__ptr64 )__ptr64 
??5?$basic_istream@DU?$char_traits@D@std@@@std@@QEAAAEAV01@AEAH@Z
; public: class std::<char,struct std::<char>> &__ptr64 __cdecl std::<char,struct std::<char>>::operator >>(unsigned int &__ptr64 )__ptr64 
??5?$basic_istream@DU?$char_traits@D@std@@@std@@QEAAAEAV01@AEAI@Z
; public: class std::<char,struct std::<char>> &__ptr64 __cdecl std::<char,struct std::<char>>::operator >>(long &__ptr64 )__ptr64 
??5?$basic_istream@DU?$char_traits@D@std@@@std@@QEAAAEAV01@AEAJ@Z
; public: class std::<char,struct std::<char>> &__ptr64 __cdecl std::<char,struct std::<char>>::operator >>(unsigned long &__ptr64 )__ptr64 
??5?$basic_istream@DU?$char_traits@D@std@@@std@@QEAAAEAV01@AEAK@Z
; public: class std::<char,struct std::<char>> &__ptr64 __cdecl std::<char,struct std::<char>>::operator >>(float &__ptr64 )__ptr64 
??5?$basic_istream@DU?$char_traits@D@std@@@std@@QEAAAEAV01@AEAM@Z
; public: class std::<char,struct std::<char>> &__ptr64 __cdecl std::<char,struct std::<char>>::operator >>(double &__ptr64 )__ptr64 
??5?$basic_istream@DU?$char_traits@D@std@@@std@@QEAAAEAV01@AEAN@Z
; public: class std::<char,struct std::<char>> &__ptr64 __cdecl std::<char,struct std::<char>>::operator >>(long double &__ptr64 )__ptr64 
??5?$basic_istream@DU?$char_traits@D@std@@@std@@QEAAAEAV01@AEAO@Z
; public: class std::<char,struct std::<char>> &__ptr64 __cdecl std::<char,struct std::<char>>::operator >>(void *__ptr64 &__ptr64 )__ptr64 
??5?$basic_istream@DU?$char_traits@D@std@@@std@@QEAAAEAV01@AEAPEAX@Z
; public: class std::<char,struct std::<char>> &__ptr64 __cdecl std::<char,struct std::<char>>::operator >>(__int64 &__ptr64 )__ptr64 
??5?$basic_istream@DU?$char_traits@D@std@@@std@@QEAAAEAV01@AEA_J@Z
; public: class std::<char,struct std::<char>> &__ptr64 __cdecl std::<char,struct std::<char>>::operator >>(unsigned __int64 &__ptr64 )__ptr64 
??5?$basic_istream@DU?$char_traits@D@std@@@std@@QEAAAEAV01@AEA_K@Z
; public: class std::<char,struct std::<char>> &__ptr64 __cdecl std::<char,struct std::<char>>::operator >>(bool &__ptr64 )__ptr64 
??5?$basic_istream@DU?$char_traits@D@std@@@std@@QEAAAEAV01@AEA_N@Z
; public: class std::<char,struct std::<char>> &__ptr64 __cdecl std::<char,struct std::<char>>::operator >>(class std::<char,struct std::<char>> &__ptr64(__cdecl *)(class std::<char,struct std::<char>> &__ptr64 ))__ptr64 
??5?$basic_istream@DU?$char_traits@D@std@@@std@@QEAAAEAV01@P6AAEAV01@AEAV01@@Z@Z
; public: class std::<char,struct std::<char>> &__ptr64 __cdecl std::<char,struct std::<char>>::operator >>(class std::<char,struct std::<char>> &__ptr64(__cdecl *)(class std::<char,struct std::<char>> &__ptr64 ))__ptr64 
??5?$basic_istream@DU?$char_traits@D@std@@@std@@QEAAAEAV01@P6AAEAV?$basic_ios@DU?$char_traits@D@std@@@1@AEAV21@@Z@Z
; public: class std::<char,struct std::<char>> &__ptr64 __cdecl std::<char,struct std::<char>>::operator >>(class std::ios_base &__ptr64(__cdecl *)(class std::ios_base &__ptr64 ))__ptr64 
??5?$basic_istream@DU?$char_traits@D@std@@@std@@QEAAAEAV01@P6AAEAVios_base@1@AEAV21@@Z@Z
; public: class std::<char,struct std::<char>> &__ptr64 __cdecl std::<char,struct std::<char>>::operator >>(class std::<char,struct std::<char>> *__ptr64)__ptr64 
??5?$basic_istream@DU?$char_traits@D@std@@@std@@QEAAAEAV01@PEAV?$basic_streambuf@DU?$char_traits@D@std@@@1@@Z
; public: class std::<unsigned short,struct std::<unsigned short>> &__ptr64 __cdecl std::<unsigned short,struct std::<unsigned short>>::operator >>(short &__ptr64 )__ptr64 
??5?$basic_istream@GU?$char_traits@G@std@@@std@@QEAAAEAV01@AEAF@Z
; public: class std::<unsigned short,struct std::<unsigned short>> &__ptr64 __cdecl std::<unsigned short,struct std::<unsigned short>>::operator >>(unsigned short &__ptr64 )__ptr64 
??5?$basic_istream@GU?$char_traits@G@std@@@std@@QEAAAEAV01@AEAG@Z
; public: class std::<unsigned short,struct std::<unsigned short>> &__ptr64 __cdecl std::<unsigned short,struct std::<unsigned short>>::operator >>(int &__ptr64 )__ptr64 
??5?$basic_istream@GU?$char_traits@G@std@@@std@@QEAAAEAV01@AEAH@Z
; public: class std::<unsigned short,struct std::<unsigned short>> &__ptr64 __cdecl std::<unsigned short,struct std::<unsigned short>>::operator >>(unsigned int &__ptr64 )__ptr64 
??5?$basic_istream@GU?$char_traits@G@std@@@std@@QEAAAEAV01@AEAI@Z
; public: class std::<unsigned short,struct std::<unsigned short>> &__ptr64 __cdecl std::<unsigned short,struct std::<unsigned short>>::operator >>(long &__ptr64 )__ptr64 
??5?$basic_istream@GU?$char_traits@G@std@@@std@@QEAAAEAV01@AEAJ@Z
; public: class std::<unsigned short,struct std::<unsigned short>> &__ptr64 __cdecl std::<unsigned short,struct std::<unsigned short>>::operator >>(unsigned long &__ptr64 )__ptr64 
??5?$basic_istream@GU?$char_traits@G@std@@@std@@QEAAAEAV01@AEAK@Z
; public: class std::<unsigned short,struct std::<unsigned short>> &__ptr64 __cdecl std::<unsigned short,struct std::<unsigned short>>::operator >>(float &__ptr64 )__ptr64 
??5?$basic_istream@GU?$char_traits@G@std@@@std@@QEAAAEAV01@AEAM@Z
; public: class std::<unsigned short,struct std::<unsigned short>> &__ptr64 __cdecl std::<unsigned short,struct std::<unsigned short>>::operator >>(double &__ptr64 )__ptr64 
??5?$basic_istream@GU?$char_traits@G@std@@@std@@QEAAAEAV01@AEAN@Z
; public: class std::<unsigned short,struct std::<unsigned short>> &__ptr64 __cdecl std::<unsigned short,struct std::<unsigned short>>::operator >>(long double &__ptr64 )__ptr64 
??5?$basic_istream@GU?$char_traits@G@std@@@std@@QEAAAEAV01@AEAO@Z
; public: class std::<unsigned short,struct std::<unsigned short>> &__ptr64 __cdecl std::<unsigned short,struct std::<unsigned short>>::operator >>(void *__ptr64 &__ptr64 )__ptr64 
??5?$basic_istream@GU?$char_traits@G@std@@@std@@QEAAAEAV01@AEAPEAX@Z
; public: class std::<unsigned short,struct std::<unsigned short>> &__ptr64 __cdecl std::<unsigned short,struct std::<unsigned short>>::operator >>(__int64 &__ptr64 )__ptr64 
??5?$basic_istream@GU?$char_traits@G@std@@@std@@QEAAAEAV01@AEA_J@Z
; public: class std::<unsigned short,struct std::<unsigned short>> &__ptr64 __cdecl std::<unsigned short,struct std::<unsigned short>>::operator >>(unsigned __int64 &__ptr64 )__ptr64 
??5?$basic_istream@GU?$char_traits@G@std@@@std@@QEAAAEAV01@AEA_K@Z
; public: class std::<unsigned short,struct std::<unsigned short>> &__ptr64 __cdecl std::<unsigned short,struct std::<unsigned short>>::operator >>(bool &__ptr64 )__ptr64 
??5?$basic_istream@GU?$char_traits@G@std@@@std@@QEAAAEAV01@AEA_N@Z
; public: class std::<unsigned short,struct std::<unsigned short>> &__ptr64 __cdecl std::<unsigned short,struct std::<unsigned short>>::operator >>(class std::<unsigned short,struct std::<unsigned short>> &__ptr64(__cdecl *)(class std::<unsigned short,struct std::<unsigned short>> &__ptr64 ))__ptr64 
??5?$basic_istream@GU?$char_traits@G@std@@@std@@QEAAAEAV01@P6AAEAV01@AEAV01@@Z@Z
; public: class std::<unsigned short,struct std::<unsigned short>> &__ptr64 __cdecl std::<unsigned short,struct std::<unsigned short>>::operator >>(class std::<unsigned short,struct std::<unsigned short>> &__ptr64(__cdecl *)(class std::<unsigned short,struct std::<unsigned short>> &__ptr64 ))__ptr64 
??5?$basic_istream@GU?$char_traits@G@std@@@std@@QEAAAEAV01@P6AAEAV?$basic_ios@GU?$char_traits@G@std@@@1@AEAV21@@Z@Z
; public: class std::<unsigned short,struct std::<unsigned short>> &__ptr64 __cdecl std::<unsigned short,struct std::<unsigned short>>::operator >>(class std::ios_base &__ptr64(__cdecl *)(class std::ios_base &__ptr64 ))__ptr64 
??5?$basic_istream@GU?$char_traits@G@std@@@std@@QEAAAEAV01@P6AAEAVios_base@1@AEAV21@@Z@Z
; public: class std::<unsigned short,struct std::<unsigned short>> &__ptr64 __cdecl std::<unsigned short,struct std::<unsigned short>>::operator >>(class std::<unsigned short,struct std::<unsigned short>> *__ptr64)__ptr64 
??5?$basic_istream@GU?$char_traits@G@std@@@std@@QEAAAEAV01@PEAV?$basic_streambuf@GU?$char_traits@G@std@@@1@@Z
; class std::<char,struct std::<char>> &__ptr64 __cdecl std::operator >>(class std::<char,struct std::<char>> &__ptr64 ,signed char &__ptr64 )
??5std@@YAAEAV?$basic_istream@DU?$char_traits@D@std@@@0@AEAV10@AEAC@Z
; class std::<char,struct std::<char>> &__ptr64 __cdecl std::operator >>(class std::<char,struct std::<char>> &__ptr64 ,char &__ptr64 )
??5std@@YAAEAV?$basic_istream@DU?$char_traits@D@std@@@0@AEAV10@AEAD@Z
; class std::<char,struct std::<char>> &__ptr64 __cdecl std::operator >>(class std::<char,struct std::<char>> &__ptr64 ,unsigned char &__ptr64 )
??5std@@YAAEAV?$basic_istream@DU?$char_traits@D@std@@@0@AEAV10@AEAE@Z
; class std::<char,struct std::<char>> &__ptr64 __cdecl std::operator >>(class std::<char,struct std::<char>> &__ptr64 ,class std::<char,struct std::<char>,class std::<char>> &__ptr64 )
??5std@@YAAEAV?$basic_istream@DU?$char_traits@D@std@@@0@AEAV10@AEAV?$basic_string@DU?$char_traits@D@std@@V?$allocator@D@2@@0@@Z
; class std::<char,struct std::<char>> &__ptr64 __cdecl std::operator >>(class std::<char,struct std::<char>> &__ptr64 ,class std::<float> &__ptr64 )
??5std@@YAAEAV?$basic_istream@DU?$char_traits@D@std@@@0@AEAV10@AEAV?$complex@M@0@@Z
; class std::<char,struct std::<char>> &__ptr64 __cdecl std::operator >>(class std::<char,struct std::<char>> &__ptr64 ,class std::<double> &__ptr64 )
??5std@@YAAEAV?$basic_istream@DU?$char_traits@D@std@@@0@AEAV10@AEAV?$complex@N@0@@Z
; class std::<char,struct std::<char>> &__ptr64 __cdecl std::operator >>(class std::<char,struct std::<char>> &__ptr64 ,class std::<long double> &__ptr64 )
??5std@@YAAEAV?$basic_istream@DU?$char_traits@D@std@@@0@AEAV10@AEAV?$complex@O@0@@Z
; class std::<char,struct std::<char>> &__ptr64 __cdecl std::operator >>(class std::<char,struct std::<char>> &__ptr64 ,signed char *__ptr64)
??5std@@YAAEAV?$basic_istream@DU?$char_traits@D@std@@@0@AEAV10@PEAC@Z
; class std::<char,struct std::<char>> &__ptr64 __cdecl std::operator >>(class std::<char,struct std::<char>> &__ptr64 ,char *__ptr64)
??5std@@YAAEAV?$basic_istream@DU?$char_traits@D@std@@@0@AEAV10@PEAD@Z
; class std::<char,struct std::<char>> &__ptr64 __cdecl std::operator >>(class std::<char,struct std::<char>> &__ptr64 ,unsigned char *__ptr64)
??5std@@YAAEAV?$basic_istream@DU?$char_traits@D@std@@@0@AEAV10@PEAE@Z
; class std::<unsigned short,struct std::<unsigned short>> &__ptr64 __cdecl std::operator >>(class std::<unsigned short,struct std::<unsigned short>> &__ptr64 ,unsigned short &__ptr64 )
??5std@@YAAEAV?$basic_istream@GU?$char_traits@G@std@@@0@AEAV10@AEAG@Z
; class std::<unsigned short,struct std::<unsigned short>> &__ptr64 __cdecl std::operator >>(class std::<unsigned short,struct std::<unsigned short>> &__ptr64 ,class std::<unsigned short,struct std::<unsigned short>,class std::<unsigned short>> &__ptr64 )
??5std@@YAAEAV?$basic_istream@GU?$char_traits@G@std@@@0@AEAV10@AEAV?$basic_string@GU?$char_traits@G@std@@V?$allocator@G@2@@0@@Z
; class std::<unsigned short,struct std::<unsigned short>> &__ptr64 __cdecl std::operator >>(class std::<unsigned short,struct std::<unsigned short>> &__ptr64 ,class std::<float> &__ptr64 )
??5std@@YAAEAV?$basic_istream@GU?$char_traits@G@std@@@0@AEAV10@AEAV?$complex@M@0@@Z
; class std::<unsigned short,struct std::<unsigned short>> &__ptr64 __cdecl std::operator >>(class std::<unsigned short,struct std::<unsigned short>> &__ptr64 ,class std::<double> &__ptr64 )
??5std@@YAAEAV?$basic_istream@GU?$char_traits@G@std@@@0@AEAV10@AEAV?$complex@N@0@@Z
; class std::<unsigned short,struct std::<unsigned short>> &__ptr64 __cdecl std::operator >>(class std::<unsigned short,struct std::<unsigned short>> &__ptr64 ,class std::<long double> &__ptr64 )
??5std@@YAAEAV?$basic_istream@GU?$char_traits@G@std@@@0@AEAV10@AEAV?$complex@O@0@@Z
; class std::<unsigned short,struct std::<unsigned short>> &__ptr64 __cdecl std::operator >>(class std::<unsigned short,struct std::<unsigned short>> &__ptr64 ,short *__ptr64)
??5std@@YAAEAV?$basic_istream@GU?$char_traits@G@std@@@0@AEAV10@PEAF@Z
; class std::<unsigned short,struct std::<unsigned short>> &__ptr64 __cdecl std::operator >>(class std::<unsigned short,struct std::<unsigned short>> &__ptr64 ,unsigned short *__ptr64)
??5std@@YAAEAV?$basic_istream@GU?$char_traits@G@std@@@0@AEAV10@PEAG@Z
; public: class std::<char,struct std::<char>> &__ptr64 __cdecl std::<char,struct std::<char>>::operator <<(short)__ptr64 
??6?$basic_ostream@DU?$char_traits@D@std@@@std@@QEAAAEAV01@F@Z
; public: class std::<char,struct std::<char>> &__ptr64 __cdecl std::<char,struct std::<char>>::operator <<(unsigned short)__ptr64 
??6?$basic_ostream@DU?$char_traits@D@std@@@std@@QEAAAEAV01@G@Z
; public: class std::<char,struct std::<char>> &__ptr64 __cdecl std::<char,struct std::<char>>::operator <<(int)__ptr64 
??6?$basic_ostream@DU?$char_traits@D@std@@@std@@QEAAAEAV01@H@Z
; public: class std::<char,struct std::<char>> &__ptr64 __cdecl std::<char,struct std::<char>>::operator <<(unsigned int)__ptr64 
??6?$basic_ostream@DU?$char_traits@D@std@@@std@@QEAAAEAV01@I@Z
; public: class std::<char,struct std::<char>> &__ptr64 __cdecl std::<char,struct std::<char>>::operator <<(long)__ptr64 
??6?$basic_ostream@DU?$char_traits@D@std@@@std@@QEAAAEAV01@J@Z
; public: class std::<char,struct std::<char>> &__ptr64 __cdecl std::<char,struct std::<char>>::operator <<(unsigned long)__ptr64 
??6?$basic_ostream@DU?$char_traits@D@std@@@std@@QEAAAEAV01@K@Z
; public: class std::<char,struct std::<char>> &__ptr64 __cdecl std::<char,struct std::<char>>::operator <<(float)__ptr64 
??6?$basic_ostream@DU?$char_traits@D@std@@@std@@QEAAAEAV01@M@Z
; public: class std::<char,struct std::<char>> &__ptr64 __cdecl std::<char,struct std::<char>>::operator <<(double)__ptr64 
??6?$basic_ostream@DU?$char_traits@D@std@@@std@@QEAAAEAV01@N@Z
; public: class std::<char,struct std::<char>> &__ptr64 __cdecl std::<char,struct std::<char>>::operator <<(long double)__ptr64 
??6?$basic_ostream@DU?$char_traits@D@std@@@std@@QEAAAEAV01@O@Z
; public: class std::<char,struct std::<char>> &__ptr64 __cdecl std::<char,struct std::<char>>::operator <<(class std::<char,struct std::<char>> &__ptr64(__cdecl *)(class std::<char,struct std::<char>> &__ptr64 ))__ptr64 
??6?$basic_ostream@DU?$char_traits@D@std@@@std@@QEAAAEAV01@P6AAEAV01@AEAV01@@Z@Z
; public: class std::<char,struct std::<char>> &__ptr64 __cdecl std::<char,struct std::<char>>::operator <<(class std::<char,struct std::<char>> &__ptr64(__cdecl *)(class std::<char,struct std::<char>> &__ptr64 ))__ptr64 
??6?$basic_ostream@DU?$char_traits@D@std@@@std@@QEAAAEAV01@P6AAEAV?$basic_ios@DU?$char_traits@D@std@@@1@AEAV21@@Z@Z
; public: class std::<char,struct std::<char>> &__ptr64 __cdecl std::<char,struct std::<char>>::operator <<(class std::ios_base &__ptr64(__cdecl *)(class std::ios_base &__ptr64 ))__ptr64 
??6?$basic_ostream@DU?$char_traits@D@std@@@std@@QEAAAEAV01@P6AAEAVios_base@1@AEAV21@@Z@Z
; public: class std::<char,struct std::<char>> &__ptr64 __cdecl std::<char,struct std::<char>>::operator <<(class std::<char,struct std::<char>> *__ptr64)__ptr64 
??6?$basic_ostream@DU?$char_traits@D@std@@@std@@QEAAAEAV01@PEAV?$basic_streambuf@DU?$char_traits@D@std@@@1@@Z
; public: class std::<char,struct std::<char>> &__ptr64 __cdecl std::<char,struct std::<char>>::operator <<(void const *__ptr64)__ptr64 
??6?$basic_ostream@DU?$char_traits@D@std@@@std@@QEAAAEAV01@PEBX@Z
; public: class std::<char,struct std::<char>> &__ptr64 __cdecl std::<char,struct std::<char>>::operator <<(__int64)__ptr64 
??6?$basic_ostream@DU?$char_traits@D@std@@@std@@QEAAAEAV01@_J@Z
; public: class std::<char,struct std::<char>> &__ptr64 __cdecl std::<char,struct std::<char>>::operator <<(unsigned __int64)__ptr64 
??6?$basic_ostream@DU?$char_traits@D@std@@@std@@QEAAAEAV01@_K@Z
; public: class std::<char,struct std::<char>> &__ptr64 __cdecl std::<char,struct std::<char>>::operator <<(bool)__ptr64 
??6?$basic_ostream@DU?$char_traits@D@std@@@std@@QEAAAEAV01@_N@Z
; public: class std::<unsigned short,struct std::<unsigned short>> &__ptr64 __cdecl std::<unsigned short,struct std::<unsigned short>>::operator <<(short)__ptr64 
??6?$basic_ostream@GU?$char_traits@G@std@@@std@@QEAAAEAV01@F@Z
; public: class std::<unsigned short,struct std::<unsigned short>> &__ptr64 __cdecl std::<unsigned short,struct std::<unsigned short>>::operator <<(unsigned short)__ptr64 
??6?$basic_ostream@GU?$char_traits@G@std@@@std@@QEAAAEAV01@G@Z
; public: class std::<unsigned short,struct std::<unsigned short>> &__ptr64 __cdecl std::<unsigned short,struct std::<unsigned short>>::operator <<(int)__ptr64 
??6?$basic_ostream@GU?$char_traits@G@std@@@std@@QEAAAEAV01@H@Z
; public: class std::<unsigned short,struct std::<unsigned short>> &__ptr64 __cdecl std::<unsigned short,struct std::<unsigned short>>::operator <<(unsigned int)__ptr64 
??6?$basic_ostream@GU?$char_traits@G@std@@@std@@QEAAAEAV01@I@Z
; public: class std::<unsigned short,struct std::<unsigned short>> &__ptr64 __cdecl std::<unsigned short,struct std::<unsigned short>>::operator <<(long)__ptr64 
??6?$basic_ostream@GU?$char_traits@G@std@@@std@@QEAAAEAV01@J@Z
; public: class std::<unsigned short,struct std::<unsigned short>> &__ptr64 __cdecl std::<unsigned short,struct std::<unsigned short>>::operator <<(unsigned long)__ptr64 
??6?$basic_ostream@GU?$char_traits@G@std@@@std@@QEAAAEAV01@K@Z
; public: class std::<unsigned short,struct std::<unsigned short>> &__ptr64 __cdecl std::<unsigned short,struct std::<unsigned short>>::operator <<(float)__ptr64 
??6?$basic_ostream@GU?$char_traits@G@std@@@std@@QEAAAEAV01@M@Z
; public: class std::<unsigned short,struct std::<unsigned short>> &__ptr64 __cdecl std::<unsigned short,struct std::<unsigned short>>::operator <<(double)__ptr64 
??6?$basic_ostream@GU?$char_traits@G@std@@@std@@QEAAAEAV01@N@Z
; public: class std::<unsigned short,struct std::<unsigned short>> &__ptr64 __cdecl std::<unsigned short,struct std::<unsigned short>>::operator <<(long double)__ptr64 
??6?$basic_ostream@GU?$char_traits@G@std@@@std@@QEAAAEAV01@O@Z
; public: class std::<unsigned short,struct std::<unsigned short>> &__ptr64 __cdecl std::<unsigned short,struct std::<unsigned short>>::operator <<(class std::<unsigned short,struct std::<unsigned short>> &__ptr64(__cdecl *)(class std::<unsigned short,struct std::<unsigned short>> &__ptr64 ))__ptr64 
??6?$basic_ostream@GU?$char_traits@G@std@@@std@@QEAAAEAV01@P6AAEAV01@AEAV01@@Z@Z
; public: class std::<unsigned short,struct std::<unsigned short>> &__ptr64 __cdecl std::<unsigned short,struct std::<unsigned short>>::operator <<(class std::<unsigned short,struct std::<unsigned short>> &__ptr64(__cdecl *)(class std::<unsigned short,struct std::<unsigned short>> &__ptr64 ))__ptr64 
??6?$basic_ostream@GU?$char_traits@G@std@@@std@@QEAAAEAV01@P6AAEAV?$basic_ios@GU?$char_traits@G@std@@@1@AEAV21@@Z@Z
; public: class std::<unsigned short,struct std::<unsigned short>> &__ptr64 __cdecl std::<unsigned short,struct std::<unsigned short>>::operator <<(class std::ios_base &__ptr64(__cdecl *)(class std::ios_base &__ptr64 ))__ptr64 
??6?$basic_ostream@GU?$char_traits@G@std@@@std@@QEAAAEAV01@P6AAEAVios_base@1@AEAV21@@Z@Z
; public: class std::<unsigned short,struct std::<unsigned short>> &__ptr64 __cdecl std::<unsigned short,struct std::<unsigned short>>::operator <<(class std::<unsigned short,struct std::<unsigned short>> *__ptr64)__ptr64 
??6?$basic_ostream@GU?$char_traits@G@std@@@std@@QEAAAEAV01@PEAV?$basic_streambuf@GU?$char_traits@G@std@@@1@@Z
; public: class std::<unsigned short,struct std::<unsigned short>> &__ptr64 __cdecl std::<unsigned short,struct std::<unsigned short>>::operator <<(void const *__ptr64)__ptr64 
??6?$basic_ostream@GU?$char_traits@G@std@@@std@@QEAAAEAV01@PEBX@Z
; public: class std::<unsigned short,struct std::<unsigned short>> &__ptr64 __cdecl std::<unsigned short,struct std::<unsigned short>>::operator <<(__int64)__ptr64 
??6?$basic_ostream@GU?$char_traits@G@std@@@std@@QEAAAEAV01@_J@Z
; public: class std::<unsigned short,struct std::<unsigned short>> &__ptr64 __cdecl std::<unsigned short,struct std::<unsigned short>>::operator <<(unsigned __int64)__ptr64 
??6?$basic_ostream@GU?$char_traits@G@std@@@std@@QEAAAEAV01@_K@Z
; public: class std::<unsigned short,struct std::<unsigned short>> &__ptr64 __cdecl std::<unsigned short,struct std::<unsigned short>>::operator <<(bool)__ptr64 
??6?$basic_ostream@GU?$char_traits@G@std@@@std@@QEAAAEAV01@_N@Z
; class std::<char,struct std::<char>> &__ptr64 __cdecl std::operator <<(class std::<char,struct std::<char>> &__ptr64 ,class std::<char,struct std::<char>,class std::<char>> const &__ptr64 )
??6std@@YAAEAV?$basic_ostream@DU?$char_traits@D@std@@@0@AEAV10@AEBV?$basic_string@DU?$char_traits@D@std@@V?$allocator@D@2@@0@@Z
; class std::<char,struct std::<char>> &__ptr64 __cdecl std::operator <<(class std::<char,struct std::<char>> &__ptr64 ,class std::<float> const &__ptr64 )
??6std@@YAAEAV?$basic_ostream@DU?$char_traits@D@std@@@0@AEAV10@AEBV?$complex@M@0@@Z
; class std::<char,struct std::<char>> &__ptr64 __cdecl std::operator <<(class std::<char,struct std::<char>> &__ptr64 ,class std::<double> const &__ptr64 )
??6std@@YAAEAV?$basic_ostream@DU?$char_traits@D@std@@@0@AEAV10@AEBV?$complex@N@0@@Z
; class std::<char,struct std::<char>> &__ptr64 __cdecl std::operator <<(class std::<char,struct std::<char>> &__ptr64 ,class std::<long double> const &__ptr64 )
??6std@@YAAEAV?$basic_ostream@DU?$char_traits@D@std@@@0@AEAV10@AEBV?$complex@O@0@@Z
; class std::<char,struct std::<char>> &__ptr64 __cdecl std::operator <<(class std::<char,struct std::<char>> &__ptr64 ,signed char)
??6std@@YAAEAV?$basic_ostream@DU?$char_traits@D@std@@@0@AEAV10@C@Z
; class std::<char,struct std::<char>> &__ptr64 __cdecl std::operator <<(class std::<char,struct std::<char>> &__ptr64 ,char)
??6std@@YAAEAV?$basic_ostream@DU?$char_traits@D@std@@@0@AEAV10@D@Z
; class std::<char,struct std::<char>> &__ptr64 __cdecl std::operator <<(class std::<char,struct std::<char>> &__ptr64 ,unsigned char)
??6std@@YAAEAV?$basic_ostream@DU?$char_traits@D@std@@@0@AEAV10@E@Z
; class std::<char,struct std::<char>> &__ptr64 __cdecl std::operator <<(class std::<char,struct std::<char>> &__ptr64 ,signed char const *__ptr64)
??6std@@YAAEAV?$basic_ostream@DU?$char_traits@D@std@@@0@AEAV10@PEBC@Z
; class std::<char,struct std::<char>> &__ptr64 __cdecl std::operator <<(class std::<char,struct std::<char>> &__ptr64 ,char const *__ptr64)
??6std@@YAAEAV?$basic_ostream@DU?$char_traits@D@std@@@0@AEAV10@PEBD@Z
; class std::<char,struct std::<char>> &__ptr64 __cdecl std::operator <<(class std::<char,struct std::<char>> &__ptr64 ,unsigned char const *__ptr64)
??6std@@YAAEAV?$basic_ostream@DU?$char_traits@D@std@@@0@AEAV10@PEBE@Z
; class std::<unsigned short,struct std::<unsigned short>> &__ptr64 __cdecl std::operator <<(class std::<unsigned short,struct std::<unsigned short>> &__ptr64 ,class std::<unsigned short,struct std::<unsigned short>,class std::<unsigned short>> const &__ptr64 )
??6std@@YAAEAV?$basic_ostream@GU?$char_traits@G@std@@@0@AEAV10@AEBV?$basic_string@GU?$char_traits@G@std@@V?$allocator@G@2@@0@@Z
; class std::<unsigned short,struct std::<unsigned short>> &__ptr64 __cdecl std::operator <<(class std::<unsigned short,struct std::<unsigned short>> &__ptr64 ,class std::<float> const &__ptr64 )
??6std@@YAAEAV?$basic_ostream@GU?$char_traits@G@std@@@0@AEAV10@AEBV?$complex@M@0@@Z
; class std::<unsigned short,struct std::<unsigned short>> &__ptr64 __cdecl std::operator <<(class std::<unsigned short,struct std::<unsigned short>> &__ptr64 ,class std::<double> const &__ptr64 )
??6std@@YAAEAV?$basic_ostream@GU?$char_traits@G@std@@@0@AEAV10@AEBV?$complex@N@0@@Z
; class std::<unsigned short,struct std::<unsigned short>> &__ptr64 __cdecl std::operator <<(class std::<unsigned short,struct std::<unsigned short>> &__ptr64 ,class std::<long double> const &__ptr64 )
??6std@@YAAEAV?$basic_ostream@GU?$char_traits@G@std@@@0@AEAV10@AEBV?$complex@O@0@@Z
; class std::<unsigned short,struct std::<unsigned short>> &__ptr64 __cdecl std::operator <<(class std::<unsigned short,struct std::<unsigned short>> &__ptr64 ,unsigned short)
??6std@@YAAEAV?$basic_ostream@GU?$char_traits@G@std@@@0@AEAV10@G@Z
; class std::<unsigned short,struct std::<unsigned short>> &__ptr64 __cdecl std::operator <<(class std::<unsigned short,struct std::<unsigned short>> &__ptr64 ,short const *__ptr64)
??6std@@YAAEAV?$basic_ostream@GU?$char_traits@G@std@@@0@AEAV10@PEBF@Z
; class std::<unsigned short,struct std::<unsigned short>> &__ptr64 __cdecl std::operator <<(class std::<unsigned short,struct std::<unsigned short>> &__ptr64 ,unsigned short const *__ptr64)
??6std@@YAAEAV?$basic_ostream@GU?$char_traits@G@std@@@0@AEAV10@PEBG@Z
; public: bool __cdecl std::ios_base::operator !(void)const __ptr64 
??7ios_base@std@@QEBA_NXZ
; public: bool __cdecl std::locale::operator ==(class std::locale const &__ptr64 )const __ptr64 
??8locale@std@@QEBA_NAEBV01@@Z
; bool __cdecl std::operator ==(float const &__ptr64 ,class std::<float> const &__ptr64 )
??8std@@YA_NAEBMAEBV?$complex@M@0@@Z
; bool __cdecl std::operator ==(double const &__ptr64 ,class std::<double> const &__ptr64 )
??8std@@YA_NAEBNAEBV?$complex@N@0@@Z
; bool __cdecl std::operator ==(long double const &__ptr64 ,class std::<long double> const &__ptr64 )
??8std@@YA_NAEBOAEBV?$complex@O@0@@Z
; bool __cdecl std::operator ==(class std::<char,struct std::<char>,class std::<char>> const &__ptr64 ,class std::<char,struct std::<char>,class std::<char>> const &__ptr64 )
??8std@@YA_NAEBV?$basic_string@DU?$char_traits@D@std@@V?$allocator@D@2@@0@0@Z
; bool __cdecl std::operator ==(class std::<char,struct std::<char>,class std::<char>> const &__ptr64 ,char const *__ptr64)
??8std@@YA_NAEBV?$basic_string@DU?$char_traits@D@std@@V?$allocator@D@2@@0@PEBD@Z
; bool __cdecl std::operator ==(class std::<unsigned short,struct std::<unsigned short>,class std::<unsigned short>> const &__ptr64 ,class std::<unsigned short,struct std::<unsigned short>,class std::<unsigned short>> const &__ptr64 )
??8std@@YA_NAEBV?$basic_string@GU?$char_traits@G@std@@V?$allocator@G@2@@0@0@Z
; bool __cdecl std::operator ==(class std::<unsigned short,struct std::<unsigned short>,class std::<unsigned short>> const &__ptr64 ,unsigned short const *__ptr64)
??8std@@YA_NAEBV?$basic_string@GU?$char_traits@G@std@@V?$allocator@G@2@@0@PEBG@Z
; bool __cdecl std::operator ==(class std::<float> const &__ptr64 ,class std::<float> const &__ptr64 )
??8std@@YA_NAEBV?$complex@M@0@0@Z
; bool __cdecl std::operator ==(class std::<float> const &__ptr64 ,float const &__ptr64 )
??8std@@YA_NAEBV?$complex@M@0@AEBM@Z
; bool __cdecl std::operator ==(class std::<double> const &__ptr64 ,class std::<double> const &__ptr64 )
??8std@@YA_NAEBV?$complex@N@0@0@Z
; bool __cdecl std::operator ==(class std::<double> const &__ptr64 ,double const &__ptr64 )
??8std@@YA_NAEBV?$complex@N@0@AEBN@Z
; bool __cdecl std::operator ==(class std::<long double> const &__ptr64 ,class std::<long double> const &__ptr64 )
??8std@@YA_NAEBV?$complex@O@0@0@Z
; bool __cdecl std::operator ==(class std::<long double> const &__ptr64 ,long double const &__ptr64 )
??8std@@YA_NAEBV?$complex@O@0@AEBO@Z
; bool __cdecl std::operator ==(char const *__ptr64,class std::<char,struct std::<char>,class std::<char>> const &__ptr64 )
??8std@@YA_NPEBDAEBV?$basic_string@DU?$char_traits@D@std@@V?$allocator@D@2@@0@@Z
; bool __cdecl std::operator ==(unsigned short const *__ptr64,class std::<unsigned short,struct std::<unsigned short>,class std::<unsigned short>> const &__ptr64 )
??8std@@YA_NPEBGAEBV?$basic_string@GU?$char_traits@G@std@@V?$allocator@G@2@@0@@Z
; public: bool __cdecl std::locale::operator !=(class std::locale const &__ptr64 )const __ptr64 
??9locale@std@@QEBA_NAEBV01@@Z
; bool __cdecl std::operator !=(float const &__ptr64 ,class std::<float> const &__ptr64 )
??9std@@YA_NAEBMAEBV?$complex@M@0@@Z
; bool __cdecl std::operator !=(double const &__ptr64 ,class std::<double> const &__ptr64 )
??9std@@YA_NAEBNAEBV?$complex@N@0@@Z
; bool __cdecl std::operator !=(long double const &__ptr64 ,class std::<long double> const &__ptr64 )
??9std@@YA_NAEBOAEBV?$complex@O@0@@Z
; bool __cdecl std::operator !=(class std::<char,struct std::<char>,class std::<char>> const &__ptr64 ,class std::<char,struct std::<char>,class std::<char>> const &__ptr64 )
??9std@@YA_NAEBV?$basic_string@DU?$char_traits@D@std@@V?$allocator@D@2@@0@0@Z
; bool __cdecl std::operator !=(class std::<char,struct std::<char>,class std::<char>> const &__ptr64 ,char const *__ptr64)
??9std@@YA_NAEBV?$basic_string@DU?$char_traits@D@std@@V?$allocator@D@2@@0@PEBD@Z
; bool __cdecl std::operator !=(class std::<unsigned short,struct std::<unsigned short>,class std::<unsigned short>> const &__ptr64 ,class std::<unsigned short,struct std::<unsigned short>,class std::<unsigned short>> const &__ptr64 )
??9std@@YA_NAEBV?$basic_string@GU?$char_traits@G@std@@V?$allocator@G@2@@0@0@Z
; bool __cdecl std::operator !=(class std::<unsigned short,struct std::<unsigned short>,class std::<unsigned short>> const &__ptr64 ,unsigned short const *__ptr64)
??9std@@YA_NAEBV?$basic_string@GU?$char_traits@G@std@@V?$allocator@G@2@@0@PEBG@Z
; bool __cdecl std::operator !=(class std::<float> const &__ptr64 ,class std::<float> const &__ptr64 )
??9std@@YA_NAEBV?$complex@M@0@0@Z
; bool __cdecl std::operator !=(class std::<float> const &__ptr64 ,float const &__ptr64 )
??9std@@YA_NAEBV?$complex@M@0@AEBM@Z
; bool __cdecl std::operator !=(class std::<double> const &__ptr64 ,class std::<double> const &__ptr64 )
??9std@@YA_NAEBV?$complex@N@0@0@Z
; bool __cdecl std::operator !=(class std::<double> const &__ptr64 ,double const &__ptr64 )
??9std@@YA_NAEBV?$complex@N@0@AEBN@Z
; bool __cdecl std::operator !=(class std::<long double> const &__ptr64 ,class std::<long double> const &__ptr64 )
??9std@@YA_NAEBV?$complex@O@0@0@Z
; bool __cdecl std::operator !=(class std::<long double> const &__ptr64 ,long double const &__ptr64 )
??9std@@YA_NAEBV?$complex@O@0@AEBO@Z
; bool __cdecl std::operator !=(char const *__ptr64,class std::<char,struct std::<char>,class std::<char>> const &__ptr64 )
??9std@@YA_NPEBDAEBV?$basic_string@DU?$char_traits@D@std@@V?$allocator@D@2@@0@@Z
; bool __cdecl std::operator !=(unsigned short const *__ptr64,class std::<unsigned short,struct std::<unsigned short>,class std::<unsigned short>> const &__ptr64 )
??9std@@YA_NPEBGAEBV?$basic_string@GU?$char_traits@G@std@@V?$allocator@G@2@@0@@Z
; public: char &__ptr64 __cdecl std::<char,struct std::<char>,class std::<char>>::operator[](unsigned __int64)__ptr64 
??A?$basic_string@DU?$char_traits@D@std@@V?$allocator@D@2@@std@@QEAAAEAD_K@Z
; public: char const &__ptr64 __cdecl std::<char,struct std::<char>,class std::<char>>::operator[](unsigned __int64)const __ptr64 
??A?$basic_string@DU?$char_traits@D@std@@V?$allocator@D@2@@std@@QEBAAEBD_K@Z
; public: unsigned short &__ptr64 __cdecl std::<unsigned short,struct std::<unsigned short>,class std::<unsigned short>>::operator[](unsigned __int64)__ptr64 
??A?$basic_string@GU?$char_traits@G@std@@V?$allocator@G@2@@std@@QEAAAEAG_K@Z
; public: unsigned short const &__ptr64 __cdecl std::<unsigned short,struct std::<unsigned short>,class std::<unsigned short>>::operator[](unsigned __int64)const __ptr64 
??A?$basic_string@GU?$char_traits@G@std@@V?$allocator@G@2@@std@@QEBAAEBG_K@Z
; public: void __cdecl std::locale::id::operator unsigned __int64(...)__ptr64 throw()
??Bid@locale@std@@QEAA_KXZ
; public: void __cdecl std::ios_base::operator void *__ptr64(...)const __ptr64 throw()
??Bios_base@std@@QEBAPEAXXZ
; class std::<float> __cdecl std::operator *(float const &__ptr64 ,class std::<float> const &__ptr64 )
??Dstd@@YA?AV?$complex@M@0@AEBMAEBV10@@Z
; class std::<float> __cdecl std::operator *(class std::<float> const &__ptr64 ,class std::<float> const &__ptr64 )
??Dstd@@YA?AV?$complex@M@0@AEBV10@0@Z
; class std::<float> __cdecl std::operator *(class std::<float> const &__ptr64 ,float const &__ptr64 )
??Dstd@@YA?AV?$complex@M@0@AEBV10@AEBM@Z
; class std::<double> __cdecl std::operator *(double const &__ptr64 ,class std::<double> const &__ptr64 )
??Dstd@@YA?AV?$complex@N@0@AEBNAEBV10@@Z
; class std::<double> __cdecl std::operator *(class std::<double> const &__ptr64 ,class std::<double> const &__ptr64 )
??Dstd@@YA?AV?$complex@N@0@AEBV10@0@Z
; class std::<double> __cdecl std::operator *(class std::<double> const &__ptr64 ,double const &__ptr64 )
??Dstd@@YA?AV?$complex@N@0@AEBV10@AEBN@Z
; class std::<long double> __cdecl std::operator *(long double const &__ptr64 ,class std::<long double> const &__ptr64 )
??Dstd@@YA?AV?$complex@O@0@AEBOAEBV10@@Z
; class std::<long double> __cdecl std::operator *(class std::<long double> const &__ptr64 ,class std::<long double> const &__ptr64 )
??Dstd@@YA?AV?$complex@O@0@AEBV10@0@Z
; class std::<long double> __cdecl std::operator *(class std::<long double> const &__ptr64 ,long double const &__ptr64 )
??Dstd@@YA?AV?$complex@O@0@AEBV10@AEBO@Z
; class std::<float> __cdecl std::operator -(float const &__ptr64 ,class std::<float> const &__ptr64 )
??Gstd@@YA?AV?$complex@M@0@AEBMAEBV10@@Z
; class std::<float> __cdecl std::operator -(class std::<float> const &__ptr64 ,class std::<float> const &__ptr64 )
??Gstd@@YA?AV?$complex@M@0@AEBV10@0@Z
; class std::<float> __cdecl std::operator -(class std::<float> const &__ptr64 )
??Gstd@@YA?AV?$complex@M@0@AEBV10@@Z
; class std::<float> __cdecl std::operator -(class std::<float> const &__ptr64 ,float const &__ptr64 )
??Gstd@@YA?AV?$complex@M@0@AEBV10@AEBM@Z
; class std::<double> __cdecl std::operator -(double const &__ptr64 ,class std::<double> const &__ptr64 )
??Gstd@@YA?AV?$complex@N@0@AEBNAEBV10@@Z
; class std::<double> __cdecl std::operator -(class std::<double> const &__ptr64 ,class std::<double> const &__ptr64 )
??Gstd@@YA?AV?$complex@N@0@AEBV10@0@Z
; class std::<double> __cdecl std::operator -(class std::<double> const &__ptr64 )
??Gstd@@YA?AV?$complex@N@0@AEBV10@@Z
; class std::<double> __cdecl std::operator -(class std::<double> const &__ptr64 ,double const &__ptr64 )
??Gstd@@YA?AV?$complex@N@0@AEBV10@AEBN@Z
; class std::<long double> __cdecl std::operator -(long double const &__ptr64 ,class std::<long double> const &__ptr64 )
??Gstd@@YA?AV?$complex@O@0@AEBOAEBV10@@Z
; class std::<long double> __cdecl std::operator -(class std::<long double> const &__ptr64 ,class std::<long double> const &__ptr64 )
??Gstd@@YA?AV?$complex@O@0@AEBV10@0@Z
; class std::<long double> __cdecl std::operator -(class std::<long double> const &__ptr64 )
??Gstd@@YA?AV?$complex@O@0@AEBV10@@Z
; class std::<long double> __cdecl std::operator -(class std::<long double> const &__ptr64 ,long double const &__ptr64 )
??Gstd@@YA?AV?$complex@O@0@AEBV10@AEBO@Z
; class std::<char,struct std::<char>,class std::<char>> __cdecl std::operator +(class std::<char,struct std::<char>,class std::<char>> const &__ptr64 ,class std::<char,struct std::<char>,class std::<char>> const &__ptr64 )
??Hstd@@YA?AV?$basic_string@DU?$char_traits@D@std@@V?$allocator@D@2@@0@AEBV10@0@Z
; class std::<char,struct std::<char>,class std::<char>> __cdecl std::operator +(class std::<char,struct std::<char>,class std::<char>> const &__ptr64 ,char)
??Hstd@@YA?AV?$basic_string@DU?$char_traits@D@std@@V?$allocator@D@2@@0@AEBV10@D@Z
; class std::<char,struct std::<char>,class std::<char>> __cdecl std::operator +(class std::<char,struct std::<char>,class std::<char>> const &__ptr64 ,char const *__ptr64)
??Hstd@@YA?AV?$basic_string@DU?$char_traits@D@std@@V?$allocator@D@2@@0@AEBV10@PEBD@Z
; class std::<char,struct std::<char>,class std::<char>> __cdecl std::operator +(char,class std::<char,struct std::<char>,class std::<char>> const &__ptr64 )
??Hstd@@YA?AV?$basic_string@DU?$char_traits@D@std@@V?$allocator@D@2@@0@DAEBV10@@Z
; class std::<char,struct std::<char>,class std::<char>> __cdecl std::operator +(char const *__ptr64,class std::<char,struct std::<char>,class std::<char>> const &__ptr64 )
??Hstd@@YA?AV?$basic_string@DU?$char_traits@D@std@@V?$allocator@D@2@@0@PEBDAEBV10@@Z
; class std::<unsigned short,struct std::<unsigned short>,class std::<unsigned short>> __cdecl std::operator +(class std::<unsigned short,struct std::<unsigned short>,class std::<unsigned short>> const &__ptr64 ,class std::<unsigned short,struct std::<unsigned short>,class std::<unsigned short>> const &__ptr64 )
??Hstd@@YA?AV?$basic_string@GU?$char_traits@G@std@@V?$allocator@G@2@@0@AEBV10@0@Z
; class std::<unsigned short,struct std::<unsigned short>,class std::<unsigned short>> __cdecl std::operator +(class std::<unsigned short,struct std::<unsigned short>,class std::<unsigned short>> const &__ptr64 ,unsigned short)
??Hstd@@YA?AV?$basic_string@GU?$char_traits@G@std@@V?$allocator@G@2@@0@AEBV10@G@Z
; class std::<unsigned short,struct std::<unsigned short>,class std::<unsigned short>> __cdecl std::operator +(class std::<unsigned short,struct std::<unsigned short>,class std::<unsigned short>> const &__ptr64 ,unsigned short const *__ptr64)
??Hstd@@YA?AV?$basic_string@GU?$char_traits@G@std@@V?$allocator@G@2@@0@AEBV10@PEBG@Z
; class std::<unsigned short,struct std::<unsigned short>,class std::<unsigned short>> __cdecl std::operator +(unsigned short,class std::<unsigned short,struct std::<unsigned short>,class std::<unsigned short>> const &__ptr64 )
??Hstd@@YA?AV?$basic_string@GU?$char_traits@G@std@@V?$allocator@G@2@@0@GAEBV10@@Z
; class std::<unsigned short,struct std::<unsigned short>,class std::<unsigned short>> __cdecl std::operator +(unsigned short const *__ptr64,class std::<unsigned short,struct std::<unsigned short>,class std::<unsigned short>> const &__ptr64 )
??Hstd@@YA?AV?$basic_string@GU?$char_traits@G@std@@V?$allocator@G@2@@0@PEBGAEBV10@@Z
; class std::<float> __cdecl std::operator +(float const &__ptr64 ,class std::<float> const &__ptr64 )
??Hstd@@YA?AV?$complex@M@0@AEBMAEBV10@@Z
; class std::<float> __cdecl std::operator +(class std::<float> const &__ptr64 ,class std::<float> const &__ptr64 )
??Hstd@@YA?AV?$complex@M@0@AEBV10@0@Z
; class std::<float> __cdecl std::operator +(class std::<float> const &__ptr64 )
??Hstd@@YA?AV?$complex@M@0@AEBV10@@Z
; class std::<float> __cdecl std::operator +(class std::<float> const &__ptr64 ,float const &__ptr64 )
??Hstd@@YA?AV?$complex@M@0@AEBV10@AEBM@Z
; class std::<double> __cdecl std::operator +(double const &__ptr64 ,class std::<double> const &__ptr64 )
??Hstd@@YA?AV?$complex@N@0@AEBNAEBV10@@Z
; class std::<double> __cdecl std::operator +(class std::<double> const &__ptr64 ,class std::<double> const &__ptr64 )
??Hstd@@YA?AV?$complex@N@0@AEBV10@0@Z
; class std::<double> __cdecl std::operator +(class std::<double> const &__ptr64 )
??Hstd@@YA?AV?$complex@N@0@AEBV10@@Z
; class std::<double> __cdecl std::operator +(class std::<double> const &__ptr64 ,double const &__ptr64 )
??Hstd@@YA?AV?$complex@N@0@AEBV10@AEBN@Z
; class std::<long double> __cdecl std::operator +(long double const &__ptr64 ,class std::<long double> const &__ptr64 )
??Hstd@@YA?AV?$complex@O@0@AEBOAEBV10@@Z
; class std::<long double> __cdecl std::operator +(class std::<long double> const &__ptr64 ,class std::<long double> const &__ptr64 )
??Hstd@@YA?AV?$complex@O@0@AEBV10@0@Z
; class std::<long double> __cdecl std::operator +(class std::<long double> const &__ptr64 )
??Hstd@@YA?AV?$complex@O@0@AEBV10@@Z
; class std::<long double> __cdecl std::operator +(class std::<long double> const &__ptr64 ,long double const &__ptr64 )
??Hstd@@YA?AV?$complex@O@0@AEBV10@AEBO@Z
; class std::<float> __cdecl std::operator /(float const &__ptr64 ,class std::<float> const &__ptr64 )
??Kstd@@YA?AV?$complex@M@0@AEBMAEBV10@@Z
; class std::<float> __cdecl std::operator /(class std::<float> const &__ptr64 ,class std::<float> const &__ptr64 )
??Kstd@@YA?AV?$complex@M@0@AEBV10@0@Z
; class std::<float> __cdecl std::operator /(class std::<float> const &__ptr64 ,float const &__ptr64 )
??Kstd@@YA?AV?$complex@M@0@AEBV10@AEBM@Z
; class std::<double> __cdecl std::operator /(double const &__ptr64 ,class std::<double> const &__ptr64 )
??Kstd@@YA?AV?$complex@N@0@AEBNAEBV10@@Z
; class std::<double> __cdecl std::operator /(class std::<double> const &__ptr64 ,class std::<double> const &__ptr64 )
??Kstd@@YA?AV?$complex@N@0@AEBV10@0@Z
; class std::<double> __cdecl std::operator /(class std::<double> const &__ptr64 ,double const &__ptr64 )
??Kstd@@YA?AV?$complex@N@0@AEBV10@AEBN@Z
; class std::<long double> __cdecl std::operator /(long double const &__ptr64 ,class std::<long double> const &__ptr64 )
??Kstd@@YA?AV?$complex@O@0@AEBOAEBV10@@Z
; class std::<long double> __cdecl std::operator /(class std::<long double> const &__ptr64 ,class std::<long double> const &__ptr64 )
??Kstd@@YA?AV?$complex@O@0@AEBV10@0@Z
; class std::<long double> __cdecl std::operator /(class std::<long double> const &__ptr64 ,long double const &__ptr64 )
??Kstd@@YA?AV?$complex@O@0@AEBV10@AEBO@Z
; bool __cdecl std::operator <(class std::<char,struct std::<char>,class std::<char>> const &__ptr64 ,class std::<char,struct std::<char>,class std::<char>> const &__ptr64 )
??Mstd@@YA_NAEBV?$basic_string@DU?$char_traits@D@std@@V?$allocator@D@2@@0@0@Z
; bool __cdecl std::operator <(class std::<char,struct std::<char>,class std::<char>> const &__ptr64 ,char const *__ptr64)
??Mstd@@YA_NAEBV?$basic_string@DU?$char_traits@D@std@@V?$allocator@D@2@@0@PEBD@Z
; bool __cdecl std::operator <(class std::<unsigned short,struct std::<unsigned short>,class std::<unsigned short>> const &__ptr64 ,class std::<unsigned short,struct std::<unsigned short>,class std::<unsigned short>> const &__ptr64 )
??Mstd@@YA_NAEBV?$basic_string@GU?$char_traits@G@std@@V?$allocator@G@2@@0@0@Z
; bool __cdecl std::operator <(class std::<unsigned short,struct std::<unsigned short>,class std::<unsigned short>> const &__ptr64 ,unsigned short const *__ptr64)
??Mstd@@YA_NAEBV?$basic_string@GU?$char_traits@G@std@@V?$allocator@G@2@@0@PEBG@Z
; bool __cdecl std::operator <(char const *__ptr64,class std::<char,struct std::<char>,class std::<char>> const &__ptr64 )
??Mstd@@YA_NPEBDAEBV?$basic_string@DU?$char_traits@D@std@@V?$allocator@D@2@@0@@Z
; bool __cdecl std::operator <(unsigned short const *__ptr64,class std::<unsigned short,struct std::<unsigned short>,class std::<unsigned short>> const &__ptr64 )
??Mstd@@YA_NPEBGAEBV?$basic_string@GU?$char_traits@G@std@@V?$allocator@G@2@@0@@Z
; bool __cdecl std::operator <=(class std::<char,struct std::<char>,class std::<char>> const &__ptr64 ,class std::<char,struct std::<char>,class std::<char>> const &__ptr64 )
??Nstd@@YA_NAEBV?$basic_string@DU?$char_traits@D@std@@V?$allocator@D@2@@0@0@Z
; bool __cdecl std::operator <=(class std::<char,struct std::<char>,class std::<char>> const &__ptr64 ,char const *__ptr64)
??Nstd@@YA_NAEBV?$basic_string@DU?$char_traits@D@std@@V?$allocator@D@2@@0@PEBD@Z
; bool __cdecl std::operator <=(class std::<unsigned short,struct std::<unsigned short>,class std::<unsigned short>> const &__ptr64 ,class std::<unsigned short,struct std::<unsigned short>,class std::<unsigned short>> const &__ptr64 )
??Nstd@@YA_NAEBV?$basic_string@GU?$char_traits@G@std@@V?$allocator@G@2@@0@0@Z
; bool __cdecl std::operator <=(class std::<unsigned short,struct std::<unsigned short>,class std::<unsigned short>> const &__ptr64 ,unsigned short const *__ptr64)
??Nstd@@YA_NAEBV?$basic_string@GU?$char_traits@G@std@@V?$allocator@G@2@@0@PEBG@Z
; bool __cdecl std::operator <=(char const *__ptr64,class std::<char,struct std::<char>,class std::<char>> const &__ptr64 )
??Nstd@@YA_NPEBDAEBV?$basic_string@DU?$char_traits@D@std@@V?$allocator@D@2@@0@@Z
; bool __cdecl std::operator <=(unsigned short const *__ptr64,class std::<unsigned short,struct std::<unsigned short>,class std::<unsigned short>> const &__ptr64 )
??Nstd@@YA_NPEBGAEBV?$basic_string@GU?$char_traits@G@std@@V?$allocator@G@2@@0@@Z
; bool __cdecl std::operator >(class std::<char,struct std::<char>,class std::<char>> const &__ptr64 ,class std::<char,struct std::<char>,class std::<char>> const &__ptr64 )
??Ostd@@YA_NAEBV?$basic_string@DU?$char_traits@D@std@@V?$allocator@D@2@@0@0@Z
; bool __cdecl std::operator >(class std::<char,struct std::<char>,class std::<char>> const &__ptr64 ,char const *__ptr64)
??Ostd@@YA_NAEBV?$basic_string@DU?$char_traits@D@std@@V?$allocator@D@2@@0@PEBD@Z
; bool __cdecl std::operator >(class std::<unsigned short,struct std::<unsigned short>,class std::<unsigned short>> const &__ptr64 ,class std::<unsigned short,struct std::<unsigned short>,class std::<unsigned short>> const &__ptr64 )
??Ostd@@YA_NAEBV?$basic_string@GU?$char_traits@G@std@@V?$allocator@G@2@@0@0@Z
; bool __cdecl std::operator >(class std::<unsigned short,struct std::<unsigned short>,class std::<unsigned short>> const &__ptr64 ,unsigned short const *__ptr64)
??Ostd@@YA_NAEBV?$basic_string@GU?$char_traits@G@std@@V?$allocator@G@2@@0@PEBG@Z
; bool __cdecl std::operator >(char const *__ptr64,class std::<char,struct std::<char>,class std::<char>> const &__ptr64 )
??Ostd@@YA_NPEBDAEBV?$basic_string@DU?$char_traits@D@std@@V?$allocator@D@2@@0@@Z
; bool __cdecl std::operator >(unsigned short const *__ptr64,class std::<unsigned short,struct std::<unsigned short>,class std::<unsigned short>> const &__ptr64 )
??Ostd@@YA_NPEBGAEBV?$basic_string@GU?$char_traits@G@std@@V?$allocator@G@2@@0@@Z
; bool __cdecl std::operator >=(class std::<char,struct std::<char>,class std::<char>> const &__ptr64 ,class std::<char,struct std::<char>,class std::<char>> const &__ptr64 )
??Pstd@@YA_NAEBV?$basic_string@DU?$char_traits@D@std@@V?$allocator@D@2@@0@0@Z
; bool __cdecl std::operator >=(class std::<char,struct std::<char>,class std::<char>> const &__ptr64 ,char const *__ptr64)
??Pstd@@YA_NAEBV?$basic_string@DU?$char_traits@D@std@@V?$allocator@D@2@@0@PEBD@Z
; bool __cdecl std::operator >=(class std::<unsigned short,struct std::<unsigned short>,class std::<unsigned short>> const &__ptr64 ,class std::<unsigned short,struct std::<unsigned short>,class std::<unsigned short>> const &__ptr64 )
??Pstd@@YA_NAEBV?$basic_string@GU?$char_traits@G@std@@V?$allocator@G@2@@0@0@Z
; bool __cdecl std::operator >=(class std::<unsigned short,struct std::<unsigned short>,class std::<unsigned short>> const &__ptr64 ,unsigned short const *__ptr64)
??Pstd@@YA_NAEBV?$basic_string@GU?$char_traits@G@std@@V?$allocator@G@2@@0@PEBG@Z
; bool __cdecl std::operator >=(char const *__ptr64,class std::<char,struct std::<char>,class std::<char>> const &__ptr64 )
??Pstd@@YA_NPEBDAEBV?$basic_string@DU?$char_traits@D@std@@V?$allocator@D@2@@0@@Z
; bool __cdecl std::operator >=(unsigned short const *__ptr64,class std::<unsigned short,struct std::<unsigned short>,class std::<unsigned short>> const &__ptr64 )
??Pstd@@YA_NPEBGAEBV?$basic_string@GU?$char_traits@G@std@@V?$allocator@G@2@@0@@Z
; public: bool __cdecl std::locale::operator()(class std::<char,struct std::<char>,class std::<char>> const &__ptr64 ,class std::<char,struct std::<char>,class std::<char>> const &__ptr64 )const __ptr64 
??Rlocale@std@@QEBA_NAEBV?$basic_string@DU?$char_traits@D@std@@V?$allocator@D@2@@1@0@Z
; public: class std::<float> &__ptr64 __cdecl std::<float>::operator *=(float const &__ptr64 )__ptr64 
??X?$_Complex_base@M@std@@QEAAAEAV01@AEBM@Z
; public: class std::<double> &__ptr64 __cdecl std::<double>::operator *=(double const &__ptr64 )__ptr64 
??X?$_Complex_base@N@std@@QEAAAEAV01@AEBN@Z
; public: class std::<long double> &__ptr64 __cdecl std::<long double>::operator *=(long double const &__ptr64 )__ptr64 
??X?$_Complex_base@O@std@@QEAAAEAV01@AEBO@Z
; class std::<float> &__ptr64 __cdecl std::operator *=(class std::<float> &__ptr64 ,class std::<float> const &__ptr64 )
??Xstd@@YAAEAV?$complex@M@0@AEAV10@AEBV10@@Z
; class std::<double> &__ptr64 __cdecl std::operator *=(class std::<double> &__ptr64 ,class std::<double> const &__ptr64 )
??Xstd@@YAAEAV?$complex@N@0@AEAV10@AEBV10@@Z
; class std::<long double> &__ptr64 __cdecl std::operator *=(class std::<long double> &__ptr64 ,class std::<long double> const &__ptr64 )
??Xstd@@YAAEAV?$complex@O@0@AEAV10@AEBV10@@Z
; public: class std::<float> &__ptr64 __cdecl std::<float>::operator +=(float const &__ptr64 )__ptr64 
??Y?$_Complex_base@M@std@@QEAAAEAV01@AEBM@Z
; public: class std::<double> &__ptr64 __cdecl std::<double>::operator +=(double const &__ptr64 )__ptr64 
??Y?$_Complex_base@N@std@@QEAAAEAV01@AEBN@Z
; public: class std::<long double> &__ptr64 __cdecl std::<long double>::operator +=(long double const &__ptr64 )__ptr64 
??Y?$_Complex_base@O@std@@QEAAAEAV01@AEBO@Z
; public: class std::<char,struct std::<char>,class std::<char>> &__ptr64 __cdecl std::<char,struct std::<char>,class std::<char>>::operator +=(class std::<char,struct std::<char>,class std::<char>> const &__ptr64 )__ptr64 
??Y?$basic_string@DU?$char_traits@D@std@@V?$allocator@D@2@@std@@QEAAAEAV01@AEBV01@@Z
; public: class std::<char,struct std::<char>,class std::<char>> &__ptr64 __cdecl std::<char,struct std::<char>,class std::<char>>::operator +=(char)__ptr64 
??Y?$basic_string@DU?$char_traits@D@std@@V?$allocator@D@2@@std@@QEAAAEAV01@D@Z
; public: class std::<char,struct std::<char>,class std::<char>> &__ptr64 __cdecl std::<char,struct std::<char>,class std::<char>>::operator +=(char const *__ptr64)__ptr64 
??Y?$basic_string@DU?$char_traits@D@std@@V?$allocator@D@2@@std@@QEAAAEAV01@PEBD@Z
; public: class std::<unsigned short,struct std::<unsigned short>,class std::<unsigned short>> &__ptr64 __cdecl std::<unsigned short,struct std::<unsigned short>,class std::<unsigned short>>::operator +=(class std::<unsigned short,struct std::<unsigned short>,class std::<unsigned short>> const &__ptr64 )__ptr64 
??Y?$basic_string@GU?$char_traits@G@std@@V?$allocator@G@2@@std@@QEAAAEAV01@AEBV01@@Z
; public: class std::<unsigned short,struct std::<unsigned short>,class std::<unsigned short>> &__ptr64 __cdecl std::<unsigned short,struct std::<unsigned short>,class std::<unsigned short>>::operator +=(unsigned short)__ptr64 
??Y?$basic_string@GU?$char_traits@G@std@@V?$allocator@G@2@@std@@QEAAAEAV01@G@Z
; public: class std::<unsigned short,struct std::<unsigned short>,class std::<unsigned short>> &__ptr64 __cdecl std::<unsigned short,struct std::<unsigned short>,class std::<unsigned short>>::operator +=(unsigned short const *__ptr64)__ptr64 
??Y?$basic_string@GU?$char_traits@G@std@@V?$allocator@G@2@@std@@QEAAAEAV01@PEBG@Z
; class std::<float> &__ptr64 __cdecl std::operator +=(class std::<float> &__ptr64 ,class std::<float> const &__ptr64 )
??Ystd@@YAAEAV?$complex@M@0@AEAV10@AEBV10@@Z
; class std::<double> &__ptr64 __cdecl std::operator +=(class std::<double> &__ptr64 ,class std::<double> const &__ptr64 )
??Ystd@@YAAEAV?$complex@N@0@AEAV10@AEBV10@@Z
; class std::<long double> &__ptr64 __cdecl std::operator +=(class std::<long double> &__ptr64 ,class std::<long double> const &__ptr64 )
??Ystd@@YAAEAV?$complex@O@0@AEAV10@AEBV10@@Z
; public: class std::<float> &__ptr64 __cdecl std::<float>::operator -=(float const &__ptr64 )__ptr64 
??Z?$_Complex_base@M@std@@QEAAAEAV01@AEBM@Z
; public: class std::<double> &__ptr64 __cdecl std::<double>::operator -=(double const &__ptr64 )__ptr64 
??Z?$_Complex_base@N@std@@QEAAAEAV01@AEBN@Z
; public: class std::<long double> &__ptr64 __cdecl std::<long double>::operator -=(long double const &__ptr64 )__ptr64 
??Z?$_Complex_base@O@std@@QEAAAEAV01@AEBO@Z
; class std::<float> &__ptr64 __cdecl std::operator -=(class std::<float> &__ptr64 ,class std::<float> const &__ptr64 )
??Zstd@@YAAEAV?$complex@M@0@AEAV10@AEBV10@@Z
; class std::<double> &__ptr64 __cdecl std::operator -=(class std::<double> &__ptr64 ,class std::<double> const &__ptr64 )
??Zstd@@YAAEAV?$complex@N@0@AEAV10@AEBV10@@Z
; class std::<long double> &__ptr64 __cdecl std::operator -=(class std::<long double> &__ptr64 ,class std::<long double> const &__ptr64 )
??Zstd@@YAAEAV?$complex@O@0@AEAV10@AEBV10@@Z
; public: class std::<float> &__ptr64 __cdecl std::<float>::operator /=(float const &__ptr64 )__ptr64 
??_0?$_Complex_base@M@std@@QEAAAEAV01@AEBM@Z
; public: class std::<double> &__ptr64 __cdecl std::<double>::operator /=(double const &__ptr64 )__ptr64 
??_0?$_Complex_base@N@std@@QEAAAEAV01@AEBN@Z
; public: class std::<long double> &__ptr64 __cdecl std::<long double>::operator /=(long double const &__ptr64 )__ptr64 
??_0?$_Complex_base@O@std@@QEAAAEAV01@AEBO@Z
; class std::<float> &__ptr64 __cdecl std::operator /=(class std::<float> &__ptr64 ,class std::<float> const &__ptr64 )
??_0std@@YAAEAV?$complex@M@0@AEAV10@AEBV10@@Z
; class std::<double> &__ptr64 __cdecl std::operator /=(class std::<double> &__ptr64 ,class std::<double> const &__ptr64 )
??_0std@@YAAEAV?$complex@N@0@AEAV10@AEBV10@@Z
; class std::<long double> &__ptr64 __cdecl std::operator /=(class std::<long double> &__ptr64 ,class std::<long double> const &__ptr64 )
??_0std@@YAAEAV?$complex@O@0@AEAV10@AEBV10@@Z
; const std::<char>::$vftable
??_7?$_Mpunct@D@std@@6B@ DATA
; const std::<unsigned short>::$vftable
??_7?$_Mpunct@G@std@@6B@ DATA
; const std::<char,struct std::<char>>::$vftable
??_7?$basic_filebuf@DU?$char_traits@D@std@@@std@@6B@ DATA
; const std::<unsigned short,struct std::<unsigned short>>::$vftable
??_7?$basic_filebuf@GU?$char_traits@G@std@@@std@@6B@ DATA
; const std::<char,struct std::<char>>::$vftable
??_7?$basic_fstream@DU?$char_traits@D@std@@@std@@6B@ DATA
; const std::<unsigned short,struct std::<unsigned short>>::$vftable
??_7?$basic_fstream@GU?$char_traits@G@std@@@std@@6B@ DATA
; const std::<char,struct std::<char>>::$vftable
??_7?$basic_ifstream@DU?$char_traits@D@std@@@std@@6B@ DATA
; const std::<unsigned short,struct std::<unsigned short>>::$vftable
??_7?$basic_ifstream@GU?$char_traits@G@std@@@std@@6B@ DATA
; const std::<char,struct std::<char>>::$vftable
??_7?$basic_ios@DU?$char_traits@D@std@@@std@@6B@ DATA
; const std::<unsigned short,struct std::<unsigned short>>::$vftable
??_7?$basic_ios@GU?$char_traits@G@std@@@std@@6B@ DATA
; const std::<char,struct std::<char>>::$vftable
??_7?$basic_iostream@DU?$char_traits@D@std@@@std@@6B@ DATA
; const std::<unsigned short,struct std::<unsigned short>>::$vftable
??_7?$basic_iostream@GU?$char_traits@G@std@@@std@@6B@ DATA
; const std::<char,struct std::<char>>::$vftable
??_7?$basic_istream@DU?$char_traits@D@std@@@std@@6B@ DATA
; const std::<unsigned short,struct std::<unsigned short>>::$vftable
??_7?$basic_istream@GU?$char_traits@G@std@@@std@@6B@ DATA
; const std::<char,struct std::<char>,class std::<char>>::$vftable
??_7?$basic_istringstream@DU?$char_traits@D@std@@V?$allocator@D@2@@std@@6B@ DATA
; const std::<unsigned short,struct std::<unsigned short>,class std::<unsigned short>>::$vftable
??_7?$basic_istringstream@GU?$char_traits@G@std@@V?$allocator@G@2@@std@@6B@ DATA
; const std::<char,struct std::<char>>::$vftable
??_7?$basic_ofstream@DU?$char_traits@D@std@@@std@@6B@ DATA
; const std::<unsigned short,struct std::<unsigned short>>::$vftable
??_7?$basic_ofstream@GU?$char_traits@G@std@@@std@@6B@ DATA
; const std::<char,struct std::<char>>::$vftable
??_7?$basic_ostream@DU?$char_traits@D@std@@@std@@6B@ DATA
; const std::<unsigned short,struct std::<unsigned short>>::$vftable
??_7?$basic_ostream@GU?$char_traits@G@std@@@std@@6B@ DATA
; const std::<char,struct std::<char>,class std::<char>>::$vftable
??_7?$basic_ostringstream@DU?$char_traits@D@std@@V?$allocator@D@2@@std@@6B@ DATA
; const std::<unsigned short,struct std::<unsigned short>,class std::<unsigned short>>::$vftable
??_7?$basic_ostringstream@GU?$char_traits@G@std@@V?$allocator@G@2@@std@@6B@ DATA
; const std::<char,struct std::<char>>::$vftable
??_7?$basic_streambuf@DU?$char_traits@D@std@@@std@@6B@ DATA
; const std::<unsigned short,struct std::<unsigned short>>::$vftable
??_7?$basic_streambuf@GU?$char_traits@G@std@@@std@@6B@ DATA
; const std::<char,struct std::<char>,class std::<char>>::$vftable
??_7?$basic_stringbuf@DU?$char_traits@D@std@@V?$allocator@D@2@@std@@6B@ DATA
; const std::<unsigned short,struct std::<unsigned short>,class std::<unsigned short>>::$vftable
??_7?$basic_stringbuf@GU?$char_traits@G@std@@V?$allocator@G@2@@std@@6B@ DATA
; const std::<char,struct std::<char>,class std::<char>>::$vftable
??_7?$basic_stringstream@DU?$char_traits@D@std@@V?$allocator@D@2@@std@@6B@ DATA
; const std::<unsigned short,struct std::<unsigned short>,class std::<unsigned short>>::$vftable
??_7?$basic_stringstream@GU?$char_traits@G@std@@V?$allocator@G@2@@std@@6B@ DATA
; const std::<char,char,int>::$vftable
??_7?$codecvt@DDH@std@@6B@ DATA
; const std::<unsigned short,char,int>::$vftable
??_7?$codecvt@GDH@std@@6B@ DATA
; const std::<char>::$vftable
??_7?$collate@D@std@@6B@ DATA
; const std::<unsigned short>::$vftable
??_7?$collate@G@std@@6B@ DATA
; const std::<char>::$vftable
??_7?$ctype@D@std@@6B@ DATA
; const std::<unsigned short>::$vftable
??_7?$ctype@G@std@@6B@ DATA
; const std::<char>::$vftable
??_7?$messages@D@std@@6B@ DATA
; const std::<unsigned short>::$vftable
??_7?$messages@G@std@@6B@ DATA
; const std::<char,class std::<char,struct std::<char>>>::$vftable
??_7?$money_get@DV?$istreambuf_iterator@DU?$char_traits@D@std@@@std@@@std@@6B@ DATA
; const std::<unsigned short,class std::<unsigned short,struct std::<unsigned short>>>::$vftable
??_7?$money_get@GV?$istreambuf_iterator@GU?$char_traits@G@std@@@std@@@std@@6B@ DATA
; const std::<char,class std::<char,struct std::<char>>>::$vftable
??_7?$money_put@DV?$ostreambuf_iterator@DU?$char_traits@D@std@@@std@@@std@@6B@ DATA
; const std::<unsigned short,class std::<unsigned short,struct std::<unsigned short>>>::$vftable
??_7?$money_put@GV?$ostreambuf_iterator@GU?$char_traits@G@std@@@std@@@std@@6B@ DATA
; const std::<char,0x1ULL>::$vftable
??_7?$moneypunct@D$00@std@@6B@ DATA
; const std::<char,0x0ULL>::$vftable
??_7?$moneypunct@D$0A@@std@@6B@ DATA
; const std::<unsigned short,0x1ULL>::$vftable
??_7?$moneypunct@G$00@std@@6B@ DATA
; const std::<unsigned short,0x0ULL>::$vftable
??_7?$moneypunct@G$0A@@std@@6B@ DATA
; const std::<char,class std::<char,struct std::<char>>>::$vftable
??_7?$num_get@DV?$istreambuf_iterator@DU?$char_traits@D@std@@@std@@@std@@6B@ DATA
; const std::<unsigned short,class std::<unsigned short,struct std::<unsigned short>>>::$vftable
??_7?$num_get@GV?$istreambuf_iterator@GU?$char_traits@G@std@@@std@@@std@@6B@ DATA
; const std::<char,class std::<char,struct std::<char>>>::$vftable
??_7?$num_put@DV?$ostreambuf_iterator@DU?$char_traits@D@std@@@std@@@std@@6B@ DATA
; const std::<unsigned short,class std::<unsigned short,struct std::<unsigned short>>>::$vftable
??_7?$num_put@GV?$ostreambuf_iterator@GU?$char_traits@G@std@@@std@@@std@@6B@ DATA
; const std::<char>::$vftable
??_7?$numpunct@D@std@@6B@ DATA
; const std::<unsigned short>::$vftable
??_7?$numpunct@G@std@@6B@ DATA
; const std::<char,class std::<char,struct std::<char>>>::$vftable
??_7?$time_get@DV?$istreambuf_iterator@DU?$char_traits@D@std@@@std@@@std@@6B@ DATA
; const std::<unsigned short,class std::<unsigned short,struct std::<unsigned short>>>::$vftable
??_7?$time_get@GV?$istreambuf_iterator@GU?$char_traits@G@std@@@std@@@std@@6B@ DATA
; const std::<char,class std::<char,struct std::<char>>>::$vftable
??_7?$time_put@DV?$ostreambuf_iterator@DU?$char_traits@D@std@@@std@@@std@@6B@ DATA
; const std::<unsigned short,class std::<unsigned short,struct std::<unsigned short>>>::$vftable
??_7?$time_put@GV?$ostreambuf_iterator@GU?$char_traits@G@std@@@std@@@std@@6B@ DATA
; const std::__non_rtti_object::$vftable
??_7__non_rtti_object@std@@6B@ DATA
; const std::bad_alloc::$vftable
??_7bad_alloc@std@@6B@ DATA
; const std::bad_cast::$vftable
??_7bad_cast@std@@6B@ DATA
; const std::bad_exception::$vftable
??_7bad_exception@std@@6B@ DATA
; const std::bad_typeid::$vftable
??_7bad_typeid@std@@6B@ DATA
; const std::codecvt_base::$vftable
??_7codecvt_base@std@@6B@ DATA
; const std::ctype_base::$vftable
??_7ctype_base@std@@6B@ DATA
; const std::domain_error::$vftable
??_7domain_error@std@@6B@ DATA
; const std::locale::facet::$vftable
??_7facet@locale@std@@6B@ DATA
; const std::ios_base::$vftable
??_7ios_base@std@@6B@ DATA
; const std::length_error::$vftable
??_7length_error@std@@6B@ DATA
; const std::logic_error::$vftable
??_7logic_error@std@@6B@ DATA
; const std::messages_base::$vftable
??_7messages_base@std@@6B@ DATA
; const std::money_base::$vftable
??_7money_base@std@@6B@ DATA
; const std::out_of_range::$vftable
??_7out_of_range@std@@6B@ DATA
; const std::overflow_error::$vftable
??_7overflow_error@std@@6B@ DATA
; const std::range_error::$vftable
??_7range_error@std@@6B@ DATA
; const std::runtime_error::$vftable
??_7runtime_error@std@@6B@ DATA
; const std::time_base::$vftable
??_7time_base@std@@6B@ DATA
; const std::underflow_error::$vftable
??_7underflow_error@std@@6B@ DATA
; const std::<char,struct std::<char>>::$vbtable {for 'std::<char,struct std::<char>>' }
??_8?$basic_fstream@DU?$char_traits@D@std@@@std@@7B?$basic_istream@DU?$char_traits@D@std@@@1@@
; const std::<char,struct std::<char>>::$vbtable {for 'std::<char,struct std::<char>>' }
??_8?$basic_fstream@DU?$char_traits@D@std@@@std@@7B?$basic_ostream@DU?$char_traits@D@std@@@1@@
; const std::<unsigned short,struct std::<unsigned short>>::$vbtable {for 'std::<unsigned short,struct std::<unsigned short>>' }
??_8?$basic_fstream@GU?$char_traits@G@std@@@std@@7B?$basic_istream@GU?$char_traits@G@std@@@1@@
; const std::<unsigned short,struct std::<unsigned short>>::$vbtable {for 'std::<unsigned short,struct std::<unsigned short>>' }
??_8?$basic_fstream@GU?$char_traits@G@std@@@std@@7B?$basic_ostream@GU?$char_traits@G@std@@@1@@
; const std::<char,struct std::<char>>::$vbtable
??_8?$basic_ifstream@DU?$char_traits@D@std@@@std@@7B@
; const std::<unsigned short,struct std::<unsigned short>>::$vbtable
??_8?$basic_ifstream@GU?$char_traits@G@std@@@std@@7B@
; const std::<char,struct std::<char>>::$vbtable {for 'std::<char,struct std::<char>>' }
??_8?$basic_iostream@DU?$char_traits@D@std@@@std@@7B?$basic_istream@DU?$char_traits@D@std@@@1@@
; const std::<char,struct std::<char>>::$vbtable {for 'std::<char,struct std::<char>>' }
??_8?$basic_iostream@DU?$char_traits@D@std@@@std@@7B?$basic_ostream@DU?$char_traits@D@std@@@1@@
; const std::<unsigned short,struct std::<unsigned short>>::$vbtable {for 'std::<unsigned short,struct std::<unsigned short>>' }
??_8?$basic_iostream@GU?$char_traits@G@std@@@std@@7B?$basic_istream@GU?$char_traits@G@std@@@1@@
; const std::<unsigned short,struct std::<unsigned short>>::$vbtable {for 'std::<unsigned short,struct std::<unsigned short>>' }
??_8?$basic_iostream@GU?$char_traits@G@std@@@std@@7B?$basic_ostream@GU?$char_traits@G@std@@@1@@
; const std::<char,struct std::<char>>::$vbtable
??_8?$basic_istream@DU?$char_traits@D@std@@@std@@7B@
; const std::<unsigned short,struct std::<unsigned short>>::$vbtable
??_8?$basic_istream@GU?$char_traits@G@std@@@std@@7B@
; const std::<char,struct std::<char>,class std::<char>>::$vbtable
??_8?$basic_istringstream@DU?$char_traits@D@std@@V?$allocator@D@2@@std@@7B@
; const std::<unsigned short,struct std::<unsigned short>,class std::<unsigned short>>::$vbtable
??_8?$basic_istringstream@GU?$char_traits@G@std@@V?$allocator@G@2@@std@@7B@
; const std::<char,struct std::<char>>::$vbtable
??_8?$basic_ofstream@DU?$char_traits@D@std@@@std@@7B@
; const std::<unsigned short,struct std::<unsigned short>>::$vbtable
??_8?$basic_ofstream@GU?$char_traits@G@std@@@std@@7B@
; const std::<char,struct std::<char>>::$vbtable
??_8?$basic_ostream@DU?$char_traits@D@std@@@std@@7B@
; const std::<unsigned short,struct std::<unsigned short>>::$vbtable
??_8?$basic_ostream@GU?$char_traits@G@std@@@std@@7B@
; const std::<char,struct std::<char>,class std::<char>>::$vbtable
??_8?$basic_ostringstream@DU?$char_traits@D@std@@V?$allocator@D@2@@std@@7B@
; const std::<unsigned short,struct std::<unsigned short>,class std::<unsigned short>>::$vbtable
??_8?$basic_ostringstream@GU?$char_traits@G@std@@V?$allocator@G@2@@std@@7B@
; const std::<char,struct std::<char>,class std::<char>>::$vbtable {for 'std::<char,struct std::<char>>' }
??_8?$basic_stringstream@DU?$char_traits@D@std@@V?$allocator@D@2@@std@@7B?$basic_istream@DU?$char_traits@D@std@@@1@@
; const std::<char,struct std::<char>,class std::<char>>::$vbtable {for 'std::<char,struct std::<char>>' }
??_8?$basic_stringstream@DU?$char_traits@D@std@@V?$allocator@D@2@@std@@7B?$basic_ostream@DU?$char_traits@D@std@@@1@@
; const std::<unsigned short,struct std::<unsigned short>,class std::<unsigned short>>::$vbtable {for 'std::<unsigned short,struct std::<unsigned short>>' }
??_8?$basic_stringstream@GU?$char_traits@G@std@@V?$allocator@G@2@@std@@7B?$basic_istream@GU?$char_traits@G@std@@@1@@
; const std::<unsigned short,struct std::<unsigned short>,class std::<unsigned short>>::$vbtable {for 'std::<unsigned short,struct std::<unsigned short>>' }
??_8?$basic_stringstream@GU?$char_traits@G@std@@V?$allocator@G@2@@std@@7B?$basic_ostream@GU?$char_traits@G@std@@@1@@
; public: void __cdecl std::<char,struct std::<char>>::vbase_destructor(void)__ptr64 
??_D?$basic_fstream@DU?$char_traits@D@std@@@std@@QEAAXXZ
; public: void __cdecl std::<unsigned short,struct std::<unsigned short>>::vbase_destructor(void)__ptr64 
??_D?$basic_fstream@GU?$char_traits@G@std@@@std@@QEAAXXZ
; public: void __cdecl std::<char,struct std::<char>>::vbase_destructor(void)__ptr64 
??_D?$basic_ifstream@DU?$char_traits@D@std@@@std@@QEAAXXZ
; public: void __cdecl std::<unsigned short,struct std::<unsigned short>>::vbase_destructor(void)__ptr64 
??_D?$basic_ifstream@GU?$char_traits@G@std@@@std@@QEAAXXZ
; public: void __cdecl std::<char,struct std::<char>>::vbase_destructor(void)__ptr64 
??_D?$basic_iostream@DU?$char_traits@D@std@@@std@@QEAAXXZ
; public: void __cdecl std::<unsigned short,struct std::<unsigned short>>::vbase_destructor(void)__ptr64 
??_D?$basic_iostream@GU?$char_traits@G@std@@@std@@QEAAXXZ
; public: void __cdecl std::<char,struct std::<char>>::vbase_destructor(void)__ptr64 
??_D?$basic_istream@DU?$char_traits@D@std@@@std@@QEAAXXZ
; public: void __cdecl std::<unsigned short,struct std::<unsigned short>>::vbase_destructor(void)__ptr64 
??_D?$basic_istream@GU?$char_traits@G@std@@@std@@QEAAXXZ
; public: void __cdecl std::<char,struct std::<char>,class std::<char>>::vbase_destructor(void)__ptr64 
??_D?$basic_istringstream@DU?$char_traits@D@std@@V?$allocator@D@2@@std@@QEAAXXZ
; public: void __cdecl std::<unsigned short,struct std::<unsigned short>,class std::<unsigned short>>::vbase_destructor(void)__ptr64 
??_D?$basic_istringstream@GU?$char_traits@G@std@@V?$allocator@G@2@@std@@QEAAXXZ
; public: void __cdecl std::<char,struct std::<char>>::vbase_destructor(void)__ptr64 
??_D?$basic_ofstream@DU?$char_traits@D@std@@@std@@QEAAXXZ
; public: void __cdecl std::<unsigned short,struct std::<unsigned short>>::vbase_destructor(void)__ptr64 
??_D?$basic_ofstream@GU?$char_traits@G@std@@@std@@QEAAXXZ
; public: void __cdecl std::<char,struct std::<char>>::vbase_destructor(void)__ptr64 
??_D?$basic_ostream@DU?$char_traits@D@std@@@std@@QEAAXXZ
; public: void __cdecl std::<unsigned short,struct std::<unsigned short>>::vbase_destructor(void)__ptr64 
??_D?$basic_ostream@GU?$char_traits@G@std@@@std@@QEAAXXZ
; public: void __cdecl std::<char,struct std::<char>,class std::<char>>::vbase_destructor(void)__ptr64 
??_D?$basic_ostringstream@DU?$char_traits@D@std@@V?$allocator@D@2@@std@@QEAAXXZ
; public: void __cdecl std::<unsigned short,struct std::<unsigned short>,class std::<unsigned short>>::vbase_destructor(void)__ptr64 
??_D?$basic_ostringstream@GU?$char_traits@G@std@@V?$allocator@G@2@@std@@QEAAXXZ
; public: void __cdecl std::<char,struct std::<char>,class std::<char>>::vbase_destructor(void)__ptr64 
??_D?$basic_stringstream@DU?$char_traits@D@std@@V?$allocator@D@2@@std@@QEAAXXZ
; public: void __cdecl std::<unsigned short,struct std::<unsigned short>,class std::<unsigned short>>::vbase_destructor(void)__ptr64 
??_D?$basic_stringstream@GU?$char_traits@G@std@@V?$allocator@G@2@@std@@QEAAXXZ
; public: void __cdecl std::<char,struct std::<char>>::__dflt_ctor_closure(void)__ptr64 
??_F?$basic_filebuf@DU?$char_traits@D@std@@@std@@QEAAXXZ
; public: void __cdecl std::<unsigned short,struct std::<unsigned short>>::__dflt_ctor_closure(void)__ptr64 
??_F?$basic_filebuf@GU?$char_traits@G@std@@@std@@QEAAXXZ
; public: void __cdecl std::<char,struct std::<char>,class std::<char>>::__dflt_ctor_closure(void)__ptr64 
??_F?$basic_istringstream@DU?$char_traits@D@std@@V?$allocator@D@2@@std@@QEAAXXZ
; public: void __cdecl std::<unsigned short,struct std::<unsigned short>,class std::<unsigned short>>::__dflt_ctor_closure(void)__ptr64 
??_F?$basic_istringstream@GU?$char_traits@G@std@@V?$allocator@G@2@@std@@QEAAXXZ
; public: void __cdecl std::<char,struct std::<char>,class std::<char>>::__dflt_ctor_closure(void)__ptr64 
??_F?$basic_ostringstream@DU?$char_traits@D@std@@V?$allocator@D@2@@std@@QEAAXXZ
; public: void __cdecl std::<unsigned short,struct std::<unsigned short>,class std::<unsigned short>>::__dflt_ctor_closure(void)__ptr64 
??_F?$basic_ostringstream@GU?$char_traits@G@std@@V?$allocator@G@2@@std@@QEAAXXZ
; public: void __cdecl std::<char,struct std::<char>,class std::<char>>::__dflt_ctor_closure(void)__ptr64 
??_F?$basic_string@DU?$char_traits@D@std@@V?$allocator@D@2@@std@@QEAAXXZ
; public: void __cdecl std::<unsigned short,struct std::<unsigned short>,class std::<unsigned short>>::__dflt_ctor_closure(void)__ptr64 
??_F?$basic_string@GU?$char_traits@G@std@@V?$allocator@G@2@@std@@QEAAXXZ
; public: void __cdecl std::<char,struct std::<char>,class std::<char>>::__dflt_ctor_closure(void)__ptr64 
??_F?$basic_stringbuf@DU?$char_traits@D@std@@V?$allocator@D@2@@std@@QEAAXXZ
; public: void __cdecl std::<unsigned short,struct std::<unsigned short>,class std::<unsigned short>>::__dflt_ctor_closure(void)__ptr64 
??_F?$basic_stringbuf@GU?$char_traits@G@std@@V?$allocator@G@2@@std@@QEAAXXZ
; public: void __cdecl std::<char,struct std::<char>,class std::<char>>::__dflt_ctor_closure(void)__ptr64 
??_F?$basic_stringstream@DU?$char_traits@D@std@@V?$allocator@D@2@@std@@QEAAXXZ
; public: void __cdecl std::<unsigned short,struct std::<unsigned short>,class std::<unsigned short>>::__dflt_ctor_closure(void)__ptr64 
??_F?$basic_stringstream@GU?$char_traits@G@std@@V?$allocator@G@2@@std@@QEAAXXZ
; public: void __cdecl std::<char,char,int>::__dflt_ctor_closure(void)__ptr64 
??_F?$codecvt@DDH@std@@QEAAXXZ
; public: void __cdecl std::<unsigned short,char,int>::__dflt_ctor_closure(void)__ptr64 
??_F?$codecvt@GDH@std@@QEAAXXZ
; public: void __cdecl std::<char>::__dflt_ctor_closure(void)__ptr64 
??_F?$collate@D@std@@QEAAXXZ
; public: void __cdecl std::<unsigned short>::__dflt_ctor_closure(void)__ptr64 
??_F?$collate@G@std@@QEAAXXZ
; public: void __cdecl std::<float>::__dflt_ctor_closure(void)__ptr64 
??_F?$complex@M@std@@QEAAXXZ
; public: void __cdecl std::<double>::__dflt_ctor_closure(void)__ptr64 
??_F?$complex@N@std@@QEAAXXZ
; public: void __cdecl std::<long double>::__dflt_ctor_closure(void)__ptr64 
??_F?$complex@O@std@@QEAAXXZ
; public: void __cdecl std::<char>::__dflt_ctor_closure(void)__ptr64 
??_F?$ctype@D@std@@QEAAXXZ
; public: void __cdecl std::<unsigned short>::__dflt_ctor_closure(void)__ptr64 
??_F?$ctype@G@std@@QEAAXXZ
; public: void __cdecl std::<char>::__dflt_ctor_closure(void)__ptr64 
??_F?$messages@D@std@@QEAAXXZ
; public: void __cdecl std::<unsigned short>::__dflt_ctor_closure(void)__ptr64 
??_F?$messages@G@std@@QEAAXXZ
; public: void __cdecl std::<char,class std::<char,struct std::<char>>>::__dflt_ctor_closure(void)__ptr64 
??_F?$money_get@DV?$istreambuf_iterator@DU?$char_traits@D@std@@@std@@@std@@QEAAXXZ
; public: void __cdecl std::<unsigned short,class std::<unsigned short,struct std::<unsigned short>>>::__dflt_ctor_closure(void)__ptr64 
??_F?$money_get@GV?$istreambuf_iterator@GU?$char_traits@G@std@@@std@@@std@@QEAAXXZ
; public: void __cdecl std::<char,class std::<char,struct std::<char>>>::__dflt_ctor_closure(void)__ptr64 
??_F?$money_put@DV?$ostreambuf_iterator@DU?$char_traits@D@std@@@std@@@std@@QEAAXXZ
; public: void __cdecl std::<unsigned short,class std::<unsigned short,struct std::<unsigned short>>>::__dflt_ctor_closure(void)__ptr64 
??_F?$money_put@GV?$ostreambuf_iterator@GU?$char_traits@G@std@@@std@@@std@@QEAAXXZ
; public: void __cdecl std::<char,0x1ULL>::__dflt_ctor_closure(void)__ptr64 
??_F?$moneypunct@D$00@std@@QEAAXXZ
; public: void __cdecl std::<char,0x0ULL>::__dflt_ctor_closure(void)__ptr64 
??_F?$moneypunct@D$0A@@std@@QEAAXXZ
; public: void __cdecl std::<unsigned short,0x1ULL>::__dflt_ctor_closure(void)__ptr64 
??_F?$moneypunct@G$00@std@@QEAAXXZ
; public: void __cdecl std::<unsigned short,0x0ULL>::__dflt_ctor_closure(void)__ptr64 
??_F?$moneypunct@G$0A@@std@@QEAAXXZ
; public: void __cdecl std::<char,class std::<char,struct std::<char>>>::__dflt_ctor_closure(void)__ptr64 
??_F?$num_get@DV?$istreambuf_iterator@DU?$char_traits@D@std@@@std@@@std@@QEAAXXZ
; public: void __cdecl std::<unsigned short,class std::<unsigned short,struct std::<unsigned short>>>::__dflt_ctor_closure(void)__ptr64 
??_F?$num_get@GV?$istreambuf_iterator@GU?$char_traits@G@std@@@std@@@std@@QEAAXXZ
; public: void __cdecl std::<char,class std::<char,struct std::<char>>>::__dflt_ctor_closure(void)__ptr64 
??_F?$num_put@DV?$ostreambuf_iterator@DU?$char_traits@D@std@@@std@@@std@@QEAAXXZ
; public: void __cdecl std::<unsigned short,class std::<unsigned short,struct std::<unsigned short>>>::__dflt_ctor_closure(void)__ptr64 
??_F?$num_put@GV?$ostreambuf_iterator@GU?$char_traits@G@std@@@std@@@std@@QEAAXXZ
; public: void __cdecl std::<char>::__dflt_ctor_closure(void)__ptr64 
??_F?$numpunct@D@std@@QEAAXXZ
; public: void __cdecl std::<unsigned short>::__dflt_ctor_closure(void)__ptr64 
??_F?$numpunct@G@std@@QEAAXXZ
; public: void __cdecl std::<char,class std::<char,struct std::<char>>>::__dflt_ctor_closure(void)__ptr64 
??_F?$time_get@DV?$istreambuf_iterator@DU?$char_traits@D@std@@@std@@@std@@QEAAXXZ
; public: void __cdecl std::<unsigned short,class std::<unsigned short,struct std::<unsigned short>>>::__dflt_ctor_closure(void)__ptr64 
??_F?$time_get@GV?$istreambuf_iterator@GU?$char_traits@G@std@@@std@@@std@@QEAAXXZ
; public: void __cdecl std::<char,class std::<char,struct std::<char>>>::__dflt_ctor_closure(void)__ptr64 
??_F?$time_put@DV?$ostreambuf_iterator@DU?$char_traits@D@std@@@std@@@std@@QEAAXXZ
; public: void __cdecl std::<unsigned short,class std::<unsigned short,struct std::<unsigned short>>>::__dflt_ctor_closure(void)__ptr64 
??_F?$time_put@GV?$ostreambuf_iterator@GU?$char_traits@G@std@@@std@@@std@@QEAAXXZ
; public: void __cdecl std::_Locinfo::__dflt_ctor_closure(void)__ptr64 
??_F_Locinfo@std@@QEAAXXZ
; public: void __cdecl std::_Timevec::__dflt_ctor_closure(void)__ptr64 
??_F_Timevec@std@@QEAAXXZ
; public: void __cdecl std::bad_cast::__dflt_ctor_closure(void)__ptr64 
??_Fbad_cast@std@@QEAAXXZ
; public: void __cdecl std::bad_exception::__dflt_ctor_closure(void)__ptr64 
??_Fbad_exception@std@@QEAAXXZ
; public: void __cdecl std::bad_typeid::__dflt_ctor_closure(void)__ptr64 
??_Fbad_typeid@std@@QEAAXXZ
; public: void __cdecl std::codecvt_base::__dflt_ctor_closure(void)__ptr64 
??_Fcodecvt_base@std@@QEAAXXZ
; public: void __cdecl std::ctype_base::__dflt_ctor_closure(void)__ptr64 
??_Fctype_base@std@@QEAAXXZ
; public: void __cdecl std::locale::facet::__dflt_ctor_closure(void)__ptr64 
??_Ffacet@locale@std@@QEAAXXZ
; public: void __cdecl std::messages_base::__dflt_ctor_closure(void)__ptr64 
??_Fmessages_base@std@@QEAAXXZ
; public: void __cdecl std::money_base::__dflt_ctor_closure(void)__ptr64 
??_Fmoney_base@std@@QEAAXXZ
; public: void __cdecl std::time_base::__dflt_ctor_closure(void)__ptr64 
??_Ftime_base@std@@QEAAXXZ
; public: class std::_Locinfo &__ptr64 __cdecl std::_Locinfo::_Addcats(int,char const *__ptr64)__ptr64 
?_Addcats@_Locinfo@std@@QEAAAEAV12@HPEBD@Z
; public: class std::locale &__ptr64 __cdecl std::locale::_Addfac(class std::locale::facet *__ptr64,unsigned __int64,unsigned __int64)__ptr64 
?_Addfac@locale@std@@QEAAAEAV12@PEAVfacet@12@_K1@Z
; protected: void __cdecl std::ios_base::_Addstd(void)__ptr64 
?_Addstd@ios_base@std@@IEAAXXZ
; char const /private: static char const *__ptr64 __cdecl std::<char,struct std::<char>,class std::<char>>::_Nullstr(void)/::'0x2ULL'::_C
?_C@?1??_Nullstr@?$basic_string@DU?$char_traits@D@std@@V?$allocator@D@2@@std@@CAPEBDXZ@4DB
; unsigned short const /private: static unsigned short const *__ptr64 __cdecl std::<unsigned short,struct std::<unsigned short>,class std::<unsigned short>>::_Nullstr(void)/::'0x2ULL'::_C
?_C@?1??_Nullstr@?$basic_string@GU?$char_traits@G@std@@V?$allocator@G@2@@std@@CAPEBGXZ@4GB
; private: void __cdecl std::ios_base::_Callfns(enum std::ios_base::event)__ptr64 
?_Callfns@ios_base@std@@AEAAXW4event@12@@Z
; float const /class std::<float> __cdecl std::<float>(class std::<float> const &__ptr64 )/::'0x6ULL'::_Cl
?_Cl@?5???$log@M@std@@YA?AV?$complex@M@1@AEBV21@@Z@4MB
; double const /class std::<double> __cdecl std::<double>(class std::<double> const &__ptr64 )/::'0x6ULL'::_Cl
?_Cl@?5???$log@N@std@@YA?AV?$complex@N@1@AEBV21@@Z@4NB
; long double const /class std::<long double> __cdecl std::<long double>(class std::<long double> const &__ptr64 )/::'0x6ULL'::_Cl
?_Cl@?5???$log@O@std@@YA?AV?$complex@O@1@AEBV21@@Z@4OB
; private: static class std::locale::_Locimp *__ptr64 __ptr64 std::locale::_Locimp::_Clocptr
?_Clocptr@_Locimp@locale@std@@0PEAV123@EA DATA
; private: static short const *__ptr64 const __ptr64 std::<char>::_Cltab
?_Cltab@?$ctype@D@std@@0PEBFEB DATA
; private: void __cdecl std::<char,struct std::<char>,class std::<char>>::_Copy(unsigned __int64)__ptr64 
?_Copy@?$basic_string@DU?$char_traits@D@std@@V?$allocator@D@2@@std@@AEAAX_K@Z
; private: void __cdecl std::<unsigned short,struct std::<unsigned short>,class std::<unsigned short>>::_Copy(unsigned __int64)__ptr64 
?_Copy@?$basic_string@GU?$char_traits@G@std@@V?$allocator@G@2@@std@@AEAAX_K@Z
; public: static float __cdecl std::<float>::_Cosh(float,float)
?_Cosh@?$_Ctr@M@std@@SAMMM@Z
; public: static double __cdecl std::<double>::_Cosh(double,double)
?_Cosh@?$_Ctr@N@std@@SANNN@Z
; public: static long double __cdecl std::<long double>::_Cosh(long double,long double)
?_Cosh@?$_Ctr@O@std@@SAOOO@Z
; public: class std::locale::facet *__ptr64 __cdecl std::locale::facet::_Decref(void)__ptr64 
?_Decref@facet@locale@std@@QEAAPEAV123@XZ
; protected: virtual void __cdecl std::bad_alloc::_Doraise(void)const __ptr64 
?_Doraise@bad_alloc@std@@MEBAXXZ
; protected: virtual void __cdecl std::bad_cast::_Doraise(void)const __ptr64 
?_Doraise@bad_cast@std@@MEBAXXZ
; protected: virtual void __cdecl std::bad_exception::_Doraise(void)const __ptr64 
?_Doraise@bad_exception@std@@MEBAXXZ
; protected: virtual void __cdecl std::bad_typeid::_Doraise(void)const __ptr64 
?_Doraise@bad_typeid@std@@MEBAXXZ
; protected: virtual void __cdecl std::domain_error::_Doraise(void)const __ptr64 
?_Doraise@domain_error@std@@MEBAXXZ
; protected: virtual void __cdecl std::length_error::_Doraise(void)const __ptr64 
?_Doraise@length_error@std@@MEBAXXZ
; protected: virtual void __cdecl std::logic_error::_Doraise(void)const __ptr64 
?_Doraise@logic_error@std@@MEBAXXZ
; protected: virtual void __cdecl std::out_of_range::_Doraise(void)const __ptr64 
?_Doraise@out_of_range@std@@MEBAXXZ
; protected: virtual void __cdecl std::overflow_error::_Doraise(void)const __ptr64 
?_Doraise@overflow_error@std@@MEBAXXZ
; protected: virtual void __cdecl std::range_error::_Doraise(void)const __ptr64 
?_Doraise@range_error@std@@MEBAXXZ
; protected: virtual void __cdecl std::runtime_error::_Doraise(void)const __ptr64 
?_Doraise@runtime_error@std@@MEBAXXZ
; protected: virtual void __cdecl std::underflow_error::_Doraise(void)const __ptr64 
?_Doraise@underflow_error@std@@MEBAXXZ
; private: void __cdecl std::<char,struct std::<char>,class std::<char>>::_Eos(unsigned __int64)__ptr64 
?_Eos@?$basic_string@DU?$char_traits@D@std@@V?$allocator@D@2@@std@@AEAAX_K@Z
; private: void __cdecl std::<unsigned short,struct std::<unsigned short>,class std::<unsigned short>>::_Eos(unsigned __int64)__ptr64 
?_Eos@?$basic_string@GU?$char_traits@G@std@@V?$allocator@G@2@@std@@AEAAX_K@Z
; public: static short __cdecl std::<float>::_Exp(float *__ptr64,float,short)
?_Exp@?$_Ctr@M@std@@SAFPEAMMF@Z
; public: static short __cdecl std::<double>::_Exp(double *__ptr64,double,short)
?_Exp@?$_Ctr@N@std@@SAFPEANNF@Z
; public: static short __cdecl std::<long double>::_Exp(long double *__ptr64,long double,short)
?_Exp@?$_Ctr@O@std@@SAFPEAOOF@Z
; float __cdecl std::_Fabs(class std::<float> const &__ptr64 ,int *__ptr64)
?_Fabs@std@@YAMAEBV?$complex@M@1@PEAH@Z
; double __cdecl std::_Fabs(class std::<double> const &__ptr64 ,int *__ptr64)
?_Fabs@std@@YANAEBV?$complex@N@1@PEAH@Z
; long double __cdecl std::_Fabs(class std::<long double> const &__ptr64 ,int *__ptr64)
?_Fabs@std@@YAOAEBV?$complex@O@1@PEAH@Z
; protected: static char *__ptr64 __cdecl std::<char,class std::<char,struct std::<char>>>::_Ffmt(char *__ptr64,char,int)
?_Ffmt@?$num_put@DV?$ostreambuf_iterator@DU?$char_traits@D@std@@@std@@@std@@KAPEADPEADDH@Z
; protected: static char *__ptr64 __cdecl std::<unsigned short,class std::<unsigned short,struct std::<unsigned short>>>::_Ffmt(char *__ptr64,char,int)
?_Ffmt@?$num_put@GV?$ostreambuf_iterator@GU?$char_traits@G@std@@@std@@@std@@KAPEADPEADDH@Z
; private: struct std::ios_base::_Iosarray &__ptr64 __cdecl std::ios_base::_Findarr(int)__ptr64 
?_Findarr@ios_base@std@@AEAAAEAU_Iosarray@12@H@Z
; protected: static class std::<char,struct std::<char>> __cdecl std::<char,class std::<char,struct std::<char>>>::_Fput(class std::<char,struct std::<char>>,class std::ios_base &__ptr64 ,char,char const *__ptr64,unsigned __int64,unsigned __int64)
?_Fput@?$num_put@DV?$ostreambuf_iterator@DU?$char_traits@D@std@@@std@@@std@@KA?AV?$ostreambuf_iterator@DU?$char_traits@D@std@@@2@V32@AEAVios_base@2@DPEBD_K3@Z
; protected: static class std::<unsigned short,struct std::<unsigned short>> __cdecl std::<unsigned short,class std::<unsigned short,struct std::<unsigned short>>>::_Fput(class std::<unsigned short,struct std::<unsigned short>>,class std::ios_base &__ptr64 ,unsigned short,char const *__ptr64,unsigned __int64,unsigned __int64)
?_Fput@?$num_put@GV?$ostreambuf_iterator@GU?$char_traits@G@std@@@std@@@std@@KA?AV?$ostreambuf_iterator@GU?$char_traits@G@std@@@2@V32@AEAVios_base@2@GPEBD_K3@Z
; __int64 const std::_Fpz
?_Fpz@std@@3_JB
; private: void __cdecl std::<char,struct std::<char>,class std::<char>>::_Freeze(void)__ptr64 
?_Freeze@?$basic_string@DU?$char_traits@D@std@@V?$allocator@D@2@@std@@AEAAXXZ
; private: void __cdecl std::<unsigned short,struct std::<unsigned short>,class std::<unsigned short>>::_Freeze(void)__ptr64 
?_Freeze@?$basic_string@GU?$char_traits@G@std@@V?$allocator@G@2@@std@@AEAAXXZ
; public: static unsigned __int64 __cdecl std::<char>::_Getcat(void)
?_Getcat@?$_Mpunct@D@std@@SA_KXZ
; public: static unsigned __int64 __cdecl std::<unsigned short>::_Getcat(void)
?_Getcat@?$_Mpunct@G@std@@SA_KXZ
; public: static unsigned __int64 __cdecl std::<char,char,int>::_Getcat(void)
?_Getcat@?$codecvt@DDH@std@@SA_KXZ
; public: static unsigned __int64 __cdecl std::<unsigned short,char,int>::_Getcat(void)
?_Getcat@?$codecvt@GDH@std@@SA_KXZ
; public: static unsigned __int64 __cdecl std::<char>::_Getcat(void)
?_Getcat@?$collate@D@std@@SA_KXZ
; public: static unsigned __int64 __cdecl std::<unsigned short>::_Getcat(void)
?_Getcat@?$collate@G@std@@SA_KXZ
; public: static unsigned __int64 __cdecl std::<char>::_Getcat(void)
?_Getcat@?$ctype@D@std@@SA_KXZ
; public: static unsigned __int64 __cdecl std::<unsigned short>::_Getcat(void)
?_Getcat@?$ctype@G@std@@SA_KXZ
; public: static unsigned __int64 __cdecl std::<char>::_Getcat(void)
?_Getcat@?$messages@D@std@@SA_KXZ
; public: static unsigned __int64 __cdecl std::<unsigned short>::_Getcat(void)
?_Getcat@?$messages@G@std@@SA_KXZ
; public: static unsigned __int64 __cdecl std::<char,class std::<char,struct std::<char>>>::_Getcat(void)
?_Getcat@?$money_get@DV?$istreambuf_iterator@DU?$char_traits@D@std@@@std@@@std@@SA_KXZ
; public: static unsigned __int64 __cdecl std::<unsigned short,class std::<unsigned short,struct std::<unsigned short>>>::_Getcat(void)
?_Getcat@?$money_get@GV?$istreambuf_iterator@GU?$char_traits@G@std@@@std@@@std@@SA_KXZ
; public: static unsigned __int64 __cdecl std::<char,class std::<char,struct std::<char>>>::_Getcat(void)
?_Getcat@?$money_put@DV?$ostreambuf_iterator@DU?$char_traits@D@std@@@std@@@std@@SA_KXZ
; public: static unsigned __int64 __cdecl std::<unsigned short,class std::<unsigned short,struct std::<unsigned short>>>::_Getcat(void)
?_Getcat@?$money_put@GV?$ostreambuf_iterator@GU?$char_traits@G@std@@@std@@@std@@SA_KXZ
; public: static unsigned __int64 __cdecl std::<char,0x1ULL>::_Getcat(void)
?_Getcat@?$moneypunct@D$00@std@@SA_KXZ
; public: static unsigned __int64 __cdecl std::<char,0x0ULL>::_Getcat(void)
?_Getcat@?$moneypunct@D$0A@@std@@SA_KXZ
; public: static unsigned __int64 __cdecl std::<unsigned short,0x1ULL>::_Getcat(void)
?_Getcat@?$moneypunct@G$00@std@@SA_KXZ
; public: static unsigned __int64 __cdecl std::<unsigned short,0x0ULL>::_Getcat(void)
?_Getcat@?$moneypunct@G$0A@@std@@SA_KXZ
; public: static unsigned __int64 __cdecl std::<char,class std::<char,struct std::<char>>>::_Getcat(void)
?_Getcat@?$num_get@DV?$istreambuf_iterator@DU?$char_traits@D@std@@@std@@@std@@SA_KXZ
; public: static unsigned __int64 __cdecl std::<unsigned short,class std::<unsigned short,struct std::<unsigned short>>>::_Getcat(void)
?_Getcat@?$num_get@GV?$istreambuf_iterator@GU?$char_traits@G@std@@@std@@@std@@SA_KXZ
; public: static unsigned __int64 __cdecl std::<char,class std::<char,struct std::<char>>>::_Getcat(void)
?_Getcat@?$num_put@DV?$ostreambuf_iterator@DU?$char_traits@D@std@@@std@@@std@@SA_KXZ
; public: static unsigned __int64 __cdecl std::<unsigned short,class std::<unsigned short,struct std::<unsigned short>>>::_Getcat(void)
?_Getcat@?$num_put@GV?$ostreambuf_iterator@GU?$char_traits@G@std@@@std@@@std@@SA_KXZ
; public: static unsigned __int64 __cdecl std::<char>::_Getcat(void)
?_Getcat@?$numpunct@D@std@@SA_KXZ
; public: static unsigned __int64 __cdecl std::<unsigned short>::_Getcat(void)
?_Getcat@?$numpunct@G@std@@SA_KXZ
; public: static unsigned __int64 __cdecl std::<char,class std::<char,struct std::<char>>>::_Getcat(void)
?_Getcat@?$time_get@DV?$istreambuf_iterator@DU?$char_traits@D@std@@@std@@@std@@SA_KXZ
; public: static unsigned __int64 __cdecl std::<unsigned short,class std::<unsigned short,struct std::<unsigned short>>>::_Getcat(void)
?_Getcat@?$time_get@GV?$istreambuf_iterator@GU?$char_traits@G@std@@@std@@@std@@SA_KXZ
; public: static unsigned __int64 __cdecl std::<char,class std::<char,struct std::<char>>>::_Getcat(void)
?_Getcat@?$time_put@DV?$ostreambuf_iterator@DU?$char_traits@D@std@@@std@@@std@@SA_KXZ
; public: static unsigned __int64 __cdecl std::<unsigned short,class std::<unsigned short,struct std::<unsigned short>>>::_Getcat(void)
?_Getcat@?$time_put@GV?$ostreambuf_iterator@GU?$char_traits@G@std@@@std@@@std@@SA_KXZ
; public: static unsigned __int64 __cdecl std::locale::facet::_Getcat(void)
?_Getcat@facet@locale@std@@SA_KXZ
; public: struct _Collvec __cdecl std::_Locinfo::_Getcoll(void)const __ptr64 
?_Getcoll@_Locinfo@std@@QEBA?AU_Collvec@@XZ
; public: struct _Ctypevec __cdecl std::_Locinfo::_Getctype(void)const __ptr64 
?_Getctype@_Locinfo@std@@QEBA?AU_Ctypevec@@XZ
; public: struct _Cvtvec __cdecl std::_Locinfo::_Getcvt(void)const __ptr64 
?_Getcvt@_Locinfo@std@@QEBA?AU_Cvtvec@@XZ
; public: char const *__ptr64 __cdecl std::_Locinfo::_Getdays(void)const __ptr64 
?_Getdays@_Locinfo@std@@QEBAPEBDXZ
; public: class std::locale::facet const *__ptr64 __cdecl std::locale::_Getfacet(unsigned __int64,bool)const __ptr64 
?_Getfacet@locale@std@@QEBAPEBVfacet@12@_K_N@Z
; public: char const *__ptr64 __cdecl std::_Locinfo::_Getfalse(void)const __ptr64 
?_Getfalse@_Locinfo@std@@QEBAPEBDXZ
; private: static int __cdecl std::<char,class std::<char,struct std::<char>>>::_Getffld(char *__ptr64,class std::<char,struct std::<char>> &__ptr64 ,class std::<char,struct std::<char>> &__ptr64 ,class std::locale const &__ptr64 )
?_Getffld@?$num_get@DV?$istreambuf_iterator@DU?$char_traits@D@std@@@std@@@std@@CAHPEADAEAV?$istreambuf_iterator@DU?$char_traits@D@std@@@2@1AEBVlocale@2@@Z
; private: static int __cdecl std::<unsigned short,class std::<unsigned short,struct std::<unsigned short>>>::_Getffld(char *__ptr64,class std::<unsigned short,struct std::<unsigned short>> &__ptr64 ,class std::<unsigned short,struct std::<unsigned short>> &__ptr64 ,class std::locale const &__ptr64 )
?_Getffld@?$num_get@GV?$istreambuf_iterator@GU?$char_traits@G@std@@@std@@@std@@CAHPEADAEAV?$istreambuf_iterator@GU?$char_traits@G@std@@@2@1AEBVlocale@2@@Z
; private: static int __cdecl std::<char,class std::<char,struct std::<char>>>::_Getifld(char *__ptr64,class std::<char,struct std::<char>> &__ptr64 ,class std::<char,struct std::<char>> &__ptr64 ,int,class std::locale const &__ptr64 )
?_Getifld@?$num_get@DV?$istreambuf_iterator@DU?$char_traits@D@std@@@std@@@std@@CAHPEADAEAV?$istreambuf_iterator@DU?$char_traits@D@std@@@2@1HAEBVlocale@2@@Z
; private: static int __cdecl std::<unsigned short,class std::<unsigned short,struct std::<unsigned short>>>::_Getifld(char *__ptr64,class std::<unsigned short,struct std::<unsigned short>> &__ptr64 ,class std::<unsigned short,struct std::<unsigned short>> &__ptr64 ,int,class std::locale const &__ptr64 )
?_Getifld@?$num_get@GV?$istreambuf_iterator@GU?$char_traits@G@std@@@std@@@std@@CAHPEADAEAV?$istreambuf_iterator@GU?$char_traits@G@std@@@2@1HAEBVlocale@2@@Z
; private: static int __cdecl std::<char,class std::<char,struct std::<char>>>::_Getint(class std::<char,struct std::<char>> &__ptr64 ,class std::<char,struct std::<char>> &__ptr64 ,int,int,int &__ptr64 )
?_Getint@?$time_get@DV?$istreambuf_iterator@DU?$char_traits@D@std@@@std@@@std@@CAHAEAV?$istreambuf_iterator@DU?$char_traits@D@std@@@2@0HHAEAH@Z
; private: static int __cdecl std::<unsigned short,class std::<unsigned short,struct std::<unsigned short>>>::_Getint(class std::<unsigned short,struct std::<unsigned short>> &__ptr64 ,class std::<unsigned short,struct std::<unsigned short>> &__ptr64 ,int,int,int &__ptr64 )
?_Getint@?$time_get@GV?$istreambuf_iterator@GU?$char_traits@G@std@@@std@@@std@@CAHAEAV?$istreambuf_iterator@GU?$char_traits@G@std@@@2@0HHAEAH@Z
; public: struct lconv const *__ptr64 __cdecl std::_Locinfo::_Getlconv(void)const __ptr64 
?_Getlconv@_Locinfo@std@@QEBAPEBUlconv@@XZ
; private: class std::<char,struct std::<char>,class std::<char>> __cdecl std::<char,class std::<char,struct std::<char>>>::_Getmfld(class std::<char,struct std::<char>> &__ptr64 ,class std::<char,struct std::<char>> &__ptr64 ,bool,class std::ios_base &__ptr64 )const __ptr64 
?_Getmfld@?$money_get@DV?$istreambuf_iterator@DU?$char_traits@D@std@@@std@@@std@@AEBA?AV?$basic_string@DU?$char_traits@D@std@@V?$allocator@D@2@@2@AEAV?$istreambuf_iterator@DU?$char_traits@D@std@@@2@0_NAEAVios_base@2@@Z
; private: class std::<unsigned short,struct std::<unsigned short>,class std::<unsigned short>> __cdecl std::<unsigned short,class std::<unsigned short,struct std::<unsigned short>>>::_Getmfld(class std::<unsigned short,struct std::<unsigned short>> &__ptr64 ,class std::<unsigned short,struct std::<unsigned short>> &__ptr64 ,bool,class std::ios_base &__ptr64 )const __ptr64 
?_Getmfld@?$money_get@GV?$istreambuf_iterator@GU?$char_traits@G@std@@@std@@@std@@AEBA?AV?$basic_string@GU?$char_traits@G@std@@V?$allocator@G@2@@2@AEAV?$istreambuf_iterator@GU?$char_traits@G@std@@@2@0_NAEAVios_base@2@@Z
; public: char const *__ptr64 __cdecl std::_Locinfo::_Getmonths(void)const __ptr64 
?_Getmonths@_Locinfo@std@@QEBAPEBDXZ
; public: class std::<char,struct std::<char>,class std::<char>> __cdecl std::_Locinfo::_Getname(void)const __ptr64 
?_Getname@_Locinfo@std@@QEBA?AV?$basic_string@DU?$char_traits@D@std@@V?$allocator@D@2@@2@XZ
; public: char const *__ptr64 __cdecl std::_Locinfo::_Getno(void)const __ptr64 
?_Getno@_Locinfo@std@@QEBAPEBDXZ
; public: void *__ptr64 __cdecl std::_Timevec::_Getptr(void)const __ptr64 
?_Getptr@_Timevec@std@@QEBAPEAXXZ
; public: class std::_Timevec __cdecl std::_Locinfo::_Gettnames(void)const __ptr64 
?_Gettnames@_Locinfo@std@@QEBA?AV_Timevec@2@XZ
; public: char const *__ptr64 __cdecl std::_Locinfo::_Gettrue(void)const __ptr64 
?_Gettrue@_Locinfo@std@@QEBAPEBDXZ
; public: char const *__ptr64 __cdecl std::_Locinfo::_Getyes(void)const __ptr64 
?_Getyes@_Locinfo@std@@QEBAPEBDXZ
; private: static class std::locale::_Locimp *__ptr64 __ptr64 std::locale::_Locimp::_Global
?_Global@_Locimp@locale@std@@0PEAV123@EA DATA
; protected: char *__ptr64 __cdecl std::<char,struct std::<char>>::_Gndec(void)__ptr64 
?_Gndec@?$basic_streambuf@DU?$char_traits@D@std@@@std@@IEAAPEADXZ
; protected: unsigned short *__ptr64 __cdecl std::<unsigned short,struct std::<unsigned short>>::_Gndec(void)__ptr64 
?_Gndec@?$basic_streambuf@GU?$char_traits@G@std@@@std@@IEAAPEAGXZ
; protected: char *__ptr64 __cdecl std::<char,struct std::<char>>::_Gninc(void)__ptr64 
?_Gninc@?$basic_streambuf@DU?$char_traits@D@std@@@std@@IEAAPEADXZ
; protected: unsigned short *__ptr64 __cdecl std::<unsigned short,struct std::<unsigned short>>::_Gninc(void)__ptr64 
?_Gninc@?$basic_streambuf@GU?$char_traits@G@std@@@std@@IEAAPEAGXZ
; private: bool __cdecl std::<char,struct std::<char>,class std::<char>>::_Grow(unsigned __int64,bool)__ptr64 
?_Grow@?$basic_string@DU?$char_traits@D@std@@V?$allocator@D@2@@std@@AEAA_N_K_N@Z
; private: bool __cdecl std::<unsigned short,struct std::<unsigned short>,class std::<unsigned short>>::_Grow(unsigned __int64,bool)__ptr64 
?_Grow@?$basic_string@GU?$char_traits@G@std@@V?$allocator@G@2@@std@@AEAA_N_K_N@Z
; private: static int std::locale::id::_Id_cnt
?_Id_cnt@id@locale@std@@0HA DATA
; protected: static char *__ptr64 __cdecl std::<char,class std::<char,struct std::<char>>>::_Ifmt(char *__ptr64,char,int)
?_Ifmt@?$num_put@DV?$ostreambuf_iterator@DU?$char_traits@D@std@@@std@@@std@@KAPEADPEADDH@Z
; protected: static char *__ptr64 __cdecl std::<char,class std::<char,struct std::<char>>>::_Ifmt(char *__ptr64,char const *__ptr64,int)
?_Ifmt@?$num_put@DV?$ostreambuf_iterator@DU?$char_traits@D@std@@@std@@@std@@KAPEADPEADPEBDH@Z
; protected: static char *__ptr64 __cdecl std::<unsigned short,class std::<unsigned short,struct std::<unsigned short>>>::_Ifmt(char *__ptr64,char,int)
?_Ifmt@?$num_put@GV?$ostreambuf_iterator@GU?$char_traits@G@std@@@std@@@std@@KAPEADPEADDH@Z
; protected: static char *__ptr64 __cdecl std::<unsigned short,class std::<unsigned short,struct std::<unsigned short>>>::_Ifmt(char *__ptr64,char const *__ptr64,int)
?_Ifmt@?$num_put@GV?$ostreambuf_iterator@GU?$char_traits@G@std@@@std@@@std@@KAPEADPEADPEBDH@Z
; public: void __cdecl std::locale::facet::_Incref(void)__ptr64 
?_Incref@facet@locale@std@@QEAAXXZ
; private: static int std::ios_base::_Index
?_Index@ios_base@std@@0HA DATA
; public: static float __cdecl std::<float>::_Infv(float)
?_Infv@?$_Ctr@M@std@@SAMM@Z
; public: static double __cdecl std::<double>::_Infv(double)
?_Infv@?$_Ctr@N@std@@SANN@Z
; public: static long double __cdecl std::<long double>::_Infv(long double)
?_Infv@?$_Ctr@O@std@@SAOO@Z
; protected: void __cdecl std::<char>::_Init(class std::_Locinfo const &__ptr64 )__ptr64 
?_Init@?$_Mpunct@D@std@@IEAAXAEBV_Locinfo@2@@Z
; protected: void __cdecl std::<unsigned short>::_Init(class std::_Locinfo const &__ptr64 )__ptr64 
?_Init@?$_Mpunct@G@std@@IEAAXAEBV_Locinfo@2@@Z
; protected: void __cdecl std::<char,struct std::<char>>::_Init(struct _iobuf *__ptr64,enum std::<char,struct std::<char>>::_Initfl)__ptr64 
?_Init@?$basic_filebuf@DU?$char_traits@D@std@@@std@@IEAAXPEAU_iobuf@@W4_Initfl@12@@Z
; protected: void __cdecl std::<unsigned short,struct std::<unsigned short>>::_Init(struct _iobuf *__ptr64,enum std::<unsigned short,struct std::<unsigned short>>::_Initfl)__ptr64 
?_Init@?$basic_filebuf@GU?$char_traits@G@std@@@std@@IEAAXPEAU_iobuf@@W4_Initfl@12@@Z
; protected: void __cdecl std::<char,struct std::<char>>::_Init(char *__ptr64 *__ptr64,char *__ptr64 *__ptr64,int *__ptr64,char *__ptr64 *__ptr64,char *__ptr64 *__ptr64,int *__ptr64)__ptr64 
?_Init@?$basic_streambuf@DU?$char_traits@D@std@@@std@@IEAAXPEAPEAD0PEAH001@Z
; protected: void __cdecl std::<char,struct std::<char>>::_Init(void)__ptr64 
?_Init@?$basic_streambuf@DU?$char_traits@D@std@@@std@@IEAAXXZ
; protected: void __cdecl std::<unsigned short,struct std::<unsigned short>>::_Init(unsigned short *__ptr64 *__ptr64,unsigned short *__ptr64 *__ptr64,int *__ptr64,unsigned short *__ptr64 *__ptr64,unsigned short *__ptr64 *__ptr64,int *__ptr64)__ptr64 
?_Init@?$basic_streambuf@GU?$char_traits@G@std@@@std@@IEAAXPEAPEAG0PEAH001@Z
; protected: void __cdecl std::<unsigned short,struct std::<unsigned short>>::_Init(void)__ptr64 
?_Init@?$basic_streambuf@GU?$char_traits@G@std@@@std@@IEAAXXZ
; protected: void __cdecl std::<char,struct std::<char>,class std::<char>>::_Init(char const *__ptr64,unsigned __int64,int)__ptr64 
?_Init@?$basic_stringbuf@DU?$char_traits@D@std@@V?$allocator@D@2@@std@@IEAAXPEBD_KH@Z
; protected: void __cdecl std::<unsigned short,struct std::<unsigned short>,class std::<unsigned short>>::_Init(unsigned short const *__ptr64,unsigned __int64,int)__ptr64 
?_Init@?$basic_stringbuf@GU?$char_traits@G@std@@V?$allocator@G@2@@std@@IEAAXPEBG_KH@Z
; protected: void __cdecl std::<char,char,int>::_Init(class std::_Locinfo const &__ptr64 )__ptr64 
?_Init@?$codecvt@DDH@std@@IEAAXAEBV_Locinfo@2@@Z
; protected: void __cdecl std::<unsigned short,char,int>::_Init(class std::_Locinfo const &__ptr64 )__ptr64 
?_Init@?$codecvt@GDH@std@@IEAAXAEBV_Locinfo@2@@Z
; protected: void __cdecl std::<char>::_Init(class std::_Locinfo const &__ptr64 )__ptr64 
?_Init@?$collate@D@std@@IEAAXAEBV_Locinfo@2@@Z
; protected: void __cdecl std::<unsigned short>::_Init(class std::_Locinfo const &__ptr64 )__ptr64 
?_Init@?$collate@G@std@@IEAAXAEBV_Locinfo@2@@Z
; protected: void __cdecl std::<char>::_Init(class std::_Locinfo const &__ptr64 )__ptr64 
?_Init@?$ctype@D@std@@IEAAXAEBV_Locinfo@2@@Z
; protected: void __cdecl std::<unsigned short>::_Init(class std::_Locinfo const &__ptr64 )__ptr64 
?_Init@?$ctype@G@std@@IEAAXAEBV_Locinfo@2@@Z
; protected: void __cdecl std::<char>::_Init(class std::_Locinfo const &__ptr64 )__ptr64 
?_Init@?$messages@D@std@@IEAAXAEBV_Locinfo@2@@Z
; protected: void __cdecl std::<unsigned short>::_Init(class std::_Locinfo const &__ptr64 )__ptr64 
?_Init@?$messages@G@std@@IEAAXAEBV_Locinfo@2@@Z
; protected: void __cdecl std::<char,class std::<char,struct std::<char>>>::_Init(class std::_Locinfo const &__ptr64 )__ptr64 
?_Init@?$money_get@DV?$istreambuf_iterator@DU?$char_traits@D@std@@@std@@@std@@IEAAXAEBV_Locinfo@2@@Z
; protected: void __cdecl std::<unsigned short,class std::<unsigned short,struct std::<unsigned short>>>::_Init(class std::_Locinfo const &__ptr64 )__ptr64 
?_Init@?$money_get@GV?$istreambuf_iterator@GU?$char_traits@G@std@@@std@@@std@@IEAAXAEBV_Locinfo@2@@Z
; protected: void __cdecl std::<char,class std::<char,struct std::<char>>>::_Init(class std::_Locinfo const &__ptr64 )__ptr64 
?_Init@?$money_put@DV?$ostreambuf_iterator@DU?$char_traits@D@std@@@std@@@std@@IEAAXAEBV_Locinfo@2@@Z
; protected: void __cdecl std::<unsigned short,class std::<unsigned short,struct std::<unsigned short>>>::_Init(class std::_Locinfo const &__ptr64 )__ptr64 
?_Init@?$money_put@GV?$ostreambuf_iterator@GU?$char_traits@G@std@@@std@@@std@@IEAAXAEBV_Locinfo@2@@Z
; protected: void __cdecl std::<char,class std::<char,struct std::<char>>>::_Init(class std::_Locinfo const &__ptr64 )__ptr64 
?_Init@?$num_get@DV?$istreambuf_iterator@DU?$char_traits@D@std@@@std@@@std@@IEAAXAEBV_Locinfo@2@@Z
; protected: void __cdecl std::<unsigned short,class std::<unsigned short,struct std::<unsigned short>>>::_Init(class std::_Locinfo const &__ptr64 )__ptr64 
?_Init@?$num_get@GV?$istreambuf_iterator@GU?$char_traits@G@std@@@std@@@std@@IEAAXAEBV_Locinfo@2@@Z
; protected: void __cdecl std::<char,class std::<char,struct std::<char>>>::_Init(class std::_Locinfo const &__ptr64 )__ptr64 
?_Init@?$num_put@DV?$ostreambuf_iterator@DU?$char_traits@D@std@@@std@@@std@@IEAAXAEBV_Locinfo@2@@Z
; protected: void __cdecl std::<unsigned short,class std::<unsigned short,struct std::<unsigned short>>>::_Init(class std::_Locinfo const &__ptr64 )__ptr64 
?_Init@?$num_put@GV?$ostreambuf_iterator@GU?$char_traits@G@std@@@std@@@std@@IEAAXAEBV_Locinfo@2@@Z
; protected: void __cdecl std::<char>::_Init(class std::_Locinfo const &__ptr64 )__ptr64 
?_Init@?$numpunct@D@std@@IEAAXAEBV_Locinfo@2@@Z
; protected: void __cdecl std::<unsigned short>::_Init(class std::_Locinfo const &__ptr64 )__ptr64 
?_Init@?$numpunct@G@std@@IEAAXAEBV_Locinfo@2@@Z
; protected: void __cdecl std::<char,class std::<char,struct std::<char>>>::_Init(class std::_Locinfo const &__ptr64 )__ptr64 
?_Init@?$time_get@DV?$istreambuf_iterator@DU?$char_traits@D@std@@@std@@@std@@IEAAXAEBV_Locinfo@2@@Z
; protected: void __cdecl std::<unsigned short,class std::<unsigned short,struct std::<unsigned short>>>::_Init(class std::_Locinfo const &__ptr64 )__ptr64 
?_Init@?$time_get@GV?$istreambuf_iterator@GU?$char_traits@G@std@@@std@@@std@@IEAAXAEBV_Locinfo@2@@Z
; protected: void __cdecl std::<char,class std::<char,struct std::<char>>>::_Init(class std::_Locinfo const &__ptr64 )__ptr64 
?_Init@?$time_put@DV?$ostreambuf_iterator@DU?$char_traits@D@std@@@std@@@std@@IEAAXAEBV_Locinfo@2@@Z
; protected: void __cdecl std::<unsigned short,class std::<unsigned short,struct std::<unsigned short>>>::_Init(class std::_Locinfo const &__ptr64 )__ptr64 
?_Init@?$time_put@GV?$ostreambuf_iterator@GU?$char_traits@G@std@@@std@@@std@@IEAAXAEBV_Locinfo@2@@Z
; protected: void __cdecl std::ios_base::_Init(void)__ptr64 
?_Init@ios_base@std@@IEAAXXZ
; private: static class std::locale::_Locimp *__ptr64 __cdecl std::locale::_Init(void)
?_Init@locale@std@@CAPEAV_Locimp@12@XZ
; protected: void __cdecl std::strstreambuf::_Init(int,char *__ptr64,char *__ptr64,int)__ptr64 
?_Init@strstreambuf@std@@IEAAXHPEAD0H@Z
; private: static int std::ios_base::Init::_Init_cnt
?_Init_cnt@Init@ios_base@std@@0HA DATA
; private: static int std::_Winit::_Init_cnt
?_Init_cnt@_Winit@std@@0HA DATA
; protected: void __cdecl std::<char,struct std::<char>>::_Initcvt(void)__ptr64 
?_Initcvt@?$basic_filebuf@DU?$char_traits@D@std@@@std@@IEAAXXZ
; protected: void __cdecl std::<unsigned short,struct std::<unsigned short>>::_Initcvt(void)__ptr64 
?_Initcvt@?$basic_filebuf@GU?$char_traits@G@std@@@std@@IEAAXXZ
; protected: static class std::<char,struct std::<char>> __cdecl std::<char,class std::<char,struct std::<char>>>::_Iput(class std::<char,struct std::<char>>,class std::ios_base &__ptr64 ,char,char *__ptr64,unsigned __int64)
?_Iput@?$num_put@DV?$ostreambuf_iterator@DU?$char_traits@D@std@@@std@@@std@@KA?AV?$ostreambuf_iterator@DU?$char_traits@D@std@@@2@V32@AEAVios_base@2@DPEAD_K@Z
; protected: static class std::<unsigned short,struct std::<unsigned short>> __cdecl std::<unsigned short,class std::<unsigned short,struct std::<unsigned short>>>::_Iput(class std::<unsigned short,struct std::<unsigned short>>,class std::ios_base &__ptr64 ,unsigned short,char *__ptr64,unsigned __int64)
?_Iput@?$num_put@GV?$ostreambuf_iterator@GU?$char_traits@G@std@@@std@@@std@@KA?AV?$ostreambuf_iterator@GU?$char_traits@G@std@@@2@V32@AEAVios_base@2@GPEAD_K@Z
; public: bool __cdecl std::locale::_Iscloc(void)const __ptr64 
?_Iscloc@locale@std@@QEBA_NXZ
; public: static bool __cdecl std::<float>::_Isinf(float)
?_Isinf@?$_Ctr@M@std@@SA_NM@Z
; public: static bool __cdecl std::<double>::_Isinf(double)
?_Isinf@?$_Ctr@N@std@@SA_NN@Z
; public: static bool __cdecl std::<long double>::_Isinf(long double)
?_Isinf@?$_Ctr@O@std@@SA_NO@Z
; public: static bool __cdecl std::<float>::_Isnan(float)
?_Isnan@?$_Ctr@M@std@@SA_NM@Z
; public: static bool __cdecl std::<double>::_Isnan(double)
?_Isnan@?$_Ctr@N@std@@SA_NN@Z
; public: static bool __cdecl std::<long double>::_Isnan(long double)
?_Isnan@?$_Ctr@O@std@@SA_NO@Z
; private: void __cdecl std::<char>::_Makpat(struct std::money_base::pattern &__ptr64 ,char,char,char)__ptr64 
?_Makpat@?$_Mpunct@D@std@@AEAAXAEAUpattern@money_base@2@DDD@Z
; private: void __cdecl std::<unsigned short>::_Makpat(struct std::money_base::pattern &__ptr64 ,char,char,char)__ptr64 
?_Makpat@?$_Mpunct@G@std@@AEAAXAEAUpattern@money_base@2@DDD@Z
; private: int __cdecl std::<char,struct std::<char>,class std::<char>>::_Mode(int)__ptr64 
?_Mode@?$basic_stringbuf@DU?$char_traits@D@std@@V?$allocator@D@2@@std@@AEAAHH@Z
; private: int __cdecl std::<unsigned short,struct std::<unsigned short>,class std::<unsigned short>>::_Mode(int)__ptr64 
?_Mode@?$basic_stringbuf@GU?$char_traits@G@std@@V?$allocator@G@2@@std@@AEAAHH@Z
; public: static float __cdecl std::<float>::_Nanv(float)
?_Nanv@?$_Ctr@M@std@@SAMM@Z
; public: static double __cdecl std::<double>::_Nanv(double)
?_Nanv@?$_Ctr@N@std@@SANN@Z
; public: static long double __cdecl std::<long double>::_Nanv(long double)
?_Nanv@?$_Ctr@O@std@@SAOO@Z
; void __cdecl std::_Nomemory(void)
?_Nomemory@std@@YAXXZ
; private: static char const *__ptr64 __cdecl std::<char,struct std::<char>,class std::<char>>::_Nullstr(void)
?_Nullstr@?$basic_string@DU?$char_traits@D@std@@V?$allocator@D@2@@std@@CAPEBDXZ
; private: static unsigned short const *__ptr64 __cdecl std::<unsigned short,struct std::<unsigned short>,class std::<unsigned short>>::_Nullstr(void)
?_Nullstr@?$basic_string@GU?$char_traits@G@std@@V?$allocator@G@2@@std@@CAPEBGXZ
; private: static unsigned __int64 __cdecl std::<char,struct std::<char>,class std::<char>>::_Pdif(char const *__ptr64,char const *__ptr64)
?_Pdif@?$basic_string@DU?$char_traits@D@std@@V?$allocator@D@2@@std@@CA_KPEBD0@Z
; private: static unsigned __int64 __cdecl std::<unsigned short,struct std::<unsigned short>,class std::<unsigned short>>::_Pdif(unsigned short const *__ptr64,unsigned short const *__ptr64)
?_Pdif@?$basic_string@GU?$char_traits@G@std@@V?$allocator@G@2@@std@@CA_KPEBG0@Z
; protected: char *__ptr64 __cdecl std::<char,struct std::<char>>::_Pninc(void)__ptr64 
?_Pninc@?$basic_streambuf@DU?$char_traits@D@std@@@std@@IEAAPEADXZ
; protected: unsigned short *__ptr64 __cdecl std::<unsigned short,struct std::<unsigned short>>::_Pninc(void)__ptr64 
?_Pninc@?$basic_streambuf@GU?$char_traits@G@std@@@std@@IEAAPEAGXZ
; private: static char *__ptr64 __cdecl std::<char,struct std::<char>,class std::<char>>::_Psum(char *__ptr64,unsigned __int64)
?_Psum@?$basic_string@DU?$char_traits@D@std@@V?$allocator@D@2@@std@@CAPEADPEAD_K@Z
; private: static char const *__ptr64 __cdecl std::<char,struct std::<char>,class std::<char>>::_Psum(char const *__ptr64,unsigned __int64)
?_Psum@?$basic_string@DU?$char_traits@D@std@@V?$allocator@D@2@@std@@CAPEBDPEBD_K@Z
; private: static unsigned short *__ptr64 __cdecl std::<unsigned short,struct std::<unsigned short>,class std::<unsigned short>>::_Psum(unsigned short *__ptr64,unsigned __int64)
?_Psum@?$basic_string@GU?$char_traits@G@std@@V?$allocator@G@2@@std@@CAPEAGPEAG_K@Z
; private: static unsigned short const *__ptr64 __cdecl std::<unsigned short,struct std::<unsigned short>,class std::<unsigned short>>::_Psum(unsigned short const *__ptr64,unsigned __int64)
?_Psum@?$basic_string@GU?$char_traits@G@std@@V?$allocator@G@2@@std@@CAPEBGPEBG_K@Z
; private: static class std::<char,struct std::<char>> __cdecl std::<char,class std::<char,struct std::<char>>>::_Put(class std::<char,struct std::<char>>,char const *__ptr64,unsigned __int64)
?_Put@?$money_put@DV?$ostreambuf_iterator@DU?$char_traits@D@std@@@std@@@std@@CA?AV?$ostreambuf_iterator@DU?$char_traits@D@std@@@2@V32@PEBD_K@Z
; private: static class std::<unsigned short,struct std::<unsigned short>> __cdecl std::<unsigned short,class std::<unsigned short,struct std::<unsigned short>>>::_Put(class std::<unsigned short,struct std::<unsigned short>>,unsigned short const *__ptr64,unsigned __int64)
?_Put@?$money_put@GV?$ostreambuf_iterator@GU?$char_traits@G@std@@@std@@@std@@CA?AV?$ostreambuf_iterator@GU?$char_traits@G@std@@@2@V32@PEBG_K@Z
; protected: static class std::<char,struct std::<char>> __cdecl std::<char,class std::<char,struct std::<char>>>::_Put(class std::<char,struct std::<char>>,char const *__ptr64,unsigned __int64)
?_Put@?$num_put@DV?$ostreambuf_iterator@DU?$char_traits@D@std@@@std@@@std@@KA?AV?$ostreambuf_iterator@DU?$char_traits@D@std@@@2@V32@PEBD_K@Z
; protected: static class std::<unsigned short,struct std::<unsigned short>> __cdecl std::<unsigned short,class std::<unsigned short,struct std::<unsigned short>>>::_Put(class std::<unsigned short,struct std::<unsigned short>>,unsigned short const *__ptr64,unsigned __int64)
?_Put@?$num_put@GV?$ostreambuf_iterator@GU?$char_traits@G@std@@@std@@@std@@KA?AV?$ostreambuf_iterator@GU?$char_traits@G@std@@@2@V32@PEBG_K@Z
; protected: static class std::<char,struct std::<char>> __cdecl std::<char,class std::<char,struct std::<char>>>::_Putc(class std::<char,struct std::<char>>,char const *__ptr64,unsigned __int64)
?_Putc@?$num_put@DV?$ostreambuf_iterator@DU?$char_traits@D@std@@@std@@@std@@KA?AV?$ostreambuf_iterator@DU?$char_traits@D@std@@@2@V32@PEBD_K@Z
; protected: static class std::<unsigned short,struct std::<unsigned short>> __cdecl std::<unsigned short,class std::<unsigned short,struct std::<unsigned short>>>::_Putc(class std::<unsigned short,struct std::<unsigned short>>,char const *__ptr64,unsigned __int64)
?_Putc@?$num_put@GV?$ostreambuf_iterator@GU?$char_traits@G@std@@@std@@@std@@KA?AV?$ostreambuf_iterator@GU?$char_traits@G@std@@@2@V32@PEBD_K@Z
; private: class std::<char,struct std::<char>> __cdecl std::<char,class std::<char,struct std::<char>>>::_Putmfld(class std::<char,struct std::<char>>,bool,class std::ios_base &__ptr64 ,char,bool,class std::<char,struct std::<char>,class std::<char>>)const __ptr64 
?_Putmfld@?$money_put@DV?$ostreambuf_iterator@DU?$char_traits@D@std@@@std@@@std@@AEBA?AV?$ostreambuf_iterator@DU?$char_traits@D@std@@@2@V32@_NAEAVios_base@2@D1V?$basic_string@DU?$char_traits@D@std@@V?$allocator@D@2@@2@@Z
; private: class std::<unsigned short,struct std::<unsigned short>> __cdecl std::<unsigned short,class std::<unsigned short,struct std::<unsigned short>>>::_Putmfld(class std::<unsigned short,struct std::<unsigned short>>,bool,class std::ios_base &__ptr64 ,unsigned short,bool,class std::<unsigned short,struct std::<unsigned short>,class std::<unsigned short>>)const __ptr64 
?_Putmfld@?$money_put@GV?$ostreambuf_iterator@GU?$char_traits@G@std@@@std@@@std@@AEBA?AV?$ostreambuf_iterator@GU?$char_traits@G@std@@@2@V32@_NAEAVios_base@2@G1V?$basic_string@GU?$char_traits@G@std@@V?$allocator@G@2@@2@@Z
; float const /float __cdecl std::<float>(class std::<float> const &__ptr64 ,int *__ptr64)/::'0x17ULL'::_R2
?_R2@?BN@???$_Fabs@M@std@@YAMAEBV?$complex@M@1@PEAH@Z@4MB
; double const /double __cdecl std::<double>(class std::<double> const &__ptr64 ,int *__ptr64)/::'0x17ULL'::_R2
?_R2@?BN@???$_Fabs@N@std@@YANAEBV?$complex@N@1@PEAH@Z@4NB
; long double const /long double __cdecl std::<long double>(class std::<long double> const &__ptr64 ,int *__ptr64)/::'0x17ULL'::_R2
?_R2@?BN@???$_Fabs@O@std@@YAOAEBV?$complex@O@1@PEAH@Z@4OB
; private: unsigned char &__ptr64 __cdecl std::<char,struct std::<char>,class std::<char>>::_Refcnt(char const *__ptr64)__ptr64 
?_Refcnt@?$basic_string@DU?$char_traits@D@std@@V?$allocator@D@2@@std@@AEAAAEAEPEBD@Z
; private: unsigned char &__ptr64 __cdecl std::<unsigned short,struct std::<unsigned short>,class std::<unsigned short>>::_Refcnt(unsigned short const *__ptr64)__ptr64 
?_Refcnt@?$basic_string@GU?$char_traits@G@std@@V?$allocator@G@2@@std@@AEAAAEAEPEBG@Z
; private: static class std::<char,struct std::<char>> __cdecl std::<char,class std::<char,struct std::<char>>>::_Rep(class std::<char,struct std::<char>>,char,unsigned __int64)
?_Rep@?$money_put@DV?$ostreambuf_iterator@DU?$char_traits@D@std@@@std@@@std@@CA?AV?$ostreambuf_iterator@DU?$char_traits@D@std@@@2@V32@D_K@Z
; private: static class std::<unsigned short,struct std::<unsigned short>> __cdecl std::<unsigned short,class std::<unsigned short,struct std::<unsigned short>>>::_Rep(class std::<unsigned short,struct std::<unsigned short>>,unsigned short,unsigned __int64)
?_Rep@?$money_put@GV?$ostreambuf_iterator@GU?$char_traits@G@std@@@std@@@std@@CA?AV?$ostreambuf_iterator@GU?$char_traits@G@std@@@2@V32@G_K@Z
; protected: static class std::<char,struct std::<char>> __cdecl std::<char,class std::<char,struct std::<char>>>::_Rep(class std::<char,struct std::<char>>,char,unsigned __int64)
?_Rep@?$num_put@DV?$ostreambuf_iterator@DU?$char_traits@D@std@@@std@@@std@@KA?AV?$ostreambuf_iterator@DU?$char_traits@D@std@@@2@V32@D_K@Z
; protected: static class std::<unsigned short,struct std::<unsigned short>> __cdecl std::<unsigned short,class std::<unsigned short,struct std::<unsigned short>>>::_Rep(class std::<unsigned short,struct std::<unsigned short>>,unsigned short,unsigned __int64)
?_Rep@?$num_put@GV?$ostreambuf_iterator@GU?$char_traits@G@std@@@std@@@std@@KA?AV?$ostreambuf_iterator@GU?$char_traits@G@std@@@2@V32@G_K@Z
; public: static float __cdecl std::<float>::_Sinh(float,float)
?_Sinh@?$_Ctr@M@std@@SAMMM@Z
; public: static double __cdecl std::<double>::_Sinh(double,double)
?_Sinh@?$_Ctr@N@std@@SANNN@Z
; public: static long double __cdecl std::<long double>::_Sinh(long double,long double)
?_Sinh@?$_Ctr@O@std@@SAOOO@Z
; private: void __cdecl std::<char,struct std::<char>,class std::<char>>::_Split(void)__ptr64 
?_Split@?$basic_string@DU?$char_traits@D@std@@V?$allocator@D@2@@std@@AEAAXXZ
; private: void __cdecl std::<unsigned short,struct std::<unsigned short>,class std::<unsigned short>>::_Split(void)__ptr64 
?_Split@?$basic_string@GU?$char_traits@G@std@@V?$allocator@G@2@@std@@AEAAXXZ
; int /protected: void __cdecl std::<char,struct std::<char>>::_Init(struct _iobuf *__ptr64,enum std::<char,struct std::<char>>::_Initfl)__ptr64 /::'0x2ULL'::_Stinit
?_Stinit@?1??_Init@?$basic_filebuf@DU?$char_traits@D@std@@@std@@IEAAXPEAU_iobuf@@W4_Initfl@23@@Z@4HA DATA
; int /protected: void __cdecl std::<unsigned short,struct std::<unsigned short>>::_Init(struct _iobuf *__ptr64,enum std::<unsigned short,struct std::<unsigned short>>::_Initfl)__ptr64 /::'0x2ULL'::_Stinit
?_Stinit@?1??_Init@?$basic_filebuf@GU?$char_traits@G@std@@@std@@IEAAXPEAU_iobuf@@W4_Initfl@23@@Z@4HA DATA
; private: static bool std::ios_base::_Sync
?_Sync@ios_base@std@@0_NA DATA
; protected: static void __cdecl std::<char>::_Term(void)
?_Term@?$ctype@D@std@@KAXXZ
; private: void __cdecl std::<char,struct std::<char>,class std::<char>>::_Tidy(bool)__ptr64 
?_Tidy@?$basic_string@DU?$char_traits@D@std@@V?$allocator@D@2@@std@@AEAAX_N@Z
; private: void __cdecl std::<unsigned short,struct std::<unsigned short>,class std::<unsigned short>>::_Tidy(bool)__ptr64 
?_Tidy@?$basic_string@GU?$char_traits@G@std@@V?$allocator@G@2@@std@@AEAAX_N@Z
; protected: void __cdecl std::<char,struct std::<char>,class std::<char>>::_Tidy(void)__ptr64 
?_Tidy@?$basic_stringbuf@DU?$char_traits@D@std@@V?$allocator@D@2@@std@@IEAAXXZ
; protected: void __cdecl std::<unsigned short,struct std::<unsigned short>,class std::<unsigned short>>::_Tidy(void)__ptr64 
?_Tidy@?$basic_stringbuf@GU?$char_traits@G@std@@V?$allocator@G@2@@std@@IEAAXXZ
; private: void __cdecl std::ios_base::_Tidy(void)__ptr64 
?_Tidy@ios_base@std@@AEAAXXZ
; private: static void __cdecl std::locale::_Tidy(void)
?_Tidy@locale@std@@CAXXZ
; protected: void __cdecl std::strstreambuf::_Tidy(void)__ptr64 
?_Tidy@strstreambuf@std@@IEAAXXZ
; float const /float __cdecl std::<float>(class std::<float> const &__ptr64 ,int *__ptr64)/::'0x17ULL'::_Xh
?_Xh@?BN@???$_Fabs@M@std@@YAMAEBV?$complex@M@1@PEAH@Z@4MB
; double const /double __cdecl std::<double>(class std::<double> const &__ptr64 ,int *__ptr64)/::'0x17ULL'::_Xh
?_Xh@?BN@???$_Fabs@N@std@@YANAEBV?$complex@N@1@PEAH@Z@4NB
; long double const /long double __cdecl std::<long double>(class std::<long double> const &__ptr64 ,int *__ptr64)/::'0x17ULL'::_Xh
?_Xh@?BN@???$_Fabs@O@std@@YAOAEBV?$complex@O@1@PEAH@Z@4OB
; float const /float __cdecl std::<float>(class std::<float> const &__ptr64 ,int *__ptr64)/::'0x17ULL'::_Xl
?_Xl@?BN@???$_Fabs@M@std@@YAMAEBV?$complex@M@1@PEAH@Z@4MB
; double const /double __cdecl std::<double>(class std::<double> const &__ptr64 ,int *__ptr64)/::'0x17ULL'::_Xl
?_Xl@?BN@???$_Fabs@N@std@@YANAEBV?$complex@N@1@PEAH@Z@4NB
; long double const /long double __cdecl std::<long double>(class std::<long double> const &__ptr64 ,int *__ptr64)/::'0x17ULL'::_Xl
?_Xl@?BN@???$_Fabs@O@std@@YAOAEBV?$complex@O@1@PEAH@Z@4OB
; void __cdecl std::_Xlen(void)
?_Xlen@std@@YAXXZ
; void __cdecl std::_Xran(void)
?_Xran@std@@YAXXZ
; struct _iobuf *__ptr64 __cdecl std::__Fiopen(char const *__ptr64,int)
?__Fiopen@std@@YAPEAU_iobuf@@PEBDH@Z
; float __cdecl std::abs(class std::<float> const &__ptr64 )
?abs@std@@YAMAEBV?$complex@M@1@@Z
; double __cdecl std::abs(class std::<double> const &__ptr64 )
?abs@std@@YANAEBV?$complex@N@1@@Z
; long double __cdecl std::abs(class std::<long double> const &__ptr64 )
?abs@std@@YAOAEBV?$complex@O@1@@Z
; public: bool __cdecl std::codecvt_base::always_noconv(void)const __ptr64 
?always_noconv@codecvt_base@std@@QEBA_NXZ
; public: class std::<char,struct std::<char>,class std::<char>> &__ptr64 __cdecl std::<char,struct std::<char>,class std::<char>>::append(class std::<char,struct std::<char>,class std::<char>> const &__ptr64 )__ptr64 
?append@?$basic_string@DU?$char_traits@D@std@@V?$allocator@D@2@@std@@QEAAAEAV12@AEBV12@@Z
; public: class std::<char,struct std::<char>,class std::<char>> &__ptr64 __cdecl std::<char,struct std::<char>,class std::<char>>::append(class std::<char,struct std::<char>,class std::<char>> const &__ptr64 ,unsigned __int64,unsigned __int64)__ptr64 
?append@?$basic_string@DU?$char_traits@D@std@@V?$allocator@D@2@@std@@QEAAAEAV12@AEBV12@_K1@Z
; public: class std::<char,struct std::<char>,class std::<char>> &__ptr64 __cdecl std::<char,struct std::<char>,class std::<char>>::append(char const *__ptr64,char const *__ptr64)__ptr64 
?append@?$basic_string@DU?$char_traits@D@std@@V?$allocator@D@2@@std@@QEAAAEAV12@PEBD0@Z
; public: class std::<char,struct std::<char>,class std::<char>> &__ptr64 __cdecl std::<char,struct std::<char>,class std::<char>>::append(char const *__ptr64)__ptr64 
?append@?$basic_string@DU?$char_traits@D@std@@V?$allocator@D@2@@std@@QEAAAEAV12@PEBD@Z
; public: class std::<char,struct std::<char>,class std::<char>> &__ptr64 __cdecl std::<char,struct std::<char>,class std::<char>>::append(char const *__ptr64,unsigned __int64)__ptr64 
?append@?$basic_string@DU?$char_traits@D@std@@V?$allocator@D@2@@std@@QEAAAEAV12@PEBD_K@Z
; public: class std::<char,struct std::<char>,class std::<char>> &__ptr64 __cdecl std::<char,struct std::<char>,class std::<char>>::append(unsigned __int64,char)__ptr64 
?append@?$basic_string@DU?$char_traits@D@std@@V?$allocator@D@2@@std@@QEAAAEAV12@_KD@Z
; public: class std::<unsigned short,struct std::<unsigned short>,class std::<unsigned short>> &__ptr64 __cdecl std::<unsigned short,struct std::<unsigned short>,class std::<unsigned short>>::append(class std::<unsigned short,struct std::<unsigned short>,class std::<unsigned short>> const &__ptr64 )__ptr64 
?append@?$basic_string@GU?$char_traits@G@std@@V?$allocator@G@2@@std@@QEAAAEAV12@AEBV12@@Z
; public: class std::<unsigned short,struct std::<unsigned short>,class std::<unsigned short>> &__ptr64 __cdecl std::<unsigned short,struct std::<unsigned short>,class std::<unsigned short>>::append(class std::<unsigned short,struct std::<unsigned short>,class std::<unsigned short>> const &__ptr64 ,unsigned __int64,unsigned __int64)__ptr64 
?append@?$basic_string@GU?$char_traits@G@std@@V?$allocator@G@2@@std@@QEAAAEAV12@AEBV12@_K1@Z
; public: class std::<unsigned short,struct std::<unsigned short>,class std::<unsigned short>> &__ptr64 __cdecl std::<unsigned short,struct std::<unsigned short>,class std::<unsigned short>>::append(unsigned short const *__ptr64,unsigned short const *__ptr64)__ptr64 
?append@?$basic_string@GU?$char_traits@G@std@@V?$allocator@G@2@@std@@QEAAAEAV12@PEBG0@Z
; public: class std::<unsigned short,struct std::<unsigned short>,class std::<unsigned short>> &__ptr64 __cdecl std::<unsigned short,struct std::<unsigned short>,class std::<unsigned short>>::append(unsigned short const *__ptr64)__ptr64 
?append@?$basic_string@GU?$char_traits@G@std@@V?$allocator@G@2@@std@@QEAAAEAV12@PEBG@Z
; public: class std::<unsigned short,struct std::<unsigned short>,class std::<unsigned short>> &__ptr64 __cdecl std::<unsigned short,struct std::<unsigned short>,class std::<unsigned short>>::append(unsigned short const *__ptr64,unsigned __int64)__ptr64 
?append@?$basic_string@GU?$char_traits@G@std@@V?$allocator@G@2@@std@@QEAAAEAV12@PEBG_K@Z
; public: class std::<unsigned short,struct std::<unsigned short>,class std::<unsigned short>> &__ptr64 __cdecl std::<unsigned short,struct std::<unsigned short>,class std::<unsigned short>>::append(unsigned __int64,unsigned short)__ptr64 
?append@?$basic_string@GU?$char_traits@G@std@@V?$allocator@G@2@@std@@QEAAAEAV12@_KG@Z
; float __cdecl std::arg(class std::<float> const &__ptr64 )
?arg@std@@YAMAEBV?$complex@M@1@@Z
; double __cdecl std::arg(class std::<double> const &__ptr64 )
?arg@std@@YANAEBV?$complex@N@1@@Z
; long double __cdecl std::arg(class std::<long double> const &__ptr64 )
?arg@std@@YAOAEBV?$complex@O@1@@Z
; public: class std::<char,struct std::<char>,class std::<char>> &__ptr64 __cdecl std::<char,struct std::<char>,class std::<char>>::assign(class std::<char,struct std::<char>,class std::<char>> const &__ptr64 )__ptr64 
?assign@?$basic_string@DU?$char_traits@D@std@@V?$allocator@D@2@@std@@QEAAAEAV12@AEBV12@@Z
; public: class std::<char,struct std::<char>,class std::<char>> &__ptr64 __cdecl std::<char,struct std::<char>,class std::<char>>::assign(class std::<char,struct std::<char>,class std::<char>> const &__ptr64 ,unsigned __int64,unsigned __int64)__ptr64 
?assign@?$basic_string@DU?$char_traits@D@std@@V?$allocator@D@2@@std@@QEAAAEAV12@AEBV12@_K1@Z
; public: class std::<char,struct std::<char>,class std::<char>> &__ptr64 __cdecl std::<char,struct std::<char>,class std::<char>>::assign(char const *__ptr64,char const *__ptr64)__ptr64 
?assign@?$basic_string@DU?$char_traits@D@std@@V?$allocator@D@2@@std@@QEAAAEAV12@PEBD0@Z
; public: class std::<char,struct std::<char>,class std::<char>> &__ptr64 __cdecl std::<char,struct std::<char>,class std::<char>>::assign(char const *__ptr64)__ptr64 
?assign@?$basic_string@DU?$char_traits@D@std@@V?$allocator@D@2@@std@@QEAAAEAV12@PEBD@Z
; public: class std::<char,struct std::<char>,class std::<char>> &__ptr64 __cdecl std::<char,struct std::<char>,class std::<char>>::assign(char const *__ptr64,unsigned __int64)__ptr64 
?assign@?$basic_string@DU?$char_traits@D@std@@V?$allocator@D@2@@std@@QEAAAEAV12@PEBD_K@Z
; public: class std::<char,struct std::<char>,class std::<char>> &__ptr64 __cdecl std::<char,struct std::<char>,class std::<char>>::assign(unsigned __int64,char)__ptr64 
?assign@?$basic_string@DU?$char_traits@D@std@@V?$allocator@D@2@@std@@QEAAAEAV12@_KD@Z
; public: class std::<unsigned short,struct std::<unsigned short>,class std::<unsigned short>> &__ptr64 __cdecl std::<unsigned short,struct std::<unsigned short>,class std::<unsigned short>>::assign(class std::<unsigned short,struct std::<unsigned short>,class std::<unsigned short>> const &__ptr64 )__ptr64 
?assign@?$basic_string@GU?$char_traits@G@std@@V?$allocator@G@2@@std@@QEAAAEAV12@AEBV12@@Z
; public: class std::<unsigned short,struct std::<unsigned short>,class std::<unsigned short>> &__ptr64 __cdecl std::<unsigned short,struct std::<unsigned short>,class std::<unsigned short>>::assign(class std::<unsigned short,struct std::<unsigned short>,class std::<unsigned short>> const &__ptr64 ,unsigned __int64,unsigned __int64)__ptr64 
?assign@?$basic_string@GU?$char_traits@G@std@@V?$allocator@G@2@@std@@QEAAAEAV12@AEBV12@_K1@Z
; public: class std::<unsigned short,struct std::<unsigned short>,class std::<unsigned short>> &__ptr64 __cdecl std::<unsigned short,struct std::<unsigned short>,class std::<unsigned short>>::assign(unsigned short const *__ptr64,unsigned short const *__ptr64)__ptr64 
?assign@?$basic_string@GU?$char_traits@G@std@@V?$allocator@G@2@@std@@QEAAAEAV12@PEBG0@Z
; public: class std::<unsigned short,struct std::<unsigned short>,class std::<unsigned short>> &__ptr64 __cdecl std::<unsigned short,struct std::<unsigned short>,class std::<unsigned short>>::assign(unsigned short const *__ptr64)__ptr64 
?assign@?$basic_string@GU?$char_traits@G@std@@V?$allocator@G@2@@std@@QEAAAEAV12@PEBG@Z
; public: class std::<unsigned short,struct std::<unsigned short>,class std::<unsigned short>> &__ptr64 __cdecl std::<unsigned short,struct std::<unsigned short>,class std::<unsigned short>>::assign(unsigned short const *__ptr64,unsigned __int64)__ptr64 
?assign@?$basic_string@GU?$char_traits@G@std@@V?$allocator@G@2@@std@@QEAAAEAV12@PEBG_K@Z
; public: class std::<unsigned short,struct std::<unsigned short>,class std::<unsigned short>> &__ptr64 __cdecl std::<unsigned short,struct std::<unsigned short>,class std::<unsigned short>>::assign(unsigned __int64,unsigned short)__ptr64 
?assign@?$basic_string@GU?$char_traits@G@std@@V?$allocator@G@2@@std@@QEAAAEAV12@_KG@Z
; public: static char *__ptr64 __cdecl std::<char>::assign(char *__ptr64,unsigned __int64,char const &__ptr64 )
?assign@?$char_traits@D@std@@SAPEADPEAD_KAEBD@Z
; public: static void __cdecl std::<char>::assign(char &__ptr64 ,char const &__ptr64 )
?assign@?$char_traits@D@std@@SAXAEADAEBD@Z
; public: static unsigned short *__ptr64 __cdecl std::<unsigned short>::assign(unsigned short *__ptr64,unsigned __int64,unsigned short const &__ptr64 )
?assign@?$char_traits@G@std@@SAPEAGPEAG_KAEBG@Z
; public: static void __cdecl std::<unsigned short>::assign(unsigned short &__ptr64 ,unsigned short const &__ptr64 )
?assign@?$char_traits@G@std@@SAXAEAGAEBG@Z
; public: char &__ptr64 __cdecl std::<char,struct std::<char>,class std::<char>>::at(unsigned __int64)__ptr64 
?at@?$basic_string@DU?$char_traits@D@std@@V?$allocator@D@2@@std@@QEAAAEAD_K@Z
; public: char const &__ptr64 __cdecl std::<char,struct std::<char>,class std::<char>>::at(unsigned __int64)const __ptr64 
?at@?$basic_string@DU?$char_traits@D@std@@V?$allocator@D@2@@std@@QEBAAEBD_K@Z
; public: unsigned short &__ptr64 __cdecl std::<unsigned short,struct std::<unsigned short>,class std::<unsigned short>>::at(unsigned __int64)__ptr64 
?at@?$basic_string@GU?$char_traits@G@std@@V?$allocator@G@2@@std@@QEAAAEAG_K@Z
; public: unsigned short const &__ptr64 __cdecl std::<unsigned short,struct std::<unsigned short>,class std::<unsigned short>>::at(unsigned __int64)const __ptr64 
?at@?$basic_string@GU?$char_traits@G@std@@V?$allocator@G@2@@std@@QEBAAEBG_K@Z
; public: static float __cdecl std::<float>::atan2(float,float)
?atan2@?$_Ctr@M@std@@SAMMM@Z
; public: static double __cdecl std::<double>::atan2(double,double)
?atan2@?$_Ctr@N@std@@SANNN@Z
; public: static long double __cdecl std::<long double>::atan2(long double,long double)
?atan2@?$_Ctr@O@std@@SAOOO@Z
; public: bool __cdecl std::ios_base::bad(void)const __ptr64 
?bad@ios_base@std@@QEBA_NXZ
; public: char *__ptr64 __cdecl std::<char,struct std::<char>,class std::<char>>::begin(void)__ptr64 
?begin@?$basic_string@DU?$char_traits@D@std@@V?$allocator@D@2@@std@@QEAAPEADXZ
; public: char const *__ptr64 __cdecl std::<char,struct std::<char>,class std::<char>>::begin(void)const __ptr64 
?begin@?$basic_string@DU?$char_traits@D@std@@V?$allocator@D@2@@std@@QEBAPEBDXZ
; public: unsigned short *__ptr64 __cdecl std::<unsigned short,struct std::<unsigned short>,class std::<unsigned short>>::begin(void)__ptr64 
?begin@?$basic_string@GU?$char_traits@G@std@@V?$allocator@G@2@@std@@QEAAPEAGXZ
; public: unsigned short const *__ptr64 __cdecl std::<unsigned short,struct std::<unsigned short>,class std::<unsigned short>>::begin(void)const __ptr64 
?begin@?$basic_string@GU?$char_traits@G@std@@V?$allocator@G@2@@std@@QEBAPEBGXZ
; public: char const *__ptr64 __cdecl std::<char,struct std::<char>,class std::<char>>::c_str(void)const __ptr64 
?c_str@?$basic_string@DU?$char_traits@D@std@@V?$allocator@D@2@@std@@QEBAPEBDXZ
; public: unsigned short const *__ptr64 __cdecl std::<unsigned short,struct std::<unsigned short>,class std::<unsigned short>>::c_str(void)const __ptr64 
?c_str@?$basic_string@GU?$char_traits@G@std@@V?$allocator@G@2@@std@@QEBAPEBGXZ
; public: unsigned __int64 __cdecl std::<char,struct std::<char>,class std::<char>>::capacity(void)const __ptr64 
?capacity@?$basic_string@DU?$char_traits@D@std@@V?$allocator@D@2@@std@@QEBA_KXZ
; public: unsigned __int64 __cdecl std::<unsigned short,struct std::<unsigned short>,class std::<unsigned short>>::capacity(void)const __ptr64 
?capacity@?$basic_string@GU?$char_traits@G@std@@V?$allocator@G@2@@std@@QEBA_KXZ
; class std::<char,struct std::<char>> std::cerr
?cerr@std@@3V?$basic_ostream@DU?$char_traits@D@std@@@1@A DATA
; class std::<char,struct std::<char>> std::cin
?cin@std@@3V?$basic_istream@DU?$char_traits@D@std@@@1@A DATA
; public: static class std::locale const &__ptr64 __cdecl std::locale::classic(void)
?classic@locale@std@@SAAEBV12@XZ
; protected: static short const *__ptr64 __cdecl std::<char>::classic_table(void)
?classic_table@?$ctype@D@std@@KAPEBFXZ
; public: void __cdecl std::<char,struct std::<char>>::clear(short)__ptr64 
?clear@?$basic_ios@DU?$char_traits@D@std@@@std@@QEAAXF@Z
; public: void __cdecl std::<char,struct std::<char>>::clear(int,bool)__ptr64 
?clear@?$basic_ios@DU?$char_traits@D@std@@@std@@QEAAXH_N@Z
; public: void __cdecl std::<unsigned short,struct std::<unsigned short>>::clear(short)__ptr64 
?clear@?$basic_ios@GU?$char_traits@G@std@@@std@@QEAAXF@Z
; public: void __cdecl std::<unsigned short,struct std::<unsigned short>>::clear(int,bool)__ptr64 
?clear@?$basic_ios@GU?$char_traits@G@std@@@std@@QEAAXH_N@Z
; public: void __cdecl std::ios_base::clear(short)__ptr64 
?clear@ios_base@std@@QEAAXF@Z
; public: void __cdecl std::ios_base::clear(int,bool)__ptr64 
?clear@ios_base@std@@QEAAXH_N@Z
; class std::<char,struct std::<char>> std::clog
?clog@std@@3V?$basic_ostream@DU?$char_traits@D@std@@@1@A DATA
; public: class std::<char,struct std::<char>> *__ptr64 __cdecl std::<char,struct std::<char>>::close(void)__ptr64 
?close@?$basic_filebuf@DU?$char_traits@D@std@@@std@@QEAAPEAV12@XZ
; public: class std::<unsigned short,struct std::<unsigned short>> *__ptr64 __cdecl std::<unsigned short,struct std::<unsigned short>>::close(void)__ptr64 
?close@?$basic_filebuf@GU?$char_traits@G@std@@@std@@QEAAPEAV12@XZ
; public: void __cdecl std::<char,struct std::<char>>::close(void)__ptr64 
?close@?$basic_fstream@DU?$char_traits@D@std@@@std@@QEAAXXZ
; public: void __cdecl std::<unsigned short,struct std::<unsigned short>>::close(void)__ptr64 
?close@?$basic_fstream@GU?$char_traits@G@std@@@std@@QEAAXXZ
; public: void __cdecl std::<char,struct std::<char>>::close(void)__ptr64 
?close@?$basic_ifstream@DU?$char_traits@D@std@@@std@@QEAAXXZ
; public: void __cdecl std::<unsigned short,struct std::<unsigned short>>::close(void)__ptr64 
?close@?$basic_ifstream@GU?$char_traits@G@std@@@std@@QEAAXXZ
; public: void __cdecl std::<char,struct std::<char>>::close(void)__ptr64 
?close@?$basic_ofstream@DU?$char_traits@D@std@@@std@@QEAAXXZ
; public: void __cdecl std::<unsigned short,struct std::<unsigned short>>::close(void)__ptr64 
?close@?$basic_ofstream@GU?$char_traits@G@std@@@std@@QEAAXXZ
; public: void __cdecl std::<char>::close(int)const __ptr64 
?close@?$messages@D@std@@QEBAXH@Z
; public: void __cdecl std::<unsigned short>::close(int)const __ptr64 
?close@?$messages@G@std@@QEBAXH@Z
; public: int __cdecl std::<char,struct std::<char>,class std::<char>>::compare(class std::<char,struct std::<char>,class std::<char>> const &__ptr64 )const __ptr64 
?compare@?$basic_string@DU?$char_traits@D@std@@V?$allocator@D@2@@std@@QEBAHAEBV12@@Z
; public: int __cdecl std::<char,struct std::<char>,class std::<char>>::compare(char const *__ptr64)const __ptr64 
?compare@?$basic_string@DU?$char_traits@D@std@@V?$allocator@D@2@@std@@QEBAHPEBD@Z
; public: int __cdecl std::<char,struct std::<char>,class std::<char>>::compare(unsigned __int64,unsigned __int64,class std::<char,struct std::<char>,class std::<char>> const &__ptr64 ,unsigned __int64,unsigned __int64)const __ptr64 
?compare@?$basic_string@DU?$char_traits@D@std@@V?$allocator@D@2@@std@@QEBAH_K0AEBV12@00@Z
; public: int __cdecl std::<char,struct std::<char>,class std::<char>>::compare(unsigned __int64,unsigned __int64,class std::<char,struct std::<char>,class std::<char>> const &__ptr64 )const __ptr64 
?compare@?$basic_string@DU?$char_traits@D@std@@V?$allocator@D@2@@std@@QEBAH_K0AEBV12@@Z
; public: int __cdecl std::<char,struct std::<char>,class std::<char>>::compare(unsigned __int64,unsigned __int64,char const *__ptr64,unsigned __int64)const __ptr64 
?compare@?$basic_string@DU?$char_traits@D@std@@V?$allocator@D@2@@std@@QEBAH_K0PEBD0@Z
; public: int __cdecl std::<char,struct std::<char>,class std::<char>>::compare(unsigned __int64,unsigned __int64,char const *__ptr64)const __ptr64 
?compare@?$basic_string@DU?$char_traits@D@std@@V?$allocator@D@2@@std@@QEBAH_K0PEBD@Z
; public: int __cdecl std::<unsigned short,struct std::<unsigned short>,class std::<unsigned short>>::compare(class std::<unsigned short,struct std::<unsigned short>,class std::<unsigned short>> const &__ptr64 )const __ptr64 
?compare@?$basic_string@GU?$char_traits@G@std@@V?$allocator@G@2@@std@@QEBAHAEBV12@@Z
; public: int __cdecl std::<unsigned short,struct std::<unsigned short>,class std::<unsigned short>>::compare(unsigned short const *__ptr64)const __ptr64 
?compare@?$basic_string@GU?$char_traits@G@std@@V?$allocator@G@2@@std@@QEBAHPEBG@Z
; public: int __cdecl std::<unsigned short,struct std::<unsigned short>,class std::<unsigned short>>::compare(unsigned __int64,unsigned __int64,class std::<unsigned short,struct std::<unsigned short>,class std::<unsigned short>> const &__ptr64 ,unsigned __int64,unsigned __int64)const __ptr64 
?compare@?$basic_string@GU?$char_traits@G@std@@V?$allocator@G@2@@std@@QEBAH_K0AEBV12@00@Z
; public: int __cdecl std::<unsigned short,struct std::<unsigned short>,class std::<unsigned short>>::compare(unsigned __int64,unsigned __int64,class std::<unsigned short,struct std::<unsigned short>,class std::<unsigned short>> const &__ptr64 )const __ptr64 
?compare@?$basic_string@GU?$char_traits@G@std@@V?$allocator@G@2@@std@@QEBAH_K0AEBV12@@Z
; public: int __cdecl std::<unsigned short,struct std::<unsigned short>,class std::<unsigned short>>::compare(unsigned __int64,unsigned __int64,unsigned short const *__ptr64,unsigned __int64)const __ptr64 
?compare@?$basic_string@GU?$char_traits@G@std@@V?$allocator@G@2@@std@@QEBAH_K0PEBG0@Z
; public: int __cdecl std::<unsigned short,struct std::<unsigned short>,class std::<unsigned short>>::compare(unsigned __int64,unsigned __int64,unsigned short const *__ptr64)const __ptr64 
?compare@?$basic_string@GU?$char_traits@G@std@@V?$allocator@G@2@@std@@QEBAH_K0PEBG@Z
; public: static int __cdecl std::<char>::compare(char const *__ptr64,char const *__ptr64,unsigned __int64)
?compare@?$char_traits@D@std@@SAHPEBD0_K@Z
; public: static int __cdecl std::<unsigned short>::compare(unsigned short const *__ptr64,unsigned short const *__ptr64,unsigned __int64)
?compare@?$char_traits@G@std@@SAHPEBG0_K@Z
; public: int __cdecl std::<char>::compare(char const *__ptr64,char const *__ptr64,char const *__ptr64,char const *__ptr64)const __ptr64 
?compare@?$collate@D@std@@QEBAHPEBD000@Z
; public: int __cdecl std::<unsigned short>::compare(unsigned short const *__ptr64,unsigned short const *__ptr64,unsigned short const *__ptr64,unsigned short const *__ptr64)const __ptr64 
?compare@?$collate@G@std@@QEBAHPEBG000@Z
; class std::<float> __cdecl std::conj(class std::<float> const &__ptr64 )
?conj@std@@YA?AV?$complex@M@1@AEBV21@@Z
; class std::<double> __cdecl std::conj(class std::<double> const &__ptr64 )
?conj@std@@YA?AV?$complex@N@1@AEBV21@@Z
; class std::<long double> __cdecl std::conj(class std::<long double> const &__ptr64 )
?conj@std@@YA?AV?$complex@O@1@AEBV21@@Z
; public: unsigned __int64 __cdecl std::<char,struct std::<char>,class std::<char>>::copy(char *__ptr64,unsigned __int64,unsigned __int64)const __ptr64 
?copy@?$basic_string@DU?$char_traits@D@std@@V?$allocator@D@2@@std@@QEBA_KPEAD_K1@Z
; public: unsigned __int64 __cdecl std::<unsigned short,struct std::<unsigned short>,class std::<unsigned short>>::copy(unsigned short *__ptr64,unsigned __int64,unsigned __int64)const __ptr64 
?copy@?$basic_string@GU?$char_traits@G@std@@V?$allocator@G@2@@std@@QEBA_KPEAG_K1@Z
; public: static char *__ptr64 __cdecl std::<char>::copy(char *__ptr64,char const *__ptr64,unsigned __int64)
?copy@?$char_traits@D@std@@SAPEADPEADPEBD_K@Z
; public: static unsigned short *__ptr64 __cdecl std::<unsigned short>::copy(unsigned short *__ptr64,unsigned short const *__ptr64,unsigned __int64)
?copy@?$char_traits@G@std@@SAPEAGPEAGPEBG_K@Z
; public: class std::<char,struct std::<char>> &__ptr64 __cdecl std::<char,struct std::<char>>::copyfmt(class std::<char,struct std::<char>> const &__ptr64 )__ptr64 
?copyfmt@?$basic_ios@DU?$char_traits@D@std@@@std@@QEAAAEAV12@AEBV12@@Z
; public: class std::<unsigned short,struct std::<unsigned short>> &__ptr64 __cdecl std::<unsigned short,struct std::<unsigned short>>::copyfmt(class std::<unsigned short,struct std::<unsigned short>> const &__ptr64 )__ptr64 
?copyfmt@?$basic_ios@GU?$char_traits@G@std@@@std@@QEAAAEAV12@AEBV12@@Z
; public: class std::ios_base &__ptr64 __cdecl std::ios_base::copyfmt(class std::ios_base const &__ptr64 )__ptr64 
?copyfmt@ios_base@std@@QEAAAEAV12@AEBV12@@Z
; public: static float __cdecl std::<float>::cos(float)
?cos@?$_Ctr@M@std@@SAMM@Z
; public: static double __cdecl std::<double>::cos(double)
?cos@?$_Ctr@N@std@@SANN@Z
; public: static long double __cdecl std::<long double>::cos(long double)
?cos@?$_Ctr@O@std@@SAOO@Z
; class std::<float> __cdecl std::cos(class std::<float> const &__ptr64 )
?cos@std@@YA?AV?$complex@M@1@AEBV21@@Z
; class std::<double> __cdecl std::cos(class std::<double> const &__ptr64 )
?cos@std@@YA?AV?$complex@N@1@AEBV21@@Z
; class std::<long double> __cdecl std::cos(class std::<long double> const &__ptr64 )
?cos@std@@YA?AV?$complex@O@1@AEBV21@@Z
; class std::<float> __cdecl std::cosh(class std::<float> const &__ptr64 )
?cosh@std@@YA?AV?$complex@M@1@AEBV21@@Z
; class std::<double> __cdecl std::cosh(class std::<double> const &__ptr64 )
?cosh@std@@YA?AV?$complex@N@1@AEBV21@@Z
; class std::<long double> __cdecl std::cosh(class std::<long double> const &__ptr64 )
?cosh@std@@YA?AV?$complex@O@1@AEBV21@@Z
; class std::<char,struct std::<char>> std::cout
?cout@std@@3V?$basic_ostream@DU?$char_traits@D@std@@@1@A DATA
; public: class std::<char,struct std::<char>,class std::<char>> __cdecl std::<char>::curr_symbol(void)const __ptr64 
?curr_symbol@?$_Mpunct@D@std@@QEBA?AV?$basic_string@DU?$char_traits@D@std@@V?$allocator@D@2@@2@XZ
; public: class std::<unsigned short,struct std::<unsigned short>,class std::<unsigned short>> __cdecl std::<unsigned short>::curr_symbol(void)const __ptr64 
?curr_symbol@?$_Mpunct@G@std@@QEBA?AV?$basic_string@GU?$char_traits@G@std@@V?$allocator@G@2@@2@XZ
; public: char const *__ptr64 __cdecl std::<char,struct std::<char>,class std::<char>>::data(void)const __ptr64 
?data@?$basic_string@DU?$char_traits@D@std@@V?$allocator@D@2@@std@@QEBAPEBDXZ
; public: unsigned short const *__ptr64 __cdecl std::<unsigned short,struct std::<unsigned short>,class std::<unsigned short>>::data(void)const __ptr64 
?data@?$basic_string@GU?$char_traits@G@std@@V?$allocator@G@2@@std@@QEBAPEBGXZ
; public: int __cdecl std::<char,class std::<char,struct std::<char>>>::date_order(void)const __ptr64 
?date_order@?$time_get@DV?$istreambuf_iterator@DU?$char_traits@D@std@@@std@@@std@@QEBAHXZ
; public: int __cdecl std::<unsigned short,class std::<unsigned short,struct std::<unsigned short>>>::date_order(void)const __ptr64 
?date_order@?$time_get@GV?$istreambuf_iterator@GU?$char_traits@G@std@@@std@@@std@@QEBAHXZ
; public: char __cdecl std::<char>::decimal_point(void)const __ptr64 
?decimal_point@?$_Mpunct@D@std@@QEBADXZ
; public: unsigned short __cdecl std::<unsigned short>::decimal_point(void)const __ptr64 
?decimal_point@?$_Mpunct@G@std@@QEBAGXZ
; public: char __cdecl std::<char>::decimal_point(void)const __ptr64 
?decimal_point@?$numpunct@D@std@@QEBADXZ
; public: unsigned short __cdecl std::<unsigned short>::decimal_point(void)const __ptr64 
?decimal_point@?$numpunct@G@std@@QEBAGXZ
; public: static signed char __cdecl std::<signed char>::denorm_min(void)
?denorm_min@?$numeric_limits@C@std@@SACXZ
; public: static char __cdecl std::<char>::denorm_min(void)
?denorm_min@?$numeric_limits@D@std@@SADXZ
; public: static unsigned char __cdecl std::<unsigned char>::denorm_min(void)
?denorm_min@?$numeric_limits@E@std@@SAEXZ
; public: static short __cdecl std::<short>::denorm_min(void)
?denorm_min@?$numeric_limits@F@std@@SAFXZ
; public: static unsigned short __cdecl std::<unsigned short>::denorm_min(void)
?denorm_min@?$numeric_limits@G@std@@SAGXZ
; public: static int __cdecl std::<int>::denorm_min(void)
?denorm_min@?$numeric_limits@H@std@@SAHXZ
; public: static unsigned int __cdecl std::<unsigned int>::denorm_min(void)
?denorm_min@?$numeric_limits@I@std@@SAIXZ
; public: static long __cdecl std::<long>::denorm_min(void)
?denorm_min@?$numeric_limits@J@std@@SAJXZ
; public: static unsigned long __cdecl std::<unsigned long>::denorm_min(void)
?denorm_min@?$numeric_limits@K@std@@SAKXZ
; public: static float __cdecl std::<float>::denorm_min(void)
?denorm_min@?$numeric_limits@M@std@@SAMXZ
; public: static double __cdecl std::<double>::denorm_min(void)
?denorm_min@?$numeric_limits@N@std@@SANXZ
; public: static long double __cdecl std::<long double>::denorm_min(void)
?denorm_min@?$numeric_limits@O@std@@SAOXZ
; public: static bool __cdecl std::<bool>::denorm_min(void)
?denorm_min@?$numeric_limits@_N@std@@SA_NXZ
; protected: virtual bool __cdecl std::<unsigned short,char,int>::do_always_noconv(void)const __ptr64 
?do_always_noconv@?$codecvt@GDH@std@@MEBA_NXZ
; protected: virtual bool __cdecl std::codecvt_base::do_always_noconv(void)const __ptr64 
?do_always_noconv@codecvt_base@std@@MEBA_NXZ
; protected: virtual void __cdecl std::<char>::do_close(int)const __ptr64 
?do_close@?$messages@D@std@@MEBAXH@Z
; protected: virtual void __cdecl std::<unsigned short>::do_close(int)const __ptr64 
?do_close@?$messages@G@std@@MEBAXH@Z
; protected: virtual int __cdecl std::<char>::do_compare(char const *__ptr64,char const *__ptr64,char const *__ptr64,char const *__ptr64)const __ptr64 
?do_compare@?$collate@D@std@@MEBAHPEBD000@Z
; protected: virtual int __cdecl std::<unsigned short>::do_compare(unsigned short const *__ptr64,unsigned short const *__ptr64,unsigned short const *__ptr64,unsigned short const *__ptr64)const __ptr64 
?do_compare@?$collate@G@std@@MEBAHPEBG000@Z
; protected: virtual class std::<char,struct std::<char>,class std::<char>> __cdecl std::<char>::do_curr_symbol(void)const __ptr64 
?do_curr_symbol@?$_Mpunct@D@std@@MEBA?AV?$basic_string@DU?$char_traits@D@std@@V?$allocator@D@2@@2@XZ
; protected: virtual class std::<unsigned short,struct std::<unsigned short>,class std::<unsigned short>> __cdecl std::<unsigned short>::do_curr_symbol(void)const __ptr64 
?do_curr_symbol@?$_Mpunct@G@std@@MEBA?AV?$basic_string@GU?$char_traits@G@std@@V?$allocator@G@2@@2@XZ
; protected: virtual int __cdecl std::<char,class std::<char,struct std::<char>>>::do_date_order(void)const __ptr64 
?do_date_order@?$time_get@DV?$istreambuf_iterator@DU?$char_traits@D@std@@@std@@@std@@MEBAHXZ
; protected: virtual int __cdecl std::<unsigned short,class std::<unsigned short,struct std::<unsigned short>>>::do_date_order(void)const __ptr64 
?do_date_order@?$time_get@GV?$istreambuf_iterator@GU?$char_traits@G@std@@@std@@@std@@MEBAHXZ
; protected: virtual char __cdecl std::<char>::do_decimal_point(void)const __ptr64 
?do_decimal_point@?$_Mpunct@D@std@@MEBADXZ
; protected: virtual unsigned short __cdecl std::<unsigned short>::do_decimal_point(void)const __ptr64 
?do_decimal_point@?$_Mpunct@G@std@@MEBAGXZ
; protected: virtual char __cdecl std::<char>::do_decimal_point(void)const __ptr64 
?do_decimal_point@?$numpunct@D@std@@MEBADXZ
; protected: virtual unsigned short __cdecl std::<unsigned short>::do_decimal_point(void)const __ptr64 
?do_decimal_point@?$numpunct@G@std@@MEBAGXZ
; protected: virtual int __cdecl std::<unsigned short,char,int>::do_encoding(void)const __ptr64 
?do_encoding@?$codecvt@GDH@std@@MEBAHXZ
; protected: virtual int __cdecl std::codecvt_base::do_encoding(void)const __ptr64 
?do_encoding@codecvt_base@std@@MEBAHXZ
; protected: virtual class std::<char,struct std::<char>,class std::<char>> __cdecl std::<char>::do_falsename(void)const __ptr64 
?do_falsename@?$numpunct@D@std@@MEBA?AV?$basic_string@DU?$char_traits@D@std@@V?$allocator@D@2@@2@XZ
; protected: virtual class std::<unsigned short,struct std::<unsigned short>,class std::<unsigned short>> __cdecl std::<unsigned short>::do_falsename(void)const __ptr64 
?do_falsename@?$numpunct@G@std@@MEBA?AV?$basic_string@GU?$char_traits@G@std@@V?$allocator@G@2@@2@XZ
; protected: virtual int __cdecl std::<char>::do_frac_digits(void)const __ptr64 
?do_frac_digits@?$_Mpunct@D@std@@MEBAHXZ
; protected: virtual int __cdecl std::<unsigned short>::do_frac_digits(void)const __ptr64 
?do_frac_digits@?$_Mpunct@G@std@@MEBAHXZ
; protected: virtual class std::<char,struct std::<char>,class std::<char>> __cdecl std::<char>::do_get(int,int,int,class std::<char,struct std::<char>,class std::<char>> const &__ptr64 )const __ptr64 
?do_get@?$messages@D@std@@MEBA?AV?$basic_string@DU?$char_traits@D@std@@V?$allocator@D@2@@2@HHHAEBV32@@Z
; protected: virtual class std::<unsigned short,struct std::<unsigned short>,class std::<unsigned short>> __cdecl std::<unsigned short>::do_get(int,int,int,class std::<unsigned short,struct std::<unsigned short>,class std::<unsigned short>> const &__ptr64 )const __ptr64 
?do_get@?$messages@G@std@@MEBA?AV?$basic_string@GU?$char_traits@G@std@@V?$allocator@G@2@@2@HHHAEBV32@@Z
; protected: virtual class std::<char,struct std::<char>> __cdecl std::<char,class std::<char,struct std::<char>>>::do_get(class std::<char,struct std::<char>>,class std::<char,struct std::<char>>,bool,class std::ios_base &__ptr64 ,int &__ptr64 ,long double &__ptr64 )const __ptr64 
?do_get@?$money_get@DV?$istreambuf_iterator@DU?$char_traits@D@std@@@std@@@std@@MEBA?AV?$istreambuf_iterator@DU?$char_traits@D@std@@@2@V32@0_NAEAVios_base@2@AEAHAEAO@Z
; protected: virtual class std::<char,struct std::<char>> __cdecl std::<char,class std::<char,struct std::<char>>>::do_get(class std::<char,struct std::<char>>,class std::<char,struct std::<char>>,bool,class std::ios_base &__ptr64 ,int &__ptr64 ,class std::<char,struct std::<char>,class std::<char>> &__ptr64 )const __ptr64 
?do_get@?$money_get@DV?$istreambuf_iterator@DU?$char_traits@D@std@@@std@@@std@@MEBA?AV?$istreambuf_iterator@DU?$char_traits@D@std@@@2@V32@0_NAEAVios_base@2@AEAHAEAV?$basic_string@DU?$char_traits@D@std@@V?$allocator@D@2@@2@@Z
; protected: virtual class std::<unsigned short,struct std::<unsigned short>> __cdecl std::<unsigned short,class std::<unsigned short,struct std::<unsigned short>>>::do_get(class std::<unsigned short,struct std::<unsigned short>>,class std::<unsigned short,struct std::<unsigned short>>,bool,class std::ios_base &__ptr64 ,int &__ptr64 ,long double &__ptr64 )const __ptr64 
?do_get@?$money_get@GV?$istreambuf_iterator@GU?$char_traits@G@std@@@std@@@std@@MEBA?AV?$istreambuf_iterator@GU?$char_traits@G@std@@@2@V32@0_NAEAVios_base@2@AEAHAEAO@Z
; protected: virtual class std::<unsigned short,struct std::<unsigned short>> __cdecl std::<unsigned short,class std::<unsigned short,struct std::<unsigned short>>>::do_get(class std::<unsigned short,struct std::<unsigned short>>,class std::<unsigned short,struct std::<unsigned short>>,bool,class std::ios_base &__ptr64 ,int &__ptr64 ,class std::<unsigned short,struct std::<unsigned short>,class std::<unsigned short>> &__ptr64 )const __ptr64 
?do_get@?$money_get@GV?$istreambuf_iterator@GU?$char_traits@G@std@@@std@@@std@@MEBA?AV?$istreambuf_iterator@GU?$char_traits@G@std@@@2@V32@0_NAEAVios_base@2@AEAHAEAV?$basic_string@GU?$char_traits@G@std@@V?$allocator@G@2@@2@@Z
; protected: virtual class std::<char,struct std::<char>> __cdecl std::<char,class std::<char,struct std::<char>>>::do_get(class std::<char,struct std::<char>>,class std::<char,struct std::<char>>,class std::ios_base &__ptr64 ,int &__ptr64 ,unsigned short &__ptr64 )const __ptr64 
?do_get@?$num_get@DV?$istreambuf_iterator@DU?$char_traits@D@std@@@std@@@std@@MEBA?AV?$istreambuf_iterator@DU?$char_traits@D@std@@@2@V32@0AEAVios_base@2@AEAHAEAG@Z
; protected: virtual class std::<char,struct std::<char>> __cdecl std::<char,class std::<char,struct std::<char>>>::do_get(class std::<char,struct std::<char>>,class std::<char,struct std::<char>>,class std::ios_base &__ptr64 ,int &__ptr64 ,unsigned int &__ptr64 )const __ptr64 
?do_get@?$num_get@DV?$istreambuf_iterator@DU?$char_traits@D@std@@@std@@@std@@MEBA?AV?$istreambuf_iterator@DU?$char_traits@D@std@@@2@V32@0AEAVios_base@2@AEAHAEAI@Z
; protected: virtual class std::<char,struct std::<char>> __cdecl std::<char,class std::<char,struct std::<char>>>::do_get(class std::<char,struct std::<char>>,class std::<char,struct std::<char>>,class std::ios_base &__ptr64 ,int &__ptr64 ,long &__ptr64 )const __ptr64 
?do_get@?$num_get@DV?$istreambuf_iterator@DU?$char_traits@D@std@@@std@@@std@@MEBA?AV?$istreambuf_iterator@DU?$char_traits@D@std@@@2@V32@0AEAVios_base@2@AEAHAEAJ@Z
; protected: virtual class std::<char,struct std::<char>> __cdecl std::<char,class std::<char,struct std::<char>>>::do_get(class std::<char,struct std::<char>>,class std::<char,struct std::<char>>,class std::ios_base &__ptr64 ,int &__ptr64 ,unsigned long &__ptr64 )const __ptr64 
?do_get@?$num_get@DV?$istreambuf_iterator@DU?$char_traits@D@std@@@std@@@std@@MEBA?AV?$istreambuf_iterator@DU?$char_traits@D@std@@@2@V32@0AEAVios_base@2@AEAHAEAK@Z
; protected: virtual class std::<char,struct std::<char>> __cdecl std::<char,class std::<char,struct std::<char>>>::do_get(class std::<char,struct std::<char>>,class std::<char,struct std::<char>>,class std::ios_base &__ptr64 ,int &__ptr64 ,float &__ptr64 )const __ptr64 
?do_get@?$num_get@DV?$istreambuf_iterator@DU?$char_traits@D@std@@@std@@@std@@MEBA?AV?$istreambuf_iterator@DU?$char_traits@D@std@@@2@V32@0AEAVios_base@2@AEAHAEAM@Z
; protected: virtual class std::<char,struct std::<char>> __cdecl std::<char,class std::<char,struct std::<char>>>::do_get(class std::<char,struct std::<char>>,class std::<char,struct std::<char>>,class std::ios_base &__ptr64 ,int &__ptr64 ,double &__ptr64 )const __ptr64 
?do_get@?$num_get@DV?$istreambuf_iterator@DU?$char_traits@D@std@@@std@@@std@@MEBA?AV?$istreambuf_iterator@DU?$char_traits@D@std@@@2@V32@0AEAVios_base@2@AEAHAEAN@Z
; protected: virtual class std::<char,struct std::<char>> __cdecl std::<char,class std::<char,struct std::<char>>>::do_get(class std::<char,struct std::<char>>,class std::<char,struct std::<char>>,class std::ios_base &__ptr64 ,int &__ptr64 ,long double &__ptr64 )const __ptr64 
?do_get@?$num_get@DV?$istreambuf_iterator@DU?$char_traits@D@std@@@std@@@std@@MEBA?AV?$istreambuf_iterator@DU?$char_traits@D@std@@@2@V32@0AEAVios_base@2@AEAHAEAO@Z
; protected: virtual class std::<char,struct std::<char>> __cdecl std::<char,class std::<char,struct std::<char>>>::do_get(class std::<char,struct std::<char>>,class std::<char,struct std::<char>>,class std::ios_base &__ptr64 ,int &__ptr64 ,void *__ptr64 &__ptr64 )const __ptr64 
?do_get@?$num_get@DV?$istreambuf_iterator@DU?$char_traits@D@std@@@std@@@std@@MEBA?AV?$istreambuf_iterator@DU?$char_traits@D@std@@@2@V32@0AEAVios_base@2@AEAHAEAPEAX@Z
; protected: virtual class std::<char,struct std::<char>> __cdecl std::<char,class std::<char,struct std::<char>>>::do_get(class std::<char,struct std::<char>>,class std::<char,struct std::<char>>,class std::ios_base &__ptr64 ,int &__ptr64 ,__int64 &__ptr64 )const __ptr64 
?do_get@?$num_get@DV?$istreambuf_iterator@DU?$char_traits@D@std@@@std@@@std@@MEBA?AV?$istreambuf_iterator@DU?$char_traits@D@std@@@2@V32@0AEAVios_base@2@AEAHAEA_J@Z
; protected: virtual class std::<char,struct std::<char>> __cdecl std::<char,class std::<char,struct std::<char>>>::do_get(class std::<char,struct std::<char>>,class std::<char,struct std::<char>>,class std::ios_base &__ptr64 ,int &__ptr64 ,unsigned __int64 &__ptr64 )const __ptr64 
?do_get@?$num_get@DV?$istreambuf_iterator@DU?$char_traits@D@std@@@std@@@std@@MEBA?AV?$istreambuf_iterator@DU?$char_traits@D@std@@@2@V32@0AEAVios_base@2@AEAHAEA_K@Z
; protected: virtual class std::<char,struct std::<char>> __cdecl std::<char,class std::<char,struct std::<char>>>::do_get(class std::<char,struct std::<char>>,class std::<char,struct std::<char>>,class std::ios_base &__ptr64 ,int &__ptr64 ,bool &__ptr64 )const __ptr64 
?do_get@?$num_get@DV?$istreambuf_iterator@DU?$char_traits@D@std@@@std@@@std@@MEBA?AV?$istreambuf_iterator@DU?$char_traits@D@std@@@2@V32@0AEAVios_base@2@AEAHAEA_N@Z
; protected: virtual class std::<unsigned short,struct std::<unsigned short>> __cdecl std::<unsigned short,class std::<unsigned short,struct std::<unsigned short>>>::do_get(class std::<unsigned short,struct std::<unsigned short>>,class std::<unsigned short,struct std::<unsigned short>>,class std::ios_base &__ptr64 ,int &__ptr64 ,unsigned short &__ptr64 )const __ptr64 
?do_get@?$num_get@GV?$istreambuf_iterator@GU?$char_traits@G@std@@@std@@@std@@MEBA?AV?$istreambuf_iterator@GU?$char_traits@G@std@@@2@V32@0AEAVios_base@2@AEAHAEAG@Z
; protected: virtual class std::<unsigned short,struct std::<unsigned short>> __cdecl std::<unsigned short,class std::<unsigned short,struct std::<unsigned short>>>::do_get(class std::<unsigned short,struct std::<unsigned short>>,class std::<unsigned short,struct std::<unsigned short>>,class std::ios_base &__ptr64 ,int &__ptr64 ,unsigned int &__ptr64 )const __ptr64 
?do_get@?$num_get@GV?$istreambuf_iterator@GU?$char_traits@G@std@@@std@@@std@@MEBA?AV?$istreambuf_iterator@GU?$char_traits@G@std@@@2@V32@0AEAVios_base@2@AEAHAEAI@Z
; protected: virtual class std::<unsigned short,struct std::<unsigned short>> __cdecl std::<unsigned short,class std::<unsigned short,struct std::<unsigned short>>>::do_get(class std::<unsigned short,struct std::<unsigned short>>,class std::<unsigned short,struct std::<unsigned short>>,class std::ios_base &__ptr64 ,int &__ptr64 ,long &__ptr64 )const __ptr64 
?do_get@?$num_get@GV?$istreambuf_iterator@GU?$char_traits@G@std@@@std@@@std@@MEBA?AV?$istreambuf_iterator@GU?$char_traits@G@std@@@2@V32@0AEAVios_base@2@AEAHAEAJ@Z
; protected: virtual class std::<unsigned short,struct std::<unsigned short>> __cdecl std::<unsigned short,class std::<unsigned short,struct std::<unsigned short>>>::do_get(class std::<unsigned short,struct std::<unsigned short>>,class std::<unsigned short,struct std::<unsigned short>>,class std::ios_base &__ptr64 ,int &__ptr64 ,unsigned long &__ptr64 )const __ptr64 
?do_get@?$num_get@GV?$istreambuf_iterator@GU?$char_traits@G@std@@@std@@@std@@MEBA?AV?$istreambuf_iterator@GU?$char_traits@G@std@@@2@V32@0AEAVios_base@2@AEAHAEAK@Z
; protected: virtual class std::<unsigned short,struct std::<unsigned short>> __cdecl std::<unsigned short,class std::<unsigned short,struct std::<unsigned short>>>::do_get(class std::<unsigned short,struct std::<unsigned short>>,class std::<unsigned short,struct std::<unsigned short>>,class std::ios_base &__ptr64 ,int &__ptr64 ,float &__ptr64 )const __ptr64 
?do_get@?$num_get@GV?$istreambuf_iterator@GU?$char_traits@G@std@@@std@@@std@@MEBA?AV?$istreambuf_iterator@GU?$char_traits@G@std@@@2@V32@0AEAVios_base@2@AEAHAEAM@Z
; protected: virtual class std::<unsigned short,struct std::<unsigned short>> __cdecl std::<unsigned short,class std::<unsigned short,struct std::<unsigned short>>>::do_get(class std::<unsigned short,struct std::<unsigned short>>,class std::<unsigned short,struct std::<unsigned short>>,class std::ios_base &__ptr64 ,int &__ptr64 ,double &__ptr64 )const __ptr64 
?do_get@?$num_get@GV?$istreambuf_iterator@GU?$char_traits@G@std@@@std@@@std@@MEBA?AV?$istreambuf_iterator@GU?$char_traits@G@std@@@2@V32@0AEAVios_base@2@AEAHAEAN@Z
; protected: virtual class std::<unsigned short,struct std::<unsigned short>> __cdecl std::<unsigned short,class std::<unsigned short,struct std::<unsigned short>>>::do_get(class std::<unsigned short,struct std::<unsigned short>>,class std::<unsigned short,struct std::<unsigned short>>,class std::ios_base &__ptr64 ,int &__ptr64 ,long double &__ptr64 )const __ptr64 
?do_get@?$num_get@GV?$istreambuf_iterator@GU?$char_traits@G@std@@@std@@@std@@MEBA?AV?$istreambuf_iterator@GU?$char_traits@G@std@@@2@V32@0AEAVios_base@2@AEAHAEAO@Z
; protected: virtual class std::<unsigned short,struct std::<unsigned short>> __cdecl std::<unsigned short,class std::<unsigned short,struct std::<unsigned short>>>::do_get(class std::<unsigned short,struct std::<unsigned short>>,class std::<unsigned short,struct std::<unsigned short>>,class std::ios_base &__ptr64 ,int &__ptr64 ,void *__ptr64 &__ptr64 )const __ptr64 
?do_get@?$num_get@GV?$istreambuf_iterator@GU?$char_traits@G@std@@@std@@@std@@MEBA?AV?$istreambuf_iterator@GU?$char_traits@G@std@@@2@V32@0AEAVios_base@2@AEAHAEAPEAX@Z
; protected: virtual class std::<unsigned short,struct std::<unsigned short>> __cdecl std::<unsigned short,class std::<unsigned short,struct std::<unsigned short>>>::do_get(class std::<unsigned short,struct std::<unsigned short>>,class std::<unsigned short,struct std::<unsigned short>>,class std::ios_base &__ptr64 ,int &__ptr64 ,__int64 &__ptr64 )const __ptr64 
?do_get@?$num_get@GV?$istreambuf_iterator@GU?$char_traits@G@std@@@std@@@std@@MEBA?AV?$istreambuf_iterator@GU?$char_traits@G@std@@@2@V32@0AEAVios_base@2@AEAHAEA_J@Z
; protected: virtual class std::<unsigned short,struct std::<unsigned short>> __cdecl std::<unsigned short,class std::<unsigned short,struct std::<unsigned short>>>::do_get(class std::<unsigned short,struct std::<unsigned short>>,class std::<unsigned short,struct std::<unsigned short>>,class std::ios_base &__ptr64 ,int &__ptr64 ,unsigned __int64 &__ptr64 )const __ptr64 
?do_get@?$num_get@GV?$istreambuf_iterator@GU?$char_traits@G@std@@@std@@@std@@MEBA?AV?$istreambuf_iterator@GU?$char_traits@G@std@@@2@V32@0AEAVios_base@2@AEAHAEA_K@Z
; protected: virtual class std::<unsigned short,struct std::<unsigned short>> __cdecl std::<unsigned short,class std::<unsigned short,struct std::<unsigned short>>>::do_get(class std::<unsigned short,struct std::<unsigned short>>,class std::<unsigned short,struct std::<unsigned short>>,class std::ios_base &__ptr64 ,int &__ptr64 ,bool &__ptr64 )const __ptr64 
?do_get@?$num_get@GV?$istreambuf_iterator@GU?$char_traits@G@std@@@std@@@std@@MEBA?AV?$istreambuf_iterator@GU?$char_traits@G@std@@@2@V32@0AEAVios_base@2@AEAHAEA_N@Z
; protected: virtual class std::<char,struct std::<char>> __cdecl std::<char,class std::<char,struct std::<char>>>::do_get_date(class std::<char,struct std::<char>>,class std::<char,struct std::<char>>,class std::ios_base &__ptr64 ,int &__ptr64 ,struct tm *__ptr64)const __ptr64 
?do_get_date@?$time_get@DV?$istreambuf_iterator@DU?$char_traits@D@std@@@std@@@std@@MEBA?AV?$istreambuf_iterator@DU?$char_traits@D@std@@@2@V32@0AEAVios_base@2@AEAHPEAUtm@@@Z
; protected: virtual class std::<unsigned short,struct std::<unsigned short>> __cdecl std::<unsigned short,class std::<unsigned short,struct std::<unsigned short>>>::do_get_date(class std::<unsigned short,struct std::<unsigned short>>,class std::<unsigned short,struct std::<unsigned short>>,class std::ios_base &__ptr64 ,int &__ptr64 ,struct tm *__ptr64)const __ptr64 
?do_get_date@?$time_get@GV?$istreambuf_iterator@GU?$char_traits@G@std@@@std@@@std@@MEBA?AV?$istreambuf_iterator@GU?$char_traits@G@std@@@2@V32@0AEAVios_base@2@AEAHPEAUtm@@@Z
; protected: virtual class std::<char,struct std::<char>> __cdecl std::<char,class std::<char,struct std::<char>>>::do_get_monthname(class std::<char,struct std::<char>>,class std::<char,struct std::<char>>,class std::ios_base &__ptr64 ,int &__ptr64 ,struct tm *__ptr64)const __ptr64 
?do_get_monthname@?$time_get@DV?$istreambuf_iterator@DU?$char_traits@D@std@@@std@@@std@@MEBA?AV?$istreambuf_iterator@DU?$char_traits@D@std@@@2@V32@0AEAVios_base@2@AEAHPEAUtm@@@Z
; protected: virtual class std::<unsigned short,struct std::<unsigned short>> __cdecl std::<unsigned short,class std::<unsigned short,struct std::<unsigned short>>>::do_get_monthname(class std::<unsigned short,struct std::<unsigned short>>,class std::<unsigned short,struct std::<unsigned short>>,class std::ios_base &__ptr64 ,int &__ptr64 ,struct tm *__ptr64)const __ptr64 
?do_get_monthname@?$time_get@GV?$istreambuf_iterator@GU?$char_traits@G@std@@@std@@@std@@MEBA?AV?$istreambuf_iterator@GU?$char_traits@G@std@@@2@V32@0AEAVios_base@2@AEAHPEAUtm@@@Z
; protected: virtual class std::<char,struct std::<char>> __cdecl std::<char,class std::<char,struct std::<char>>>::do_get_time(class std::<char,struct std::<char>>,class std::<char,struct std::<char>>,class std::ios_base &__ptr64 ,int &__ptr64 ,struct tm *__ptr64)const __ptr64 
?do_get_time@?$time_get@DV?$istreambuf_iterator@DU?$char_traits@D@std@@@std@@@std@@MEBA?AV?$istreambuf_iterator@DU?$char_traits@D@std@@@2@V32@0AEAVios_base@2@AEAHPEAUtm@@@Z
; protected: virtual class std::<unsigned short,struct std::<unsigned short>> __cdecl std::<unsigned short,class std::<unsigned short,struct std::<unsigned short>>>::do_get_time(class std::<unsigned short,struct std::<unsigned short>>,class std::<unsigned short,struct std::<unsigned short>>,class std::ios_base &__ptr64 ,int &__ptr64 ,struct tm *__ptr64)const __ptr64 
?do_get_time@?$time_get@GV?$istreambuf_iterator@GU?$char_traits@G@std@@@std@@@std@@MEBA?AV?$istreambuf_iterator@GU?$char_traits@G@std@@@2@V32@0AEAVios_base@2@AEAHPEAUtm@@@Z
; protected: virtual class std::<char,struct std::<char>> __cdecl std::<char,class std::<char,struct std::<char>>>::do_get_weekday(class std::<char,struct std::<char>>,class std::<char,struct std::<char>>,class std::ios_base &__ptr64 ,int &__ptr64 ,struct tm *__ptr64)const __ptr64 
?do_get_weekday@?$time_get@DV?$istreambuf_iterator@DU?$char_traits@D@std@@@std@@@std@@MEBA?AV?$istreambuf_iterator@DU?$char_traits@D@std@@@2@V32@0AEAVios_base@2@AEAHPEAUtm@@@Z
; protected: virtual class std::<unsigned short,struct std::<unsigned short>> __cdecl std::<unsigned short,class std::<unsigned short,struct std::<unsigned short>>>::do_get_weekday(class std::<unsigned short,struct std::<unsigned short>>,class std::<unsigned short,struct std::<unsigned short>>,class std::ios_base &__ptr64 ,int &__ptr64 ,struct tm *__ptr64)const __ptr64 
?do_get_weekday@?$time_get@GV?$istreambuf_iterator@GU?$char_traits@G@std@@@std@@@std@@MEBA?AV?$istreambuf_iterator@GU?$char_traits@G@std@@@2@V32@0AEAVios_base@2@AEAHPEAUtm@@@Z
; protected: virtual class std::<char,struct std::<char>> __cdecl std::<char,class std::<char,struct std::<char>>>::do_get_year(class std::<char,struct std::<char>>,class std::<char,struct std::<char>>,class std::ios_base &__ptr64 ,int &__ptr64 ,struct tm *__ptr64)const __ptr64 
?do_get_year@?$time_get@DV?$istreambuf_iterator@DU?$char_traits@D@std@@@std@@@std@@MEBA?AV?$istreambuf_iterator@DU?$char_traits@D@std@@@2@V32@0AEAVios_base@2@AEAHPEAUtm@@@Z
; protected: virtual class std::<unsigned short,struct std::<unsigned short>> __cdecl std::<unsigned short,class std::<unsigned short,struct std::<unsigned short>>>::do_get_year(class std::<unsigned short,struct std::<unsigned short>>,class std::<unsigned short,struct std::<unsigned short>>,class std::ios_base &__ptr64 ,int &__ptr64 ,struct tm *__ptr64)const __ptr64 
?do_get_year@?$time_get@GV?$istreambuf_iterator@GU?$char_traits@G@std@@@std@@@std@@MEBA?AV?$istreambuf_iterator@GU?$char_traits@G@std@@@2@V32@0AEAVios_base@2@AEAHPEAUtm@@@Z
; protected: virtual class std::<char,struct std::<char>,class std::<char>> __cdecl std::<char>::do_grouping(void)const __ptr64 
?do_grouping@?$_Mpunct@D@std@@MEBA?AV?$basic_string@DU?$char_traits@D@std@@V?$allocator@D@2@@2@XZ
; protected: virtual class std::<char,struct std::<char>,class std::<char>> __cdecl std::<unsigned short>::do_grouping(void)const __ptr64 
?do_grouping@?$_Mpunct@G@std@@MEBA?AV?$basic_string@DU?$char_traits@D@std@@V?$allocator@D@2@@2@XZ
; protected: virtual class std::<char,struct std::<char>,class std::<char>> __cdecl std::<char>::do_grouping(void)const __ptr64 
?do_grouping@?$numpunct@D@std@@MEBA?AV?$basic_string@DU?$char_traits@D@std@@V?$allocator@D@2@@2@XZ
; protected: virtual class std::<char,struct std::<char>,class std::<char>> __cdecl std::<unsigned short>::do_grouping(void)const __ptr64 
?do_grouping@?$numpunct@G@std@@MEBA?AV?$basic_string@DU?$char_traits@D@std@@V?$allocator@D@2@@2@XZ
; protected: virtual long __cdecl std::<char>::do_hash(char const *__ptr64,char const *__ptr64)const __ptr64 
?do_hash@?$collate@D@std@@MEBAJPEBD0@Z
; protected: virtual long __cdecl std::<unsigned short>::do_hash(unsigned short const *__ptr64,unsigned short const *__ptr64)const __ptr64 
?do_hash@?$collate@G@std@@MEBAJPEBG0@Z
; protected: virtual int __cdecl std::<char,char,int>::do_in(int &__ptr64 ,char const *__ptr64,char const *__ptr64,char const *__ptr64 &__ptr64 ,char *__ptr64,char *__ptr64,char *__ptr64 &__ptr64 )const __ptr64 
?do_in@?$codecvt@DDH@std@@MEBAHAEAHPEBD1AEAPEBDPEAD3AEAPEAD@Z
; protected: virtual int __cdecl std::<unsigned short,char,int>::do_in(int &__ptr64 ,char const *__ptr64,char const *__ptr64,char const *__ptr64 &__ptr64 ,unsigned short *__ptr64,unsigned short *__ptr64,unsigned short *__ptr64 &__ptr64 )const __ptr64 
?do_in@?$codecvt@GDH@std@@MEBAHAEAHPEBD1AEAPEBDPEAG3AEAPEAG@Z
; protected: virtual unsigned short const *__ptr64 __cdecl std::<unsigned short>::do_is(unsigned short const *__ptr64,unsigned short const *__ptr64,short *__ptr64)const __ptr64 
?do_is@?$ctype@G@std@@MEBAPEBGPEBG0PEAF@Z
; protected: virtual bool __cdecl std::<unsigned short>::do_is(short,unsigned short)const __ptr64 
?do_is@?$ctype@G@std@@MEBA_NFG@Z
; protected: virtual int __cdecl std::<char,char,int>::do_length(int &__ptr64 ,char const *__ptr64,char const *__ptr64,unsigned __int64)const __ptr64 
?do_length@?$codecvt@DDH@std@@MEBAHAEAHPEBD1_K@Z
; protected: virtual int __cdecl std::<unsigned short,char,int>::do_length(int &__ptr64 ,unsigned short const *__ptr64,unsigned short const *__ptr64,unsigned __int64)const __ptr64 
?do_length@?$codecvt@GDH@std@@MEBAHAEAHPEBG1_K@Z
; protected: virtual int __cdecl std::<unsigned short,char,int>::do_max_length(void)const __ptr64 
?do_max_length@?$codecvt@GDH@std@@MEBAHXZ
; protected: virtual int __cdecl std::codecvt_base::do_max_length(void)const __ptr64 
?do_max_length@codecvt_base@std@@MEBAHXZ
; protected: virtual char __cdecl std::<unsigned short>::do_narrow(unsigned short,char)const __ptr64 
?do_narrow@?$ctype@G@std@@MEBADGD@Z
; protected: virtual unsigned short const *__ptr64 __cdecl std::<unsigned short>::do_narrow(unsigned short const *__ptr64,unsigned short const *__ptr64,char,char *__ptr64)const __ptr64 
?do_narrow@?$ctype@G@std@@MEBAPEBGPEBG0DPEAD@Z
; protected: virtual struct std::money_base::pattern __cdecl std::<char>::do_neg_format(void)const __ptr64 
?do_neg_format@?$_Mpunct@D@std@@MEBA?AUpattern@money_base@2@XZ
; protected: virtual struct std::money_base::pattern __cdecl std::<unsigned short>::do_neg_format(void)const __ptr64 
?do_neg_format@?$_Mpunct@G@std@@MEBA?AUpattern@money_base@2@XZ
; protected: virtual class std::<char,struct std::<char>,class std::<char>> __cdecl std::<char>::do_negative_sign(void)const __ptr64 
?do_negative_sign@?$_Mpunct@D@std@@MEBA?AV?$basic_string@DU?$char_traits@D@std@@V?$allocator@D@2@@2@XZ
; protected: virtual class std::<unsigned short,struct std::<unsigned short>,class std::<unsigned short>> __cdecl std::<unsigned short>::do_negative_sign(void)const __ptr64 
?do_negative_sign@?$_Mpunct@G@std@@MEBA?AV?$basic_string@GU?$char_traits@G@std@@V?$allocator@G@2@@2@XZ
; protected: virtual int __cdecl std::<char>::do_open(class std::<char,struct std::<char>,class std::<char>> const &__ptr64 ,class std::locale const &__ptr64 )const __ptr64 
?do_open@?$messages@D@std@@MEBAHAEBV?$basic_string@DU?$char_traits@D@std@@V?$allocator@D@2@@2@AEBVlocale@2@@Z
; protected: virtual int __cdecl std::<unsigned short>::do_open(class std::<char,struct std::<char>,class std::<char>> const &__ptr64 ,class std::locale const &__ptr64 )const __ptr64 
?do_open@?$messages@G@std@@MEBAHAEBV?$basic_string@DU?$char_traits@D@std@@V?$allocator@D@2@@2@AEBVlocale@2@@Z
; protected: virtual int __cdecl std::<char,char,int>::do_out(int &__ptr64 ,char const *__ptr64,char const *__ptr64,char const *__ptr64 &__ptr64 ,char *__ptr64,char *__ptr64,char *__ptr64 &__ptr64 )const __ptr64 
?do_out@?$codecvt@DDH@std@@MEBAHAEAHPEBD1AEAPEBDPEAD3AEAPEAD@Z
; protected: virtual int __cdecl std::<unsigned short,char,int>::do_out(int &__ptr64 ,unsigned short const *__ptr64,unsigned short const *__ptr64,unsigned short const *__ptr64 &__ptr64 ,char *__ptr64,char *__ptr64,char *__ptr64 &__ptr64 )const __ptr64 
?do_out@?$codecvt@GDH@std@@MEBAHAEAHPEBG1AEAPEBGPEAD3AEAPEAD@Z
; protected: virtual struct std::money_base::pattern __cdecl std::<char>::do_pos_format(void)const __ptr64 
?do_pos_format@?$_Mpunct@D@std@@MEBA?AUpattern@money_base@2@XZ
; protected: virtual struct std::money_base::pattern __cdecl std::<unsigned short>::do_pos_format(void)const __ptr64 
?do_pos_format@?$_Mpunct@G@std@@MEBA?AUpattern@money_base@2@XZ
; protected: virtual class std::<char,struct std::<char>,class std::<char>> __cdecl std::<char>::do_positive_sign(void)const __ptr64 
?do_positive_sign@?$_Mpunct@D@std@@MEBA?AV?$basic_string@DU?$char_traits@D@std@@V?$allocator@D@2@@2@XZ
; protected: virtual class std::<unsigned short,struct std::<unsigned short>,class std::<unsigned short>> __cdecl std::<unsigned short>::do_positive_sign(void)const __ptr64 
?do_positive_sign@?$_Mpunct@G@std@@MEBA?AV?$basic_string@GU?$char_traits@G@std@@V?$allocator@G@2@@2@XZ
; protected: virtual class std::<char,struct std::<char>> __cdecl std::<char,class std::<char,struct std::<char>>>::do_put(class std::<char,struct std::<char>>,bool,class std::ios_base &__ptr64 ,char,class std::<char,struct std::<char>,class std::<char>> const &__ptr64 )const __ptr64 
?do_put@?$money_put@DV?$ostreambuf_iterator@DU?$char_traits@D@std@@@std@@@std@@MEBA?AV?$ostreambuf_iterator@DU?$char_traits@D@std@@@2@V32@_NAEAVios_base@2@DAEBV?$basic_string@DU?$char_traits@D@std@@V?$allocator@D@2@@2@@Z
; protected: virtual class std::<char,struct std::<char>> __cdecl std::<char,class std::<char,struct std::<char>>>::do_put(class std::<char,struct std::<char>>,bool,class std::ios_base &__ptr64 ,char,long double)const __ptr64 
?do_put@?$money_put@DV?$ostreambuf_iterator@DU?$char_traits@D@std@@@std@@@std@@MEBA?AV?$ostreambuf_iterator@DU?$char_traits@D@std@@@2@V32@_NAEAVios_base@2@DO@Z
; protected: virtual class std::<unsigned short,struct std::<unsigned short>> __cdecl std::<unsigned short,class std::<unsigned short,struct std::<unsigned short>>>::do_put(class std::<unsigned short,struct std::<unsigned short>>,bool,class std::ios_base &__ptr64 ,unsigned short,class std::<unsigned short,struct std::<unsigned short>,class std::<unsigned short>> const &__ptr64 )const __ptr64 
?do_put@?$money_put@GV?$ostreambuf_iterator@GU?$char_traits@G@std@@@std@@@std@@MEBA?AV?$ostreambuf_iterator@GU?$char_traits@G@std@@@2@V32@_NAEAVios_base@2@GAEBV?$basic_string@GU?$char_traits@G@std@@V?$allocator@G@2@@2@@Z
; protected: virtual class std::<unsigned short,struct std::<unsigned short>> __cdecl std::<unsigned short,class std::<unsigned short,struct std::<unsigned short>>>::do_put(class std::<unsigned short,struct std::<unsigned short>>,bool,class std::ios_base &__ptr64 ,unsigned short,long double)const __ptr64 
?do_put@?$money_put@GV?$ostreambuf_iterator@GU?$char_traits@G@std@@@std@@@std@@MEBA?AV?$ostreambuf_iterator@GU?$char_traits@G@std@@@2@V32@_NAEAVios_base@2@GO@Z
; protected: virtual class std::<char,struct std::<char>> __cdecl std::<char,class std::<char,struct std::<char>>>::do_put(class std::<char,struct std::<char>>,class std::ios_base &__ptr64 ,char,long)const __ptr64 
?do_put@?$num_put@DV?$ostreambuf_iterator@DU?$char_traits@D@std@@@std@@@std@@MEBA?AV?$ostreambuf_iterator@DU?$char_traits@D@std@@@2@V32@AEAVios_base@2@DJ@Z
; protected: virtual class std::<char,struct std::<char>> __cdecl std::<char,class std::<char,struct std::<char>>>::do_put(class std::<char,struct std::<char>>,class std::ios_base &__ptr64 ,char,unsigned long)const __ptr64 
?do_put@?$num_put@DV?$ostreambuf_iterator@DU?$char_traits@D@std@@@std@@@std@@MEBA?AV?$ostreambuf_iterator@DU?$char_traits@D@std@@@2@V32@AEAVios_base@2@DK@Z
; protected: virtual class std::<char,struct std::<char>> __cdecl std::<char,class std::<char,struct std::<char>>>::do_put(class std::<char,struct std::<char>>,class std::ios_base &__ptr64 ,char,double)const __ptr64 
?do_put@?$num_put@DV?$ostreambuf_iterator@DU?$char_traits@D@std@@@std@@@std@@MEBA?AV?$ostreambuf_iterator@DU?$char_traits@D@std@@@2@V32@AEAVios_base@2@DN@Z
; protected: virtual class std::<char,struct std::<char>> __cdecl std::<char,class std::<char,struct std::<char>>>::do_put(class std::<char,struct std::<char>>,class std::ios_base &__ptr64 ,char,long double)const __ptr64 
?do_put@?$num_put@DV?$ostreambuf_iterator@DU?$char_traits@D@std@@@std@@@std@@MEBA?AV?$ostreambuf_iterator@DU?$char_traits@D@std@@@2@V32@AEAVios_base@2@DO@Z
; protected: virtual class std::<char,struct std::<char>> __cdecl std::<char,class std::<char,struct std::<char>>>::do_put(class std::<char,struct std::<char>>,class std::ios_base &__ptr64 ,char,void const *__ptr64)const __ptr64 
?do_put@?$num_put@DV?$ostreambuf_iterator@DU?$char_traits@D@std@@@std@@@std@@MEBA?AV?$ostreambuf_iterator@DU?$char_traits@D@std@@@2@V32@AEAVios_base@2@DPEBX@Z
; protected: virtual class std::<char,struct std::<char>> __cdecl std::<char,class std::<char,struct std::<char>>>::do_put(class std::<char,struct std::<char>>,class std::ios_base &__ptr64 ,char,__int64)const __ptr64 
?do_put@?$num_put@DV?$ostreambuf_iterator@DU?$char_traits@D@std@@@std@@@std@@MEBA?AV?$ostreambuf_iterator@DU?$char_traits@D@std@@@2@V32@AEAVios_base@2@D_J@Z
; protected: virtual class std::<char,struct std::<char>> __cdecl std::<char,class std::<char,struct std::<char>>>::do_put(class std::<char,struct std::<char>>,class std::ios_base &__ptr64 ,char,unsigned __int64)const __ptr64 
?do_put@?$num_put@DV?$ostreambuf_iterator@DU?$char_traits@D@std@@@std@@@std@@MEBA?AV?$ostreambuf_iterator@DU?$char_traits@D@std@@@2@V32@AEAVios_base@2@D_K@Z
; protected: virtual class std::<char,struct std::<char>> __cdecl std::<char,class std::<char,struct std::<char>>>::do_put(class std::<char,struct std::<char>>,class std::ios_base &__ptr64 ,char,bool)const __ptr64 
?do_put@?$num_put@DV?$ostreambuf_iterator@DU?$char_traits@D@std@@@std@@@std@@MEBA?AV?$ostreambuf_iterator@DU?$char_traits@D@std@@@2@V32@AEAVios_base@2@D_N@Z
; protected: virtual class std::<unsigned short,struct std::<unsigned short>> __cdecl std::<unsigned short,class std::<unsigned short,struct std::<unsigned short>>>::do_put(class std::<unsigned short,struct std::<unsigned short>>,class std::ios_base &__ptr64 ,unsigned short,long)const __ptr64 
?do_put@?$num_put@GV?$ostreambuf_iterator@GU?$char_traits@G@std@@@std@@@std@@MEBA?AV?$ostreambuf_iterator@GU?$char_traits@G@std@@@2@V32@AEAVios_base@2@GJ@Z
; protected: virtual class std::<unsigned short,struct std::<unsigned short>> __cdecl std::<unsigned short,class std::<unsigned short,struct std::<unsigned short>>>::do_put(class std::<unsigned short,struct std::<unsigned short>>,class std::ios_base &__ptr64 ,unsigned short,unsigned long)const __ptr64 
?do_put@?$num_put@GV?$ostreambuf_iterator@GU?$char_traits@G@std@@@std@@@std@@MEBA?AV?$ostreambuf_iterator@GU?$char_traits@G@std@@@2@V32@AEAVios_base@2@GK@Z
; protected: virtual class std::<unsigned short,struct std::<unsigned short>> __cdecl std::<unsigned short,class std::<unsigned short,struct std::<unsigned short>>>::do_put(class std::<unsigned short,struct std::<unsigned short>>,class std::ios_base &__ptr64 ,unsigned short,double)const __ptr64 
?do_put@?$num_put@GV?$ostreambuf_iterator@GU?$char_traits@G@std@@@std@@@std@@MEBA?AV?$ostreambuf_iterator@GU?$char_traits@G@std@@@2@V32@AEAVios_base@2@GN@Z
; protected: virtual class std::<unsigned short,struct std::<unsigned short>> __cdecl std::<unsigned short,class std::<unsigned short,struct std::<unsigned short>>>::do_put(class std::<unsigned short,struct std::<unsigned short>>,class std::ios_base &__ptr64 ,unsigned short,long double)const __ptr64 
?do_put@?$num_put@GV?$ostreambuf_iterator@GU?$char_traits@G@std@@@std@@@std@@MEBA?AV?$ostreambuf_iterator@GU?$char_traits@G@std@@@2@V32@AEAVios_base@2@GO@Z
; protected: virtual class std::<unsigned short,struct std::<unsigned short>> __cdecl std::<unsigned short,class std::<unsigned short,struct std::<unsigned short>>>::do_put(class std::<unsigned short,struct std::<unsigned short>>,class std::ios_base &__ptr64 ,unsigned short,void const *__ptr64)const __ptr64 
?do_put@?$num_put@GV?$ostreambuf_iterator@GU?$char_traits@G@std@@@std@@@std@@MEBA?AV?$ostreambuf_iterator@GU?$char_traits@G@std@@@2@V32@AEAVios_base@2@GPEBX@Z
; protected: virtual class std::<unsigned short,struct std::<unsigned short>> __cdecl std::<unsigned short,class std::<unsigned short,struct std::<unsigned short>>>::do_put(class std::<unsigned short,struct std::<unsigned short>>,class std::ios_base &__ptr64 ,unsigned short,__int64)const __ptr64 
?do_put@?$num_put@GV?$ostreambuf_iterator@GU?$char_traits@G@std@@@std@@@std@@MEBA?AV?$ostreambuf_iterator@GU?$char_traits@G@std@@@2@V32@AEAVios_base@2@G_J@Z
; protected: virtual class std::<unsigned short,struct std::<unsigned short>> __cdecl std::<unsigned short,class std::<unsigned short,struct std::<unsigned short>>>::do_put(class std::<unsigned short,struct std::<unsigned short>>,class std::ios_base &__ptr64 ,unsigned short,unsigned __int64)const __ptr64 
?do_put@?$num_put@GV?$ostreambuf_iterator@GU?$char_traits@G@std@@@std@@@std@@MEBA?AV?$ostreambuf_iterator@GU?$char_traits@G@std@@@2@V32@AEAVios_base@2@G_K@Z
; protected: virtual class std::<unsigned short,struct std::<unsigned short>> __cdecl std::<unsigned short,class std::<unsigned short,struct std::<unsigned short>>>::do_put(class std::<unsigned short,struct std::<unsigned short>>,class std::ios_base &__ptr64 ,unsigned short,bool)const __ptr64 
?do_put@?$num_put@GV?$ostreambuf_iterator@GU?$char_traits@G@std@@@std@@@std@@MEBA?AV?$ostreambuf_iterator@GU?$char_traits@G@std@@@2@V32@AEAVios_base@2@G_N@Z
; protected: virtual class std::<char,struct std::<char>> __cdecl std::<char,class std::<char,struct std::<char>>>::do_put(class std::<char,struct std::<char>>,class std::ios_base &__ptr64 ,struct tm const *__ptr64,char,char)const __ptr64 
?do_put@?$time_put@DV?$ostreambuf_iterator@DU?$char_traits@D@std@@@std@@@std@@MEBA?AV?$ostreambuf_iterator@DU?$char_traits@D@std@@@2@V32@AEAVios_base@2@PEBUtm@@DD@Z
; protected: virtual class std::<unsigned short,struct std::<unsigned short>> __cdecl std::<unsigned short,class std::<unsigned short,struct std::<unsigned short>>>::do_put(class std::<unsigned short,struct std::<unsigned short>>,class std::ios_base &__ptr64 ,struct tm const *__ptr64,char,char)const __ptr64 
?do_put@?$time_put@GV?$ostreambuf_iterator@GU?$char_traits@G@std@@@std@@@std@@MEBA?AV?$ostreambuf_iterator@GU?$char_traits@G@std@@@2@V32@AEAVios_base@2@PEBUtm@@DD@Z
; protected: virtual unsigned short const *__ptr64 __cdecl std::<unsigned short>::do_scan_is(short,unsigned short const *__ptr64,unsigned short const *__ptr64)const __ptr64 
?do_scan_is@?$ctype@G@std@@MEBAPEBGFPEBG0@Z
; protected: virtual unsigned short const *__ptr64 __cdecl std::<unsigned short>::do_scan_not(short,unsigned short const *__ptr64,unsigned short const *__ptr64)const __ptr64 
?do_scan_not@?$ctype@G@std@@MEBAPEBGFPEBG0@Z
; protected: virtual char __cdecl std::<char>::do_thousands_sep(void)const __ptr64 
?do_thousands_sep@?$_Mpunct@D@std@@MEBADXZ
; protected: virtual unsigned short __cdecl std::<unsigned short>::do_thousands_sep(void)const __ptr64 
?do_thousands_sep@?$_Mpunct@G@std@@MEBAGXZ
; protected: virtual char __cdecl std::<char>::do_thousands_sep(void)const __ptr64 
?do_thousands_sep@?$numpunct@D@std@@MEBADXZ
; protected: virtual unsigned short __cdecl std::<unsigned short>::do_thousands_sep(void)const __ptr64 
?do_thousands_sep@?$numpunct@G@std@@MEBAGXZ
; protected: virtual char __cdecl std::<char>::do_tolower(char)const __ptr64 
?do_tolower@?$ctype@D@std@@MEBADD@Z
; protected: virtual char const *__ptr64 __cdecl std::<char>::do_tolower(char *__ptr64,char const *__ptr64)const __ptr64 
?do_tolower@?$ctype@D@std@@MEBAPEBDPEADPEBD@Z
; protected: virtual unsigned short __cdecl std::<unsigned short>::do_tolower(unsigned short)const __ptr64 
?do_tolower@?$ctype@G@std@@MEBAGG@Z
; protected: virtual unsigned short const *__ptr64 __cdecl std::<unsigned short>::do_tolower(unsigned short *__ptr64,unsigned short const *__ptr64)const __ptr64 
?do_tolower@?$ctype@G@std@@MEBAPEBGPEAGPEBG@Z
; protected: virtual char __cdecl std::<char>::do_toupper(char)const __ptr64 
?do_toupper@?$ctype@D@std@@MEBADD@Z
; protected: virtual char const *__ptr64 __cdecl std::<char>::do_toupper(char *__ptr64,char const *__ptr64)const __ptr64 
?do_toupper@?$ctype@D@std@@MEBAPEBDPEADPEBD@Z
; protected: virtual unsigned short __cdecl std::<unsigned short>::do_toupper(unsigned short)const __ptr64 
?do_toupper@?$ctype@G@std@@MEBAGG@Z
; protected: virtual unsigned short const *__ptr64 __cdecl std::<unsigned short>::do_toupper(unsigned short *__ptr64,unsigned short const *__ptr64)const __ptr64 
?do_toupper@?$ctype@G@std@@MEBAPEBGPEAGPEBG@Z
; protected: virtual class std::<char,struct std::<char>,class std::<char>> __cdecl std::<char>::do_transform(char const *__ptr64,char const *__ptr64)const __ptr64 
?do_transform@?$collate@D@std@@MEBA?AV?$basic_string@DU?$char_traits@D@std@@V?$allocator@D@2@@2@PEBD0@Z
; protected: virtual class std::<unsigned short,struct std::<unsigned short>,class std::<unsigned short>> __cdecl std::<unsigned short>::do_transform(unsigned short const *__ptr64,unsigned short const *__ptr64)const __ptr64 
?do_transform@?$collate@G@std@@MEBA?AV?$basic_string@GU?$char_traits@G@std@@V?$allocator@G@2@@2@PEBG0@Z
; protected: virtual class std::<char,struct std::<char>,class std::<char>> __cdecl std::<char>::do_truename(void)const __ptr64 
?do_truename@?$numpunct@D@std@@MEBA?AV?$basic_string@DU?$char_traits@D@std@@V?$allocator@D@2@@2@XZ
; protected: virtual class std::<unsigned short,struct std::<unsigned short>,class std::<unsigned short>> __cdecl std::<unsigned short>::do_truename(void)const __ptr64 
?do_truename@?$numpunct@G@std@@MEBA?AV?$basic_string@GU?$char_traits@G@std@@V?$allocator@G@2@@2@XZ
; protected: virtual unsigned short __cdecl std::<unsigned short>::do_widen(char)const __ptr64 
?do_widen@?$ctype@G@std@@MEBAGD@Z
; protected: virtual char const *__ptr64 __cdecl std::<unsigned short>::do_widen(char const *__ptr64,char const *__ptr64,unsigned short *__ptr64)const __ptr64 
?do_widen@?$ctype@G@std@@MEBAPEBDPEBD0PEAG@Z
; protected: char *__ptr64 __cdecl std::<char,struct std::<char>>::eback(void)const __ptr64 
?eback@?$basic_streambuf@DU?$char_traits@D@std@@@std@@IEBAPEADXZ
; protected: unsigned short *__ptr64 __cdecl std::<unsigned short,struct std::<unsigned short>>::eback(void)const __ptr64 
?eback@?$basic_streambuf@GU?$char_traits@G@std@@@std@@IEBAPEAGXZ
; protected: char *__ptr64 __cdecl std::<char,struct std::<char>>::egptr(void)const __ptr64 
?egptr@?$basic_streambuf@DU?$char_traits@D@std@@@std@@IEBAPEADXZ
; protected: unsigned short *__ptr64 __cdecl std::<unsigned short,struct std::<unsigned short>>::egptr(void)const __ptr64 
?egptr@?$basic_streambuf@GU?$char_traits@G@std@@@std@@IEBAPEAGXZ
; public: bool __cdecl std::<char,struct std::<char>,class std::<char>>::empty(void)const __ptr64 
?empty@?$basic_string@DU?$char_traits@D@std@@V?$allocator@D@2@@std@@QEBA_NXZ
; public: bool __cdecl std::<unsigned short,struct std::<unsigned short>,class std::<unsigned short>>::empty(void)const __ptr64 
?empty@?$basic_string@GU?$char_traits@G@std@@V?$allocator@G@2@@std@@QEBA_NXZ
; public: static class std::locale __cdecl std::locale::empty(void)
?empty@locale@std@@SA?AV12@XZ
; public: int __cdecl std::codecvt_base::encoding(void)const __ptr64 
?encoding@codecvt_base@std@@QEBAHXZ
; public: char *__ptr64 __cdecl std::<char,struct std::<char>,class std::<char>>::end(void)__ptr64 
?end@?$basic_string@DU?$char_traits@D@std@@V?$allocator@D@2@@std@@QEAAPEADXZ
; public: char const *__ptr64 __cdecl std::<char,struct std::<char>,class std::<char>>::end(void)const __ptr64 
?end@?$basic_string@DU?$char_traits@D@std@@V?$allocator@D@2@@std@@QEBAPEBDXZ
; public: unsigned short *__ptr64 __cdecl std::<unsigned short,struct std::<unsigned short>,class std::<unsigned short>>::end(void)__ptr64 
?end@?$basic_string@GU?$char_traits@G@std@@V?$allocator@G@2@@std@@QEAAPEAGXZ
; public: unsigned short const *__ptr64 __cdecl std::<unsigned short,struct std::<unsigned short>,class std::<unsigned short>>::end(void)const __ptr64 
?end@?$basic_string@GU?$char_traits@G@std@@V?$allocator@G@2@@std@@QEBAPEBGXZ
; class std::<char,struct std::<char>> &__ptr64 __cdecl std::endl(class std::<char,struct std::<char>> &__ptr64 )
?endl@std@@YAAEAV?$basic_ostream@DU?$char_traits@D@std@@@1@AEAV21@@Z
; class std::<unsigned short,struct std::<unsigned short>> &__ptr64 __cdecl std::endl(class std::<unsigned short,struct std::<unsigned short>> &__ptr64 )
?endl@std@@YAAEAV?$basic_ostream@GU?$char_traits@G@std@@@1@AEAV21@@Z
; class std::<char,struct std::<char>> &__ptr64 __cdecl std::ends(class std::<char,struct std::<char>> &__ptr64 )
?ends@std@@YAAEAV?$basic_ostream@DU?$char_traits@D@std@@@1@AEAV21@@Z
; class std::<unsigned short,struct std::<unsigned short>> &__ptr64 __cdecl std::ends(class std::<unsigned short,struct std::<unsigned short>> &__ptr64 )
?ends@std@@YAAEAV?$basic_ostream@GU?$char_traits@G@std@@@1@AEAV21@@Z
; public: static int __cdecl std::<char>::eof(void)
?eof@?$char_traits@D@std@@SAHXZ
; public: static unsigned short __cdecl std::<unsigned short>::eof(void)
?eof@?$char_traits@G@std@@SAGXZ
; public: bool __cdecl std::ios_base::eof(void)const __ptr64 
?eof@ios_base@std@@QEBA_NXZ
; protected: char *__ptr64 __cdecl std::<char,struct std::<char>>::epptr(void)const __ptr64 
?epptr@?$basic_streambuf@DU?$char_traits@D@std@@@std@@IEBAPEADXZ
; protected: unsigned short *__ptr64 __cdecl std::<unsigned short,struct std::<unsigned short>>::epptr(void)const __ptr64 
?epptr@?$basic_streambuf@GU?$char_traits@G@std@@@std@@IEBAPEAGXZ
; public: static signed char __cdecl std::<signed char>::epsilon(void)
?epsilon@?$numeric_limits@C@std@@SACXZ
; public: static char __cdecl std::<char>::epsilon(void)
?epsilon@?$numeric_limits@D@std@@SADXZ
; public: static unsigned char __cdecl std::<unsigned char>::epsilon(void)
?epsilon@?$numeric_limits@E@std@@SAEXZ
; public: static short __cdecl std::<short>::epsilon(void)
?epsilon@?$numeric_limits@F@std@@SAFXZ
; public: static unsigned short __cdecl std::<unsigned short>::epsilon(void)
?epsilon@?$numeric_limits@G@std@@SAGXZ
; public: static int __cdecl std::<int>::epsilon(void)
?epsilon@?$numeric_limits@H@std@@SAHXZ
; public: static unsigned int __cdecl std::<unsigned int>::epsilon(void)
?epsilon@?$numeric_limits@I@std@@SAIXZ
; public: static long __cdecl std::<long>::epsilon(void)
?epsilon@?$numeric_limits@J@std@@SAJXZ
; public: static unsigned long __cdecl std::<unsigned long>::epsilon(void)
?epsilon@?$numeric_limits@K@std@@SAKXZ
; public: static float __cdecl std::<float>::epsilon(void)
?epsilon@?$numeric_limits@M@std@@SAMXZ
; public: static double __cdecl std::<double>::epsilon(void)
?epsilon@?$numeric_limits@N@std@@SANXZ
; public: static long double __cdecl std::<long double>::epsilon(void)
?epsilon@?$numeric_limits@O@std@@SAOXZ
; public: static bool __cdecl std::<bool>::epsilon(void)
?epsilon@?$numeric_limits@_N@std@@SA_NXZ
; public: static bool __cdecl std::<char>::eq(char const &__ptr64 ,char const &__ptr64 )
?eq@?$char_traits@D@std@@SA_NAEBD0@Z
; public: static bool __cdecl std::<unsigned short>::eq(unsigned short const &__ptr64 ,unsigned short const &__ptr64 )
?eq@?$char_traits@G@std@@SA_NAEBG0@Z
; public: static bool __cdecl std::<char>::eq_int_type(int const &__ptr64 ,int const &__ptr64 )
?eq_int_type@?$char_traits@D@std@@SA_NAEBH0@Z
; public: static bool __cdecl std::<unsigned short>::eq_int_type(unsigned short const &__ptr64 ,unsigned short const &__ptr64 )
?eq_int_type@?$char_traits@G@std@@SA_NAEBG0@Z
; public: class std::<char,struct std::<char>,class std::<char>> &__ptr64 __cdecl std::<char,struct std::<char>,class std::<char>>::erase(unsigned __int64,unsigned __int64)__ptr64 
?erase@?$basic_string@DU?$char_traits@D@std@@V?$allocator@D@2@@std@@QEAAAEAV12@_K0@Z
; public: char *__ptr64 __cdecl std::<char,struct std::<char>,class std::<char>>::erase(char *__ptr64,char *__ptr64)__ptr64 
?erase@?$basic_string@DU?$char_traits@D@std@@V?$allocator@D@2@@std@@QEAAPEADPEAD0@Z
; public: char *__ptr64 __cdecl std::<char,struct std::<char>,class std::<char>>::erase(char *__ptr64)__ptr64 
?erase@?$basic_string@DU?$char_traits@D@std@@V?$allocator@D@2@@std@@QEAAPEADPEAD@Z
; public: class std::<unsigned short,struct std::<unsigned short>,class std::<unsigned short>> &__ptr64 __cdecl std::<unsigned short,struct std::<unsigned short>,class std::<unsigned short>>::erase(unsigned __int64,unsigned __int64)__ptr64 
?erase@?$basic_string@GU?$char_traits@G@std@@V?$allocator@G@2@@std@@QEAAAEAV12@_K0@Z
; public: unsigned short *__ptr64 __cdecl std::<unsigned short,struct std::<unsigned short>,class std::<unsigned short>>::erase(unsigned short *__ptr64,unsigned short *__ptr64)__ptr64 
?erase@?$basic_string@GU?$char_traits@G@std@@V?$allocator@G@2@@std@@QEAAPEAGPEAG0@Z
; public: unsigned short *__ptr64 __cdecl std::<unsigned short,struct std::<unsigned short>,class std::<unsigned short>>::erase(unsigned short *__ptr64)__ptr64 
?erase@?$basic_string@GU?$char_traits@G@std@@V?$allocator@G@2@@std@@QEAAPEAGPEAG@Z
; public: void __cdecl std::ios_base::exceptions(short)__ptr64 
?exceptions@ios_base@std@@QEAAXF@Z
; public: void __cdecl std::ios_base::exceptions(int)__ptr64 
?exceptions@ios_base@std@@QEAAXH@Z
; public: int __cdecl std::ios_base::exceptions(void)const __ptr64 
?exceptions@ios_base@std@@QEBAHXZ
; public: static float __cdecl std::<float>::exp(float)
?exp@?$_Ctr@M@std@@SAMM@Z
; public: static double __cdecl std::<double>::exp(double)
?exp@?$_Ctr@N@std@@SANN@Z
; public: static long double __cdecl std::<long double>::exp(long double)
?exp@?$_Ctr@O@std@@SAOO@Z
; class std::<float> __cdecl std::exp(class std::<float> const &__ptr64 )
?exp@std@@YA?AV?$complex@M@1@AEBV21@@Z
; class std::<double> __cdecl std::exp(class std::<double> const &__ptr64 )
?exp@std@@YA?AV?$complex@N@1@AEBV21@@Z
; class std::<long double> __cdecl std::exp(class std::<long double> const &__ptr64 )
?exp@std@@YA?AV?$complex@O@1@AEBV21@@Z
; public: bool __cdecl std::ios_base::fail(void)const __ptr64 
?fail@ios_base@std@@QEBA_NXZ
; public: class std::<char,struct std::<char>,class std::<char>> __cdecl std::<char>::falsename(void)const __ptr64 
?falsename@?$numpunct@D@std@@QEBA?AV?$basic_string@DU?$char_traits@D@std@@V?$allocator@D@2@@2@XZ
; public: class std::<unsigned short,struct std::<unsigned short>,class std::<unsigned short>> __cdecl std::<unsigned short>::falsename(void)const __ptr64 
?falsename@?$numpunct@G@std@@QEBA?AV?$basic_string@GU?$char_traits@G@std@@V?$allocator@G@2@@2@XZ
; public: char __cdecl std::<char,struct std::<char>>::fill(char)__ptr64 
?fill@?$basic_ios@DU?$char_traits@D@std@@@std@@QEAADD@Z
; public: char __cdecl std::<char,struct std::<char>>::fill(void)const __ptr64 
?fill@?$basic_ios@DU?$char_traits@D@std@@@std@@QEBADXZ
; public: unsigned short __cdecl std::<unsigned short,struct std::<unsigned short>>::fill(unsigned short)__ptr64 
?fill@?$basic_ios@GU?$char_traits@G@std@@@std@@QEAAGG@Z
; public: unsigned short __cdecl std::<unsigned short,struct std::<unsigned short>>::fill(void)const __ptr64 
?fill@?$basic_ios@GU?$char_traits@G@std@@@std@@QEBAGXZ
; public: unsigned __int64 __cdecl std::<char,struct std::<char>,class std::<char>>::find(class std::<char,struct std::<char>,class std::<char>> const &__ptr64 ,unsigned __int64)const __ptr64 
?find@?$basic_string@DU?$char_traits@D@std@@V?$allocator@D@2@@std@@QEBA_KAEBV12@_K@Z
; public: unsigned __int64 __cdecl std::<char,struct std::<char>,class std::<char>>::find(char,unsigned __int64)const __ptr64 
?find@?$basic_string@DU?$char_traits@D@std@@V?$allocator@D@2@@std@@QEBA_KD_K@Z
; public: unsigned __int64 __cdecl std::<char,struct std::<char>,class std::<char>>::find(char const *__ptr64,unsigned __int64,unsigned __int64)const __ptr64 
?find@?$basic_string@DU?$char_traits@D@std@@V?$allocator@D@2@@std@@QEBA_KPEBD_K1@Z
; public: unsigned __int64 __cdecl std::<char,struct std::<char>,class std::<char>>::find(char const *__ptr64,unsigned __int64)const __ptr64 
?find@?$basic_string@DU?$char_traits@D@std@@V?$allocator@D@2@@std@@QEBA_KPEBD_K@Z
; public: unsigned __int64 __cdecl std::<unsigned short,struct std::<unsigned short>,class std::<unsigned short>>::find(class std::<unsigned short,struct std::<unsigned short>,class std::<unsigned short>> const &__ptr64 ,unsigned __int64)const __ptr64 
?find@?$basic_string@GU?$char_traits@G@std@@V?$allocator@G@2@@std@@QEBA_KAEBV12@_K@Z
; public: unsigned __int64 __cdecl std::<unsigned short,struct std::<unsigned short>,class std::<unsigned short>>::find(unsigned short,unsigned __int64)const __ptr64 
?find@?$basic_string@GU?$char_traits@G@std@@V?$allocator@G@2@@std@@QEBA_KG_K@Z
; public: unsigned __int64 __cdecl std::<unsigned short,struct std::<unsigned short>,class std::<unsigned short>>::find(unsigned short const *__ptr64,unsigned __int64,unsigned __int64)const __ptr64 
?find@?$basic_string@GU?$char_traits@G@std@@V?$allocator@G@2@@std@@QEBA_KPEBG_K1@Z
; public: unsigned __int64 __cdecl std::<unsigned short,struct std::<unsigned short>,class std::<unsigned short>>::find(unsigned short const *__ptr64,unsigned __int64)const __ptr64 
?find@?$basic_string@GU?$char_traits@G@std@@V?$allocator@G@2@@std@@QEBA_KPEBG_K@Z
; public: static char const *__ptr64 __cdecl std::<char>::find(char const *__ptr64,unsigned __int64,char const &__ptr64 )
?find@?$char_traits@D@std@@SAPEBDPEBD_KAEBD@Z
; public: static unsigned short const *__ptr64 __cdecl std::<unsigned short>::find(unsigned short const *__ptr64,unsigned __int64,unsigned short const &__ptr64 )
?find@?$char_traits@G@std@@SAPEBGPEBG_KAEBG@Z
; public: unsigned __int64 __cdecl std::<char,struct std::<char>,class std::<char>>::find_first_not_of(class std::<char,struct std::<char>,class std::<char>> const &__ptr64 ,unsigned __int64)const __ptr64 
?find_first_not_of@?$basic_string@DU?$char_traits@D@std@@V?$allocator@D@2@@std@@QEBA_KAEBV12@_K@Z
; public: unsigned __int64 __cdecl std::<char,struct std::<char>,class std::<char>>::find_first_not_of(char,unsigned __int64)const __ptr64 
?find_first_not_of@?$basic_string@DU?$char_traits@D@std@@V?$allocator@D@2@@std@@QEBA_KD_K@Z
; public: unsigned __int64 __cdecl std::<char,struct std::<char>,class std::<char>>::find_first_not_of(char const *__ptr64,unsigned __int64,unsigned __int64)const __ptr64 
?find_first_not_of@?$basic_string@DU?$char_traits@D@std@@V?$allocator@D@2@@std@@QEBA_KPEBD_K1@Z
; public: unsigned __int64 __cdecl std::<char,struct std::<char>,class std::<char>>::find_first_not_of(char const *__ptr64,unsigned __int64)const __ptr64 
?find_first_not_of@?$basic_string@DU?$char_traits@D@std@@V?$allocator@D@2@@std@@QEBA_KPEBD_K@Z
; public: unsigned __int64 __cdecl std::<unsigned short,struct std::<unsigned short>,class std::<unsigned short>>::find_first_not_of(class std::<unsigned short,struct std::<unsigned short>,class std::<unsigned short>> const &__ptr64 ,unsigned __int64)const __ptr64 
?find_first_not_of@?$basic_string@GU?$char_traits@G@std@@V?$allocator@G@2@@std@@QEBA_KAEBV12@_K@Z
; public: unsigned __int64 __cdecl std::<unsigned short,struct std::<unsigned short>,class std::<unsigned short>>::find_first_not_of(unsigned short,unsigned __int64)const __ptr64 
?find_first_not_of@?$basic_string@GU?$char_traits@G@std@@V?$allocator@G@2@@std@@QEBA_KG_K@Z
; public: unsigned __int64 __cdecl std::<unsigned short,struct std::<unsigned short>,class std::<unsigned short>>::find_first_not_of(unsigned short const *__ptr64,unsigned __int64,unsigned __int64)const __ptr64 
?find_first_not_of@?$basic_string@GU?$char_traits@G@std@@V?$allocator@G@2@@std@@QEBA_KPEBG_K1@Z
; public: unsigned __int64 __cdecl std::<unsigned short,struct std::<unsigned short>,class std::<unsigned short>>::find_first_not_of(unsigned short const *__ptr64,unsigned __int64)const __ptr64 
?find_first_not_of@?$basic_string@GU?$char_traits@G@std@@V?$allocator@G@2@@std@@QEBA_KPEBG_K@Z
; public: unsigned __int64 __cdecl std::<char,struct std::<char>,class std::<char>>::find_first_of(class std::<char,struct std::<char>,class std::<char>> const &__ptr64 ,unsigned __int64)const __ptr64 
?find_first_of@?$basic_string@DU?$char_traits@D@std@@V?$allocator@D@2@@std@@QEBA_KAEBV12@_K@Z
; public: unsigned __int64 __cdecl std::<char,struct std::<char>,class std::<char>>::find_first_of(char,unsigned __int64)const __ptr64 
?find_first_of@?$basic_string@DU?$char_traits@D@std@@V?$allocator@D@2@@std@@QEBA_KD_K@Z
; public: unsigned __int64 __cdecl std::<char,struct std::<char>,class std::<char>>::find_first_of(char const *__ptr64,unsigned __int64,unsigned __int64)const __ptr64 
?find_first_of@?$basic_string@DU?$char_traits@D@std@@V?$allocator@D@2@@std@@QEBA_KPEBD_K1@Z
; public: unsigned __int64 __cdecl std::<char,struct std::<char>,class std::<char>>::find_first_of(char const *__ptr64,unsigned __int64)const __ptr64 
?find_first_of@?$basic_string@DU?$char_traits@D@std@@V?$allocator@D@2@@std@@QEBA_KPEBD_K@Z
; public: unsigned __int64 __cdecl std::<unsigned short,struct std::<unsigned short>,class std::<unsigned short>>::find_first_of(class std::<unsigned short,struct std::<unsigned short>,class std::<unsigned short>> const &__ptr64 ,unsigned __int64)const __ptr64 
?find_first_of@?$basic_string@GU?$char_traits@G@std@@V?$allocator@G@2@@std@@QEBA_KAEBV12@_K@Z
; public: unsigned __int64 __cdecl std::<unsigned short,struct std::<unsigned short>,class std::<unsigned short>>::find_first_of(unsigned short,unsigned __int64)const __ptr64 
?find_first_of@?$basic_string@GU?$char_traits@G@std@@V?$allocator@G@2@@std@@QEBA_KG_K@Z
; public: unsigned __int64 __cdecl std::<unsigned short,struct std::<unsigned short>,class std::<unsigned short>>::find_first_of(unsigned short const *__ptr64,unsigned __int64,unsigned __int64)const __ptr64 
?find_first_of@?$basic_string@GU?$char_traits@G@std@@V?$allocator@G@2@@std@@QEBA_KPEBG_K1@Z
; public: unsigned __int64 __cdecl std::<unsigned short,struct std::<unsigned short>,class std::<unsigned short>>::find_first_of(unsigned short const *__ptr64,unsigned __int64)const __ptr64 
?find_first_of@?$basic_string@GU?$char_traits@G@std@@V?$allocator@G@2@@std@@QEBA_KPEBG_K@Z
; public: unsigned __int64 __cdecl std::<char,struct std::<char>,class std::<char>>::find_last_not_of(class std::<char,struct std::<char>,class std::<char>> const &__ptr64 ,unsigned __int64)const __ptr64 
?find_last_not_of@?$basic_string@DU?$char_traits@D@std@@V?$allocator@D@2@@std@@QEBA_KAEBV12@_K@Z
; public: unsigned __int64 __cdecl std::<char,struct std::<char>,class std::<char>>::find_last_not_of(char,unsigned __int64)const __ptr64 
?find_last_not_of@?$basic_string@DU?$char_traits@D@std@@V?$allocator@D@2@@std@@QEBA_KD_K@Z
; public: unsigned __int64 __cdecl std::<char,struct std::<char>,class std::<char>>::find_last_not_of(char const *__ptr64,unsigned __int64,unsigned __int64)const __ptr64 
?find_last_not_of@?$basic_string@DU?$char_traits@D@std@@V?$allocator@D@2@@std@@QEBA_KPEBD_K1@Z
; public: unsigned __int64 __cdecl std::<char,struct std::<char>,class std::<char>>::find_last_not_of(char const *__ptr64,unsigned __int64)const __ptr64 
?find_last_not_of@?$basic_string@DU?$char_traits@D@std@@V?$allocator@D@2@@std@@QEBA_KPEBD_K@Z
; public: unsigned __int64 __cdecl std::<unsigned short,struct std::<unsigned short>,class std::<unsigned short>>::find_last_not_of(class std::<unsigned short,struct std::<unsigned short>,class std::<unsigned short>> const &__ptr64 ,unsigned __int64)const __ptr64 
?find_last_not_of@?$basic_string@GU?$char_traits@G@std@@V?$allocator@G@2@@std@@QEBA_KAEBV12@_K@Z
; public: unsigned __int64 __cdecl std::<unsigned short,struct std::<unsigned short>,class std::<unsigned short>>::find_last_not_of(unsigned short,unsigned __int64)const __ptr64 
?find_last_not_of@?$basic_string@GU?$char_traits@G@std@@V?$allocator@G@2@@std@@QEBA_KG_K@Z
; public: unsigned __int64 __cdecl std::<unsigned short,struct std::<unsigned short>,class std::<unsigned short>>::find_last_not_of(unsigned short const *__ptr64,unsigned __int64,unsigned __int64)const __ptr64 
?find_last_not_of@?$basic_string@GU?$char_traits@G@std@@V?$allocator@G@2@@std@@QEBA_KPEBG_K1@Z
; public: unsigned __int64 __cdecl std::<unsigned short,struct std::<unsigned short>,class std::<unsigned short>>::find_last_not_of(unsigned short const *__ptr64,unsigned __int64)const __ptr64 
?find_last_not_of@?$basic_string@GU?$char_traits@G@std@@V?$allocator@G@2@@std@@QEBA_KPEBG_K@Z
; public: unsigned __int64 __cdecl std::<char,struct std::<char>,class std::<char>>::find_last_of(class std::<char,struct std::<char>,class std::<char>> const &__ptr64 ,unsigned __int64)const __ptr64 
?find_last_of@?$basic_string@DU?$char_traits@D@std@@V?$allocator@D@2@@std@@QEBA_KAEBV12@_K@Z
; public: unsigned __int64 __cdecl std::<char,struct std::<char>,class std::<char>>::find_last_of(char,unsigned __int64)const __ptr64 
?find_last_of@?$basic_string@DU?$char_traits@D@std@@V?$allocator@D@2@@std@@QEBA_KD_K@Z
; public: unsigned __int64 __cdecl std::<char,struct std::<char>,class std::<char>>::find_last_of(char const *__ptr64,unsigned __int64,unsigned __int64)const __ptr64 
?find_last_of@?$basic_string@DU?$char_traits@D@std@@V?$allocator@D@2@@std@@QEBA_KPEBD_K1@Z
; public: unsigned __int64 __cdecl std::<char,struct std::<char>,class std::<char>>::find_last_of(char const *__ptr64,unsigned __int64)const __ptr64 
?find_last_of@?$basic_string@DU?$char_traits@D@std@@V?$allocator@D@2@@std@@QEBA_KPEBD_K@Z
; public: unsigned __int64 __cdecl std::<unsigned short,struct std::<unsigned short>,class std::<unsigned short>>::find_last_of(class std::<unsigned short,struct std::<unsigned short>,class std::<unsigned short>> const &__ptr64 ,unsigned __int64)const __ptr64 
?find_last_of@?$basic_string@GU?$char_traits@G@std@@V?$allocator@G@2@@std@@QEBA_KAEBV12@_K@Z
; public: unsigned __int64 __cdecl std::<unsigned short,struct std::<unsigned short>,class std::<unsigned short>>::find_last_of(unsigned short,unsigned __int64)const __ptr64 
?find_last_of@?$basic_string@GU?$char_traits@G@std@@V?$allocator@G@2@@std@@QEBA_KG_K@Z
; public: unsigned __int64 __cdecl std::<unsigned short,struct std::<unsigned short>,class std::<unsigned short>>::find_last_of(unsigned short const *__ptr64,unsigned __int64,unsigned __int64)const __ptr64 
?find_last_of@?$basic_string@GU?$char_traits@G@std@@V?$allocator@G@2@@std@@QEBA_KPEBG_K1@Z
; public: unsigned __int64 __cdecl std::<unsigned short,struct std::<unsigned short>,class std::<unsigned short>>::find_last_of(unsigned short const *__ptr64,unsigned __int64)const __ptr64 
?find_last_of@?$basic_string@GU?$char_traits@G@std@@V?$allocator@G@2@@std@@QEBA_KPEBG_K@Z
; public: int __cdecl std::ios_base::flags(int)__ptr64 
?flags@ios_base@std@@QEAAHH@Z
; public: int __cdecl std::ios_base::flags(void)const __ptr64 
?flags@ios_base@std@@QEBAHXZ
; public: class std::<char,struct std::<char>> &__ptr64 __cdecl std::<char,struct std::<char>>::flush(void)__ptr64 
?flush@?$basic_ostream@DU?$char_traits@D@std@@@std@@QEAAAEAV12@XZ
; public: class std::<unsigned short,struct std::<unsigned short>> &__ptr64 __cdecl std::<unsigned short,struct std::<unsigned short>>::flush(void)__ptr64 
?flush@?$basic_ostream@GU?$char_traits@G@std@@@std@@QEAAAEAV12@XZ
; class std::<char,struct std::<char>> &__ptr64 __cdecl std::flush(class std::<char,struct std::<char>> &__ptr64 )
?flush@std@@YAAEAV?$basic_ostream@DU?$char_traits@D@std@@@1@AEAV21@@Z
; class std::<unsigned short,struct std::<unsigned short>> &__ptr64 __cdecl std::flush(class std::<unsigned short,struct std::<unsigned short>> &__ptr64 )
?flush@std@@YAAEAV?$basic_ostream@GU?$char_traits@G@std@@@1@AEAV21@@Z
; public: int __cdecl std::<char>::frac_digits(void)const __ptr64 
?frac_digits@?$_Mpunct@D@std@@QEBAHXZ
; public: int __cdecl std::<unsigned short>::frac_digits(void)const __ptr64 
?frac_digits@?$_Mpunct@G@std@@QEBAHXZ
; public: void __cdecl std::strstreambuf::freeze(bool)__ptr64 
?freeze@strstreambuf@std@@QEAAX_N@Z
; protected: void __cdecl std::<char,struct std::<char>>::gbump(int)__ptr64 
?gbump@?$basic_streambuf@DU?$char_traits@D@std@@@std@@IEAAXH@Z
; protected: void __cdecl std::<unsigned short,struct std::<unsigned short>>::gbump(int)__ptr64 
?gbump@?$basic_streambuf@GU?$char_traits@G@std@@@std@@IEAAXH@Z
; public: __int64 __cdecl std::<char,struct std::<char>>::gcount(void)const __ptr64 
?gcount@?$basic_istream@DU?$char_traits@D@std@@@std@@QEBA_JXZ
; public: __int64 __cdecl std::<unsigned short,struct std::<unsigned short>>::gcount(void)const __ptr64 
?gcount@?$basic_istream@GU?$char_traits@G@std@@@std@@QEBA_JXZ
; public: class std::<char,struct std::<char>> &__ptr64 __cdecl std::<char,struct std::<char>>::get(char &__ptr64 )__ptr64 
?get@?$basic_istream@DU?$char_traits@D@std@@@std@@QEAAAEAV12@AEAD@Z
; public: class std::<char,struct std::<char>> &__ptr64 __cdecl std::<char,struct std::<char>>::get(class std::<char,struct std::<char>> &__ptr64 )__ptr64 
?get@?$basic_istream@DU?$char_traits@D@std@@@std@@QEAAAEAV12@AEAV?$basic_streambuf@DU?$char_traits@D@std@@@2@@Z
; public: class std::<char,struct std::<char>> &__ptr64 __cdecl std::<char,struct std::<char>>::get(class std::<char,struct std::<char>> &__ptr64 ,char)__ptr64 
?get@?$basic_istream@DU?$char_traits@D@std@@@std@@QEAAAEAV12@AEAV?$basic_streambuf@DU?$char_traits@D@std@@@2@D@Z
; public: class std::<char,struct std::<char>> &__ptr64 __cdecl std::<char,struct std::<char>>::get(char *__ptr64,__int64)__ptr64 
?get@?$basic_istream@DU?$char_traits@D@std@@@std@@QEAAAEAV12@PEAD_J@Z
; public: class std::<char,struct std::<char>> &__ptr64 __cdecl std::<char,struct std::<char>>::get(char *__ptr64,__int64,char)__ptr64 
?get@?$basic_istream@DU?$char_traits@D@std@@@std@@QEAAAEAV12@PEAD_JD@Z
; public: int __cdecl std::<char,struct std::<char>>::get(void)__ptr64 
?get@?$basic_istream@DU?$char_traits@D@std@@@std@@QEAAHXZ
; public: class std::<unsigned short,struct std::<unsigned short>> &__ptr64 __cdecl std::<unsigned short,struct std::<unsigned short>>::get(unsigned short &__ptr64 )__ptr64 
?get@?$basic_istream@GU?$char_traits@G@std@@@std@@QEAAAEAV12@AEAG@Z
; public: class std::<unsigned short,struct std::<unsigned short>> &__ptr64 __cdecl std::<unsigned short,struct std::<unsigned short>>::get(class std::<unsigned short,struct std::<unsigned short>> &__ptr64 )__ptr64 
?get@?$basic_istream@GU?$char_traits@G@std@@@std@@QEAAAEAV12@AEAV?$basic_streambuf@GU?$char_traits@G@std@@@2@@Z
; public: class std::<unsigned short,struct std::<unsigned short>> &__ptr64 __cdecl std::<unsigned short,struct std::<unsigned short>>::get(class std::<unsigned short,struct std::<unsigned short>> &__ptr64 ,unsigned short)__ptr64 
?get@?$basic_istream@GU?$char_traits@G@std@@@std@@QEAAAEAV12@AEAV?$basic_streambuf@GU?$char_traits@G@std@@@2@G@Z
; public: class std::<unsigned short,struct std::<unsigned short>> &__ptr64 __cdecl std::<unsigned short,struct std::<unsigned short>>::get(unsigned short *__ptr64,__int64)__ptr64 
?get@?$basic_istream@GU?$char_traits@G@std@@@std@@QEAAAEAV12@PEAG_J@Z
; public: class std::<unsigned short,struct std::<unsigned short>> &__ptr64 __cdecl std::<unsigned short,struct std::<unsigned short>>::get(unsigned short *__ptr64,__int64,unsigned short)__ptr64 
?get@?$basic_istream@GU?$char_traits@G@std@@@std@@QEAAAEAV12@PEAG_JG@Z
; public: unsigned short __cdecl std::<unsigned short,struct std::<unsigned short>>::get(void)__ptr64 
?get@?$basic_istream@GU?$char_traits@G@std@@@std@@QEAAGXZ
; public: class std::<char,struct std::<char>,class std::<char>> __cdecl std::<char>::get(int,int,int,class std::<char,struct std::<char>,class std::<char>> const &__ptr64 )const __ptr64 
?get@?$messages@D@std@@QEBA?AV?$basic_string@DU?$char_traits@D@std@@V?$allocator@D@2@@2@HHHAEBV32@@Z
; public: class std::<unsigned short,struct std::<unsigned short>,class std::<unsigned short>> __cdecl std::<unsigned short>::get(int,int,int,class std::<unsigned short,struct std::<unsigned short>,class std::<unsigned short>> const &__ptr64 )const __ptr64 
?get@?$messages@G@std@@QEBA?AV?$basic_string@GU?$char_traits@G@std@@V?$allocator@G@2@@2@HHHAEBV32@@Z
; public: class std::<char,struct std::<char>> __cdecl std::<char,class std::<char,struct std::<char>>>::get(class std::<char,struct std::<char>>,class std::<char,struct std::<char>>,bool,class std::ios_base &__ptr64 ,int &__ptr64 ,long double &__ptr64 )const __ptr64 
?get@?$money_get@DV?$istreambuf_iterator@DU?$char_traits@D@std@@@std@@@std@@QEBA?AV?$istreambuf_iterator@DU?$char_traits@D@std@@@2@V32@0_NAEAVios_base@2@AEAHAEAO@Z
; public: class std::<char,struct std::<char>> __cdecl std::<char,class std::<char,struct std::<char>>>::get(class std::<char,struct std::<char>>,class std::<char,struct std::<char>>,bool,class std::ios_base &__ptr64 ,int &__ptr64 ,class std::<char,struct std::<char>,class std::<char>> &__ptr64 )const __ptr64 
?get@?$money_get@DV?$istreambuf_iterator@DU?$char_traits@D@std@@@std@@@std@@QEBA?AV?$istreambuf_iterator@DU?$char_traits@D@std@@@2@V32@0_NAEAVios_base@2@AEAHAEAV?$basic_string@DU?$char_traits@D@std@@V?$allocator@D@2@@2@@Z
; public: class std::<unsigned short,struct std::<unsigned short>> __cdecl std::<unsigned short,class std::<unsigned short,struct std::<unsigned short>>>::get(class std::<unsigned short,struct std::<unsigned short>>,class std::<unsigned short,struct std::<unsigned short>>,bool,class std::ios_base &__ptr64 ,int &__ptr64 ,long double &__ptr64 )const __ptr64 
?get@?$money_get@GV?$istreambuf_iterator@GU?$char_traits@G@std@@@std@@@std@@QEBA?AV?$istreambuf_iterator@GU?$char_traits@G@std@@@2@V32@0_NAEAVios_base@2@AEAHAEAO@Z
; public: class std::<unsigned short,struct std::<unsigned short>> __cdecl std::<unsigned short,class std::<unsigned short,struct std::<unsigned short>>>::get(class std::<unsigned short,struct std::<unsigned short>>,class std::<unsigned short,struct std::<unsigned short>>,bool,class std::ios_base &__ptr64 ,int &__ptr64 ,class std::<unsigned short,struct std::<unsigned short>,class std::<unsigned short>> &__ptr64 )const __ptr64 
?get@?$money_get@GV?$istreambuf_iterator@GU?$char_traits@G@std@@@std@@@std@@QEBA?AV?$istreambuf_iterator@GU?$char_traits@G@std@@@2@V32@0_NAEAVios_base@2@AEAHAEAV?$basic_string@GU?$char_traits@G@std@@V?$allocator@G@2@@2@@Z
; public: class std::<char,struct std::<char>> __cdecl std::<char,class std::<char,struct std::<char>>>::get(class std::<char,struct std::<char>>,class std::<char,struct std::<char>>,class std::ios_base &__ptr64 ,int &__ptr64 ,unsigned short &__ptr64 )const __ptr64 
?get@?$num_get@DV?$istreambuf_iterator@DU?$char_traits@D@std@@@std@@@std@@QEBA?AV?$istreambuf_iterator@DU?$char_traits@D@std@@@2@V32@0AEAVios_base@2@AEAHAEAG@Z
; public: class std::<char,struct std::<char>> __cdecl std::<char,class std::<char,struct std::<char>>>::get(class std::<char,struct std::<char>>,class std::<char,struct std::<char>>,class std::ios_base &__ptr64 ,int &__ptr64 ,unsigned int &__ptr64 )const __ptr64 
?get@?$num_get@DV?$istreambuf_iterator@DU?$char_traits@D@std@@@std@@@std@@QEBA?AV?$istreambuf_iterator@DU?$char_traits@D@std@@@2@V32@0AEAVios_base@2@AEAHAEAI@Z
; public: class std::<char,struct std::<char>> __cdecl std::<char,class std::<char,struct std::<char>>>::get(class std::<char,struct std::<char>>,class std::<char,struct std::<char>>,class std::ios_base &__ptr64 ,int &__ptr64 ,long &__ptr64 )const __ptr64 
?get@?$num_get@DV?$istreambuf_iterator@DU?$char_traits@D@std@@@std@@@std@@QEBA?AV?$istreambuf_iterator@DU?$char_traits@D@std@@@2@V32@0AEAVios_base@2@AEAHAEAJ@Z
; public: class std::<char,struct std::<char>> __cdecl std::<char,class std::<char,struct std::<char>>>::get(class std::<char,struct std::<char>>,class std::<char,struct std::<char>>,class std::ios_base &__ptr64 ,int &__ptr64 ,unsigned long &__ptr64 )const __ptr64 
?get@?$num_get@DV?$istreambuf_iterator@DU?$char_traits@D@std@@@std@@@std@@QEBA?AV?$istreambuf_iterator@DU?$char_traits@D@std@@@2@V32@0AEAVios_base@2@AEAHAEAK@Z
; public: class std::<char,struct std::<char>> __cdecl std::<char,class std::<char,struct std::<char>>>::get(class std::<char,struct std::<char>>,class std::<char,struct std::<char>>,class std::ios_base &__ptr64 ,int &__ptr64 ,float &__ptr64 )const __ptr64 
?get@?$num_get@DV?$istreambuf_iterator@DU?$char_traits@D@std@@@std@@@std@@QEBA?AV?$istreambuf_iterator@DU?$char_traits@D@std@@@2@V32@0AEAVios_base@2@AEAHAEAM@Z
; public: class std::<char,struct std::<char>> __cdecl std::<char,class std::<char,struct std::<char>>>::get(class std::<char,struct std::<char>>,class std::<char,struct std::<char>>,class std::ios_base &__ptr64 ,int &__ptr64 ,double &__ptr64 )const __ptr64 
?get@?$num_get@DV?$istreambuf_iterator@DU?$char_traits@D@std@@@std@@@std@@QEBA?AV?$istreambuf_iterator@DU?$char_traits@D@std@@@2@V32@0AEAVios_base@2@AEAHAEAN@Z
; public: class std::<char,struct std::<char>> __cdecl std::<char,class std::<char,struct std::<char>>>::get(class std::<char,struct std::<char>>,class std::<char,struct std::<char>>,class std::ios_base &__ptr64 ,int &__ptr64 ,long double &__ptr64 )const __ptr64 
?get@?$num_get@DV?$istreambuf_iterator@DU?$char_traits@D@std@@@std@@@std@@QEBA?AV?$istreambuf_iterator@DU?$char_traits@D@std@@@2@V32@0AEAVios_base@2@AEAHAEAO@Z
; public: class std::<char,struct std::<char>> __cdecl std::<char,class std::<char,struct std::<char>>>::get(class std::<char,struct std::<char>>,class std::<char,struct std::<char>>,class std::ios_base &__ptr64 ,int &__ptr64 ,void *__ptr64 &__ptr64 )const __ptr64 
?get@?$num_get@DV?$istreambuf_iterator@DU?$char_traits@D@std@@@std@@@std@@QEBA?AV?$istreambuf_iterator@DU?$char_traits@D@std@@@2@V32@0AEAVios_base@2@AEAHAEAPEAX@Z
; public: class std::<char,struct std::<char>> __cdecl std::<char,class std::<char,struct std::<char>>>::get(class std::<char,struct std::<char>>,class std::<char,struct std::<char>>,class std::ios_base &__ptr64 ,int &__ptr64 ,__int64 &__ptr64 )const __ptr64 
?get@?$num_get@DV?$istreambuf_iterator@DU?$char_traits@D@std@@@std@@@std@@QEBA?AV?$istreambuf_iterator@DU?$char_traits@D@std@@@2@V32@0AEAVios_base@2@AEAHAEA_J@Z
; public: class std::<char,struct std::<char>> __cdecl std::<char,class std::<char,struct std::<char>>>::get(class std::<char,struct std::<char>>,class std::<char,struct std::<char>>,class std::ios_base &__ptr64 ,int &__ptr64 ,unsigned __int64 &__ptr64 )const __ptr64 
?get@?$num_get@DV?$istreambuf_iterator@DU?$char_traits@D@std@@@std@@@std@@QEBA?AV?$istreambuf_iterator@DU?$char_traits@D@std@@@2@V32@0AEAVios_base@2@AEAHAEA_K@Z
; public: class std::<char,struct std::<char>> __cdecl std::<char,class std::<char,struct std::<char>>>::get(class std::<char,struct std::<char>>,class std::<char,struct std::<char>>,class std::ios_base &__ptr64 ,int &__ptr64 ,bool &__ptr64 )const __ptr64 
?get@?$num_get@DV?$istreambuf_iterator@DU?$char_traits@D@std@@@std@@@std@@QEBA?AV?$istreambuf_iterator@DU?$char_traits@D@std@@@2@V32@0AEAVios_base@2@AEAHAEA_N@Z
; public: class std::<unsigned short,struct std::<unsigned short>> __cdecl std::<unsigned short,class std::<unsigned short,struct std::<unsigned short>>>::get(class std::<unsigned short,struct std::<unsigned short>>,class std::<unsigned short,struct std::<unsigned short>>,class std::ios_base &__ptr64 ,int &__ptr64 ,unsigned short &__ptr64 )const __ptr64 
?get@?$num_get@GV?$istreambuf_iterator@GU?$char_traits@G@std@@@std@@@std@@QEBA?AV?$istreambuf_iterator@GU?$char_traits@G@std@@@2@V32@0AEAVios_base@2@AEAHAEAG@Z
; public: class std::<unsigned short,struct std::<unsigned short>> __cdecl std::<unsigned short,class std::<unsigned short,struct std::<unsigned short>>>::get(class std::<unsigned short,struct std::<unsigned short>>,class std::<unsigned short,struct std::<unsigned short>>,class std::ios_base &__ptr64 ,int &__ptr64 ,unsigned int &__ptr64 )const __ptr64 
?get@?$num_get@GV?$istreambuf_iterator@GU?$char_traits@G@std@@@std@@@std@@QEBA?AV?$istreambuf_iterator@GU?$char_traits@G@std@@@2@V32@0AEAVios_base@2@AEAHAEAI@Z
; public: class std::<unsigned short,struct std::<unsigned short>> __cdecl std::<unsigned short,class std::<unsigned short,struct std::<unsigned short>>>::get(class std::<unsigned short,struct std::<unsigned short>>,class std::<unsigned short,struct std::<unsigned short>>,class std::ios_base &__ptr64 ,int &__ptr64 ,long &__ptr64 )const __ptr64 
?get@?$num_get@GV?$istreambuf_iterator@GU?$char_traits@G@std@@@std@@@std@@QEBA?AV?$istreambuf_iterator@GU?$char_traits@G@std@@@2@V32@0AEAVios_base@2@AEAHAEAJ@Z
; public: class std::<unsigned short,struct std::<unsigned short>> __cdecl std::<unsigned short,class std::<unsigned short,struct std::<unsigned short>>>::get(class std::<unsigned short,struct std::<unsigned short>>,class std::<unsigned short,struct std::<unsigned short>>,class std::ios_base &__ptr64 ,int &__ptr64 ,unsigned long &__ptr64 )const __ptr64 
?get@?$num_get@GV?$istreambuf_iterator@GU?$char_traits@G@std@@@std@@@std@@QEBA?AV?$istreambuf_iterator@GU?$char_traits@G@std@@@2@V32@0AEAVios_base@2@AEAHAEAK@Z
; public: class std::<unsigned short,struct std::<unsigned short>> __cdecl std::<unsigned short,class std::<unsigned short,struct std::<unsigned short>>>::get(class std::<unsigned short,struct std::<unsigned short>>,class std::<unsigned short,struct std::<unsigned short>>,class std::ios_base &__ptr64 ,int &__ptr64 ,float &__ptr64 )const __ptr64 
?get@?$num_get@GV?$istreambuf_iterator@GU?$char_traits@G@std@@@std@@@std@@QEBA?AV?$istreambuf_iterator@GU?$char_traits@G@std@@@2@V32@0AEAVios_base@2@AEAHAEAM@Z
; public: class std::<unsigned short,struct std::<unsigned short>> __cdecl std::<unsigned short,class std::<unsigned short,struct std::<unsigned short>>>::get(class std::<unsigned short,struct std::<unsigned short>>,class std::<unsigned short,struct std::<unsigned short>>,class std::ios_base &__ptr64 ,int &__ptr64 ,double &__ptr64 )const __ptr64 
?get@?$num_get@GV?$istreambuf_iterator@GU?$char_traits@G@std@@@std@@@std@@QEBA?AV?$istreambuf_iterator@GU?$char_traits@G@std@@@2@V32@0AEAVios_base@2@AEAHAEAN@Z
; public: class std::<unsigned short,struct std::<unsigned short>> __cdecl std::<unsigned short,class std::<unsigned short,struct std::<unsigned short>>>::get(class std::<unsigned short,struct std::<unsigned short>>,class std::<unsigned short,struct std::<unsigned short>>,class std::ios_base &__ptr64 ,int &__ptr64 ,long double &__ptr64 )const __ptr64 
?get@?$num_get@GV?$istreambuf_iterator@GU?$char_traits@G@std@@@std@@@std@@QEBA?AV?$istreambuf_iterator@GU?$char_traits@G@std@@@2@V32@0AEAVios_base@2@AEAHAEAO@Z
; public: class std::<unsigned short,struct std::<unsigned short>> __cdecl std::<unsigned short,class std::<unsigned short,struct std::<unsigned short>>>::get(class std::<unsigned short,struct std::<unsigned short>>,class std::<unsigned short,struct std::<unsigned short>>,class std::ios_base &__ptr64 ,int &__ptr64 ,void *__ptr64 &__ptr64 )const __ptr64 
?get@?$num_get@GV?$istreambuf_iterator@GU?$char_traits@G@std@@@std@@@std@@QEBA?AV?$istreambuf_iterator@GU?$char_traits@G@std@@@2@V32@0AEAVios_base@2@AEAHAEAPEAX@Z
; public: class std::<unsigned short,struct std::<unsigned short>> __cdecl std::<unsigned short,class std::<unsigned short,struct std::<unsigned short>>>::get(class std::<unsigned short,struct std::<unsigned short>>,class std::<unsigned short,struct std::<unsigned short>>,class std::ios_base &__ptr64 ,int &__ptr64 ,__int64 &__ptr64 )const __ptr64 
?get@?$num_get@GV?$istreambuf_iterator@GU?$char_traits@G@std@@@std@@@std@@QEBA?AV?$istreambuf_iterator@GU?$char_traits@G@std@@@2@V32@0AEAVios_base@2@AEAHAEA_J@Z
; public: class std::<unsigned short,struct std::<unsigned short>> __cdecl std::<unsigned short,class std::<unsigned short,struct std::<unsigned short>>>::get(class std::<unsigned short,struct std::<unsigned short>>,class std::<unsigned short,struct std::<unsigned short>>,class std::ios_base &__ptr64 ,int &__ptr64 ,unsigned __int64 &__ptr64 )const __ptr64 
?get@?$num_get@GV?$istreambuf_iterator@GU?$char_traits@G@std@@@std@@@std@@QEBA?AV?$istreambuf_iterator@GU?$char_traits@G@std@@@2@V32@0AEAVios_base@2@AEAHAEA_K@Z
; public: class std::<unsigned short,struct std::<unsigned short>> __cdecl std::<unsigned short,class std::<unsigned short,struct std::<unsigned short>>>::get(class std::<unsigned short,struct std::<unsigned short>>,class std::<unsigned short,struct std::<unsigned short>>,class std::ios_base &__ptr64 ,int &__ptr64 ,bool &__ptr64 )const __ptr64 
?get@?$num_get@GV?$istreambuf_iterator@GU?$char_traits@G@std@@@std@@@std@@QEBA?AV?$istreambuf_iterator@GU?$char_traits@G@std@@@2@V32@0AEAVios_base@2@AEAHAEA_N@Z
; public: class std::<char> __cdecl std::<char,struct std::<char>,class std::<char>>::get_allocator(void)const __ptr64 
?get_allocator@?$basic_string@DU?$char_traits@D@std@@V?$allocator@D@2@@std@@QEBA?AV?$allocator@D@2@XZ
; public: class std::<unsigned short> __cdecl std::<unsigned short,struct std::<unsigned short>,class std::<unsigned short>>::get_allocator(void)const __ptr64 
?get_allocator@?$basic_string@GU?$char_traits@G@std@@V?$allocator@G@2@@std@@QEBA?AV?$allocator@G@2@XZ
; public: class std::<char,struct std::<char>> __cdecl std::<char,class std::<char,struct std::<char>>>::get_date(class std::<char,struct std::<char>>,class std::<char,struct std::<char>>,class std::ios_base &__ptr64 ,int &__ptr64 ,struct tm *__ptr64)const __ptr64 
?get_date@?$time_get@DV?$istreambuf_iterator@DU?$char_traits@D@std@@@std@@@std@@QEBA?AV?$istreambuf_iterator@DU?$char_traits@D@std@@@2@V32@0AEAVios_base@2@AEAHPEAUtm@@@Z
; public: class std::<unsigned short,struct std::<unsigned short>> __cdecl std::<unsigned short,class std::<unsigned short,struct std::<unsigned short>>>::get_date(class std::<unsigned short,struct std::<unsigned short>>,class std::<unsigned short,struct std::<unsigned short>>,class std::ios_base &__ptr64 ,int &__ptr64 ,struct tm *__ptr64)const __ptr64 
?get_date@?$time_get@GV?$istreambuf_iterator@GU?$char_traits@G@std@@@std@@@std@@QEBA?AV?$istreambuf_iterator@GU?$char_traits@G@std@@@2@V32@0AEAVios_base@2@AEAHPEAUtm@@@Z
; public: class std::<char,struct std::<char>> __cdecl std::<char,class std::<char,struct std::<char>>>::get_monthname(class std::<char,struct std::<char>>,class std::<char,struct std::<char>>,class std::ios_base &__ptr64 ,int &__ptr64 ,struct tm *__ptr64)const __ptr64 
?get_monthname@?$time_get@DV?$istreambuf_iterator@DU?$char_traits@D@std@@@std@@@std@@QEBA?AV?$istreambuf_iterator@DU?$char_traits@D@std@@@2@V32@0AEAVios_base@2@AEAHPEAUtm@@@Z
; public: class std::<unsigned short,struct std::<unsigned short>> __cdecl std::<unsigned short,class std::<unsigned short,struct std::<unsigned short>>>::get_monthname(class std::<unsigned short,struct std::<unsigned short>>,class std::<unsigned short,struct std::<unsigned short>>,class std::ios_base &__ptr64 ,int &__ptr64 ,struct tm *__ptr64)const __ptr64 
?get_monthname@?$time_get@GV?$istreambuf_iterator@GU?$char_traits@G@std@@@std@@@std@@QEBA?AV?$istreambuf_iterator@GU?$char_traits@G@std@@@2@V32@0AEAVios_base@2@AEAHPEAUtm@@@Z
; public: class std::<char,struct std::<char>> __cdecl std::<char,class std::<char,struct std::<char>>>::get_time(class std::<char,struct std::<char>>,class std::<char,struct std::<char>>,class std::ios_base &__ptr64 ,int &__ptr64 ,struct tm *__ptr64)const __ptr64 
?get_time@?$time_get@DV?$istreambuf_iterator@DU?$char_traits@D@std@@@std@@@std@@QEBA?AV?$istreambuf_iterator@DU?$char_traits@D@std@@@2@V32@0AEAVios_base@2@AEAHPEAUtm@@@Z
; public: class std::<unsigned short,struct std::<unsigned short>> __cdecl std::<unsigned short,class std::<unsigned short,struct std::<unsigned short>>>::get_time(class std::<unsigned short,struct std::<unsigned short>>,class std::<unsigned short,struct std::<unsigned short>>,class std::ios_base &__ptr64 ,int &__ptr64 ,struct tm *__ptr64)const __ptr64 
?get_time@?$time_get@GV?$istreambuf_iterator@GU?$char_traits@G@std@@@std@@@std@@QEBA?AV?$istreambuf_iterator@GU?$char_traits@G@std@@@2@V32@0AEAVios_base@2@AEAHPEAUtm@@@Z
; public: class std::<char,struct std::<char>> __cdecl std::<char,class std::<char,struct std::<char>>>::get_weekday(class std::<char,struct std::<char>>,class std::<char,struct std::<char>>,class std::ios_base &__ptr64 ,int &__ptr64 ,struct tm *__ptr64)const __ptr64 
?get_weekday@?$time_get@DV?$istreambuf_iterator@DU?$char_traits@D@std@@@std@@@std@@QEBA?AV?$istreambuf_iterator@DU?$char_traits@D@std@@@2@V32@0AEAVios_base@2@AEAHPEAUtm@@@Z
; public: class std::<unsigned short,struct std::<unsigned short>> __cdecl std::<unsigned short,class std::<unsigned short,struct std::<unsigned short>>>::get_weekday(class std::<unsigned short,struct std::<unsigned short>>,class std::<unsigned short,struct std::<unsigned short>>,class std::ios_base &__ptr64 ,int &__ptr64 ,struct tm *__ptr64)const __ptr64 
?get_weekday@?$time_get@GV?$istreambuf_iterator@GU?$char_traits@G@std@@@std@@@std@@QEBA?AV?$istreambuf_iterator@GU?$char_traits@G@std@@@2@V32@0AEAVios_base@2@AEAHPEAUtm@@@Z
; public: class std::<char,struct std::<char>> __cdecl std::<char,class std::<char,struct std::<char>>>::get_year(class std::<char,struct std::<char>>,class std::<char,struct std::<char>>,class std::ios_base &__ptr64 ,int &__ptr64 ,struct tm *__ptr64)const __ptr64 
?get_year@?$time_get@DV?$istreambuf_iterator@DU?$char_traits@D@std@@@std@@@std@@QEBA?AV?$istreambuf_iterator@DU?$char_traits@D@std@@@2@V32@0AEAVios_base@2@AEAHPEAUtm@@@Z
; public: class std::<unsigned short,struct std::<unsigned short>> __cdecl std::<unsigned short,class std::<unsigned short,struct std::<unsigned short>>>::get_year(class std::<unsigned short,struct std::<unsigned short>>,class std::<unsigned short,struct std::<unsigned short>>,class std::ios_base &__ptr64 ,int &__ptr64 ,struct tm *__ptr64)const __ptr64 
?get_year@?$time_get@GV?$istreambuf_iterator@GU?$char_traits@G@std@@@std@@@std@@QEBA?AV?$istreambuf_iterator@GU?$char_traits@G@std@@@2@V32@0AEAVios_base@2@AEAHPEAUtm@@@Z
; public: class std::<char,struct std::<char>> &__ptr64 __cdecl std::<char,struct std::<char>>::getline(char *__ptr64,__int64)__ptr64 
?getline@?$basic_istream@DU?$char_traits@D@std@@@std@@QEAAAEAV12@PEAD_J@Z
; public: class std::<char,struct std::<char>> &__ptr64 __cdecl std::<char,struct std::<char>>::getline(char *__ptr64,__int64,char)__ptr64 
?getline@?$basic_istream@DU?$char_traits@D@std@@@std@@QEAAAEAV12@PEAD_JD@Z
; public: class std::<unsigned short,struct std::<unsigned short>> &__ptr64 __cdecl std::<unsigned short,struct std::<unsigned short>>::getline(unsigned short *__ptr64,__int64)__ptr64 
?getline@?$basic_istream@GU?$char_traits@G@std@@@std@@QEAAAEAV12@PEAG_J@Z
; public: class std::<unsigned short,struct std::<unsigned short>> &__ptr64 __cdecl std::<unsigned short,struct std::<unsigned short>>::getline(unsigned short *__ptr64,__int64,unsigned short)__ptr64 
?getline@?$basic_istream@GU?$char_traits@G@std@@@std@@QEAAAEAV12@PEAG_JG@Z
; class std::<char,struct std::<char>> &__ptr64 __cdecl std::getline(class std::<char,struct std::<char>> &__ptr64 ,class std::<char,struct std::<char>,class std::<char>> &__ptr64 )
?getline@std@@YAAEAV?$basic_istream@DU?$char_traits@D@std@@@1@AEAV21@AEAV?$basic_string@DU?$char_traits@D@std@@V?$allocator@D@2@@1@@Z
; class std::<char,struct std::<char>> &__ptr64 __cdecl std::getline(class std::<char,struct std::<char>> &__ptr64 ,class std::<char,struct std::<char>,class std::<char>> &__ptr64 ,char)
?getline@std@@YAAEAV?$basic_istream@DU?$char_traits@D@std@@@1@AEAV21@AEAV?$basic_string@DU?$char_traits@D@std@@V?$allocator@D@2@@1@D@Z
; class std::<unsigned short,struct std::<unsigned short>> &__ptr64 __cdecl std::getline(class std::<unsigned short,struct std::<unsigned short>> &__ptr64 ,class std::<unsigned short,struct std::<unsigned short>,class std::<unsigned short>> &__ptr64 )
?getline@std@@YAAEAV?$basic_istream@GU?$char_traits@G@std@@@1@AEAV21@AEAV?$basic_string@GU?$char_traits@G@std@@V?$allocator@G@2@@1@@Z
; class std::<unsigned short,struct std::<unsigned short>> &__ptr64 __cdecl std::getline(class std::<unsigned short,struct std::<unsigned short>> &__ptr64 ,class std::<unsigned short,struct std::<unsigned short>,class std::<unsigned short>> &__ptr64 ,unsigned short)
?getline@std@@YAAEAV?$basic_istream@GU?$char_traits@G@std@@@1@AEAV21@AEAV?$basic_string@GU?$char_traits@G@std@@V?$allocator@G@2@@1@G@Z
; public: class std::locale __cdecl std::<char,struct std::<char>>::getloc(void)__ptr64 
?getloc@?$basic_streambuf@DU?$char_traits@D@std@@@std@@QEAA?AVlocale@2@XZ
; public: class std::locale __cdecl std::<unsigned short,struct std::<unsigned short>>::getloc(void)__ptr64 
?getloc@?$basic_streambuf@GU?$char_traits@G@std@@@std@@QEAA?AVlocale@2@XZ
; public: class std::locale __cdecl std::ios_base::getloc(void)const __ptr64 
?getloc@ios_base@std@@QEBA?AVlocale@2@XZ
; public: static class std::locale __cdecl std::locale::global(class std::locale const &__ptr64 )
?global@locale@std@@SA?AV12@AEBV12@@Z
; public: bool __cdecl std::ios_base::good(void)const __ptr64 
?good@ios_base@std@@QEBA_NXZ
; protected: char *__ptr64 __cdecl std::<char,struct std::<char>>::gptr(void)const __ptr64 
?gptr@?$basic_streambuf@DU?$char_traits@D@std@@@std@@IEBAPEADXZ
; protected: unsigned short *__ptr64 __cdecl std::<unsigned short,struct std::<unsigned short>>::gptr(void)const __ptr64 
?gptr@?$basic_streambuf@GU?$char_traits@G@std@@@std@@IEBAPEAGXZ
; public: class std::<char,struct std::<char>,class std::<char>> __cdecl std::<char>::grouping(void)const __ptr64 
?grouping@?$_Mpunct@D@std@@QEBA?AV?$basic_string@DU?$char_traits@D@std@@V?$allocator@D@2@@2@XZ
; public: class std::<char,struct std::<char>,class std::<char>> __cdecl std::<unsigned short>::grouping(void)const __ptr64 
?grouping@?$_Mpunct@G@std@@QEBA?AV?$basic_string@DU?$char_traits@D@std@@V?$allocator@D@2@@2@XZ
; public: class std::<char,struct std::<char>,class std::<char>> __cdecl std::<char>::grouping(void)const __ptr64 
?grouping@?$numpunct@D@std@@QEBA?AV?$basic_string@DU?$char_traits@D@std@@V?$allocator@D@2@@2@XZ
; public: class std::<char,struct std::<char>,class std::<char>> __cdecl std::<unsigned short>::grouping(void)const __ptr64 
?grouping@?$numpunct@G@std@@QEBA?AV?$basic_string@DU?$char_traits@D@std@@V?$allocator@D@2@@2@XZ
; public: long __cdecl std::<char>::hash(char const *__ptr64,char const *__ptr64)const __ptr64 
?hash@?$collate@D@std@@QEBAJPEBD0@Z
; public: long __cdecl std::<unsigned short>::hash(unsigned short const *__ptr64,unsigned short const *__ptr64)const __ptr64 
?hash@?$collate@G@std@@QEBAJPEBG0@Z
; public: static class std::locale::id std::<char,char,int>::id
?id@?$codecvt@DDH@std@@2V0locale@2@A DATA
; public: static class std::locale::id std::<unsigned short,char,int>::id
?id@?$codecvt@GDH@std@@2V0locale@2@A DATA
; public: static class std::locale::id std::<char>::id
?id@?$collate@D@std@@2V0locale@2@A DATA
; public: static class std::locale::id std::<unsigned short>::id
?id@?$collate@G@std@@2V0locale@2@A DATA
; public: static class std::locale::id std::<char>::id
?id@?$ctype@D@std@@2V0locale@2@A DATA
; public: static class std::locale::id std::<unsigned short>::id
?id@?$ctype@G@std@@2V0locale@2@A DATA
; public: static class std::locale::id std::<char>::id
?id@?$messages@D@std@@2V0locale@2@A DATA
; public: static class std::locale::id std::<unsigned short>::id
?id@?$messages@G@std@@2V0locale@2@A DATA
; public: static class std::locale::id std::<char,class std::<char,struct std::<char>>>::id
?id@?$money_get@DV?$istreambuf_iterator@DU?$char_traits@D@std@@@std@@@std@@2V0locale@2@A DATA
; public: static class std::locale::id std::<unsigned short,class std::<unsigned short,struct std::<unsigned short>>>::id
?id@?$money_get@GV?$istreambuf_iterator@GU?$char_traits@G@std@@@std@@@std@@2V0locale@2@A DATA
; public: static class std::locale::id std::<char,class std::<char,struct std::<char>>>::id
?id@?$money_put@DV?$ostreambuf_iterator@DU?$char_traits@D@std@@@std@@@std@@2V0locale@2@A DATA
; public: static class std::locale::id std::<unsigned short,class std::<unsigned short,struct std::<unsigned short>>>::id
?id@?$money_put@GV?$ostreambuf_iterator@GU?$char_traits@G@std@@@std@@@std@@2V0locale@2@A DATA
; public: static class std::locale::id std::<char,0x1ULL>::id
?id@?$moneypunct@D$00@std@@2V0locale@2@A DATA
; public: static class std::locale::id std::<char,0x0ULL>::id
?id@?$moneypunct@D$0A@@std@@2V0locale@2@A DATA
; public: static class std::locale::id std::<unsigned short,0x1ULL>::id
?id@?$moneypunct@G$00@std@@2V0locale@2@A DATA
; public: static class std::locale::id std::<unsigned short,0x0ULL>::id
?id@?$moneypunct@G$0A@@std@@2V0locale@2@A DATA
; public: static class std::locale::id std::<char,class std::<char,struct std::<char>>>::id
?id@?$num_get@DV?$istreambuf_iterator@DU?$char_traits@D@std@@@std@@@std@@2V0locale@2@A DATA
; public: static class std::locale::id std::<unsigned short,class std::<unsigned short,struct std::<unsigned short>>>::id
?id@?$num_get@GV?$istreambuf_iterator@GU?$char_traits@G@std@@@std@@@std@@2V0locale@2@A DATA
; public: static class std::locale::id std::<char,class std::<char,struct std::<char>>>::id
?id@?$num_put@DV?$ostreambuf_iterator@DU?$char_traits@D@std@@@std@@@std@@2V0locale@2@A DATA
; public: static class std::locale::id std::<unsigned short,class std::<unsigned short,struct std::<unsigned short>>>::id
?id@?$num_put@GV?$ostreambuf_iterator@GU?$char_traits@G@std@@@std@@@std@@2V0locale@2@A DATA
; public: static class std::locale::id std::<char>::id
?id@?$numpunct@D@std@@2V0locale@2@A DATA
; public: static class std::locale::id std::<unsigned short>::id
?id@?$numpunct@G@std@@2V0locale@2@A DATA
; public: static class std::locale::id std::<char,class std::<char,struct std::<char>>>::id
?id@?$time_get@DV?$istreambuf_iterator@DU?$char_traits@D@std@@@std@@@std@@2V0locale@2@A DATA
; public: static class std::locale::id std::<unsigned short,class std::<unsigned short,struct std::<unsigned short>>>::id
?id@?$time_get@GV?$istreambuf_iterator@GU?$char_traits@G@std@@@std@@@std@@2V0locale@2@A DATA
; public: static class std::locale::id std::<char,class std::<char,struct std::<char>>>::id
?id@?$time_put@DV?$ostreambuf_iterator@DU?$char_traits@D@std@@@std@@@std@@2V0locale@2@A DATA
; public: static class std::locale::id std::<unsigned short,class std::<unsigned short,struct std::<unsigned short>>>::id
?id@?$time_put@GV?$ostreambuf_iterator@GU?$char_traits@G@std@@@std@@@std@@2V0locale@2@A DATA
; public: class std::<char,struct std::<char>> &__ptr64 __cdecl std::<char,struct std::<char>>::ignore(__int64,int)__ptr64 
?ignore@?$basic_istream@DU?$char_traits@D@std@@@std@@QEAAAEAV12@_JH@Z
; public: class std::<unsigned short,struct std::<unsigned short>> &__ptr64 __cdecl std::<unsigned short,struct std::<unsigned short>>::ignore(__int64,unsigned short)__ptr64 
?ignore@?$basic_istream@GU?$char_traits@G@std@@@std@@QEAAAEAV12@_JG@Z
; public: float __cdecl std::<float>::imag(float const &__ptr64 )__ptr64 
?imag@?$_Complex_base@M@std@@QEAAMAEBM@Z
; public: float __cdecl std::<float>::imag(void)const __ptr64 
?imag@?$_Complex_base@M@std@@QEBAMXZ
; public: double __cdecl std::<double>::imag(double const &__ptr64 )__ptr64 
?imag@?$_Complex_base@N@std@@QEAANAEBN@Z
; public: double __cdecl std::<double>::imag(void)const __ptr64 
?imag@?$_Complex_base@N@std@@QEBANXZ
; public: long double __cdecl std::<long double>::imag(long double const &__ptr64 )__ptr64 
?imag@?$_Complex_base@O@std@@QEAAOAEBO@Z
; public: long double __cdecl std::<long double>::imag(void)const __ptr64 
?imag@?$_Complex_base@O@std@@QEBAOXZ
; float __cdecl std::imag(class std::<float> const &__ptr64 )
?imag@std@@YAMAEBV?$complex@M@1@@Z
; double __cdecl std::imag(class std::<double> const &__ptr64 )
?imag@std@@YANAEBV?$complex@N@1@@Z
; long double __cdecl std::imag(class std::<long double> const &__ptr64 )
?imag@std@@YAOAEBV?$complex@O@1@@Z
; public: class std::locale __cdecl std::<char,struct std::<char>>::imbue(class std::locale const &__ptr64 )__ptr64 
?imbue@?$basic_ios@DU?$char_traits@D@std@@@std@@QEAA?AVlocale@2@AEBV32@@Z
; public: class std::locale __cdecl std::<unsigned short,struct std::<unsigned short>>::imbue(class std::locale const &__ptr64 )__ptr64 
?imbue@?$basic_ios@GU?$char_traits@G@std@@@std@@QEAA?AVlocale@2@AEBV32@@Z
; protected: virtual void __cdecl std::<char,struct std::<char>>::imbue(class std::locale const &__ptr64 )__ptr64 
?imbue@?$basic_streambuf@DU?$char_traits@D@std@@@std@@MEAAXAEBVlocale@2@@Z
; protected: virtual void __cdecl std::<unsigned short,struct std::<unsigned short>>::imbue(class std::locale const &__ptr64 )__ptr64 
?imbue@?$basic_streambuf@GU?$char_traits@G@std@@@std@@MEAAXAEBVlocale@2@@Z
; public: class std::locale __cdecl std::ios_base::imbue(class std::locale const &__ptr64 )__ptr64 
?imbue@ios_base@std@@QEAA?AVlocale@2@AEBV32@@Z
; public: int __cdecl std::<char,char,int>::in(int &__ptr64 ,char const *__ptr64,char const *__ptr64,char const *__ptr64 &__ptr64 ,char *__ptr64,char *__ptr64,char *__ptr64 &__ptr64 )const __ptr64 
?in@?$codecvt@DDH@std@@QEBAHAEAHPEBD1AEAPEBDPEAD3AEAPEAD@Z
; public: int __cdecl std::<unsigned short,char,int>::in(int &__ptr64 ,char const *__ptr64,char const *__ptr64,char const *__ptr64 &__ptr64 ,unsigned short *__ptr64,unsigned short *__ptr64,unsigned short *__ptr64 &__ptr64 )const __ptr64 
?in@?$codecvt@GDH@std@@QEBAHAEAHPEBD1AEAPEBDPEAG3AEAPEAG@Z
; public: __int64 __cdecl std::<char,struct std::<char>>::in_avail(void)__ptr64 
?in_avail@?$basic_streambuf@DU?$char_traits@D@std@@@std@@QEAA_JXZ
; public: __int64 __cdecl std::<unsigned short,struct std::<unsigned short>>::in_avail(void)__ptr64 
?in_avail@?$basic_streambuf@GU?$char_traits@G@std@@@std@@QEAA_JXZ
; public: static signed char __cdecl std::<signed char>::infinity(void)
?infinity@?$numeric_limits@C@std@@SACXZ
; public: static char __cdecl std::<char>::infinity(void)
?infinity@?$numeric_limits@D@std@@SADXZ
; public: static unsigned char __cdecl std::<unsigned char>::infinity(void)
?infinity@?$numeric_limits@E@std@@SAEXZ
; public: static short __cdecl std::<short>::infinity(void)
?infinity@?$numeric_limits@F@std@@SAFXZ
; public: static unsigned short __cdecl std::<unsigned short>::infinity(void)
?infinity@?$numeric_limits@G@std@@SAGXZ
; public: static int __cdecl std::<int>::infinity(void)
?infinity@?$numeric_limits@H@std@@SAHXZ
; public: static unsigned int __cdecl std::<unsigned int>::infinity(void)
?infinity@?$numeric_limits@I@std@@SAIXZ
; public: static long __cdecl std::<long>::infinity(void)
?infinity@?$numeric_limits@J@std@@SAJXZ
; public: static unsigned long __cdecl std::<unsigned long>::infinity(void)
?infinity@?$numeric_limits@K@std@@SAKXZ
; public: static float __cdecl std::<float>::infinity(void)
?infinity@?$numeric_limits@M@std@@SAMXZ
; public: static double __cdecl std::<double>::infinity(void)
?infinity@?$numeric_limits@N@std@@SANXZ
; public: static long double __cdecl std::<long double>::infinity(void)
?infinity@?$numeric_limits@O@std@@SAOXZ
; public: static bool __cdecl std::<bool>::infinity(void)
?infinity@?$numeric_limits@_N@std@@SA_NXZ
; protected: void __cdecl std::<char,struct std::<char>>::init(class std::<char,struct std::<char>> *__ptr64,bool)__ptr64 
?init@?$basic_ios@DU?$char_traits@D@std@@@std@@IEAAXPEAV?$basic_streambuf@DU?$char_traits@D@std@@@2@_N@Z
; protected: void __cdecl std::<unsigned short,struct std::<unsigned short>>::init(class std::<unsigned short,struct std::<unsigned short>> *__ptr64,bool)__ptr64 
?init@?$basic_ios@GU?$char_traits@G@std@@@std@@IEAAXPEAV?$basic_streambuf@GU?$char_traits@G@std@@@2@_N@Z
; public: class std::<char,struct std::<char>,class std::<char>> &__ptr64 __cdecl std::<char,struct std::<char>,class std::<char>>::insert(unsigned __int64,unsigned __int64,char)__ptr64 
?insert@?$basic_string@DU?$char_traits@D@std@@V?$allocator@D@2@@std@@QEAAAEAV12@_K0D@Z
; public: class std::<char,struct std::<char>,class std::<char>> &__ptr64 __cdecl std::<char,struct std::<char>,class std::<char>>::insert(unsigned __int64,class std::<char,struct std::<char>,class std::<char>> const &__ptr64 ,unsigned __int64,unsigned __int64)__ptr64 
?insert@?$basic_string@DU?$char_traits@D@std@@V?$allocator@D@2@@std@@QEAAAEAV12@_KAEBV12@00@Z
; public: class std::<char,struct std::<char>,class std::<char>> &__ptr64 __cdecl std::<char,struct std::<char>,class std::<char>>::insert(unsigned __int64,class std::<char,struct std::<char>,class std::<char>> const &__ptr64 )__ptr64 
?insert@?$basic_string@DU?$char_traits@D@std@@V?$allocator@D@2@@std@@QEAAAEAV12@_KAEBV12@@Z
; public: class std::<char,struct std::<char>,class std::<char>> &__ptr64 __cdecl std::<char,struct std::<char>,class std::<char>>::insert(unsigned __int64,char const *__ptr64,unsigned __int64)__ptr64 
?insert@?$basic_string@DU?$char_traits@D@std@@V?$allocator@D@2@@std@@QEAAAEAV12@_KPEBD0@Z
; public: class std::<char,struct std::<char>,class std::<char>> &__ptr64 __cdecl std::<char,struct std::<char>,class std::<char>>::insert(unsigned __int64,char const *__ptr64)__ptr64 
?insert@?$basic_string@DU?$char_traits@D@std@@V?$allocator@D@2@@std@@QEAAAEAV12@_KPEBD@Z
; public: char *__ptr64 __cdecl std::<char,struct std::<char>,class std::<char>>::insert(char *__ptr64,char)__ptr64 
?insert@?$basic_string@DU?$char_traits@D@std@@V?$allocator@D@2@@std@@QEAAPEADPEADD@Z
; public: void __cdecl std::<char,struct std::<char>,class std::<char>>::insert(char *__ptr64,char const *__ptr64,char const *__ptr64)__ptr64 
?insert@?$basic_string@DU?$char_traits@D@std@@V?$allocator@D@2@@std@@QEAAXPEADPEBD1@Z
; public: void __cdecl std::<char,struct std::<char>,class std::<char>>::insert(char *__ptr64,unsigned __int64,char)__ptr64 
?insert@?$basic_string@DU?$char_traits@D@std@@V?$allocator@D@2@@std@@QEAAXPEAD_KD@Z
; public: class std::<unsigned short,struct std::<unsigned short>,class std::<unsigned short>> &__ptr64 __cdecl std::<unsigned short,struct std::<unsigned short>,class std::<unsigned short>>::insert(unsigned __int64,unsigned __int64,unsigned short)__ptr64 
?insert@?$basic_string@GU?$char_traits@G@std@@V?$allocator@G@2@@std@@QEAAAEAV12@_K0G@Z
; public: class std::<unsigned short,struct std::<unsigned short>,class std::<unsigned short>> &__ptr64 __cdecl std::<unsigned short,struct std::<unsigned short>,class std::<unsigned short>>::insert(unsigned __int64,class std::<unsigned short,struct std::<unsigned short>,class std::<unsigned short>> const &__ptr64 ,unsigned __int64,unsigned __int64)__ptr64 
?insert@?$basic_string@GU?$char_traits@G@std@@V?$allocator@G@2@@std@@QEAAAEAV12@_KAEBV12@00@Z
; public: class std::<unsigned short,struct std::<unsigned short>,class std::<unsigned short>> &__ptr64 __cdecl std::<unsigned short,struct std::<unsigned short>,class std::<unsigned short>>::insert(unsigned __int64,class std::<unsigned short,struct std::<unsigned short>,class std::<unsigned short>> const &__ptr64 )__ptr64 
?insert@?$basic_string@GU?$char_traits@G@std@@V?$allocator@G@2@@std@@QEAAAEAV12@_KAEBV12@@Z
; public: class std::<unsigned short,struct std::<unsigned short>,class std::<unsigned short>> &__ptr64 __cdecl std::<unsigned short,struct std::<unsigned short>,class std::<unsigned short>>::insert(unsigned __int64,unsigned short const *__ptr64,unsigned __int64)__ptr64 
?insert@?$basic_string@GU?$char_traits@G@std@@V?$allocator@G@2@@std@@QEAAAEAV12@_KPEBG0@Z
; public: class std::<unsigned short,struct std::<unsigned short>,class std::<unsigned short>> &__ptr64 __cdecl std::<unsigned short,struct std::<unsigned short>,class std::<unsigned short>>::insert(unsigned __int64,unsigned short const *__ptr64)__ptr64 
?insert@?$basic_string@GU?$char_traits@G@std@@V?$allocator@G@2@@std@@QEAAAEAV12@_KPEBG@Z
; public: unsigned short *__ptr64 __cdecl std::<unsigned short,struct std::<unsigned short>,class std::<unsigned short>>::insert(unsigned short *__ptr64,unsigned short)__ptr64 
?insert@?$basic_string@GU?$char_traits@G@std@@V?$allocator@G@2@@std@@QEAAPEAGPEAGG@Z
; public: void __cdecl std::<unsigned short,struct std::<unsigned short>,class std::<unsigned short>>::insert(unsigned short *__ptr64,unsigned short const *__ptr64,unsigned short const *__ptr64)__ptr64 
?insert@?$basic_string@GU?$char_traits@G@std@@V?$allocator@G@2@@std@@QEAAXPEAGPEBG1@Z
; public: void __cdecl std::<unsigned short,struct std::<unsigned short>,class std::<unsigned short>>::insert(unsigned short *__ptr64,unsigned __int64,unsigned short)__ptr64 
?insert@?$basic_string@GU?$char_traits@G@std@@V?$allocator@G@2@@std@@QEAAXPEAG_KG@Z
; public: static bool const std::<char,0x1ULL>::intl
?intl@?$moneypunct@D$00@std@@2_NB
; public: static bool const std::<char,0x0ULL>::intl
?intl@?$moneypunct@D$0A@@std@@2_NB
; public: static bool const std::<unsigned short,0x1ULL>::intl
?intl@?$moneypunct@G$00@std@@2_NB
; public: static bool const std::<unsigned short,0x0ULL>::intl
?intl@?$moneypunct@G$0A@@std@@2_NB
; public: bool __cdecl std::<char,struct std::<char>>::ipfx(bool)__ptr64 
?ipfx@?$basic_istream@DU?$char_traits@D@std@@@std@@QEAA_N_N@Z
; public: bool __cdecl std::<unsigned short,struct std::<unsigned short>>::ipfx(bool)__ptr64 
?ipfx@?$basic_istream@GU?$char_traits@G@std@@@std@@QEAA_N_N@Z
; public: char const *__ptr64 __cdecl std::<char>::is(char const *__ptr64,char const *__ptr64,short *__ptr64)const __ptr64 
?is@?$ctype@D@std@@QEBAPEBDPEBD0PEAF@Z
; public: bool __cdecl std::<char>::is(short,char)const __ptr64 
?is@?$ctype@D@std@@QEBA_NFD@Z
; public: unsigned short const *__ptr64 __cdecl std::<unsigned short>::is(unsigned short const *__ptr64,unsigned short const *__ptr64,short *__ptr64)const __ptr64 
?is@?$ctype@G@std@@QEBAPEBGPEBG0PEAF@Z
; public: bool __cdecl std::<unsigned short>::is(short,unsigned short)const __ptr64 
?is@?$ctype@G@std@@QEBA_NFG@Z
; public: bool __cdecl std::<char,struct std::<char>>::is_open(void)const __ptr64 
?is_open@?$basic_filebuf@DU?$char_traits@D@std@@@std@@QEBA_NXZ
; public: bool __cdecl std::<unsigned short,struct std::<unsigned short>>::is_open(void)const __ptr64 
?is_open@?$basic_filebuf@GU?$char_traits@G@std@@@std@@QEBA_NXZ
; public: bool __cdecl std::<char,struct std::<char>>::is_open(void)const __ptr64 
?is_open@?$basic_fstream@DU?$char_traits@D@std@@@std@@QEBA_NXZ
; public: bool __cdecl std::<unsigned short,struct std::<unsigned short>>::is_open(void)const __ptr64 
?is_open@?$basic_fstream@GU?$char_traits@G@std@@@std@@QEBA_NXZ
; public: bool __cdecl std::<char,struct std::<char>>::is_open(void)const __ptr64 
?is_open@?$basic_ifstream@DU?$char_traits@D@std@@@std@@QEBA_NXZ
; public: bool __cdecl std::<unsigned short,struct std::<unsigned short>>::is_open(void)const __ptr64 
?is_open@?$basic_ifstream@GU?$char_traits@G@std@@@std@@QEBA_NXZ
; public: bool __cdecl std::<char,struct std::<char>>::is_open(void)const __ptr64 
?is_open@?$basic_ofstream@DU?$char_traits@D@std@@@std@@QEBA_NXZ
; public: bool __cdecl std::<unsigned short,struct std::<unsigned short>>::is_open(void)const __ptr64 
?is_open@?$basic_ofstream@GU?$char_traits@G@std@@@std@@QEBA_NXZ
; public: void __cdecl std::<char,struct std::<char>>::isfx(void)__ptr64 
?isfx@?$basic_istream@DU?$char_traits@D@std@@@std@@QEAAXXZ
; public: void __cdecl std::<unsigned short,struct std::<unsigned short>>::isfx(void)__ptr64 
?isfx@?$basic_istream@GU?$char_traits@G@std@@@std@@QEAAXXZ
; public: long &__ptr64 __cdecl std::ios_base::iword(int)__ptr64 
?iword@ios_base@std@@QEAAAEAJH@Z
; public: static float __cdecl std::<float>::ldexp(float,int)
?ldexp@?$_Ctr@M@std@@SAMMH@Z
; public: static double __cdecl std::<double>::ldexp(double,int)
?ldexp@?$_Ctr@N@std@@SANNH@Z
; public: static long double __cdecl std::<long double>::ldexp(long double,int)
?ldexp@?$_Ctr@O@std@@SAOOH@Z
; public: unsigned __int64 __cdecl std::<char,struct std::<char>,class std::<char>>::length(void)const __ptr64 
?length@?$basic_string@DU?$char_traits@D@std@@V?$allocator@D@2@@std@@QEBA_KXZ
; public: unsigned __int64 __cdecl std::<unsigned short,struct std::<unsigned short>,class std::<unsigned short>>::length(void)const __ptr64 
?length@?$basic_string@GU?$char_traits@G@std@@V?$allocator@G@2@@std@@QEBA_KXZ
; public: static unsigned __int64 __cdecl std::<char>::length(char const *__ptr64)
?length@?$char_traits@D@std@@SA_KPEBD@Z
; public: static unsigned __int64 __cdecl std::<unsigned short>::length(unsigned short const *__ptr64)
?length@?$char_traits@G@std@@SA_KPEBG@Z
; public: int __cdecl std::<char,char,int>::length(int &__ptr64 ,char const *__ptr64,char const *__ptr64,unsigned __int64)const __ptr64 
?length@?$codecvt@DDH@std@@QEBAHAEAHPEBD1_K@Z
; public: int __cdecl std::<unsigned short,char,int>::length(int &__ptr64 ,unsigned short const *__ptr64,unsigned short const *__ptr64,unsigned __int64)const __ptr64 
?length@?$codecvt@GDH@std@@QEBAHAEAHPEBG1_K@Z
; class std::<float> __cdecl std::log10(class std::<float> const &__ptr64 )
?log10@std@@YA?AV?$complex@M@1@AEBV21@@Z
; class std::<double> __cdecl std::log10(class std::<double> const &__ptr64 )
?log10@std@@YA?AV?$complex@N@1@AEBV21@@Z
; class std::<long double> __cdecl std::log10(class std::<long double> const &__ptr64 )
?log10@std@@YA?AV?$complex@O@1@AEBV21@@Z
; public: static float __cdecl std::<float>::log(float)
?log@?$_Ctr@M@std@@SAMM@Z
; public: static double __cdecl std::<double>::log(double)
?log@?$_Ctr@N@std@@SANN@Z
; public: static long double __cdecl std::<long double>::log(long double)
?log@?$_Ctr@O@std@@SAOO@Z
; class std::<float> __cdecl std::log(class std::<float> const &__ptr64 )
?log@std@@YA?AV?$complex@M@1@AEBV21@@Z
; class std::<double> __cdecl std::log(class std::<double> const &__ptr64 )
?log@std@@YA?AV?$complex@N@1@AEBV21@@Z
; class std::<long double> __cdecl std::log(class std::<long double> const &__ptr64 )
?log@std@@YA?AV?$complex@O@1@AEBV21@@Z
; public: static bool __cdecl std::<char>::lt(char const &__ptr64 ,char const &__ptr64 )
?lt@?$char_traits@D@std@@SA_NAEBD0@Z
; public: static bool __cdecl std::<unsigned short>::lt(unsigned short const &__ptr64 ,unsigned short const &__ptr64 )
?lt@?$char_traits@G@std@@SA_NAEBG0@Z
; public: static signed char __cdecl std::<signed char>::max(void)
?max@?$numeric_limits@C@std@@SACXZ
; public: static char __cdecl std::<char>::max(void)
?max@?$numeric_limits@D@std@@SADXZ
; public: static unsigned char __cdecl std::<unsigned char>::max(void)
?max@?$numeric_limits@E@std@@SAEXZ
; public: static short __cdecl std::<short>::max(void)
?max@?$numeric_limits@F@std@@SAFXZ
; public: static unsigned short __cdecl std::<unsigned short>::max(void)
?max@?$numeric_limits@G@std@@SAGXZ
; public: static int __cdecl std::<int>::max(void)
?max@?$numeric_limits@H@std@@SAHXZ
; public: static unsigned int __cdecl std::<unsigned int>::max(void)
?max@?$numeric_limits@I@std@@SAIXZ
; public: static long __cdecl std::<long>::max(void)
?max@?$numeric_limits@J@std@@SAJXZ
; public: static unsigned long __cdecl std::<unsigned long>::max(void)
?max@?$numeric_limits@K@std@@SAKXZ
; public: static float __cdecl std::<float>::max(void)
?max@?$numeric_limits@M@std@@SAMXZ
; public: static double __cdecl std::<double>::max(void)
?max@?$numeric_limits@N@std@@SANXZ
; public: static long double __cdecl std::<long double>::max(void)
?max@?$numeric_limits@O@std@@SAOXZ
; public: static bool __cdecl std::<bool>::max(void)
?max@?$numeric_limits@_N@std@@SA_NXZ
; public: int __cdecl std::codecvt_base::max_length(void)const __ptr64 
?max_length@codecvt_base@std@@QEBAHXZ
; public: unsigned __int64 __cdecl std::<char,struct std::<char>,class std::<char>>::max_size(void)const __ptr64 
?max_size@?$basic_string@DU?$char_traits@D@std@@V?$allocator@D@2@@std@@QEBA_KXZ
; public: unsigned __int64 __cdecl std::<unsigned short,struct std::<unsigned short>,class std::<unsigned short>>::max_size(void)const __ptr64 
?max_size@?$basic_string@GU?$char_traits@G@std@@V?$allocator@G@2@@std@@QEBA_KXZ
; public: static signed char __cdecl std::<signed char>::min(void)
?min@?$numeric_limits@C@std@@SACXZ
; public: static char __cdecl std::<char>::min(void)
?min@?$numeric_limits@D@std@@SADXZ
; public: static unsigned char __cdecl std::<unsigned char>::min(void)
?min@?$numeric_limits@E@std@@SAEXZ
; public: static short __cdecl std::<short>::min(void)
?min@?$numeric_limits@F@std@@SAFXZ
; public: static unsigned short __cdecl std::<unsigned short>::min(void)
?min@?$numeric_limits@G@std@@SAGXZ
; public: static int __cdecl std::<int>::min(void)
?min@?$numeric_limits@H@std@@SAHXZ
; public: static unsigned int __cdecl std::<unsigned int>::min(void)
?min@?$numeric_limits@I@std@@SAIXZ
; public: static long __cdecl std::<long>::min(void)
?min@?$numeric_limits@J@std@@SAJXZ
; public: static unsigned long __cdecl std::<unsigned long>::min(void)
?min@?$numeric_limits@K@std@@SAKXZ
; public: static float __cdecl std::<float>::min(void)
?min@?$numeric_limits@M@std@@SAMXZ
; public: static double __cdecl std::<double>::min(void)
?min@?$numeric_limits@N@std@@SANXZ
; public: static long double __cdecl std::<long double>::min(void)
?min@?$numeric_limits@O@std@@SAOXZ
; public: static bool __cdecl std::<bool>::min(void)
?min@?$numeric_limits@_N@std@@SA_NXZ
; public: static char *__ptr64 __cdecl std::<char>::move(char *__ptr64,char const *__ptr64,unsigned __int64)
?move@?$char_traits@D@std@@SAPEADPEADPEBD_K@Z
; public: static unsigned short *__ptr64 __cdecl std::<unsigned short>::move(unsigned short *__ptr64,unsigned short const *__ptr64,unsigned __int64)
?move@?$char_traits@G@std@@SAPEAGPEAGPEBG_K@Z
; public: class std::<char,struct std::<char>,class std::<char>> __cdecl std::locale::name(void)const __ptr64 
?name@locale@std@@QEBA?AV?$basic_string@DU?$char_traits@D@std@@V?$allocator@D@2@@2@XZ
; public: char __cdecl std::<char,struct std::<char>>::narrow(char,char)const __ptr64 
?narrow@?$basic_ios@DU?$char_traits@D@std@@@std@@QEBADDD@Z
; public: char __cdecl std::<unsigned short,struct std::<unsigned short>>::narrow(unsigned short,char)const __ptr64 
?narrow@?$basic_ios@GU?$char_traits@G@std@@@std@@QEBADGD@Z
; public: char __cdecl std::<char>::narrow(char,char)const __ptr64 
?narrow@?$ctype@D@std@@QEBADDD@Z
; public: char const *__ptr64 __cdecl std::<char>::narrow(char const *__ptr64,char const *__ptr64,char,char *__ptr64)const __ptr64 
?narrow@?$ctype@D@std@@QEBAPEBDPEBD0DPEAD@Z
; public: char __cdecl std::<unsigned short>::narrow(unsigned short,char)const __ptr64 
?narrow@?$ctype@G@std@@QEBADGD@Z
; public: unsigned short const *__ptr64 __cdecl std::<unsigned short>::narrow(unsigned short const *__ptr64,unsigned short const *__ptr64,char,char *__ptr64)const __ptr64 
?narrow@?$ctype@G@std@@QEBAPEBGPEBG0DPEAD@Z
; public: struct std::money_base::pattern __cdecl std::<char>::neg_format(void)const __ptr64 
?neg_format@?$_Mpunct@D@std@@QEBA?AUpattern@money_base@2@XZ
; public: struct std::money_base::pattern __cdecl std::<unsigned short>::neg_format(void)const __ptr64 
?neg_format@?$_Mpunct@G@std@@QEBA?AUpattern@money_base@2@XZ
; public: class std::<char,struct std::<char>,class std::<char>> __cdecl std::<char>::negative_sign(void)const __ptr64 
?negative_sign@?$_Mpunct@D@std@@QEBA?AV?$basic_string@DU?$char_traits@D@std@@V?$allocator@D@2@@2@XZ
; public: class std::<unsigned short,struct std::<unsigned short>,class std::<unsigned short>> __cdecl std::<unsigned short>::negative_sign(void)const __ptr64 
?negative_sign@?$_Mpunct@G@std@@QEBA?AV?$basic_string@GU?$char_traits@G@std@@V?$allocator@G@2@@2@XZ
; float __cdecl std::norm(class std::<float> const &__ptr64 )
?norm@std@@YAMAEBV?$complex@M@1@@Z
; double __cdecl std::norm(class std::<double> const &__ptr64 )
?norm@std@@YANAEBV?$complex@N@1@@Z
; long double __cdecl std::norm(class std::<long double> const &__ptr64 )
?norm@std@@YAOAEBV?$complex@O@1@@Z
; public: static int __cdecl std::<char>::not_eof(int const &__ptr64 )
?not_eof@?$char_traits@D@std@@SAHAEBH@Z
; public: static unsigned short __cdecl std::<unsigned short>::not_eof(unsigned short const &__ptr64 )
?not_eof@?$char_traits@G@std@@SAGAEBG@Z
; struct std::nothrow_t const std::nothrow
?nothrow@std@@3Unothrow_t@1@B
; public: static unsigned __int64 const std::<char,struct std::<char>,class std::<char>>::npos
?npos@?$basic_string@DU?$char_traits@D@std@@V?$allocator@D@2@@std@@2_KB
; public: static unsigned __int64 const std::<unsigned short,struct std::<unsigned short>,class std::<unsigned short>>::npos
?npos@?$basic_string@GU?$char_traits@G@std@@V?$allocator@G@2@@std@@2_KB
; public: class std::<char,struct std::<char>> *__ptr64 __cdecl std::<char,struct std::<char>>::open(char const *__ptr64,short)__ptr64 
?open@?$basic_filebuf@DU?$char_traits@D@std@@@std@@QEAAPEAV12@PEBDF@Z
; public: class std::<char,struct std::<char>> *__ptr64 __cdecl std::<char,struct std::<char>>::open(char const *__ptr64,int)__ptr64 
?open@?$basic_filebuf@DU?$char_traits@D@std@@@std@@QEAAPEAV12@PEBDH@Z
; public: class std::<unsigned short,struct std::<unsigned short>> *__ptr64 __cdecl std::<unsigned short,struct std::<unsigned short>>::open(char const *__ptr64,short)__ptr64 
?open@?$basic_filebuf@GU?$char_traits@G@std@@@std@@QEAAPEAV12@PEBDF@Z
; public: class std::<unsigned short,struct std::<unsigned short>> *__ptr64 __cdecl std::<unsigned short,struct std::<unsigned short>>::open(char const *__ptr64,int)__ptr64 
?open@?$basic_filebuf@GU?$char_traits@G@std@@@std@@QEAAPEAV12@PEBDH@Z
; public: void __cdecl std::<char,struct std::<char>>::open(char const *__ptr64,short)__ptr64 
?open@?$basic_fstream@DU?$char_traits@D@std@@@std@@QEAAXPEBDF@Z
; public: void __cdecl std::<char,struct std::<char>>::open(char const *__ptr64,int)__ptr64 
?open@?$basic_fstream@DU?$char_traits@D@std@@@std@@QEAAXPEBDH@Z
; public: void __cdecl std::<unsigned short,struct std::<unsigned short>>::open(char const *__ptr64,short)__ptr64 
?open@?$basic_fstream@GU?$char_traits@G@std@@@std@@QEAAXPEBDF@Z
; public: void __cdecl std::<unsigned short,struct std::<unsigned short>>::open(char const *__ptr64,int)__ptr64 
?open@?$basic_fstream@GU?$char_traits@G@std@@@std@@QEAAXPEBDH@Z
; public: void __cdecl std::<char,struct std::<char>>::open(char const *__ptr64,short)__ptr64 
?open@?$basic_ifstream@DU?$char_traits@D@std@@@std@@QEAAXPEBDF@Z
; public: void __cdecl std::<char,struct std::<char>>::open(char const *__ptr64,int)__ptr64 
?open@?$basic_ifstream@DU?$char_traits@D@std@@@std@@QEAAXPEBDH@Z
; public: void __cdecl std::<unsigned short,struct std::<unsigned short>>::open(char const *__ptr64,short)__ptr64 
?open@?$basic_ifstream@GU?$char_traits@G@std@@@std@@QEAAXPEBDF@Z
; public: void __cdecl std::<unsigned short,struct std::<unsigned short>>::open(char const *__ptr64,int)__ptr64 
?open@?$basic_ifstream@GU?$char_traits@G@std@@@std@@QEAAXPEBDH@Z
; public: void __cdecl std::<char,struct std::<char>>::open(char const *__ptr64,short)__ptr64 
?open@?$basic_ofstream@DU?$char_traits@D@std@@@std@@QEAAXPEBDF@Z
; public: void __cdecl std::<char,struct std::<char>>::open(char const *__ptr64,int)__ptr64 
?open@?$basic_ofstream@DU?$char_traits@D@std@@@std@@QEAAXPEBDH@Z
; public: void __cdecl std::<unsigned short,struct std::<unsigned short>>::open(char const *__ptr64,short)__ptr64 
?open@?$basic_ofstream@GU?$char_traits@G@std@@@std@@QEAAXPEBDF@Z
; public: void __cdecl std::<unsigned short,struct std::<unsigned short>>::open(char const *__ptr64,int)__ptr64 
?open@?$basic_ofstream@GU?$char_traits@G@std@@@std@@QEAAXPEBDH@Z
; public: int __cdecl std::<char>::open(class std::<char,struct std::<char>,class std::<char>> const &__ptr64 ,class std::locale const &__ptr64 )const __ptr64 
?open@?$messages@D@std@@QEBAHAEBV?$basic_string@DU?$char_traits@D@std@@V?$allocator@D@2@@2@AEBVlocale@2@@Z
; public: int __cdecl std::<unsigned short>::open(class std::<char,struct std::<char>,class std::<char>> const &__ptr64 ,class std::locale const &__ptr64 )const __ptr64 
?open@?$messages@G@std@@QEBAHAEBV?$basic_string@DU?$char_traits@D@std@@V?$allocator@D@2@@2@AEBVlocale@2@@Z
; public: bool __cdecl std::<char,struct std::<char>>::opfx(void)__ptr64 
?opfx@?$basic_ostream@DU?$char_traits@D@std@@@std@@QEAA_NXZ
; public: bool __cdecl std::<unsigned short,struct std::<unsigned short>>::opfx(void)__ptr64 
?opfx@?$basic_ostream@GU?$char_traits@G@std@@@std@@QEAA_NXZ
; public: void __cdecl std::<char,struct std::<char>>::osfx(void)__ptr64 
?osfx@?$basic_ostream@DU?$char_traits@D@std@@@std@@QEAAXXZ
; public: void __cdecl std::<unsigned short,struct std::<unsigned short>>::osfx(void)__ptr64 
?osfx@?$basic_ostream@GU?$char_traits@G@std@@@std@@QEAAXXZ
; public: int __cdecl std::<char,char,int>::out(int &__ptr64 ,char const *__ptr64,char const *__ptr64,char const *__ptr64 &__ptr64 ,char *__ptr64,char *__ptr64,char *__ptr64 &__ptr64 )const __ptr64 
?out@?$codecvt@DDH@std@@QEBAHAEAHPEBD1AEAPEBDPEAD3AEAPEAD@Z
; public: int __cdecl std::<unsigned short,char,int>::out(int &__ptr64 ,unsigned short const *__ptr64,unsigned short const *__ptr64,unsigned short const *__ptr64 &__ptr64 ,char *__ptr64,char *__ptr64,char *__ptr64 &__ptr64 )const __ptr64 
?out@?$codecvt@GDH@std@@QEBAHAEAHPEBG1AEAPEBGPEAD3AEAPEAD@Z
; protected: virtual int __cdecl std::<char,struct std::<char>>::overflow(int)__ptr64 
?overflow@?$basic_filebuf@DU?$char_traits@D@std@@@std@@MEAAHH@Z
; protected: virtual unsigned short __cdecl std::<unsigned short,struct std::<unsigned short>>::overflow(unsigned short)__ptr64 
?overflow@?$basic_filebuf@GU?$char_traits@G@std@@@std@@MEAAGG@Z
; protected: virtual int __cdecl std::<char,struct std::<char>>::overflow(int)__ptr64 
?overflow@?$basic_streambuf@DU?$char_traits@D@std@@@std@@MEAAHH@Z
; protected: virtual unsigned short __cdecl std::<unsigned short,struct std::<unsigned short>>::overflow(unsigned short)__ptr64 
?overflow@?$basic_streambuf@GU?$char_traits@G@std@@@std@@MEAAGG@Z
; protected: virtual int __cdecl std::<char,struct std::<char>,class std::<char>>::overflow(int)__ptr64 
?overflow@?$basic_stringbuf@DU?$char_traits@D@std@@V?$allocator@D@2@@std@@MEAAHH@Z
; protected: virtual unsigned short __cdecl std::<unsigned short,struct std::<unsigned short>,class std::<unsigned short>>::overflow(unsigned short)__ptr64 
?overflow@?$basic_stringbuf@GU?$char_traits@G@std@@V?$allocator@G@2@@std@@MEAAGG@Z
; protected: virtual int __cdecl std::strstreambuf::overflow(int)__ptr64 
?overflow@strstreambuf@std@@MEAAHH@Z
; protected: virtual int __cdecl std::<char,struct std::<char>>::pbackfail(int)__ptr64 
?pbackfail@?$basic_filebuf@DU?$char_traits@D@std@@@std@@MEAAHH@Z
; protected: virtual unsigned short __cdecl std::<unsigned short,struct std::<unsigned short>>::pbackfail(unsigned short)__ptr64 
?pbackfail@?$basic_filebuf@GU?$char_traits@G@std@@@std@@MEAAGG@Z
; protected: virtual int __cdecl std::<char,struct std::<char>>::pbackfail(int)__ptr64 
?pbackfail@?$basic_streambuf@DU?$char_traits@D@std@@@std@@MEAAHH@Z
; protected: virtual unsigned short __cdecl std::<unsigned short,struct std::<unsigned short>>::pbackfail(unsigned short)__ptr64 
?pbackfail@?$basic_streambuf@GU?$char_traits@G@std@@@std@@MEAAGG@Z
; protected: virtual int __cdecl std::<char,struct std::<char>,class std::<char>>::pbackfail(int)__ptr64 
?pbackfail@?$basic_stringbuf@DU?$char_traits@D@std@@V?$allocator@D@2@@std@@MEAAHH@Z
; protected: virtual unsigned short __cdecl std::<unsigned short,struct std::<unsigned short>,class std::<unsigned short>>::pbackfail(unsigned short)__ptr64 
?pbackfail@?$basic_stringbuf@GU?$char_traits@G@std@@V?$allocator@G@2@@std@@MEAAGG@Z
; protected: virtual int __cdecl std::strstreambuf::pbackfail(int)__ptr64 
?pbackfail@strstreambuf@std@@MEAAHH@Z
; protected: char *__ptr64 __cdecl std::<char,struct std::<char>>::pbase(void)const __ptr64 
?pbase@?$basic_streambuf@DU?$char_traits@D@std@@@std@@IEBAPEADXZ
; protected: unsigned short *__ptr64 __cdecl std::<unsigned short,struct std::<unsigned short>>::pbase(void)const __ptr64 
?pbase@?$basic_streambuf@GU?$char_traits@G@std@@@std@@IEBAPEAGXZ
; protected: void __cdecl std::<char,struct std::<char>>::pbump(int)__ptr64 
?pbump@?$basic_streambuf@DU?$char_traits@D@std@@@std@@IEAAXH@Z
; protected: void __cdecl std::<unsigned short,struct std::<unsigned short>>::pbump(int)__ptr64 
?pbump@?$basic_streambuf@GU?$char_traits@G@std@@@std@@IEAAXH@Z
; public: int __cdecl std::<char,struct std::<char>>::peek(void)__ptr64 
?peek@?$basic_istream@DU?$char_traits@D@std@@@std@@QEAAHXZ
; public: unsigned short __cdecl std::<unsigned short,struct std::<unsigned short>>::peek(void)__ptr64 
?peek@?$basic_istream@GU?$char_traits@G@std@@@std@@QEAAGXZ
; class std::<float> __cdecl std::polar(float const &__ptr64 ,float const &__ptr64 )
?polar@std@@YA?AV?$complex@M@1@AEBM0@Z
; class std::<float> __cdecl std::polar(float const &__ptr64 )
?polar@std@@YA?AV?$complex@M@1@AEBM@Z
; class std::<double> __cdecl std::polar(double const &__ptr64 ,double const &__ptr64 )
?polar@std@@YA?AV?$complex@N@1@AEBN0@Z
; class std::<double> __cdecl std::polar(double const &__ptr64 )
?polar@std@@YA?AV?$complex@N@1@AEBN@Z
; class std::<long double> __cdecl std::polar(long double const &__ptr64 ,long double const &__ptr64 )
?polar@std@@YA?AV?$complex@O@1@AEBO0@Z
; class std::<long double> __cdecl std::polar(long double const &__ptr64 )
?polar@std@@YA?AV?$complex@O@1@AEBO@Z
; public: struct std::money_base::pattern __cdecl std::<char>::pos_format(void)const __ptr64 
?pos_format@?$_Mpunct@D@std@@QEBA?AUpattern@money_base@2@XZ
; public: struct std::money_base::pattern __cdecl std::<unsigned short>::pos_format(void)const __ptr64 
?pos_format@?$_Mpunct@G@std@@QEBA?AUpattern@money_base@2@XZ
; public: class std::<char,struct std::<char>,class std::<char>> __cdecl std::<char>::positive_sign(void)const __ptr64 
?positive_sign@?$_Mpunct@D@std@@QEBA?AV?$basic_string@DU?$char_traits@D@std@@V?$allocator@D@2@@2@XZ
; public: class std::<unsigned short,struct std::<unsigned short>,class std::<unsigned short>> __cdecl std::<unsigned short>::positive_sign(void)const __ptr64 
?positive_sign@?$_Mpunct@G@std@@QEBA?AV?$basic_string@GU?$char_traits@G@std@@V?$allocator@G@2@@2@XZ
; public: static float __cdecl std::<float>::pow(float,float)
?pow@?$_Ctr@M@std@@SAMMM@Z
; public: static double __cdecl std::<double>::pow(double,double)
?pow@?$_Ctr@N@std@@SANNN@Z
; public: static long double __cdecl std::<long double>::pow(long double,long double)
?pow@?$_Ctr@O@std@@SAOOO@Z
; class std::<float> __cdecl std::pow(float const &__ptr64 ,class std::<float> const &__ptr64 )
?pow@std@@YA?AV?$complex@M@1@AEBMAEBV21@@Z
; class std::<float> __cdecl std::pow(class std::<float> const &__ptr64 ,class std::<float> const &__ptr64 )
?pow@std@@YA?AV?$complex@M@1@AEBV21@0@Z
; class std::<float> __cdecl std::pow(class std::<float> const &__ptr64 ,float const &__ptr64 )
?pow@std@@YA?AV?$complex@M@1@AEBV21@AEBM@Z
; class std::<float> __cdecl std::pow(class std::<float> const &__ptr64 ,int)
?pow@std@@YA?AV?$complex@M@1@AEBV21@H@Z
; class std::<double> __cdecl std::pow(double const &__ptr64 ,class std::<double> const &__ptr64 )
?pow@std@@YA?AV?$complex@N@1@AEBNAEBV21@@Z
; class std::<double> __cdecl std::pow(class std::<double> const &__ptr64 ,class std::<double> const &__ptr64 )
?pow@std@@YA?AV?$complex@N@1@AEBV21@0@Z
; class std::<double> __cdecl std::pow(class std::<double> const &__ptr64 ,double const &__ptr64 )
?pow@std@@YA?AV?$complex@N@1@AEBV21@AEBN@Z
; class std::<double> __cdecl std::pow(class std::<double> const &__ptr64 ,int)
?pow@std@@YA?AV?$complex@N@1@AEBV21@H@Z
; class std::<long double> __cdecl std::pow(long double const &__ptr64 ,class std::<long double> const &__ptr64 )
?pow@std@@YA?AV?$complex@O@1@AEBOAEBV21@@Z
; class std::<long double> __cdecl std::pow(class std::<long double> const &__ptr64 ,class std::<long double> const &__ptr64 )
?pow@std@@YA?AV?$complex@O@1@AEBV21@0@Z
; class std::<long double> __cdecl std::pow(class std::<long double> const &__ptr64 ,long double const &__ptr64 )
?pow@std@@YA?AV?$complex@O@1@AEBV21@AEBO@Z
; class std::<long double> __cdecl std::pow(class std::<long double> const &__ptr64 ,int)
?pow@std@@YA?AV?$complex@O@1@AEBV21@H@Z
; protected: char *__ptr64 __cdecl std::<char,struct std::<char>>::pptr(void)const __ptr64 
?pptr@?$basic_streambuf@DU?$char_traits@D@std@@@std@@IEBAPEADXZ
; protected: unsigned short *__ptr64 __cdecl std::<unsigned short,struct std::<unsigned short>>::pptr(void)const __ptr64 
?pptr@?$basic_streambuf@GU?$char_traits@G@std@@@std@@IEBAPEAGXZ
; public: __int64 __cdecl std::ios_base::precision(int)__ptr64 
?precision@ios_base@std@@QEAA_JH@Z
; public: __int64 __cdecl std::ios_base::precision(void)const __ptr64 
?precision@ios_base@std@@QEBA_JXZ
; public: class std::locale __cdecl std::<char,struct std::<char>>::pubimbue(class std::locale const &__ptr64 )__ptr64 
?pubimbue@?$basic_streambuf@DU?$char_traits@D@std@@@std@@QEAA?AVlocale@2@AEBV32@@Z
; public: class std::locale __cdecl std::<unsigned short,struct std::<unsigned short>>::pubimbue(class std::locale const &__ptr64 )__ptr64 
?pubimbue@?$basic_streambuf@GU?$char_traits@G@std@@@std@@QEAA?AVlocale@2@AEBV32@@Z
; public: class std::<int> __cdecl std::<char,struct std::<char>>::pubseekoff(__int64,short,short)__ptr64 
?pubseekoff@?$basic_streambuf@DU?$char_traits@D@std@@@std@@QEAA?AV?$fpos@H@2@_JFF@Z
; public: class std::<int> __cdecl std::<char,struct std::<char>>::pubseekoff(__int64,enum std::ios_base::seekdir,int)__ptr64 
?pubseekoff@?$basic_streambuf@DU?$char_traits@D@std@@@std@@QEAA?AV?$fpos@H@2@_JW4seekdir@ios_base@2@H@Z
; public: class std::<int> __cdecl std::<unsigned short,struct std::<unsigned short>>::pubseekoff(__int64,short,short)__ptr64 
?pubseekoff@?$basic_streambuf@GU?$char_traits@G@std@@@std@@QEAA?AV?$fpos@H@2@_JFF@Z
; public: class std::<int> __cdecl std::<unsigned short,struct std::<unsigned short>>::pubseekoff(__int64,enum std::ios_base::seekdir,int)__ptr64 
?pubseekoff@?$basic_streambuf@GU?$char_traits@G@std@@@std@@QEAA?AV?$fpos@H@2@_JW4seekdir@ios_base@2@H@Z
; public: class std::<int> __cdecl std::<char,struct std::<char>>::pubseekpos(class std::<int>,short)__ptr64 
?pubseekpos@?$basic_streambuf@DU?$char_traits@D@std@@@std@@QEAA?AV?$fpos@H@2@V32@F@Z
; public: class std::<int> __cdecl std::<char,struct std::<char>>::pubseekpos(class std::<int>,int)__ptr64 
?pubseekpos@?$basic_streambuf@DU?$char_traits@D@std@@@std@@QEAA?AV?$fpos@H@2@V32@H@Z
; public: class std::<int> __cdecl std::<unsigned short,struct std::<unsigned short>>::pubseekpos(class std::<int>,short)__ptr64 
?pubseekpos@?$basic_streambuf@GU?$char_traits@G@std@@@std@@QEAA?AV?$fpos@H@2@V32@F@Z
; public: class std::<int> __cdecl std::<unsigned short,struct std::<unsigned short>>::pubseekpos(class std::<int>,int)__ptr64 
?pubseekpos@?$basic_streambuf@GU?$char_traits@G@std@@@std@@QEAA?AV?$fpos@H@2@V32@H@Z
; public: class std::<char,struct std::<char>> *__ptr64 __cdecl std::<char,struct std::<char>>::pubsetbuf(char *__ptr64,__int64)__ptr64 
?pubsetbuf@?$basic_streambuf@DU?$char_traits@D@std@@@std@@QEAAPEAV12@PEAD_J@Z
; public: class std::<unsigned short,struct std::<unsigned short>> *__ptr64 __cdecl std::<unsigned short,struct std::<unsigned short>>::pubsetbuf(unsigned short *__ptr64,__int64)__ptr64 
?pubsetbuf@?$basic_streambuf@GU?$char_traits@G@std@@@std@@QEAAPEAV12@PEAG_J@Z
; public: int __cdecl std::<char,struct std::<char>>::pubsync(void)__ptr64 
?pubsync@?$basic_streambuf@DU?$char_traits@D@std@@@std@@QEAAHXZ
; public: int __cdecl std::<unsigned short,struct std::<unsigned short>>::pubsync(void)__ptr64 
?pubsync@?$basic_streambuf@GU?$char_traits@G@std@@@std@@QEAAHXZ
; public: class std::<char,struct std::<char>> &__ptr64 __cdecl std::<char,struct std::<char>>::put(char)__ptr64 
?put@?$basic_ostream@DU?$char_traits@D@std@@@std@@QEAAAEAV12@D@Z
; public: class std::<unsigned short,struct std::<unsigned short>> &__ptr64 __cdecl std::<unsigned short,struct std::<unsigned short>>::put(unsigned short)__ptr64 
?put@?$basic_ostream@GU?$char_traits@G@std@@@std@@QEAAAEAV12@G@Z
; public: class std::<char,struct std::<char>> __cdecl std::<char,class std::<char,struct std::<char>>>::put(class std::<char,struct std::<char>>,bool,class std::ios_base &__ptr64 ,char,class std::<char,struct std::<char>,class std::<char>> const &__ptr64 )const __ptr64 
?put@?$money_put@DV?$ostreambuf_iterator@DU?$char_traits@D@std@@@std@@@std@@QEBA?AV?$ostreambuf_iterator@DU?$char_traits@D@std@@@2@V32@_NAEAVios_base@2@DAEBV?$basic_string@DU?$char_traits@D@std@@V?$allocator@D@2@@2@@Z
; public: class std::<char,struct std::<char>> __cdecl std::<char,class std::<char,struct std::<char>>>::put(class std::<char,struct std::<char>>,bool,class std::ios_base &__ptr64 ,char,long double)const __ptr64 
?put@?$money_put@DV?$ostreambuf_iterator@DU?$char_traits@D@std@@@std@@@std@@QEBA?AV?$ostreambuf_iterator@DU?$char_traits@D@std@@@2@V32@_NAEAVios_base@2@DO@Z
; public: class std::<unsigned short,struct std::<unsigned short>> __cdecl std::<unsigned short,class std::<unsigned short,struct std::<unsigned short>>>::put(class std::<unsigned short,struct std::<unsigned short>>,bool,class std::ios_base &__ptr64 ,unsigned short,class std::<unsigned short,struct std::<unsigned short>,class std::<unsigned short>> const &__ptr64 )const __ptr64 
?put@?$money_put@GV?$ostreambuf_iterator@GU?$char_traits@G@std@@@std@@@std@@QEBA?AV?$ostreambuf_iterator@GU?$char_traits@G@std@@@2@V32@_NAEAVios_base@2@GAEBV?$basic_string@GU?$char_traits@G@std@@V?$allocator@G@2@@2@@Z
; public: class std::<unsigned short,struct std::<unsigned short>> __cdecl std::<unsigned short,class std::<unsigned short,struct std::<unsigned short>>>::put(class std::<unsigned short,struct std::<unsigned short>>,bool,class std::ios_base &__ptr64 ,unsigned short,long double)const __ptr64 
?put@?$money_put@GV?$ostreambuf_iterator@GU?$char_traits@G@std@@@std@@@std@@QEBA?AV?$ostreambuf_iterator@GU?$char_traits@G@std@@@2@V32@_NAEAVios_base@2@GO@Z
; public: class std::<char,struct std::<char>> __cdecl std::<char,class std::<char,struct std::<char>>>::put(class std::<char,struct std::<char>>,class std::ios_base &__ptr64 ,char,long)const __ptr64 
?put@?$num_put@DV?$ostreambuf_iterator@DU?$char_traits@D@std@@@std@@@std@@QEBA?AV?$ostreambuf_iterator@DU?$char_traits@D@std@@@2@V32@AEAVios_base@2@DJ@Z
; public: class std::<char,struct std::<char>> __cdecl std::<char,class std::<char,struct std::<char>>>::put(class std::<char,struct std::<char>>,class std::ios_base &__ptr64 ,char,unsigned long)const __ptr64 
?put@?$num_put@DV?$ostreambuf_iterator@DU?$char_traits@D@std@@@std@@@std@@QEBA?AV?$ostreambuf_iterator@DU?$char_traits@D@std@@@2@V32@AEAVios_base@2@DK@Z
; public: class std::<char,struct std::<char>> __cdecl std::<char,class std::<char,struct std::<char>>>::put(class std::<char,struct std::<char>>,class std::ios_base &__ptr64 ,char,double)const __ptr64 
?put@?$num_put@DV?$ostreambuf_iterator@DU?$char_traits@D@std@@@std@@@std@@QEBA?AV?$ostreambuf_iterator@DU?$char_traits@D@std@@@2@V32@AEAVios_base@2@DN@Z
; public: class std::<char,struct std::<char>> __cdecl std::<char,class std::<char,struct std::<char>>>::put(class std::<char,struct std::<char>>,class std::ios_base &__ptr64 ,char,long double)const __ptr64 
?put@?$num_put@DV?$ostreambuf_iterator@DU?$char_traits@D@std@@@std@@@std@@QEBA?AV?$ostreambuf_iterator@DU?$char_traits@D@std@@@2@V32@AEAVios_base@2@DO@Z
; public: class std::<char,struct std::<char>> __cdecl std::<char,class std::<char,struct std::<char>>>::put(class std::<char,struct std::<char>>,class std::ios_base &__ptr64 ,char,void const *__ptr64)const __ptr64 
?put@?$num_put@DV?$ostreambuf_iterator@DU?$char_traits@D@std@@@std@@@std@@QEBA?AV?$ostreambuf_iterator@DU?$char_traits@D@std@@@2@V32@AEAVios_base@2@DPEBX@Z
; public: class std::<char,struct std::<char>> __cdecl std::<char,class std::<char,struct std::<char>>>::put(class std::<char,struct std::<char>>,class std::ios_base &__ptr64 ,char,__int64)const __ptr64 
?put@?$num_put@DV?$ostreambuf_iterator@DU?$char_traits@D@std@@@std@@@std@@QEBA?AV?$ostreambuf_iterator@DU?$char_traits@D@std@@@2@V32@AEAVios_base@2@D_J@Z
; public: class std::<char,struct std::<char>> __cdecl std::<char,class std::<char,struct std::<char>>>::put(class std::<char,struct std::<char>>,class std::ios_base &__ptr64 ,char,unsigned __int64)const __ptr64 
?put@?$num_put@DV?$ostreambuf_iterator@DU?$char_traits@D@std@@@std@@@std@@QEBA?AV?$ostreambuf_iterator@DU?$char_traits@D@std@@@2@V32@AEAVios_base@2@D_K@Z
; public: class std::<char,struct std::<char>> __cdecl std::<char,class std::<char,struct std::<char>>>::put(class std::<char,struct std::<char>>,class std::ios_base &__ptr64 ,char,bool)const __ptr64 
?put@?$num_put@DV?$ostreambuf_iterator@DU?$char_traits@D@std@@@std@@@std@@QEBA?AV?$ostreambuf_iterator@DU?$char_traits@D@std@@@2@V32@AEAVios_base@2@D_N@Z
; public: class std::<unsigned short,struct std::<unsigned short>> __cdecl std::<unsigned short,class std::<unsigned short,struct std::<unsigned short>>>::put(class std::<unsigned short,struct std::<unsigned short>>,class std::ios_base &__ptr64 ,unsigned short,long)const __ptr64 
?put@?$num_put@GV?$ostreambuf_iterator@GU?$char_traits@G@std@@@std@@@std@@QEBA?AV?$ostreambuf_iterator@GU?$char_traits@G@std@@@2@V32@AEAVios_base@2@GJ@Z
; public: class std::<unsigned short,struct std::<unsigned short>> __cdecl std::<unsigned short,class std::<unsigned short,struct std::<unsigned short>>>::put(class std::<unsigned short,struct std::<unsigned short>>,class std::ios_base &__ptr64 ,unsigned short,unsigned long)const __ptr64 
?put@?$num_put@GV?$ostreambuf_iterator@GU?$char_traits@G@std@@@std@@@std@@QEBA?AV?$ostreambuf_iterator@GU?$char_traits@G@std@@@2@V32@AEAVios_base@2@GK@Z
; public: class std::<unsigned short,struct std::<unsigned short>> __cdecl std::<unsigned short,class std::<unsigned short,struct std::<unsigned short>>>::put(class std::<unsigned short,struct std::<unsigned short>>,class std::ios_base &__ptr64 ,unsigned short,double)const __ptr64 
?put@?$num_put@GV?$ostreambuf_iterator@GU?$char_traits@G@std@@@std@@@std@@QEBA?AV?$ostreambuf_iterator@GU?$char_traits@G@std@@@2@V32@AEAVios_base@2@GN@Z
; public: class std::<unsigned short,struct std::<unsigned short>> __cdecl std::<unsigned short,class std::<unsigned short,struct std::<unsigned short>>>::put(class std::<unsigned short,struct std::<unsigned short>>,class std::ios_base &__ptr64 ,unsigned short,long double)const __ptr64 
?put@?$num_put@GV?$ostreambuf_iterator@GU?$char_traits@G@std@@@std@@@std@@QEBA?AV?$ostreambuf_iterator@GU?$char_traits@G@std@@@2@V32@AEAVios_base@2@GO@Z
; public: class std::<unsigned short,struct std::<unsigned short>> __cdecl std::<unsigned short,class std::<unsigned short,struct std::<unsigned short>>>::put(class std::<unsigned short,struct std::<unsigned short>>,class std::ios_base &__ptr64 ,unsigned short,void const *__ptr64)const __ptr64 
?put@?$num_put@GV?$ostreambuf_iterator@GU?$char_traits@G@std@@@std@@@std@@QEBA?AV?$ostreambuf_iterator@GU?$char_traits@G@std@@@2@V32@AEAVios_base@2@GPEBX@Z
; public: class std::<unsigned short,struct std::<unsigned short>> __cdecl std::<unsigned short,class std::<unsigned short,struct std::<unsigned short>>>::put(class std::<unsigned short,struct std::<unsigned short>>,class std::ios_base &__ptr64 ,unsigned short,__int64)const __ptr64 
?put@?$num_put@GV?$ostreambuf_iterator@GU?$char_traits@G@std@@@std@@@std@@QEBA?AV?$ostreambuf_iterator@GU?$char_traits@G@std@@@2@V32@AEAVios_base@2@G_J@Z
; public: class std::<unsigned short,struct std::<unsigned short>> __cdecl std::<unsigned short,class std::<unsigned short,struct std::<unsigned short>>>::put(class std::<unsigned short,struct std::<unsigned short>>,class std::ios_base &__ptr64 ,unsigned short,unsigned __int64)const __ptr64 
?put@?$num_put@GV?$ostreambuf_iterator@GU?$char_traits@G@std@@@std@@@std@@QEBA?AV?$ostreambuf_iterator@GU?$char_traits@G@std@@@2@V32@AEAVios_base@2@G_K@Z
; public: class std::<unsigned short,struct std::<unsigned short>> __cdecl std::<unsigned short,class std::<unsigned short,struct std::<unsigned short>>>::put(class std::<unsigned short,struct std::<unsigned short>>,class std::ios_base &__ptr64 ,unsigned short,bool)const __ptr64 
?put@?$num_put@GV?$ostreambuf_iterator@GU?$char_traits@G@std@@@std@@@std@@QEBA?AV?$ostreambuf_iterator@GU?$char_traits@G@std@@@2@V32@AEAVios_base@2@G_N@Z
; public: class std::<char,struct std::<char>> __cdecl std::<char,class std::<char,struct std::<char>>>::put(class std::<char,struct std::<char>>,class std::ios_base &__ptr64 ,struct tm const *__ptr64,char,char)const __ptr64 
?put@?$time_put@DV?$ostreambuf_iterator@DU?$char_traits@D@std@@@std@@@std@@QEBA?AV?$ostreambuf_iterator@DU?$char_traits@D@std@@@2@V32@AEAVios_base@2@PEBUtm@@DD@Z
; public: class std::<char,struct std::<char>> __cdecl std::<char,class std::<char,struct std::<char>>>::put(class std::<char,struct std::<char>>,class std::ios_base &__ptr64 ,struct tm const *__ptr64,char const *__ptr64,char const *__ptr64)const __ptr64 
?put@?$time_put@DV?$ostreambuf_iterator@DU?$char_traits@D@std@@@std@@@std@@QEBA?AV?$ostreambuf_iterator@DU?$char_traits@D@std@@@2@V32@AEAVios_base@2@PEBUtm@@PEBD3@Z
; public: class std::<unsigned short,struct std::<unsigned short>> __cdecl std::<unsigned short,class std::<unsigned short,struct std::<unsigned short>>>::put(class std::<unsigned short,struct std::<unsigned short>>,class std::ios_base &__ptr64 ,struct tm const *__ptr64,char,char)const __ptr64 
?put@?$time_put@GV?$ostreambuf_iterator@GU?$char_traits@G@std@@@std@@@std@@QEBA?AV?$ostreambuf_iterator@GU?$char_traits@G@std@@@2@V32@AEAVios_base@2@PEBUtm@@DD@Z
; public: class std::<unsigned short,struct std::<unsigned short>> __cdecl std::<unsigned short,class std::<unsigned short,struct std::<unsigned short>>>::put(class std::<unsigned short,struct std::<unsigned short>>,class std::ios_base &__ptr64 ,struct tm const *__ptr64,unsigned short const *__ptr64,unsigned short const *__ptr64)const __ptr64 
?put@?$time_put@GV?$ostreambuf_iterator@GU?$char_traits@G@std@@@std@@@std@@QEBA?AV?$ostreambuf_iterator@GU?$char_traits@G@std@@@2@V32@AEAVios_base@2@PEBUtm@@PEBG3@Z
; public: class std::<char,struct std::<char>> &__ptr64 __cdecl std::<char,struct std::<char>>::putback(char)__ptr64 
?putback@?$basic_istream@DU?$char_traits@D@std@@@std@@QEAAAEAV12@D@Z
; public: class std::<unsigned short,struct std::<unsigned short>> &__ptr64 __cdecl std::<unsigned short,struct std::<unsigned short>>::putback(unsigned short)__ptr64 
?putback@?$basic_istream@GU?$char_traits@G@std@@@std@@QEAAAEAV12@G@Z
; public: void *__ptr64 &__ptr64 __cdecl std::ios_base::pword(int)__ptr64 
?pword@ios_base@std@@QEAAAEAPEAXH@Z
; public: static signed char __cdecl std::<signed char>::quiet_NaN(void)
?quiet_NaN@?$numeric_limits@C@std@@SACXZ
; public: static char __cdecl std::<char>::quiet_NaN(void)
?quiet_NaN@?$numeric_limits@D@std@@SADXZ
; public: static unsigned char __cdecl std::<unsigned char>::quiet_NaN(void)
?quiet_NaN@?$numeric_limits@E@std@@SAEXZ
; public: static short __cdecl std::<short>::quiet_NaN(void)
?quiet_NaN@?$numeric_limits@F@std@@SAFXZ
; public: static unsigned short __cdecl std::<unsigned short>::quiet_NaN(void)
?quiet_NaN@?$numeric_limits@G@std@@SAGXZ
; public: static int __cdecl std::<int>::quiet_NaN(void)
?quiet_NaN@?$numeric_limits@H@std@@SAHXZ
; public: static unsigned int __cdecl std::<unsigned int>::quiet_NaN(void)
?quiet_NaN@?$numeric_limits@I@std@@SAIXZ
; public: static long __cdecl std::<long>::quiet_NaN(void)
?quiet_NaN@?$numeric_limits@J@std@@SAJXZ
; public: static unsigned long __cdecl std::<unsigned long>::quiet_NaN(void)
?quiet_NaN@?$numeric_limits@K@std@@SAKXZ
; public: static float __cdecl std::<float>::quiet_NaN(void)
?quiet_NaN@?$numeric_limits@M@std@@SAMXZ
; public: static double __cdecl std::<double>::quiet_NaN(void)
?quiet_NaN@?$numeric_limits@N@std@@SANXZ
; public: static long double __cdecl std::<long double>::quiet_NaN(void)
?quiet_NaN@?$numeric_limits@O@std@@SAOXZ
; public: static bool __cdecl std::<bool>::quiet_NaN(void)
?quiet_NaN@?$numeric_limits@_N@std@@SA_NXZ
; public: class std::<char *__ptr64,char,char &__ptr64 ,char *__ptr64,__int64> __cdecl std::<char,struct std::<char>,class std::<char>>::rbegin(void)__ptr64 
?rbegin@?$basic_string@DU?$char_traits@D@std@@V?$allocator@D@2@@std@@QEAA?AV?$reverse_iterator@PEADDAEADPEAD_J@2@XZ
; public: class std::<char const *__ptr64,char,char const &__ptr64 ,char const *__ptr64,__int64> __cdecl std::<char,struct std::<char>,class std::<char>>::rbegin(void)const __ptr64 
?rbegin@?$basic_string@DU?$char_traits@D@std@@V?$allocator@D@2@@std@@QEBA?AV?$reverse_iterator@PEBDDAEBDPEBD_J@2@XZ
; public: class std::<unsigned short *__ptr64,unsigned short,unsigned short &__ptr64 ,unsigned short *__ptr64,__int64> __cdecl std::<unsigned short,struct std::<unsigned short>,class std::<unsigned short>>::rbegin(void)__ptr64 
?rbegin@?$basic_string@GU?$char_traits@G@std@@V?$allocator@G@2@@std@@QEAA?AV?$reverse_iterator@PEAGGAEAGPEAG_J@2@XZ
; public: class std::<unsigned short const *__ptr64,unsigned short,unsigned short const &__ptr64 ,unsigned short const *__ptr64,__int64> __cdecl std::<unsigned short,struct std::<unsigned short>,class std::<unsigned short>>::rbegin(void)const __ptr64 
?rbegin@?$basic_string@GU?$char_traits@G@std@@V?$allocator@G@2@@std@@QEBA?AV?$reverse_iterator@PEBGGAEBGPEBG_J@2@XZ
; public: class std::<char,struct std::<char>> *__ptr64 __cdecl std::<char,struct std::<char>>::rdbuf(void)const __ptr64 
?rdbuf@?$basic_fstream@DU?$char_traits@D@std@@@std@@QEBAPEAV?$basic_filebuf@DU?$char_traits@D@std@@@2@XZ
; public: class std::<unsigned short,struct std::<unsigned short>> *__ptr64 __cdecl std::<unsigned short,struct std::<unsigned short>>::rdbuf(void)const __ptr64 
?rdbuf@?$basic_fstream@GU?$char_traits@G@std@@@std@@QEBAPEAV?$basic_filebuf@GU?$char_traits@G@std@@@2@XZ
; public: class std::<char,struct std::<char>> *__ptr64 __cdecl std::<char,struct std::<char>>::rdbuf(void)const __ptr64 
?rdbuf@?$basic_ifstream@DU?$char_traits@D@std@@@std@@QEBAPEAV?$basic_filebuf@DU?$char_traits@D@std@@@2@XZ
; public: class std::<unsigned short,struct std::<unsigned short>> *__ptr64 __cdecl std::<unsigned short,struct std::<unsigned short>>::rdbuf(void)const __ptr64 
?rdbuf@?$basic_ifstream@GU?$char_traits@G@std@@@std@@QEBAPEAV?$basic_filebuf@GU?$char_traits@G@std@@@2@XZ
; public: class std::<char,struct std::<char>> *__ptr64 __cdecl std::<char,struct std::<char>>::rdbuf(class std::<char,struct std::<char>> *__ptr64)__ptr64 
?rdbuf@?$basic_ios@DU?$char_traits@D@std@@@std@@QEAAPEAV?$basic_streambuf@DU?$char_traits@D@std@@@2@PEAV32@@Z
; public: class std::<char,struct std::<char>> *__ptr64 __cdecl std::<char,struct std::<char>>::rdbuf(void)const __ptr64 
?rdbuf@?$basic_ios@DU?$char_traits@D@std@@@std@@QEBAPEAV?$basic_streambuf@DU?$char_traits@D@std@@@2@XZ
; public: class std::<unsigned short,struct std::<unsigned short>> *__ptr64 __cdecl std::<unsigned short,struct std::<unsigned short>>::rdbuf(class std::<unsigned short,struct std::<unsigned short>> *__ptr64)__ptr64 
?rdbuf@?$basic_ios@GU?$char_traits@G@std@@@std@@QEAAPEAV?$basic_streambuf@GU?$char_traits@G@std@@@2@PEAV32@@Z
; public: class std::<unsigned short,struct std::<unsigned short>> *__ptr64 __cdecl std::<unsigned short,struct std::<unsigned short>>::rdbuf(void)const __ptr64 
?rdbuf@?$basic_ios@GU?$char_traits@G@std@@@std@@QEBAPEAV?$basic_streambuf@GU?$char_traits@G@std@@@2@XZ
; public: class std::<char,struct std::<char>,class std::<char>> *__ptr64 __cdecl std::<char,struct std::<char>,class std::<char>>::rdbuf(void)const __ptr64 
?rdbuf@?$basic_istringstream@DU?$char_traits@D@std@@V?$allocator@D@2@@std@@QEBAPEAV?$basic_stringbuf@DU?$char_traits@D@std@@V?$allocator@D@2@@2@XZ
; public: class std::<unsigned short,struct std::<unsigned short>,class std::<unsigned short>> *__ptr64 __cdecl std::<unsigned short,struct std::<unsigned short>,class std::<unsigned short>>::rdbuf(void)const __ptr64 
?rdbuf@?$basic_istringstream@GU?$char_traits@G@std@@V?$allocator@G@2@@std@@QEBAPEAV?$basic_stringbuf@GU?$char_traits@G@std@@V?$allocator@G@2@@2@XZ
; public: class std::<char,struct std::<char>> *__ptr64 __cdecl std::<char,struct std::<char>>::rdbuf(void)const __ptr64 
?rdbuf@?$basic_ofstream@DU?$char_traits@D@std@@@std@@QEBAPEAV?$basic_filebuf@DU?$char_traits@D@std@@@2@XZ
; public: class std::<unsigned short,struct std::<unsigned short>> *__ptr64 __cdecl std::<unsigned short,struct std::<unsigned short>>::rdbuf(void)const __ptr64 
?rdbuf@?$basic_ofstream@GU?$char_traits@G@std@@@std@@QEBAPEAV?$basic_filebuf@GU?$char_traits@G@std@@@2@XZ
; public: class std::<char,struct std::<char>,class std::<char>> *__ptr64 __cdecl std::<char,struct std::<char>,class std::<char>>::rdbuf(void)const __ptr64 
?rdbuf@?$basic_ostringstream@DU?$char_traits@D@std@@V?$allocator@D@2@@std@@QEBAPEAV?$basic_stringbuf@DU?$char_traits@D@std@@V?$allocator@D@2@@2@XZ
; public: class std::<unsigned short,struct std::<unsigned short>,class std::<unsigned short>> *__ptr64 __cdecl std::<unsigned short,struct std::<unsigned short>,class std::<unsigned short>>::rdbuf(void)const __ptr64 
?rdbuf@?$basic_ostringstream@GU?$char_traits@G@std@@V?$allocator@G@2@@std@@QEBAPEAV?$basic_stringbuf@GU?$char_traits@G@std@@V?$allocator@G@2@@2@XZ
; public: class std::<char,struct std::<char>,class std::<char>> *__ptr64 __cdecl std::<char,struct std::<char>,class std::<char>>::rdbuf(void)const __ptr64 
?rdbuf@?$basic_stringstream@DU?$char_traits@D@std@@V?$allocator@D@2@@std@@QEBAPEAV?$basic_stringbuf@DU?$char_traits@D@std@@V?$allocator@D@2@@2@XZ
; public: class std::<unsigned short,struct std::<unsigned short>,class std::<unsigned short>> *__ptr64 __cdecl std::<unsigned short,struct std::<unsigned short>,class std::<unsigned short>>::rdbuf(void)const __ptr64 
?rdbuf@?$basic_stringstream@GU?$char_traits@G@std@@V?$allocator@G@2@@std@@QEBAPEAV?$basic_stringbuf@GU?$char_traits@G@std@@V?$allocator@G@2@@2@XZ
; public: int __cdecl std::ios_base::rdstate(void)const __ptr64 
?rdstate@ios_base@std@@QEBAHXZ
; public: class std::<char,struct std::<char>> &__ptr64 __cdecl std::<char,struct std::<char>>::read(char *__ptr64,__int64)__ptr64 
?read@?$basic_istream@DU?$char_traits@D@std@@@std@@QEAAAEAV12@PEAD_J@Z
; public: class std::<unsigned short,struct std::<unsigned short>> &__ptr64 __cdecl std::<unsigned short,struct std::<unsigned short>>::read(unsigned short *__ptr64,__int64)__ptr64 
?read@?$basic_istream@GU?$char_traits@G@std@@@std@@QEAAAEAV12@PEAG_J@Z
; public: __int64 __cdecl std::<char,struct std::<char>>::readsome(char *__ptr64,__int64)__ptr64 
?readsome@?$basic_istream@DU?$char_traits@D@std@@@std@@QEAA_JPEAD_J@Z
; public: __int64 __cdecl std::<unsigned short,struct std::<unsigned short>>::readsome(unsigned short *__ptr64,__int64)__ptr64 
?readsome@?$basic_istream@GU?$char_traits@G@std@@@std@@QEAA_JPEAG_J@Z
; public: float __cdecl std::<float>::real(float const &__ptr64 )__ptr64 
?real@?$_Complex_base@M@std@@QEAAMAEBM@Z
; public: float __cdecl std::<float>::real(void)const __ptr64 
?real@?$_Complex_base@M@std@@QEBAMXZ
; public: double __cdecl std::<double>::real(double const &__ptr64 )__ptr64 
?real@?$_Complex_base@N@std@@QEAANAEBN@Z
; public: double __cdecl std::<double>::real(void)const __ptr64 
?real@?$_Complex_base@N@std@@QEBANXZ
; public: long double __cdecl std::<long double>::real(long double const &__ptr64 )__ptr64 
?real@?$_Complex_base@O@std@@QEAAOAEBO@Z
; public: long double __cdecl std::<long double>::real(void)const __ptr64 
?real@?$_Complex_base@O@std@@QEBAOXZ
; float __cdecl std::real(class std::<float> const &__ptr64 )
?real@std@@YAMAEBV?$complex@M@1@@Z
; double __cdecl std::real(class std::<double> const &__ptr64 )
?real@std@@YANAEBV?$complex@N@1@@Z
; long double __cdecl std::real(class std::<long double> const &__ptr64 )
?real@std@@YAOAEBV?$complex@O@1@@Z
; public: void __cdecl std::ios_base::register_callback(void(__cdecl *)(enum std::ios_base::event,class std::ios_base &__ptr64 ,int),int)__ptr64 
?register_callback@ios_base@std@@QEAAXP6AXW4event@12@AEAV12@H@ZH@Z
; public: class std::<char *__ptr64,char,char &__ptr64 ,char *__ptr64,__int64> __cdecl std::<char,struct std::<char>,class std::<char>>::rend(void)__ptr64 
?rend@?$basic_string@DU?$char_traits@D@std@@V?$allocator@D@2@@std@@QEAA?AV?$reverse_iterator@PEADDAEADPEAD_J@2@XZ
; public: class std::<char const *__ptr64,char,char const &__ptr64 ,char const *__ptr64,__int64> __cdecl std::<char,struct std::<char>,class std::<char>>::rend(void)const __ptr64 
?rend@?$basic_string@DU?$char_traits@D@std@@V?$allocator@D@2@@std@@QEBA?AV?$reverse_iterator@PEBDDAEBDPEBD_J@2@XZ
; public: class std::<unsigned short *__ptr64,unsigned short,unsigned short &__ptr64 ,unsigned short *__ptr64,__int64> __cdecl std::<unsigned short,struct std::<unsigned short>,class std::<unsigned short>>::rend(void)__ptr64 
?rend@?$basic_string@GU?$char_traits@G@std@@V?$allocator@G@2@@std@@QEAA?AV?$reverse_iterator@PEAGGAEAGPEAG_J@2@XZ
; public: class std::<unsigned short const *__ptr64,unsigned short,unsigned short const &__ptr64 ,unsigned short const *__ptr64,__int64> __cdecl std::<unsigned short,struct std::<unsigned short>,class std::<unsigned short>>::rend(void)const __ptr64 
?rend@?$basic_string@GU?$char_traits@G@std@@V?$allocator@G@2@@std@@QEBA?AV?$reverse_iterator@PEBGGAEBGPEBG_J@2@XZ
; public: class std::<char,struct std::<char>,class std::<char>> &__ptr64 __cdecl std::<char,struct std::<char>,class std::<char>>::replace(char *__ptr64,char *__ptr64,class std::<char,struct std::<char>,class std::<char>> const &__ptr64 )__ptr64 
?replace@?$basic_string@DU?$char_traits@D@std@@V?$allocator@D@2@@std@@QEAAAEAV12@PEAD0AEBV12@@Z
; public: class std::<char,struct std::<char>,class std::<char>> &__ptr64 __cdecl std::<char,struct std::<char>,class std::<char>>::replace(char *__ptr64,char *__ptr64,char const *__ptr64,char const *__ptr64)__ptr64 
?replace@?$basic_string@DU?$char_traits@D@std@@V?$allocator@D@2@@std@@QEAAAEAV12@PEAD0PEBD1@Z
; public: class std::<char,struct std::<char>,class std::<char>> &__ptr64 __cdecl std::<char,struct std::<char>,class std::<char>>::replace(char *__ptr64,char *__ptr64,char const *__ptr64)__ptr64 
?replace@?$basic_string@DU?$char_traits@D@std@@V?$allocator@D@2@@std@@QEAAAEAV12@PEAD0PEBD@Z
; public: class std::<char,struct std::<char>,class std::<char>> &__ptr64 __cdecl std::<char,struct std::<char>,class std::<char>>::replace(char *__ptr64,char *__ptr64,char const *__ptr64,unsigned __int64)__ptr64 
?replace@?$basic_string@DU?$char_traits@D@std@@V?$allocator@D@2@@std@@QEAAAEAV12@PEAD0PEBD_K@Z
; public: class std::<char,struct std::<char>,class std::<char>> &__ptr64 __cdecl std::<char,struct std::<char>,class std::<char>>::replace(char *__ptr64,char *__ptr64,unsigned __int64,char)__ptr64 
?replace@?$basic_string@DU?$char_traits@D@std@@V?$allocator@D@2@@std@@QEAAAEAV12@PEAD0_KD@Z
; public: class std::<char,struct std::<char>,class std::<char>> &__ptr64 __cdecl std::<char,struct std::<char>,class std::<char>>::replace(unsigned __int64,unsigned __int64,unsigned __int64,char)__ptr64 
?replace@?$basic_string@DU?$char_traits@D@std@@V?$allocator@D@2@@std@@QEAAAEAV12@_K00D@Z
; public: class std::<char,struct std::<char>,class std::<char>> &__ptr64 __cdecl std::<char,struct std::<char>,class std::<char>>::replace(unsigned __int64,unsigned __int64,class std::<char,struct std::<char>,class std::<char>> const &__ptr64 ,unsigned __int64,unsigned __int64)__ptr64 
?replace@?$basic_string@DU?$char_traits@D@std@@V?$allocator@D@2@@std@@QEAAAEAV12@_K0AEBV12@00@Z
; public: class std::<char,struct std::<char>,class std::<char>> &__ptr64 __cdecl std::<char,struct std::<char>,class std::<char>>::replace(unsigned __int64,unsigned __int64,class std::<char,struct std::<char>,class std::<char>> const &__ptr64 )__ptr64 
?replace@?$basic_string@DU?$char_traits@D@std@@V?$allocator@D@2@@std@@QEAAAEAV12@_K0AEBV12@@Z
; public: class std::<char,struct std::<char>,class std::<char>> &__ptr64 __cdecl std::<char,struct std::<char>,class std::<char>>::replace(unsigned __int64,unsigned __int64,char const *__ptr64,unsigned __int64)__ptr64 
?replace@?$basic_string@DU?$char_traits@D@std@@V?$allocator@D@2@@std@@QEAAAEAV12@_K0PEBD0@Z
; public: class std::<char,struct std::<char>,class std::<char>> &__ptr64 __cdecl std::<char,struct std::<char>,class std::<char>>::replace(unsigned __int64,unsigned __int64,char const *__ptr64)__ptr64 
?replace@?$basic_string@DU?$char_traits@D@std@@V?$allocator@D@2@@std@@QEAAAEAV12@_K0PEBD@Z
; public: class std::<unsigned short,struct std::<unsigned short>,class std::<unsigned short>> &__ptr64 __cdecl std::<unsigned short,struct std::<unsigned short>,class std::<unsigned short>>::replace(unsigned short *__ptr64,unsigned short *__ptr64,class std::<unsigned short,struct std::<unsigned short>,class std::<unsigned short>> const &__ptr64 )__ptr64 
?replace@?$basic_string@GU?$char_traits@G@std@@V?$allocator@G@2@@std@@QEAAAEAV12@PEAG0AEBV12@@Z
; public: class std::<unsigned short,struct std::<unsigned short>,class std::<unsigned short>> &__ptr64 __cdecl std::<unsigned short,struct std::<unsigned short>,class std::<unsigned short>>::replace(unsigned short *__ptr64,unsigned short *__ptr64,unsigned short const *__ptr64,unsigned short const *__ptr64)__ptr64 
?replace@?$basic_string@GU?$char_traits@G@std@@V?$allocator@G@2@@std@@QEAAAEAV12@PEAG0PEBG1@Z
; public: class std::<unsigned short,struct std::<unsigned short>,class std::<unsigned short>> &__ptr64 __cdecl std::<unsigned short,struct std::<unsigned short>,class std::<unsigned short>>::replace(unsigned short *__ptr64,unsigned short *__ptr64,unsigned short const *__ptr64)__ptr64 
?replace@?$basic_string@GU?$char_traits@G@std@@V?$allocator@G@2@@std@@QEAAAEAV12@PEAG0PEBG@Z
; public: class std::<unsigned short,struct std::<unsigned short>,class std::<unsigned short>> &__ptr64 __cdecl std::<unsigned short,struct std::<unsigned short>,class std::<unsigned short>>::replace(unsigned short *__ptr64,unsigned short *__ptr64,unsigned short const *__ptr64,unsigned __int64)__ptr64 
?replace@?$basic_string@GU?$char_traits@G@std@@V?$allocator@G@2@@std@@QEAAAEAV12@PEAG0PEBG_K@Z
; public: class std::<unsigned short,struct std::<unsigned short>,class std::<unsigned short>> &__ptr64 __cdecl std::<unsigned short,struct std::<unsigned short>,class std::<unsigned short>>::replace(unsigned short *__ptr64,unsigned short *__ptr64,unsigned __int64,unsigned short)__ptr64 
?replace@?$basic_string@GU?$char_traits@G@std@@V?$allocator@G@2@@std@@QEAAAEAV12@PEAG0_KG@Z
; public: class std::<unsigned short,struct std::<unsigned short>,class std::<unsigned short>> &__ptr64 __cdecl std::<unsigned short,struct std::<unsigned short>,class std::<unsigned short>>::replace(unsigned __int64,unsigned __int64,unsigned __int64,unsigned short)__ptr64 
?replace@?$basic_string@GU?$char_traits@G@std@@V?$allocator@G@2@@std@@QEAAAEAV12@_K00G@Z
; public: class std::<unsigned short,struct std::<unsigned short>,class std::<unsigned short>> &__ptr64 __cdecl std::<unsigned short,struct std::<unsigned short>,class std::<unsigned short>>::replace(unsigned __int64,unsigned __int64,class std::<unsigned short,struct std::<unsigned short>,class std::<unsigned short>> const &__ptr64 ,unsigned __int64,unsigned __int64)__ptr64 
?replace@?$basic_string@GU?$char_traits@G@std@@V?$allocator@G@2@@std@@QEAAAEAV12@_K0AEBV12@00@Z
; public: class std::<unsigned short,struct std::<unsigned short>,class std::<unsigned short>> &__ptr64 __cdecl std::<unsigned short,struct std::<unsigned short>,class std::<unsigned short>>::replace(unsigned __int64,unsigned __int64,class std::<unsigned short,struct std::<unsigned short>,class std::<unsigned short>> const &__ptr64 )__ptr64 
?replace@?$basic_string@GU?$char_traits@G@std@@V?$allocator@G@2@@std@@QEAAAEAV12@_K0AEBV12@@Z
; public: class std::<unsigned short,struct std::<unsigned short>,class std::<unsigned short>> &__ptr64 __cdecl std::<unsigned short,struct std::<unsigned short>,class std::<unsigned short>>::replace(unsigned __int64,unsigned __int64,unsigned short const *__ptr64,unsigned __int64)__ptr64 
?replace@?$basic_string@GU?$char_traits@G@std@@V?$allocator@G@2@@std@@QEAAAEAV12@_K0PEBG0@Z
; public: class std::<unsigned short,struct std::<unsigned short>,class std::<unsigned short>> &__ptr64 __cdecl std::<unsigned short,struct std::<unsigned short>,class std::<unsigned short>>::replace(unsigned __int64,unsigned __int64,unsigned short const *__ptr64)__ptr64 
?replace@?$basic_string@GU?$char_traits@G@std@@V?$allocator@G@2@@std@@QEAAAEAV12@_K0PEBG@Z
; public: void __cdecl std::<char,struct std::<char>,class std::<char>>::reserve(unsigned __int64)__ptr64 
?reserve@?$basic_string@DU?$char_traits@D@std@@V?$allocator@D@2@@std@@QEAAX_K@Z
; public: void __cdecl std::<unsigned short,struct std::<unsigned short>,class std::<unsigned short>>::reserve(unsigned __int64)__ptr64 
?reserve@?$basic_string@GU?$char_traits@G@std@@V?$allocator@G@2@@std@@QEAAX_K@Z
; struct std::<int> __cdecl std::resetiosflags(int)
?resetiosflags@std@@YA?AU?$_Smanip@H@1@H@Z
; public: void __cdecl std::<char,struct std::<char>,class std::<char>>::resize(unsigned __int64)__ptr64 
?resize@?$basic_string@DU?$char_traits@D@std@@V?$allocator@D@2@@std@@QEAAX_K@Z
; public: void __cdecl std::<char,struct std::<char>,class std::<char>>::resize(unsigned __int64,char)__ptr64 
?resize@?$basic_string@DU?$char_traits@D@std@@V?$allocator@D@2@@std@@QEAAX_KD@Z
; public: void __cdecl std::<unsigned short,struct std::<unsigned short>,class std::<unsigned short>>::resize(unsigned __int64)__ptr64 
?resize@?$basic_string@GU?$char_traits@G@std@@V?$allocator@G@2@@std@@QEAAX_K@Z
; public: void __cdecl std::<unsigned short,struct std::<unsigned short>,class std::<unsigned short>>::resize(unsigned __int64,unsigned short)__ptr64 
?resize@?$basic_string@GU?$char_traits@G@std@@V?$allocator@G@2@@std@@QEAAX_KG@Z
; public: unsigned __int64 __cdecl std::<char,struct std::<char>,class std::<char>>::rfind(class std::<char,struct std::<char>,class std::<char>> const &__ptr64 ,unsigned __int64)const __ptr64 
?rfind@?$basic_string@DU?$char_traits@D@std@@V?$allocator@D@2@@std@@QEBA_KAEBV12@_K@Z
; public: unsigned __int64 __cdecl std::<char,struct std::<char>,class std::<char>>::rfind(char,unsigned __int64)const __ptr64 
?rfind@?$basic_string@DU?$char_traits@D@std@@V?$allocator@D@2@@std@@QEBA_KD_K@Z
; public: unsigned __int64 __cdecl std::<char,struct std::<char>,class std::<char>>::rfind(char const *__ptr64,unsigned __int64,unsigned __int64)const __ptr64 
?rfind@?$basic_string@DU?$char_traits@D@std@@V?$allocator@D@2@@std@@QEBA_KPEBD_K1@Z
; public: unsigned __int64 __cdecl std::<char,struct std::<char>,class std::<char>>::rfind(char const *__ptr64,unsigned __int64)const __ptr64 
?rfind@?$basic_string@DU?$char_traits@D@std@@V?$allocator@D@2@@std@@QEBA_KPEBD_K@Z
; public: unsigned __int64 __cdecl std::<unsigned short,struct std::<unsigned short>,class std::<unsigned short>>::rfind(class std::<unsigned short,struct std::<unsigned short>,class std::<unsigned short>> const &__ptr64 ,unsigned __int64)const __ptr64 
?rfind@?$basic_string@GU?$char_traits@G@std@@V?$allocator@G@2@@std@@QEBA_KAEBV12@_K@Z
; public: unsigned __int64 __cdecl std::<unsigned short,struct std::<unsigned short>,class std::<unsigned short>>::rfind(unsigned short,unsigned __int64)const __ptr64 
?rfind@?$basic_string@GU?$char_traits@G@std@@V?$allocator@G@2@@std@@QEBA_KG_K@Z
; public: unsigned __int64 __cdecl std::<unsigned short,struct std::<unsigned short>,class std::<unsigned short>>::rfind(unsigned short const *__ptr64,unsigned __int64,unsigned __int64)const __ptr64 
?rfind@?$basic_string@GU?$char_traits@G@std@@V?$allocator@G@2@@std@@QEBA_KPEBG_K1@Z
; public: unsigned __int64 __cdecl std::<unsigned short,struct std::<unsigned short>,class std::<unsigned short>>::rfind(unsigned short const *__ptr64,unsigned __int64)const __ptr64 
?rfind@?$basic_string@GU?$char_traits@G@std@@V?$allocator@G@2@@std@@QEBA_KPEBG_K@Z
; public: static signed char __cdecl std::<signed char>::round_error(void)
?round_error@?$numeric_limits@C@std@@SACXZ
; public: static char __cdecl std::<char>::round_error(void)
?round_error@?$numeric_limits@D@std@@SADXZ
; public: static unsigned char __cdecl std::<unsigned char>::round_error(void)
?round_error@?$numeric_limits@E@std@@SAEXZ
; public: static short __cdecl std::<short>::round_error(void)
?round_error@?$numeric_limits@F@std@@SAFXZ
; public: static unsigned short __cdecl std::<unsigned short>::round_error(void)
?round_error@?$numeric_limits@G@std@@SAGXZ
; public: static int __cdecl std::<int>::round_error(void)
?round_error@?$numeric_limits@H@std@@SAHXZ
; public: static unsigned int __cdecl std::<unsigned int>::round_error(void)
?round_error@?$numeric_limits@I@std@@SAIXZ
; public: static long __cdecl std::<long>::round_error(void)
?round_error@?$numeric_limits@J@std@@SAJXZ
; public: static unsigned long __cdecl std::<unsigned long>::round_error(void)
?round_error@?$numeric_limits@K@std@@SAKXZ
; public: static float __cdecl std::<float>::round_error(void)
?round_error@?$numeric_limits@M@std@@SAMXZ
; public: static double __cdecl std::<double>::round_error(void)
?round_error@?$numeric_limits@N@std@@SANXZ
; public: static long double __cdecl std::<long double>::round_error(void)
?round_error@?$numeric_limits@O@std@@SAOXZ
; public: static bool __cdecl std::<bool>::round_error(void)
?round_error@?$numeric_limits@_N@std@@SA_NXZ
; public: int __cdecl std::<char,struct std::<char>>::sbumpc(void)__ptr64 
?sbumpc@?$basic_streambuf@DU?$char_traits@D@std@@@std@@QEAAHXZ
; public: unsigned short __cdecl std::<unsigned short,struct std::<unsigned short>>::sbumpc(void)__ptr64 
?sbumpc@?$basic_streambuf@GU?$char_traits@G@std@@@std@@QEAAGXZ
; public: char const *__ptr64 __cdecl std::<char>::scan_is(short,char const *__ptr64,char const *__ptr64)const __ptr64 
?scan_is@?$ctype@D@std@@QEBAPEBDFPEBD0@Z
; public: unsigned short const *__ptr64 __cdecl std::<unsigned short>::scan_is(short,unsigned short const *__ptr64,unsigned short const *__ptr64)const __ptr64 
?scan_is@?$ctype@G@std@@QEBAPEBGFPEBG0@Z
; public: char const *__ptr64 __cdecl std::<char>::scan_not(short,char const *__ptr64,char const *__ptr64)const __ptr64 
?scan_not@?$ctype@D@std@@QEBAPEBDFPEBD0@Z
; public: unsigned short const *__ptr64 __cdecl std::<unsigned short>::scan_not(short,unsigned short const *__ptr64,unsigned short const *__ptr64)const __ptr64 
?scan_not@?$ctype@G@std@@QEBAPEBGFPEBG0@Z
; public: class std::<char,struct std::<char>> &__ptr64 __cdecl std::<char,struct std::<char>>::seekg(class std::<int>)__ptr64 
?seekg@?$basic_istream@DU?$char_traits@D@std@@@std@@QEAAAEAV12@V?$fpos@H@2@@Z
; public: class std::<char,struct std::<char>> &__ptr64 __cdecl std::<char,struct std::<char>>::seekg(__int64,enum std::ios_base::seekdir)__ptr64 
?seekg@?$basic_istream@DU?$char_traits@D@std@@@std@@QEAAAEAV12@_JW4seekdir@ios_base@2@@Z
; public: class std::<unsigned short,struct std::<unsigned short>> &__ptr64 __cdecl std::<unsigned short,struct std::<unsigned short>>::seekg(class std::<int>)__ptr64 
?seekg@?$basic_istream@GU?$char_traits@G@std@@@std@@QEAAAEAV12@V?$fpos@H@2@@Z
; public: class std::<unsigned short,struct std::<unsigned short>> &__ptr64 __cdecl std::<unsigned short,struct std::<unsigned short>>::seekg(__int64,enum std::ios_base::seekdir)__ptr64 
?seekg@?$basic_istream@GU?$char_traits@G@std@@@std@@QEAAAEAV12@_JW4seekdir@ios_base@2@@Z
; protected: virtual class std::<int> __cdecl std::<char,struct std::<char>>::seekoff(__int64,enum std::ios_base::seekdir,int)__ptr64 
?seekoff@?$basic_filebuf@DU?$char_traits@D@std@@@std@@MEAA?AV?$fpos@H@2@_JW4seekdir@ios_base@2@H@Z
; protected: virtual class std::<int> __cdecl std::<unsigned short,struct std::<unsigned short>>::seekoff(__int64,enum std::ios_base::seekdir,int)__ptr64 
?seekoff@?$basic_filebuf@GU?$char_traits@G@std@@@std@@MEAA?AV?$fpos@H@2@_JW4seekdir@ios_base@2@H@Z
; protected: virtual class std::<int> __cdecl std::<char,struct std::<char>>::seekoff(__int64,enum std::ios_base::seekdir,int)__ptr64 
?seekoff@?$basic_streambuf@DU?$char_traits@D@std@@@std@@MEAA?AV?$fpos@H@2@_JW4seekdir@ios_base@2@H@Z
; protected: virtual class std::<int> __cdecl std::<unsigned short,struct std::<unsigned short>>::seekoff(__int64,enum std::ios_base::seekdir,int)__ptr64 
?seekoff@?$basic_streambuf@GU?$char_traits@G@std@@@std@@MEAA?AV?$fpos@H@2@_JW4seekdir@ios_base@2@H@Z
; protected: virtual class std::<int> __cdecl std::<char,struct std::<char>,class std::<char>>::seekoff(__int64,enum std::ios_base::seekdir,int)__ptr64 
?seekoff@?$basic_stringbuf@DU?$char_traits@D@std@@V?$allocator@D@2@@std@@MEAA?AV?$fpos@H@2@_JW4seekdir@ios_base@2@H@Z
; protected: virtual class std::<int> __cdecl std::<unsigned short,struct std::<unsigned short>,class std::<unsigned short>>::seekoff(__int64,enum std::ios_base::seekdir,int)__ptr64 
?seekoff@?$basic_stringbuf@GU?$char_traits@G@std@@V?$allocator@G@2@@std@@MEAA?AV?$fpos@H@2@_JW4seekdir@ios_base@2@H@Z
; protected: virtual class std::<int> __cdecl std::strstreambuf::seekoff(__int64,enum std::ios_base::seekdir,int)__ptr64 
?seekoff@strstreambuf@std@@MEAA?AV?$fpos@H@2@_JW4seekdir@ios_base@2@H@Z
; public: class std::<char,struct std::<char>> &__ptr64 __cdecl std::<char,struct std::<char>>::seekp(class std::<int>)__ptr64 
?seekp@?$basic_ostream@DU?$char_traits@D@std@@@std@@QEAAAEAV12@V?$fpos@H@2@@Z
; public: class std::<char,struct std::<char>> &__ptr64 __cdecl std::<char,struct std::<char>>::seekp(__int64,enum std::ios_base::seekdir)__ptr64 
?seekp@?$basic_ostream@DU?$char_traits@D@std@@@std@@QEAAAEAV12@_JW4seekdir@ios_base@2@@Z
; public: class std::<unsigned short,struct std::<unsigned short>> &__ptr64 __cdecl std::<unsigned short,struct std::<unsigned short>>::seekp(class std::<int>)__ptr64 
?seekp@?$basic_ostream@GU?$char_traits@G@std@@@std@@QEAAAEAV12@V?$fpos@H@2@@Z
; public: class std::<unsigned short,struct std::<unsigned short>> &__ptr64 __cdecl std::<unsigned short,struct std::<unsigned short>>::seekp(__int64,enum std::ios_base::seekdir)__ptr64 
?seekp@?$basic_ostream@GU?$char_traits@G@std@@@std@@QEAAAEAV12@_JW4seekdir@ios_base@2@@Z
; protected: virtual class std::<int> __cdecl std::<char,struct std::<char>>::seekpos(class std::<int>,int)__ptr64 
?seekpos@?$basic_filebuf@DU?$char_traits@D@std@@@std@@MEAA?AV?$fpos@H@2@V32@H@Z
; protected: virtual class std::<int> __cdecl std::<unsigned short,struct std::<unsigned short>>::seekpos(class std::<int>,int)__ptr64 
?seekpos@?$basic_filebuf@GU?$char_traits@G@std@@@std@@MEAA?AV?$fpos@H@2@V32@H@Z
; protected: virtual class std::<int> __cdecl std::<char,struct std::<char>>::seekpos(class std::<int>,int)__ptr64 
?seekpos@?$basic_streambuf@DU?$char_traits@D@std@@@std@@MEAA?AV?$fpos@H@2@V32@H@Z
; protected: virtual class std::<int> __cdecl std::<unsigned short,struct std::<unsigned short>>::seekpos(class std::<int>,int)__ptr64 
?seekpos@?$basic_streambuf@GU?$char_traits@G@std@@@std@@MEAA?AV?$fpos@H@2@V32@H@Z
; protected: virtual class std::<int> __cdecl std::<char,struct std::<char>,class std::<char>>::seekpos(class std::<int>,int)__ptr64 
?seekpos@?$basic_stringbuf@DU?$char_traits@D@std@@V?$allocator@D@2@@std@@MEAA?AV?$fpos@H@2@V32@H@Z
; protected: virtual class std::<int> __cdecl std::<unsigned short,struct std::<unsigned short>,class std::<unsigned short>>::seekpos(class std::<int>,int)__ptr64 
?seekpos@?$basic_stringbuf@GU?$char_traits@G@std@@V?$allocator@G@2@@std@@MEAA?AV?$fpos@H@2@V32@H@Z
; protected: virtual class std::<int> __cdecl std::strstreambuf::seekpos(class std::<int>,int)__ptr64 
?seekpos@strstreambuf@std@@MEAA?AV?$fpos@H@2@V32@H@Z
; struct std::<int> __cdecl std::setbase(int)
?setbase@std@@YA?AU?$_Smanip@H@1@H@Z
; protected: virtual class std::<char,struct std::<char>> *__ptr64 __cdecl std::<char,struct std::<char>>::setbuf(char *__ptr64,__int64)__ptr64 
?setbuf@?$basic_filebuf@DU?$char_traits@D@std@@@std@@MEAAPEAV?$basic_streambuf@DU?$char_traits@D@std@@@2@PEAD_J@Z
; protected: virtual class std::<unsigned short,struct std::<unsigned short>> *__ptr64 __cdecl std::<unsigned short,struct std::<unsigned short>>::setbuf(unsigned short *__ptr64,__int64)__ptr64 
?setbuf@?$basic_filebuf@GU?$char_traits@G@std@@@std@@MEAAPEAV?$basic_streambuf@GU?$char_traits@G@std@@@2@PEAG_J@Z
; protected: virtual class std::<char,struct std::<char>> *__ptr64 __cdecl std::<char,struct std::<char>>::setbuf(char *__ptr64,__int64)__ptr64 
?setbuf@?$basic_streambuf@DU?$char_traits@D@std@@@std@@MEAAPEAV12@PEAD_J@Z
; protected: virtual class std::<unsigned short,struct std::<unsigned short>> *__ptr64 __cdecl std::<unsigned short,struct std::<unsigned short>>::setbuf(unsigned short *__ptr64,__int64)__ptr64 
?setbuf@?$basic_streambuf@GU?$char_traits@G@std@@@std@@MEAAPEAV12@PEAG_J@Z
; public: int __cdecl std::ios_base::setf(int)__ptr64 
?setf@ios_base@std@@QEAAHH@Z
; public: int __cdecl std::ios_base::setf(int,int)__ptr64 
?setf@ios_base@std@@QEAAHHH@Z
; protected: void __cdecl std::<char,struct std::<char>>::setg(char *__ptr64,char *__ptr64,char *__ptr64)__ptr64 
?setg@?$basic_streambuf@DU?$char_traits@D@std@@@std@@IEAAXPEAD00@Z
; protected: void __cdecl std::<unsigned short,struct std::<unsigned short>>::setg(unsigned short *__ptr64,unsigned short *__ptr64,unsigned short *__ptr64)__ptr64 
?setg@?$basic_streambuf@GU?$char_traits@G@std@@@std@@IEAAXPEAG00@Z
; struct std::<int> __cdecl std::setiosflags(int)
?setiosflags@std@@YA?AU?$_Smanip@H@1@H@Z
; protected: void __cdecl std::<char,struct std::<char>>::setp(char *__ptr64,char *__ptr64,char *__ptr64)__ptr64 
?setp@?$basic_streambuf@DU?$char_traits@D@std@@@std@@IEAAXPEAD00@Z
; protected: void __cdecl std::<char,struct std::<char>>::setp(char *__ptr64,char *__ptr64)__ptr64 
?setp@?$basic_streambuf@DU?$char_traits@D@std@@@std@@IEAAXPEAD0@Z
; protected: void __cdecl std::<unsigned short,struct std::<unsigned short>>::setp(unsigned short *__ptr64,unsigned short *__ptr64,unsigned short *__ptr64)__ptr64 
?setp@?$basic_streambuf@GU?$char_traits@G@std@@@std@@IEAAXPEAG00@Z
; protected: void __cdecl std::<unsigned short,struct std::<unsigned short>>::setp(unsigned short *__ptr64,unsigned short *__ptr64)__ptr64 
?setp@?$basic_streambuf@GU?$char_traits@G@std@@@std@@IEAAXPEAG0@Z
; struct std::<__int64> __cdecl std::setprecision(__int64)
?setprecision@std@@YA?AU?$_Smanip@_J@1@_J@Z
; public: void __cdecl std::<char,struct std::<char>>::setstate(short)__ptr64 
?setstate@?$basic_ios@DU?$char_traits@D@std@@@std@@QEAAXF@Z
; public: void __cdecl std::<char,struct std::<char>>::setstate(int,bool)__ptr64 
?setstate@?$basic_ios@DU?$char_traits@D@std@@@std@@QEAAXH_N@Z
; public: void __cdecl std::<unsigned short,struct std::<unsigned short>>::setstate(short)__ptr64 
?setstate@?$basic_ios@GU?$char_traits@G@std@@@std@@QEAAXF@Z
; public: void __cdecl std::<unsigned short,struct std::<unsigned short>>::setstate(int,bool)__ptr64 
?setstate@?$basic_ios@GU?$char_traits@G@std@@@std@@QEAAXH_N@Z
; public: void __cdecl std::ios_base::setstate(short)__ptr64 
?setstate@ios_base@std@@QEAAXF@Z
; public: void __cdecl std::ios_base::setstate(int,bool)__ptr64 
?setstate@ios_base@std@@QEAAXH_N@Z
; struct std::<__int64> __cdecl std::setw(__int64)
?setw@std@@YA?AU?$_Smanip@_J@1@_J@Z
; public: int __cdecl std::<char,struct std::<char>>::sgetc(void)__ptr64 
?sgetc@?$basic_streambuf@DU?$char_traits@D@std@@@std@@QEAAHXZ
; public: unsigned short __cdecl std::<unsigned short,struct std::<unsigned short>>::sgetc(void)__ptr64 
?sgetc@?$basic_streambuf@GU?$char_traits@G@std@@@std@@QEAAGXZ
; public: __int64 __cdecl std::<char,struct std::<char>>::sgetn(char *__ptr64,__int64)__ptr64 
?sgetn@?$basic_streambuf@DU?$char_traits@D@std@@@std@@QEAA_JPEAD_J@Z
; public: __int64 __cdecl std::<unsigned short,struct std::<unsigned short>>::sgetn(unsigned short *__ptr64,__int64)__ptr64 
?sgetn@?$basic_streambuf@GU?$char_traits@G@std@@@std@@QEAA_JPEAG_J@Z
; protected: virtual int __cdecl std::<char,struct std::<char>>::showmanyc(void)__ptr64 
?showmanyc@?$basic_streambuf@DU?$char_traits@D@std@@@std@@MEAAHXZ
; protected: virtual int __cdecl std::<unsigned short,struct std::<unsigned short>>::showmanyc(void)__ptr64 
?showmanyc@?$basic_streambuf@GU?$char_traits@G@std@@@std@@MEAAHXZ
; public: static signed char __cdecl std::<signed char>::signaling_NaN(void)
?signaling_NaN@?$numeric_limits@C@std@@SACXZ
; public: static char __cdecl std::<char>::signaling_NaN(void)
?signaling_NaN@?$numeric_limits@D@std@@SADXZ
; public: static unsigned char __cdecl std::<unsigned char>::signaling_NaN(void)
?signaling_NaN@?$numeric_limits@E@std@@SAEXZ
; public: static short __cdecl std::<short>::signaling_NaN(void)
?signaling_NaN@?$numeric_limits@F@std@@SAFXZ
; public: static unsigned short __cdecl std::<unsigned short>::signaling_NaN(void)
?signaling_NaN@?$numeric_limits@G@std@@SAGXZ
; public: static int __cdecl std::<int>::signaling_NaN(void)
?signaling_NaN@?$numeric_limits@H@std@@SAHXZ
; public: static unsigned int __cdecl std::<unsigned int>::signaling_NaN(void)
?signaling_NaN@?$numeric_limits@I@std@@SAIXZ
; public: static long __cdecl std::<long>::signaling_NaN(void)
?signaling_NaN@?$numeric_limits@J@std@@SAJXZ
; public: static unsigned long __cdecl std::<unsigned long>::signaling_NaN(void)
?signaling_NaN@?$numeric_limits@K@std@@SAKXZ
; public: static float __cdecl std::<float>::signaling_NaN(void)
?signaling_NaN@?$numeric_limits@M@std@@SAMXZ
; public: static double __cdecl std::<double>::signaling_NaN(void)
?signaling_NaN@?$numeric_limits@N@std@@SANXZ
; public: static long double __cdecl std::<long double>::signaling_NaN(void)
?signaling_NaN@?$numeric_limits@O@std@@SAOXZ
; public: static bool __cdecl std::<bool>::signaling_NaN(void)
?signaling_NaN@?$numeric_limits@_N@std@@SA_NXZ
; public: static float __cdecl std::<float>::sin(float)
?sin@?$_Ctr@M@std@@SAMM@Z
; public: static double __cdecl std::<double>::sin(double)
?sin@?$_Ctr@N@std@@SANN@Z
; public: static long double __cdecl std::<long double>::sin(long double)
?sin@?$_Ctr@O@std@@SAOO@Z
; class std::<float> __cdecl std::sin(class std::<float> const &__ptr64 )
?sin@std@@YA?AV?$complex@M@1@AEBV21@@Z
; class std::<double> __cdecl std::sin(class std::<double> const &__ptr64 )
?sin@std@@YA?AV?$complex@N@1@AEBV21@@Z
; class std::<long double> __cdecl std::sin(class std::<long double> const &__ptr64 )
?sin@std@@YA?AV?$complex@O@1@AEBV21@@Z
; class std::<float> __cdecl std::sinh(class std::<float> const &__ptr64 )
?sinh@std@@YA?AV?$complex@M@1@AEBV21@@Z
; class std::<double> __cdecl std::sinh(class std::<double> const &__ptr64 )
?sinh@std@@YA?AV?$complex@N@1@AEBV21@@Z
; class std::<long double> __cdecl std::sinh(class std::<long double> const &__ptr64 )
?sinh@std@@YA?AV?$complex@O@1@AEBV21@@Z
; public: unsigned __int64 __cdecl std::<char,struct std::<char>,class std::<char>>::size(void)const __ptr64 
?size@?$basic_string@DU?$char_traits@D@std@@V?$allocator@D@2@@std@@QEBA_KXZ
; public: unsigned __int64 __cdecl std::<unsigned short,struct std::<unsigned short>,class std::<unsigned short>>::size(void)const __ptr64 
?size@?$basic_string@GU?$char_traits@G@std@@V?$allocator@G@2@@std@@QEBA_KXZ
; public: int __cdecl std::<char,struct std::<char>>::snextc(void)__ptr64 
?snextc@?$basic_streambuf@DU?$char_traits@D@std@@@std@@QEAAHXZ
; public: unsigned short __cdecl std::<unsigned short,struct std::<unsigned short>>::snextc(void)__ptr64 
?snextc@?$basic_streambuf@GU?$char_traits@G@std@@@std@@QEAAGXZ
; public: int __cdecl std::<char,struct std::<char>>::sputbackc(char)__ptr64 
?sputbackc@?$basic_streambuf@DU?$char_traits@D@std@@@std@@QEAAHD@Z
; public: unsigned short __cdecl std::<unsigned short,struct std::<unsigned short>>::sputbackc(unsigned short)__ptr64 
?sputbackc@?$basic_streambuf@GU?$char_traits@G@std@@@std@@QEAAGG@Z
; public: int __cdecl std::<char,struct std::<char>>::sputc(char)__ptr64 
?sputc@?$basic_streambuf@DU?$char_traits@D@std@@@std@@QEAAHD@Z
; public: unsigned short __cdecl std::<unsigned short,struct std::<unsigned short>>::sputc(unsigned short)__ptr64 
?sputc@?$basic_streambuf@GU?$char_traits@G@std@@@std@@QEAAGG@Z
; public: __int64 __cdecl std::<char,struct std::<char>>::sputn(char const *__ptr64,__int64)__ptr64 
?sputn@?$basic_streambuf@DU?$char_traits@D@std@@@std@@QEAA_JPEBD_J@Z
; public: __int64 __cdecl std::<unsigned short,struct std::<unsigned short>>::sputn(unsigned short const *__ptr64,__int64)__ptr64 
?sputn@?$basic_streambuf@GU?$char_traits@G@std@@@std@@QEAA_JPEBG_J@Z
; public: static float __cdecl std::<float>::sqrt(float)
?sqrt@?$_Ctr@M@std@@SAMM@Z
; public: static double __cdecl std::<double>::sqrt(double)
?sqrt@?$_Ctr@N@std@@SANN@Z
; public: static long double __cdecl std::<long double>::sqrt(long double)
?sqrt@?$_Ctr@O@std@@SAOO@Z
; class std::<float> __cdecl std::sqrt(class std::<float> const &__ptr64 )
?sqrt@std@@YA?AV?$complex@M@1@AEBV21@@Z
; class std::<double> __cdecl std::sqrt(class std::<double> const &__ptr64 )
?sqrt@std@@YA?AV?$complex@N@1@AEBV21@@Z
; class std::<long double> __cdecl std::sqrt(class std::<long double> const &__ptr64 )
?sqrt@std@@YA?AV?$complex@O@1@AEBV21@@Z
; public: void __cdecl std::<char,struct std::<char>>::stossc(void)__ptr64 
?stossc@?$basic_streambuf@DU?$char_traits@D@std@@@std@@QEAAXXZ
; public: void __cdecl std::<unsigned short,struct std::<unsigned short>>::stossc(void)__ptr64 
?stossc@?$basic_streambuf@GU?$char_traits@G@std@@@std@@QEAAXXZ
; public: void __cdecl std::<char,struct std::<char>,class std::<char>>::str(class std::<char,struct std::<char>,class std::<char>> const &__ptr64 )__ptr64 
?str@?$basic_istringstream@DU?$char_traits@D@std@@V?$allocator@D@2@@std@@QEAAXAEBV?$basic_string@DU?$char_traits@D@std@@V?$allocator@D@2@@2@@Z
; public: class std::<char,struct std::<char>,class std::<char>> __cdecl std::<char,struct std::<char>,class std::<char>>::str(void)const __ptr64 
?str@?$basic_istringstream@DU?$char_traits@D@std@@V?$allocator@D@2@@std@@QEBA?AV?$basic_string@DU?$char_traits@D@std@@V?$allocator@D@2@@2@XZ
; public: void __cdecl std::<unsigned short,struct std::<unsigned short>,class std::<unsigned short>>::str(class std::<unsigned short,struct std::<unsigned short>,class std::<unsigned short>> const &__ptr64 )__ptr64 
?str@?$basic_istringstream@GU?$char_traits@G@std@@V?$allocator@G@2@@std@@QEAAXAEBV?$basic_string@GU?$char_traits@G@std@@V?$allocator@G@2@@2@@Z
; public: class std::<unsigned short,struct std::<unsigned short>,class std::<unsigned short>> __cdecl std::<unsigned short,struct std::<unsigned short>,class std::<unsigned short>>::str(void)const __ptr64 
?str@?$basic_istringstream@GU?$char_traits@G@std@@V?$allocator@G@2@@std@@QEBA?AV?$basic_string@GU?$char_traits@G@std@@V?$allocator@G@2@@2@XZ
; public: void __cdecl std::<char,struct std::<char>,class std::<char>>::str(class std::<char,struct std::<char>,class std::<char>> const &__ptr64 )__ptr64 
?str@?$basic_ostringstream@DU?$char_traits@D@std@@V?$allocator@D@2@@std@@QEAAXAEBV?$basic_string@DU?$char_traits@D@std@@V?$allocator@D@2@@2@@Z
; public: class std::<char,struct std::<char>,class std::<char>> __cdecl std::<char,struct std::<char>,class std::<char>>::str(void)const __ptr64 
?str@?$basic_ostringstream@DU?$char_traits@D@std@@V?$allocator@D@2@@std@@QEBA?AV?$basic_string@DU?$char_traits@D@std@@V?$allocator@D@2@@2@XZ
; public: void __cdecl std::<unsigned short,struct std::<unsigned short>,class std::<unsigned short>>::str(class std::<unsigned short,struct std::<unsigned short>,class std::<unsigned short>> const &__ptr64 )__ptr64 
?str@?$basic_ostringstream@GU?$char_traits@G@std@@V?$allocator@G@2@@std@@QEAAXAEBV?$basic_string@GU?$char_traits@G@std@@V?$allocator@G@2@@2@@Z
; public: class std::<unsigned short,struct std::<unsigned short>,class std::<unsigned short>> __cdecl std::<unsigned short,struct std::<unsigned short>,class std::<unsigned short>>::str(void)const __ptr64 
?str@?$basic_ostringstream@GU?$char_traits@G@std@@V?$allocator@G@2@@std@@QEBA?AV?$basic_string@GU?$char_traits@G@std@@V?$allocator@G@2@@2@XZ
; public: void __cdecl std::<char,struct std::<char>,class std::<char>>::str(class std::<char,struct std::<char>,class std::<char>> const &__ptr64 )__ptr64 
?str@?$basic_stringbuf@DU?$char_traits@D@std@@V?$allocator@D@2@@std@@QEAAXAEBV?$basic_string@DU?$char_traits@D@std@@V?$allocator@D@2@@2@@Z
; public: class std::<char,struct std::<char>,class std::<char>> __cdecl std::<char,struct std::<char>,class std::<char>>::str(void)const __ptr64 
?str@?$basic_stringbuf@DU?$char_traits@D@std@@V?$allocator@D@2@@std@@QEBA?AV?$basic_string@DU?$char_traits@D@std@@V?$allocator@D@2@@2@XZ
; public: void __cdecl std::<unsigned short,struct std::<unsigned short>,class std::<unsigned short>>::str(class std::<unsigned short,struct std::<unsigned short>,class std::<unsigned short>> const &__ptr64 )__ptr64 
?str@?$basic_stringbuf@GU?$char_traits@G@std@@V?$allocator@G@2@@std@@QEAAXAEBV?$basic_string@GU?$char_traits@G@std@@V?$allocator@G@2@@2@@Z
; public: class std::<unsigned short,struct std::<unsigned short>,class std::<unsigned short>> __cdecl std::<unsigned short,struct std::<unsigned short>,class std::<unsigned short>>::str(void)const __ptr64 
?str@?$basic_stringbuf@GU?$char_traits@G@std@@V?$allocator@G@2@@std@@QEBA?AV?$basic_string@GU?$char_traits@G@std@@V?$allocator@G@2@@2@XZ
; public: void __cdecl std::<char,struct std::<char>,class std::<char>>::str(class std::<char,struct std::<char>,class std::<char>> const &__ptr64 )__ptr64 
?str@?$basic_stringstream@DU?$char_traits@D@std@@V?$allocator@D@2@@std@@QEAAXAEBV?$basic_string@DU?$char_traits@D@std@@V?$allocator@D@2@@2@@Z
; public: class std::<char,struct std::<char>,class std::<char>> __cdecl std::<char,struct std::<char>,class std::<char>>::str(void)const __ptr64 
?str@?$basic_stringstream@DU?$char_traits@D@std@@V?$allocator@D@2@@std@@QEBA?AV?$basic_string@DU?$char_traits@D@std@@V?$allocator@D@2@@2@XZ
; public: void __cdecl std::<unsigned short,struct std::<unsigned short>,class std::<unsigned short>>::str(class std::<unsigned short,struct std::<unsigned short>,class std::<unsigned short>> const &__ptr64 )__ptr64 
?str@?$basic_stringstream@GU?$char_traits@G@std@@V?$allocator@G@2@@std@@QEAAXAEBV?$basic_string@GU?$char_traits@G@std@@V?$allocator@G@2@@2@@Z
; public: class std::<unsigned short,struct std::<unsigned short>,class std::<unsigned short>> __cdecl std::<unsigned short,struct std::<unsigned short>,class std::<unsigned short>>::str(void)const __ptr64 
?str@?$basic_stringstream@GU?$char_traits@G@std@@V?$allocator@G@2@@std@@QEBA?AV?$basic_string@GU?$char_traits@G@std@@V?$allocator@G@2@@2@XZ
; public: class std::<char,struct std::<char>,class std::<char>> __cdecl std::<char,struct std::<char>,class std::<char>>::substr(unsigned __int64,unsigned __int64)const __ptr64 
?substr@?$basic_string@DU?$char_traits@D@std@@V?$allocator@D@2@@std@@QEBA?AV12@_K0@Z
; public: class std::<unsigned short,struct std::<unsigned short>,class std::<unsigned short>> __cdecl std::<unsigned short,struct std::<unsigned short>,class std::<unsigned short>>::substr(unsigned __int64,unsigned __int64)const __ptr64 
?substr@?$basic_string@GU?$char_traits@G@std@@V?$allocator@G@2@@std@@QEBA?AV12@_K0@Z
; public: int __cdecl std::<char,struct std::<char>>::sungetc(void)__ptr64 
?sungetc@?$basic_streambuf@DU?$char_traits@D@std@@@std@@QEAAHXZ
; public: unsigned short __cdecl std::<unsigned short,struct std::<unsigned short>>::sungetc(void)__ptr64 
?sungetc@?$basic_streambuf@GU?$char_traits@G@std@@@std@@QEAAGXZ
; public: void __cdecl std::<char,struct std::<char>,class std::<char>>::swap(class std::<char,struct std::<char>,class std::<char>> &__ptr64 )__ptr64 
?swap@?$basic_string@DU?$char_traits@D@std@@V?$allocator@D@2@@std@@QEAAXAEAV12@@Z
; public: void __cdecl std::<unsigned short,struct std::<unsigned short>,class std::<unsigned short>>::swap(class std::<unsigned short,struct std::<unsigned short>,class std::<unsigned short>> &__ptr64 )__ptr64 
?swap@?$basic_string@GU?$char_traits@G@std@@V?$allocator@G@2@@std@@QEAAXAEAV12@@Z
; protected: virtual int __cdecl std::<char,struct std::<char>>::sync(void)__ptr64 
?sync@?$basic_filebuf@DU?$char_traits@D@std@@@std@@MEAAHXZ
; protected: virtual int __cdecl std::<unsigned short,struct std::<unsigned short>>::sync(void)__ptr64 
?sync@?$basic_filebuf@GU?$char_traits@G@std@@@std@@MEAAHXZ
; public: int __cdecl std::<char,struct std::<char>>::sync(void)__ptr64 
?sync@?$basic_istream@DU?$char_traits@D@std@@@std@@QEAAHXZ
; public: int __cdecl std::<unsigned short,struct std::<unsigned short>>::sync(void)__ptr64 
?sync@?$basic_istream@GU?$char_traits@G@std@@@std@@QEAAHXZ
; protected: virtual int __cdecl std::<char,struct std::<char>>::sync(void)__ptr64 
?sync@?$basic_streambuf@DU?$char_traits@D@std@@@std@@MEAAHXZ
; protected: virtual int __cdecl std::<unsigned short,struct std::<unsigned short>>::sync(void)__ptr64 
?sync@?$basic_streambuf@GU?$char_traits@G@std@@@std@@MEAAHXZ
; public: static bool __cdecl std::ios_base::sync_with_stdio(bool)
?sync_with_stdio@ios_base@std@@SA_N_N@Z
; protected: short const *__ptr64 __cdecl std::<char>::table(void)const __ptr64 
?table@?$ctype@D@std@@IEBAPEBFXZ
; public: static unsigned __int64 const std::<char>::table_size
?table_size@?$ctype@D@std@@2_KB
; public: class std::<int> __cdecl std::<char,struct std::<char>>::tellg(void)__ptr64 
?tellg@?$basic_istream@DU?$char_traits@D@std@@@std@@QEAA?AV?$fpos@H@2@XZ
; public: class std::<int> __cdecl std::<unsigned short,struct std::<unsigned short>>::tellg(void)__ptr64 
?tellg@?$basic_istream@GU?$char_traits@G@std@@@std@@QEAA?AV?$fpos@H@2@XZ
; public: class std::<int> __cdecl std::<char,struct std::<char>>::tellp(void)__ptr64 
?tellp@?$basic_ostream@DU?$char_traits@D@std@@@std@@QEAA?AV?$fpos@H@2@XZ
; public: class std::<int> __cdecl std::<unsigned short,struct std::<unsigned short>>::tellp(void)__ptr64 
?tellp@?$basic_ostream@GU?$char_traits@G@std@@@std@@QEAA?AV?$fpos@H@2@XZ
; public: char __cdecl std::<char>::thousands_sep(void)const __ptr64 
?thousands_sep@?$_Mpunct@D@std@@QEBADXZ
; public: unsigned short __cdecl std::<unsigned short>::thousands_sep(void)const __ptr64 
?thousands_sep@?$_Mpunct@G@std@@QEBAGXZ
; public: char __cdecl std::<char>::thousands_sep(void)const __ptr64 
?thousands_sep@?$numpunct@D@std@@QEBADXZ
; public: unsigned short __cdecl std::<unsigned short>::thousands_sep(void)const __ptr64 
?thousands_sep@?$numpunct@G@std@@QEBAGXZ
; public: class std::<char,struct std::<char>> *__ptr64 __cdecl std::<char,struct std::<char>>::tie(class std::<char,struct std::<char>> *__ptr64)__ptr64 
?tie@?$basic_ios@DU?$char_traits@D@std@@@std@@QEAAPEAV?$basic_ostream@DU?$char_traits@D@std@@@2@PEAV32@@Z
; public: class std::<char,struct std::<char>> *__ptr64 __cdecl std::<char,struct std::<char>>::tie(void)const __ptr64 
?tie@?$basic_ios@DU?$char_traits@D@std@@@std@@QEBAPEAV?$basic_ostream@DU?$char_traits@D@std@@@2@XZ
; public: class std::<unsigned short,struct std::<unsigned short>> *__ptr64 __cdecl std::<unsigned short,struct std::<unsigned short>>::tie(class std::<unsigned short,struct std::<unsigned short>> *__ptr64)__ptr64 
?tie@?$basic_ios@GU?$char_traits@G@std@@@std@@QEAAPEAV?$basic_ostream@GU?$char_traits@G@std@@@2@PEAV32@@Z
; public: class std::<unsigned short,struct std::<unsigned short>> *__ptr64 __cdecl std::<unsigned short,struct std::<unsigned short>>::tie(void)const __ptr64 
?tie@?$basic_ios@GU?$char_traits@G@std@@@std@@QEBAPEAV?$basic_ostream@GU?$char_traits@G@std@@@2@XZ
; public: static char __cdecl std::<char>::to_char_type(int const &__ptr64 )
?to_char_type@?$char_traits@D@std@@SADAEBH@Z
; public: static unsigned short __cdecl std::<unsigned short>::to_char_type(unsigned short const &__ptr64 )
?to_char_type@?$char_traits@G@std@@SAGAEBG@Z
; public: static int __cdecl std::<char>::to_int_type(char const &__ptr64 )
?to_int_type@?$char_traits@D@std@@SAHAEBD@Z
; public: static unsigned short __cdecl std::<unsigned short>::to_int_type(unsigned short const &__ptr64 )
?to_int_type@?$char_traits@G@std@@SAGAEBG@Z
; public: char __cdecl std::<char>::tolower(char)const __ptr64 
?tolower@?$ctype@D@std@@QEBADD@Z
; public: char const *__ptr64 __cdecl std::<char>::tolower(char *__ptr64,char const *__ptr64)const __ptr64 
?tolower@?$ctype@D@std@@QEBAPEBDPEADPEBD@Z
; public: unsigned short __cdecl std::<unsigned short>::tolower(unsigned short)const __ptr64 
?tolower@?$ctype@G@std@@QEBAGG@Z
; public: unsigned short const *__ptr64 __cdecl std::<unsigned short>::tolower(unsigned short *__ptr64,unsigned short const *__ptr64)const __ptr64 
?tolower@?$ctype@G@std@@QEBAPEBGPEAGPEBG@Z
; public: char __cdecl std::<char>::toupper(char)const __ptr64 
?toupper@?$ctype@D@std@@QEBADD@Z
; public: char const *__ptr64 __cdecl std::<char>::toupper(char *__ptr64,char const *__ptr64)const __ptr64 
?toupper@?$ctype@D@std@@QEBAPEBDPEADPEBD@Z
; public: unsigned short __cdecl std::<unsigned short>::toupper(unsigned short)const __ptr64 
?toupper@?$ctype@G@std@@QEBAGG@Z
; public: unsigned short const *__ptr64 __cdecl std::<unsigned short>::toupper(unsigned short *__ptr64,unsigned short const *__ptr64)const __ptr64 
?toupper@?$ctype@G@std@@QEBAPEBGPEAGPEBG@Z
; public: class std::<char,struct std::<char>,class std::<char>> __cdecl std::<char>::transform(char const *__ptr64,char const *__ptr64)const __ptr64 
?transform@?$collate@D@std@@QEBA?AV?$basic_string@DU?$char_traits@D@std@@V?$allocator@D@2@@2@PEBD0@Z
; public: class std::<unsigned short,struct std::<unsigned short>,class std::<unsigned short>> __cdecl std::<unsigned short>::transform(unsigned short const *__ptr64,unsigned short const *__ptr64)const __ptr64 
?transform@?$collate@G@std@@QEBA?AV?$basic_string@GU?$char_traits@G@std@@V?$allocator@G@2@@2@PEBG0@Z
; public: class std::<char,struct std::<char>,class std::<char>> __cdecl std::<char>::truename(void)const __ptr64 
?truename@?$numpunct@D@std@@QEBA?AV?$basic_string@DU?$char_traits@D@std@@V?$allocator@D@2@@2@XZ
; public: class std::<unsigned short,struct std::<unsigned short>,class std::<unsigned short>> __cdecl std::<unsigned short>::truename(void)const __ptr64 
?truename@?$numpunct@G@std@@QEBA?AV?$basic_string@GU?$char_traits@G@std@@V?$allocator@G@2@@2@XZ
; protected: virtual int __cdecl std::<char,struct std::<char>>::uflow(void)__ptr64 
?uflow@?$basic_filebuf@DU?$char_traits@D@std@@@std@@MEAAHXZ
; protected: virtual unsigned short __cdecl std::<unsigned short,struct std::<unsigned short>>::uflow(void)__ptr64 
?uflow@?$basic_filebuf@GU?$char_traits@G@std@@@std@@MEAAGXZ
; protected: virtual int __cdecl std::<char,struct std::<char>>::uflow(void)__ptr64 
?uflow@?$basic_streambuf@DU?$char_traits@D@std@@@std@@MEAAHXZ
; protected: virtual unsigned short __cdecl std::<unsigned short,struct std::<unsigned short>>::uflow(void)__ptr64 
?uflow@?$basic_streambuf@GU?$char_traits@G@std@@@std@@MEAAGXZ
; bool __cdecl std::uncaught_exception(void)
?uncaught_exception@std@@YA_NXZ
; protected: virtual int __cdecl std::<char,struct std::<char>>::underflow(void)__ptr64 
?underflow@?$basic_filebuf@DU?$char_traits@D@std@@@std@@MEAAHXZ
; protected: virtual unsigned short __cdecl std::<unsigned short,struct std::<unsigned short>>::underflow(void)__ptr64 
?underflow@?$basic_filebuf@GU?$char_traits@G@std@@@std@@MEAAGXZ
; protected: virtual int __cdecl std::<char,struct std::<char>>::underflow(void)__ptr64 
?underflow@?$basic_streambuf@DU?$char_traits@D@std@@@std@@MEAAHXZ
; protected: virtual unsigned short __cdecl std::<unsigned short,struct std::<unsigned short>>::underflow(void)__ptr64 
?underflow@?$basic_streambuf@GU?$char_traits@G@std@@@std@@MEAAGXZ
; protected: virtual int __cdecl std::<char,struct std::<char>,class std::<char>>::underflow(void)__ptr64 
?underflow@?$basic_stringbuf@DU?$char_traits@D@std@@V?$allocator@D@2@@std@@MEAAHXZ
; protected: virtual unsigned short __cdecl std::<unsigned short,struct std::<unsigned short>,class std::<unsigned short>>::underflow(void)__ptr64 
?underflow@?$basic_stringbuf@GU?$char_traits@G@std@@V?$allocator@G@2@@std@@MEAAGXZ
; protected: virtual int __cdecl std::strstreambuf::underflow(void)__ptr64 
?underflow@strstreambuf@std@@MEAAHXZ
; public: class std::<char,struct std::<char>> &__ptr64 __cdecl std::<char,struct std::<char>>::unget(void)__ptr64 
?unget@?$basic_istream@DU?$char_traits@D@std@@@std@@QEAAAEAV12@XZ
; public: class std::<unsigned short,struct std::<unsigned short>> &__ptr64 __cdecl std::<unsigned short,struct std::<unsigned short>>::unget(void)__ptr64 
?unget@?$basic_istream@GU?$char_traits@G@std@@@std@@QEAAAEAV12@XZ
; public: void __cdecl std::ios_base::unsetf(int)__ptr64 
?unsetf@ios_base@std@@QEAAXH@Z
; class std::<unsigned short,struct std::<unsigned short>> std::wcerr
?wcerr@std@@3V?$basic_ostream@GU?$char_traits@G@std@@@1@A DATA
; class std::<unsigned short,struct std::<unsigned short>> std::wcin
?wcin@std@@3V?$basic_istream@GU?$char_traits@G@std@@@1@A DATA
; class std::<unsigned short,struct std::<unsigned short>> std::wclog
?wclog@std@@3V?$basic_ostream@GU?$char_traits@G@std@@@1@A DATA
; class std::<unsigned short,struct std::<unsigned short>> std::wcout
?wcout@std@@3V?$basic_ostream@GU?$char_traits@G@std@@@1@A DATA
; public: virtual char const *__ptr64 __cdecl std::logic_error::what(void)const __ptr64 
?what@logic_error@std@@UEBAPEBDXZ
; public: virtual char const *__ptr64 __cdecl std::runtime_error::what(void)const __ptr64 
?what@runtime_error@std@@UEBAPEBDXZ
; public: char __cdecl std::<char,struct std::<char>>::widen(char)const __ptr64 
?widen@?$basic_ios@DU?$char_traits@D@std@@@std@@QEBADD@Z
; public: unsigned short __cdecl std::<unsigned short,struct std::<unsigned short>>::widen(char)const __ptr64 
?widen@?$basic_ios@GU?$char_traits@G@std@@@std@@QEBAGD@Z
; public: char __cdecl std::<char>::widen(char)const __ptr64 
?widen@?$ctype@D@std@@QEBADD@Z
; public: char const *__ptr64 __cdecl std::<char>::widen(char const *__ptr64,char const *__ptr64,char *__ptr64)const __ptr64 
?widen@?$ctype@D@std@@QEBAPEBDPEBD0PEAD@Z
; public: unsigned short __cdecl std::<unsigned short>::widen(char)const __ptr64 
?widen@?$ctype@G@std@@QEBAGD@Z
; public: char const *__ptr64 __cdecl std::<unsigned short>::widen(char const *__ptr64,char const *__ptr64,unsigned short *__ptr64)const __ptr64 
?widen@?$ctype@G@std@@QEBAPEBDPEBD0PEAG@Z
; public: __int64 __cdecl std::ios_base::width(__int64)__ptr64 
?width@ios_base@std@@QEAA_J_J@Z
; public: __int64 __cdecl std::ios_base::width(void)const __ptr64 
?width@ios_base@std@@QEBA_JXZ
; public: class std::<char,struct std::<char>> &__ptr64 __cdecl std::<char,struct std::<char>>::write(char const *__ptr64,__int64)__ptr64 
?write@?$basic_ostream@DU?$char_traits@D@std@@@std@@QEAAAEAV12@PEBD_J@Z
; public: class std::<unsigned short,struct std::<unsigned short>> &__ptr64 __cdecl std::<unsigned short,struct std::<unsigned short>>::write(unsigned short const *__ptr64,__int64)__ptr64 
?write@?$basic_ostream@GU?$char_traits@G@std@@@std@@QEAAAEAV12@PEBG_J@Z
; class std::<char,struct std::<char>> &__ptr64 __cdecl std::ws(class std::<char,struct std::<char>> &__ptr64 )
?ws@std@@YAAEAV?$basic_istream@DU?$char_traits@D@std@@@1@AEAV21@@Z
; class std::<unsigned short,struct std::<unsigned short>> &__ptr64 __cdecl std::ws(class std::<unsigned short,struct std::<unsigned short>> &__ptr64 )
?ws@std@@YAAEAV?$basic_istream@GU?$char_traits@G@std@@@1@AEAV21@@Z
; public: static int __cdecl std::ios_base::xalloc(void)
?xalloc@ios_base@std@@SAHXZ
; protected: virtual __int64 __cdecl std::<char,struct std::<char>>::xsgetn(char *__ptr64,__int64)__ptr64 
?xsgetn@?$basic_streambuf@DU?$char_traits@D@std@@@std@@MEAA_JPEAD_J@Z
; protected: virtual __int64 __cdecl std::<unsigned short,struct std::<unsigned short>>::xsgetn(unsigned short *__ptr64,__int64)__ptr64 
?xsgetn@?$basic_streambuf@GU?$char_traits@G@std@@@std@@MEAA_JPEAG_J@Z
; protected: virtual __int64 __cdecl std::<char,struct std::<char>>::xsputn(char const *__ptr64,__int64)__ptr64 
?xsputn@?$basic_streambuf@DU?$char_traits@D@std@@@std@@MEAA_JPEBD_J@Z
; protected: virtual __int64 __cdecl std::<unsigned short,struct std::<unsigned short>>::xsputn(unsigned short const *__ptr64,__int64)__ptr64 
?xsputn@?$basic_streambuf@GU?$char_traits@G@std@@@std@@MEAA_JPEBG_J@Z
_Cosh
_Denorm
_Dnorm
_Dscale
_Dtest
_Eps
_Exp
_FCosh
_FDenorm
_FDnorm
_FDscale
_FDtest
_FEps
_FExp
_FInf
_FNan
_FRteps
_FSinh
_FSnan
_FXbig
_Getcoll
_Getctype
_Getcvt
_Hugeval
_Inf
_LCosh
_LDenorm
_LDscale
_LDtest
_LEps
_LExp
_LInf
_LNan
_LPoly
_LRteps
_LSinh
_LSnan
_LXbig
_Mbrtowc
_Nan
_Poly
_Rteps
_Sinh
_Snan
_Stod
_Stof
_Stold
_Strcoll
_Strxfrm
_Tolower
_Toupper
_Wcrtomb
_Xbig
__Wcrtomb_lk
btowc = msvcrt.btowc
mbrlen = msvcrt.mbrlen
mbrtowc = msvcrt.mbrtowc
mbsrtowcs = msvcrt.mbsrtowcs
towctrans
wcrtomb = msvcrt.wcrtomb
wcsrtombs = msvcrt.wcsrtombs
wctob = msvcrt.wctob
wctrans
wctype
