;
; Definition file of rgbrast.dll
; Automatic generated by gendef
; written by Kai Tietz 2008
;
LIBRARY "rgbrast.dll"
EXPORTS
; public: __cdecl PrimProcessor::PrimProcessor(void)__ptr64 
??0PrimProcessor@@QEAA@XZ
; public: __cdecl PrimProcessor::~PrimProcessor(void)__ptr64 
??1PrimProcessor@@QEAA@XZ
; public: class PrimProcessor &__ptr64 __cdecl PrimProcessor::operator =(class PrimProcessor const &__ptr64 )__ptr64 
??4PrimProcessor@@QEAAAEAV0@AEBV0@@Z
; public: long __cdecl PrimProcessor::AllocSpans(unsigned int *__ptr64,struct tagD3DI_RASTSPAN *__ptr64 *__ptr64)__ptr64 
?AllocSpans@PrimProcessor@@QEAAJPEAIPEAPEAUtagD3DI_RASTSPAN@@@Z
; private: long __cdecl PrimProcessor::AppendPrim(void)__ptr64 
?AppendPrim@PrimProcessor@@AEAAJXZ
; public: void __cdecl PrimProcessor::Begin(void)__ptr64 
?Begin@PrimProcessor@@QEAAXXZ
; public: void __cdecl PrimProcessor::BeginPrimSet(enum _D3DPRIMITIVETYPE,enum _RAST_VERTEX_TYPE)__ptr64 
?BeginPrimSet@PrimProcessor@@QEAAXW4_D3DPRIMITIVETYPE@@W4_RAST_VERTEX_TYPE@@@Z
; public: void __cdecl PrimProcessor::ClrFlags(unsigned int)__ptr64 
?ClrFlags@PrimProcessor@@QEAAXI@Z
; public: long __cdecl PrimProcessor::End(void)__ptr64 
?End@PrimProcessor@@QEAAJXZ
; private: void __cdecl PrimProcessor::FillPointSpan(struct _D3DTLVERTEX *__ptr64,struct tagD3DI_RASTSPAN *__ptr64)__ptr64 
?FillPointSpan@PrimProcessor@@AEAAXPEAU_D3DTLVERTEX@@PEAUtagD3DI_RASTSPAN@@@Z
; private: long __cdecl PrimProcessor::Flush(void)__ptr64 
?Flush@PrimProcessor@@AEAAJXZ
; private: long __cdecl PrimProcessor::FlushPartial(void)__ptr64 
?FlushPartial@PrimProcessor@@AEAAJXZ
; public: void __cdecl PrimProcessor::FreeSpans(unsigned int)__ptr64 
?FreeSpans@PrimProcessor@@QEAAXI@Z
; public: unsigned int __cdecl PrimProcessor::GetFlags(void)__ptr64 
?GetFlags@PrimProcessor@@QEAAIXZ
; public: long __cdecl PrimProcessor::Initialize(void)__ptr64 
?Initialize@PrimProcessor@@QEAAJXZ
; public: long __cdecl PrimProcessor::Line(struct _D3DTLVERTEX *__ptr64,struct _D3DTLVERTEX *__ptr64,struct _D3DTLVERTEX *__ptr64)__ptr64 
?Line@PrimProcessor@@QEAAJPEAU_D3DTLVERTEX@@00@Z
; private: int __cdecl PrimProcessor::LineSetup(struct _D3DTLVERTEX *__ptr64,struct _D3DTLVERTEX *__ptr64)__ptr64 
?LineSetup@PrimProcessor@@AEAAHPEAU_D3DTLVERTEX@@0@Z
; private: void __cdecl PrimProcessor::NormalizeLineRHW(struct _D3DTLVERTEX *__ptr64,struct _D3DTLVERTEX *__ptr64)__ptr64 
?NormalizeLineRHW@PrimProcessor@@AEAAXPEAU_D3DTLVERTEX@@0@Z
; private: void __cdecl PrimProcessor::NormalizePointRHW(struct _D3DTLVERTEX *__ptr64)__ptr64 
?NormalizePointRHW@PrimProcessor@@AEAAXPEAU_D3DTLVERTEX@@@Z
; private: void __cdecl PrimProcessor::NormalizeTriRHW(struct _D3DTLVERTEX *__ptr64,struct _D3DTLVERTEX *__ptr64,struct _D3DTLVERTEX *__ptr64)__ptr64 
?NormalizeTriRHW@PrimProcessor@@AEAAXPEAU_D3DTLVERTEX@@00@Z
; public: long __cdecl PrimProcessor::Point(struct _D3DTLVERTEX *__ptr64,struct _D3DTLVERTEX *__ptr64)__ptr64 
?Point@PrimProcessor@@QEAAJPEAU_D3DTLVERTEX@@0@Z
; private: int __cdecl PrimProcessor::PointDiamondCheck(int,int,int,int)__ptr64 
?PointDiamondCheck@PrimProcessor@@AEAAHHHHH@Z
; private: void __cdecl PrimProcessor::ResetBuffer(void)__ptr64 
?ResetBuffer@PrimProcessor@@AEAAXXZ
; public: void __cdecl PrimProcessor::SetCtx(struct tagD3DI_RASTCTX *__ptr64)__ptr64 
?SetCtx@PrimProcessor@@QEAAXPEAUtagD3DI_RASTCTX@@@Z
; public: void __cdecl PrimProcessor::SetFlags(unsigned int)__ptr64 
?SetFlags@PrimProcessor@@QEAAXI@Z
; private: void __cdecl PrimProcessor::SetTriFunctions(void)__ptr64 
?SetTriFunctions@PrimProcessor@@AEAAXXZ
; public: void __cdecl PrimProcessor::StateChanged(void)__ptr64 
?StateChanged@PrimProcessor@@QEAAXXZ
; public: long __cdecl PrimProcessor::Tri(struct _D3DTLVERTEX *__ptr64,struct _D3DTLVERTEX *__ptr64,struct _D3DTLVERTEX *__ptr64)__ptr64 
?Tri@PrimProcessor@@QEAAJPEAU_D3DTLVERTEX@@00@Z
; private: int __cdecl PrimProcessor::TriSetup(struct _D3DTLVERTEX *__ptr64,struct _D3DTLVERTEX *__ptr64,struct _D3DTLVERTEX *__ptr64)__ptr64 
?TriSetup@PrimProcessor@@AEAAHPEAU_D3DTLVERTEX@@00@Z
D3D9GetSWInfo
