;
; Definition file of TabBtn.dll
; Automatic generated by gendef
; written by Kai Tietz 2008
;
LIBRARY "TabBtn.dll"
EXPORTS
; public: __cdecl ATL::<struct ACTION *__ptr64,class ATL::<struct ACTION *__ptr64>>::<struct ACTION *__ptr64,class ATL::<struct ACTION *__ptr64>>(class ATL::<struct ACTION *__ptr64,class ATL::<struct ACTION *__ptr64>> const &__ptr64 )__ptr64 
??0?$CSimpleArray@PEAUACTION@@V?$CSimpleArrayEqualHelper@PEAUACTION@@@ATL@@@ATL@@QEAA@AEBV01@@Z
; public: __cdecl ATL::<struct ACTION *__ptr64,class ATL::<struct ACTION *__ptr64>>::<struct ACTION *__ptr64,class ATL::<struct ACTION *__ptr64>>(void)__ptr64 
??0?$CSimpleArray@PEAUACTION@@V?$CSimpleArrayEqualHelper@PEAUACTION@@@ATL@@@ATL@@QEAA@XZ
; public: __cdecl ATL::<class CButtonAction *__ptr64,class ATL::<class CButtonAction *__ptr64>>::<class CButtonAction *__ptr64,class ATL::<class CButtonAction *__ptr64>>(class ATL::<class CButtonAction *__ptr64,class ATL::<class CButtonAction *__ptr64>> const &__ptr64 )__ptr64 
??0?$CSimpleArray@PEAVCButtonAction@@V?$CSimpleArrayEqualHelper@PEAVCButtonAction@@@ATL@@@ATL@@QEAA@AEBV01@@Z
; public: __cdecl ATL::<class CButtonAction *__ptr64,class ATL::<class CButtonAction *__ptr64>>::<class CButtonAction *__ptr64,class ATL::<class CButtonAction *__ptr64>>(void)__ptr64 
??0?$CSimpleArray@PEAVCButtonAction@@V?$CSimpleArrayEqualHelper@PEAVCButtonAction@@@ATL@@@ATL@@QEAA@XZ
; public: __cdecl ATL::<class CButtonSetting *__ptr64,class ATL::<class CButtonSetting *__ptr64>>::<class CButtonSetting *__ptr64,class ATL::<class CButtonSetting *__ptr64>>(class ATL::<class CButtonSetting *__ptr64,class ATL::<class CButtonSetting *__ptr64>> const &__ptr64 )__ptr64 
??0?$CSimpleArray@PEAVCButtonSetting@@V?$CSimpleArrayEqualHelper@PEAVCButtonSetting@@@ATL@@@ATL@@QEAA@AEBV01@@Z
; public: __cdecl ATL::<class CButtonSetting *__ptr64,class ATL::<class CButtonSetting *__ptr64>>::<class CButtonSetting *__ptr64,class ATL::<class CButtonSetting *__ptr64>>(void)__ptr64 
??0?$CSimpleArray@PEAVCButtonSetting@@V?$CSimpleArrayEqualHelper@PEAVCButtonSetting@@@ATL@@@ATL@@QEAA@XZ
; public: __cdecl ATL::<class COrientation *__ptr64,class ATL::<class COrientation *__ptr64>>::<class COrientation *__ptr64,class ATL::<class COrientation *__ptr64>>(class ATL::<class COrientation *__ptr64,class ATL::<class COrientation *__ptr64>> const &__ptr64 )__ptr64 
??0?$CSimpleArray@PEAVCOrientation@@V?$CSimpleArrayEqualHelper@PEAVCOrientation@@@ATL@@@ATL@@QEAA@AEBV01@@Z
; public: __cdecl ATL::<class COrientation *__ptr64,class ATL::<class COrientation *__ptr64>>::<class COrientation *__ptr64,class ATL::<class COrientation *__ptr64>>(void)__ptr64 
??0?$CSimpleArray@PEAVCOrientation@@V?$CSimpleArrayEqualHelper@PEAVCOrientation@@@ATL@@@ATL@@QEAA@XZ
; public: __cdecl ATL::<unsigned long,class CButtonImages *__ptr64,class ATL::<unsigned long,class CButtonImages *__ptr64>>::<unsigned long,class CButtonImages *__ptr64,class ATL::<unsigned long,class CButtonImages *__ptr64>>(void)__ptr64 
??0?$CSimpleMap@KPEAVCButtonImages@@V?$CSimpleMapEqualHelper@KPEAVCButtonImages@@@ATL@@@ATL@@QEAA@XZ
; public: __cdecl CActions::CActions(class CActions const &__ptr64 )__ptr64 
??0CActions@@QEAA@AEBV0@@Z
; public: __cdecl CActions::CActions(void)__ptr64 
??0CActions@@QEAA@XZ
; public: __cdecl CButtonAction::CButtonAction(enum BUTTONACTION_TYPE)__ptr64 
??0CButtonAction@@QEAA@W4BUTTONACTION_TYPE@@@Z
; public: __cdecl CButtonConfig::CButtonConfig(class CButtonConfig const &__ptr64 )__ptr64 
??0CButtonConfig@@QEAA@AEBV0@@Z
; public: __cdecl CButtonConfig::CButtonConfig(void)__ptr64 
??0CButtonConfig@@QEAA@XZ
; public: __cdecl CButtonMonitor::CButtonMonitor(class CButtonMonitor const &__ptr64 )__ptr64 
??0CButtonMonitor@@QEAA@AEBV0@@Z
; public: __cdecl CButtonMonitor::CButtonMonitor(void)__ptr64 
??0CButtonMonitor@@QEAA@XZ
; public: __cdecl CButtonSetting::CButtonSetting(class CButtonSetting const &__ptr64 )__ptr64 
??0CButtonSetting@@QEAA@AEBV0@@Z
; public: __cdecl CButtonSetting::CButtonSetting(void)__ptr64 
??0CButtonSetting@@QEAA@XZ
; public: __cdecl CButtonSettings::CButtonSettings(class CButtonSettings const &__ptr64 )__ptr64 
??0CButtonSettings@@QEAA@AEBV0@@Z
; public: __cdecl CButtonSettings::CButtonSettings(void)__ptr64 
??0CButtonSettings@@QEAA@XZ
; public: __cdecl CFunctionNotification::CFunctionNotification(void)__ptr64 
??0CFunctionNotification@@QEAA@XZ
; public: __cdecl CHidButton::CHidButton(struct HWND__ *__ptr64,unsigned int,unsigned int)__ptr64 
??0CHidButton@@QEAA@PEAUHWND__@@II@Z
; public: __cdecl COrientation::COrientation(void)__ptr64 
??0COrientation@@QEAA@XZ
; public: __cdecl ATL::<struct ACTION *__ptr64,class ATL::<struct ACTION *__ptr64>>::~<struct ACTION *__ptr64,class ATL::<struct ACTION *__ptr64>>(void)__ptr64 
??1?$CSimpleArray@PEAUACTION@@V?$CSimpleArrayEqualHelper@PEAUACTION@@@ATL@@@ATL@@QEAA@XZ
; public: __cdecl ATL::<class CButtonAction *__ptr64,class ATL::<class CButtonAction *__ptr64>>::~<class CButtonAction *__ptr64,class ATL::<class CButtonAction *__ptr64>>(void)__ptr64 
??1?$CSimpleArray@PEAVCButtonAction@@V?$CSimpleArrayEqualHelper@PEAVCButtonAction@@@ATL@@@ATL@@QEAA@XZ
; public: __cdecl ATL::<class CButtonSetting *__ptr64,class ATL::<class CButtonSetting *__ptr64>>::~<class CButtonSetting *__ptr64,class ATL::<class CButtonSetting *__ptr64>>(void)__ptr64 
??1?$CSimpleArray@PEAVCButtonSetting@@V?$CSimpleArrayEqualHelper@PEAVCButtonSetting@@@ATL@@@ATL@@QEAA@XZ
; public: __cdecl ATL::<class COrientation *__ptr64,class ATL::<class COrientation *__ptr64>>::~<class COrientation *__ptr64,class ATL::<class COrientation *__ptr64>>(void)__ptr64 
??1?$CSimpleArray@PEAVCOrientation@@V?$CSimpleArrayEqualHelper@PEAVCOrientation@@@ATL@@@ATL@@QEAA@XZ
; public: __cdecl ATL::<unsigned long,class CButtonImages *__ptr64,class ATL::<unsigned long,class CButtonImages *__ptr64>>::~<unsigned long,class CButtonImages *__ptr64,class ATL::<unsigned long,class CButtonImages *__ptr64>>(void)__ptr64 
??1?$CSimpleMap@KPEAVCButtonImages@@V?$CSimpleMapEqualHelper@KPEAVCButtonImages@@@ATL@@@ATL@@QEAA@XZ
; public: __cdecl CActions::~CActions(void)__ptr64 
??1CActions@@QEAA@XZ
; public: __cdecl CButtonAction::~CButtonAction(void)__ptr64 
??1CButtonAction@@QEAA@XZ
; public: __cdecl CButtonConfig::~CButtonConfig(void)__ptr64 
??1CButtonConfig@@QEAA@XZ
; public: __cdecl CButtonMonitor::~CButtonMonitor(void)__ptr64 
??1CButtonMonitor@@QEAA@XZ
; public: __cdecl CButtonSetting::~CButtonSetting(void)__ptr64 
??1CButtonSetting@@QEAA@XZ
; public: __cdecl CButtonSettings::~CButtonSettings(void)__ptr64 
??1CButtonSettings@@QEAA@XZ
; public: __cdecl CFunctionNotification::~CFunctionNotification(void)__ptr64 
??1CFunctionNotification@@QEAA@XZ
; public: __cdecl CHidButton::~CHidButton(void)__ptr64 
??1CHidButton@@QEAA@XZ
; public: __cdecl COrientation::~COrientation(void)__ptr64 
??1COrientation@@QEAA@XZ
; public: class ATL::<struct ACTION *__ptr64,class ATL::<struct ACTION *__ptr64>> &__ptr64 __cdecl ATL::<struct ACTION *__ptr64,class ATL::<struct ACTION *__ptr64>>::operator =(class ATL::<struct ACTION *__ptr64,class ATL::<struct ACTION *__ptr64>> const &__ptr64 )__ptr64 
??4?$CSimpleArray@PEAUACTION@@V?$CSimpleArrayEqualHelper@PEAUACTION@@@ATL@@@ATL@@QEAAAEAV01@AEBV01@@Z
; public: class ATL::<class CButtonAction *__ptr64,class ATL::<class CButtonAction *__ptr64>> &__ptr64 __cdecl ATL::<class CButtonAction *__ptr64,class ATL::<class CButtonAction *__ptr64>>::operator =(class ATL::<class CButtonAction *__ptr64,class ATL::<class CButtonAction *__ptr64>> const &__ptr64 )__ptr64 
??4?$CSimpleArray@PEAVCButtonAction@@V?$CSimpleArrayEqualHelper@PEAVCButtonAction@@@ATL@@@ATL@@QEAAAEAV01@AEBV01@@Z
; public: class ATL::<class CButtonSetting *__ptr64,class ATL::<class CButtonSetting *__ptr64>> &__ptr64 __cdecl ATL::<class CButtonSetting *__ptr64,class ATL::<class CButtonSetting *__ptr64>>::operator =(class ATL::<class CButtonSetting *__ptr64,class ATL::<class CButtonSetting *__ptr64>> const &__ptr64 )__ptr64 
??4?$CSimpleArray@PEAVCButtonSetting@@V?$CSimpleArrayEqualHelper@PEAVCButtonSetting@@@ATL@@@ATL@@QEAAAEAV01@AEBV01@@Z
; public: class ATL::<class COrientation *__ptr64,class ATL::<class COrientation *__ptr64>> &__ptr64 __cdecl ATL::<class COrientation *__ptr64,class ATL::<class COrientation *__ptr64>>::operator =(class ATL::<class COrientation *__ptr64,class ATL::<class COrientation *__ptr64>> const &__ptr64 )__ptr64 
??4?$CSimpleArray@PEAVCOrientation@@V?$CSimpleArrayEqualHelper@PEAVCOrientation@@@ATL@@@ATL@@QEAAAEAV01@AEBV01@@Z
; public: class ATL::<unsigned long,class CButtonImages *__ptr64,class ATL::<unsigned long,class CButtonImages *__ptr64>> &__ptr64 __cdecl ATL::<unsigned long,class CButtonImages *__ptr64,class ATL::<unsigned long,class CButtonImages *__ptr64>>::operator =(class ATL::<unsigned long,class CButtonImages *__ptr64,class ATL::<unsigned long,class CButtonImages *__ptr64>> const &__ptr64 )__ptr64 
??4?$CSimpleMap@KPEAVCButtonImages@@V?$CSimpleMapEqualHelper@KPEAVCButtonImages@@@ATL@@@ATL@@QEAAAEAV01@AEBV01@@Z
; public: class CActions &__ptr64 __cdecl CActions::operator =(class CActions const &__ptr64 )__ptr64 
??4CActions@@QEAAAEAV0@AEBV0@@Z
; public: class CButtonAction &__ptr64 __cdecl CButtonAction::operator =(class CButtonAction const &__ptr64 )__ptr64 
??4CButtonAction@@QEAAAEAV0@AEBV0@@Z
; public: class CButtonConfig &__ptr64 __cdecl CButtonConfig::operator =(class CButtonConfig const &__ptr64 )__ptr64 
??4CButtonConfig@@QEAAAEAV0@AEBV0@@Z
; public: class CButtonMonitor &__ptr64 __cdecl CButtonMonitor::operator =(class CButtonMonitor const &__ptr64 )__ptr64 
??4CButtonMonitor@@QEAAAEAV0@AEBV0@@Z
; public: class CButtonSetting &__ptr64 __cdecl CButtonSetting::operator =(class CButtonSetting const &__ptr64 )__ptr64 
??4CButtonSetting@@QEAAAEAV0@AEBV0@@Z
; public: class CButtonSettings &__ptr64 __cdecl CButtonSettings::operator =(class CButtonSettings const &__ptr64 )__ptr64 
??4CButtonSettings@@QEAAAEAV0@AEBV0@@Z
; public: class CFunctionNotification &__ptr64 __cdecl CFunctionNotification::operator =(class CFunctionNotification const &__ptr64 )__ptr64 
??4CFunctionNotification@@QEAAAEAV0@AEBV0@@Z
; public: class CHidButton &__ptr64 __cdecl CHidButton::operator =(class CHidButton const &__ptr64 )__ptr64 
??4CHidButton@@QEAAAEAV0@AEBV0@@Z
; public: class COrientation &__ptr64 __cdecl COrientation::operator =(class COrientation const &__ptr64 )__ptr64 
??4COrientation@@QEAAAEAV0@AEBV0@@Z
; public: struct ACTION *__ptr64 &__ptr64 __cdecl ATL::<struct ACTION *__ptr64,class ATL::<struct ACTION *__ptr64>>::operator[](int)__ptr64 
??A?$CSimpleArray@PEAUACTION@@V?$CSimpleArrayEqualHelper@PEAUACTION@@@ATL@@@ATL@@QEAAAEAPEAUACTION@@H@Z
; public: struct ACTION *__ptr64 const &__ptr64 __cdecl ATL::<struct ACTION *__ptr64,class ATL::<struct ACTION *__ptr64>>::operator[](int)const __ptr64 
??A?$CSimpleArray@PEAUACTION@@V?$CSimpleArrayEqualHelper@PEAUACTION@@@ATL@@@ATL@@QEBAAEBQEAUACTION@@H@Z
; public: class CButtonAction *__ptr64 &__ptr64 __cdecl ATL::<class CButtonAction *__ptr64,class ATL::<class CButtonAction *__ptr64>>::operator[](int)__ptr64 
??A?$CSimpleArray@PEAVCButtonAction@@V?$CSimpleArrayEqualHelper@PEAVCButtonAction@@@ATL@@@ATL@@QEAAAEAPEAVCButtonAction@@H@Z
; public: class CButtonAction *__ptr64 const &__ptr64 __cdecl ATL::<class CButtonAction *__ptr64,class ATL::<class CButtonAction *__ptr64>>::operator[](int)const __ptr64 
??A?$CSimpleArray@PEAVCButtonAction@@V?$CSimpleArrayEqualHelper@PEAVCButtonAction@@@ATL@@@ATL@@QEBAAEBQEAVCButtonAction@@H@Z
; public: class CButtonSetting *__ptr64 &__ptr64 __cdecl ATL::<class CButtonSetting *__ptr64,class ATL::<class CButtonSetting *__ptr64>>::operator[](int)__ptr64 
??A?$CSimpleArray@PEAVCButtonSetting@@V?$CSimpleArrayEqualHelper@PEAVCButtonSetting@@@ATL@@@ATL@@QEAAAEAPEAVCButtonSetting@@H@Z
; public: class CButtonSetting *__ptr64 const &__ptr64 __cdecl ATL::<class CButtonSetting *__ptr64,class ATL::<class CButtonSetting *__ptr64>>::operator[](int)const __ptr64 
??A?$CSimpleArray@PEAVCButtonSetting@@V?$CSimpleArrayEqualHelper@PEAVCButtonSetting@@@ATL@@@ATL@@QEBAAEBQEAVCButtonSetting@@H@Z
; public: class COrientation *__ptr64 &__ptr64 __cdecl ATL::<class COrientation *__ptr64,class ATL::<class COrientation *__ptr64>>::operator[](int)__ptr64 
??A?$CSimpleArray@PEAVCOrientation@@V?$CSimpleArrayEqualHelper@PEAVCOrientation@@@ATL@@@ATL@@QEAAAEAPEAVCOrientation@@H@Z
; public: class COrientation *__ptr64 const &__ptr64 __cdecl ATL::<class COrientation *__ptr64,class ATL::<class COrientation *__ptr64>>::operator[](int)const __ptr64 
??A?$CSimpleArray@PEAVCOrientation@@V?$CSimpleArrayEqualHelper@PEAVCOrientation@@@ATL@@@ATL@@QEBAAEBQEAVCOrientation@@H@Z
; public: int __cdecl ATL::<struct ACTION *__ptr64,class ATL::<struct ACTION *__ptr64>>::Add(struct ACTION *__ptr64 const &__ptr64 )__ptr64 
?Add@?$CSimpleArray@PEAUACTION@@V?$CSimpleArrayEqualHelper@PEAUACTION@@@ATL@@@ATL@@QEAAHAEBQEAUACTION@@@Z
; public: int __cdecl ATL::<class CButtonAction *__ptr64,class ATL::<class CButtonAction *__ptr64>>::Add(class CButtonAction *__ptr64 const &__ptr64 )__ptr64 
?Add@?$CSimpleArray@PEAVCButtonAction@@V?$CSimpleArrayEqualHelper@PEAVCButtonAction@@@ATL@@@ATL@@QEAAHAEBQEAVCButtonAction@@@Z
; public: int __cdecl ATL::<class CButtonSetting *__ptr64,class ATL::<class CButtonSetting *__ptr64>>::Add(class CButtonSetting *__ptr64 const &__ptr64 )__ptr64 
?Add@?$CSimpleArray@PEAVCButtonSetting@@V?$CSimpleArrayEqualHelper@PEAVCButtonSetting@@@ATL@@@ATL@@QEAAHAEBQEAVCButtonSetting@@@Z
; public: int __cdecl ATL::<class COrientation *__ptr64,class ATL::<class COrientation *__ptr64>>::Add(class COrientation *__ptr64 const &__ptr64 )__ptr64 
?Add@?$CSimpleArray@PEAVCOrientation@@V?$CSimpleArrayEqualHelper@PEAVCOrientation@@@ATL@@@ATL@@QEAAHAEBQEAVCOrientation@@@Z
; public: int __cdecl ATL::<unsigned long,class CButtonImages *__ptr64,class ATL::<unsigned long,class CButtonImages *__ptr64>>::Add(unsigned long const &__ptr64 ,class CButtonImages *__ptr64 const &__ptr64 )__ptr64 
?Add@?$CSimpleMap@KPEAVCButtonImages@@V?$CSimpleMapEqualHelper@KPEAVCButtonImages@@@ATL@@@ATL@@QEAAHAEBKAEBQEAVCButtonImages@@@Z
; public: int __cdecl CButtonAction::CanRepeat(void)const __ptr64 
?CanRepeat@CButtonAction@@QEBAHXZ
; public: long __cdecl CButtonAction::Clone(class CButtonAction *__ptr64 *__ptr64)const __ptr64 
?Clone@CButtonAction@@QEBAJPEAPEAV1@@Z
; public: static long __cdecl CButtonMonitor::CreateExtendedActionObject(struct IUnknown *__ptr64 *__ptr64)
?CreateExtendedActionObject@CButtonMonitor@@SAJPEAPEAUIUnknown@@@Z
; private: long __cdecl CFunctionNotification::CreateTrayWindow(void)__ptr64 
?CreateTrayWindow@CFunctionNotification@@AEAAJXZ
; public: long __cdecl CHidButton::DispatchHidBtnEvents(struct HRAWINPUT__ *__ptr64)__ptr64 
?DispatchHidBtnEvents@CHidButton@@QEAAJPEAUHRAWINPUT__@@@Z
; private: long __cdecl CButtonMonitor::DoBuiltInAction(class CButtonAction *__ptr64,int,int)__ptr64 
?DoBuiltInAction@CButtonMonitor@@AEAAJPEAVCButtonAction@@HH@Z
; private: long __cdecl CButtonMonitor::DoButtonAction(class CButtonAction *__ptr64,unsigned long,int,int)__ptr64 
?DoButtonAction@CButtonMonitor@@AEAAJPEAVCButtonAction@@KHH@Z
; private: long __cdecl CButtonMonitor::ExecuteObject(unsigned short const *__ptr64,unsigned short const *__ptr64)__ptr64 
?ExecuteObject@CButtonMonitor@@AEAAJPEBG0@Z
; public: int __cdecl ATL::<struct ACTION *__ptr64,class ATL::<struct ACTION *__ptr64>>::Find(struct ACTION *__ptr64 const &__ptr64 )const __ptr64 
?Find@?$CSimpleArray@PEAUACTION@@V?$CSimpleArrayEqualHelper@PEAUACTION@@@ATL@@@ATL@@QEBAHAEBQEAUACTION@@@Z
; public: int __cdecl ATL::<class CButtonAction *__ptr64,class ATL::<class CButtonAction *__ptr64>>::Find(class CButtonAction *__ptr64 const &__ptr64 )const __ptr64 
?Find@?$CSimpleArray@PEAVCButtonAction@@V?$CSimpleArrayEqualHelper@PEAVCButtonAction@@@ATL@@@ATL@@QEBAHAEBQEAVCButtonAction@@@Z
; public: int __cdecl ATL::<class CButtonSetting *__ptr64,class ATL::<class CButtonSetting *__ptr64>>::Find(class CButtonSetting *__ptr64 const &__ptr64 )const __ptr64 
?Find@?$CSimpleArray@PEAVCButtonSetting@@V?$CSimpleArrayEqualHelper@PEAVCButtonSetting@@@ATL@@@ATL@@QEBAHAEBQEAVCButtonSetting@@@Z
; public: int __cdecl ATL::<class COrientation *__ptr64,class ATL::<class COrientation *__ptr64>>::Find(class COrientation *__ptr64 const &__ptr64 )const __ptr64 
?Find@?$CSimpleArray@PEAVCOrientation@@V?$CSimpleArrayEqualHelper@PEAVCOrientation@@@ATL@@@ATL@@QEBAHAEBQEAVCOrientation@@@Z
; public: struct ACTION *__ptr64 __cdecl CActions::FindActionById(unsigned long)__ptr64 
?FindActionById@CActions@@QEAAPEAUACTION@@K@Z
; public: struct _hidbtndev *__ptr64 __cdecl CHidButton::FindDeviceByHandle(void *__ptr64)__ptr64 
?FindDeviceByHandle@CHidButton@@QEAAPEAU_hidbtndev@@PEAX@Z
; public: int __cdecl ATL::<unsigned long,class CButtonImages *__ptr64,class ATL::<unsigned long,class CButtonImages *__ptr64>>::FindKey(unsigned long const &__ptr64 )const __ptr64 
?FindKey@?$CSimpleMap@KPEAVCButtonImages@@V?$CSimpleMapEqualHelper@KPEAVCButtonImages@@@ATL@@@ATL@@QEBAHAEBK@Z
; private: int __cdecl CHidButton::FindUsage(struct _USAGE_AND_PAGE *__ptr64,unsigned long,unsigned short,unsigned short)__ptr64 
?FindUsage@CHidButton@@AEAAHPEAU_USAGE_AND_PAGE@@KGG@Z
; public: int __cdecl ATL::<unsigned long,class CButtonImages *__ptr64,class ATL::<unsigned long,class CButtonImages *__ptr64>>::FindVal(class CButtonImages *__ptr64 const &__ptr64 )const __ptr64 
?FindVal@?$CSimpleMap@KPEAVCButtonImages@@V?$CSimpleMapEqualHelper@KPEAVCButtonImages@@@ATL@@@ATL@@QEBAHAEBQEAVCButtonImages@@@Z
; public: void __cdecl CButtonAction::FreeData(void)__ptr64 
?FreeData@CButtonAction@@QEAAXXZ
; public: struct ACTION *__ptr64 __cdecl CActions::GetActionAt(int)__ptr64 
?GetActionAt@CActions@@QEAAPEAUACTION@@H@Z
; public: long __cdecl CButtonSetting::GetActionFromOrientation(unsigned long,class CButtonAction *__ptr64 *__ptr64,class CButtonAction *__ptr64 *__ptr64,class CButtonAction *__ptr64 *__ptr64)__ptr64 
?GetActionFromOrientation@CButtonSetting@@QEAAJKPEAPEAVCButtonAction@@00@Z
; public: unsigned short const *__ptr64 __cdecl CButtonSetting::GetAllowedActions(void)__ptr64 
?GetAllowedActions@CButtonSetting@@QEAAPEBGXZ
; public: enum BUTTONACTION_TYPE const __cdecl CButtonAction::GetButtonActionType(void)const __ptr64 
?GetButtonActionType@CButtonAction@@QEBA?BW4BUTTONACTION_TYPE@@XZ
; public: class CButtonConfig *__ptr64 __cdecl CButtonMonitor::GetButtonConfig(void)__ptr64 
?GetButtonConfig@CButtonMonitor@@QEAAPEAVCButtonConfig@@XZ
; public: int __cdecl CButtonSettings::GetButtonCount(void)const __ptr64 
?GetButtonCount@CButtonSettings@@QEBAHXZ
; public: long __cdecl CButtonSettings::GetButtonFromId(unsigned long,class CButtonSetting *__ptr64 *__ptr64)__ptr64 
?GetButtonFromId@CButtonSettings@@QEAAJKPEAPEAVCButtonSetting@@@Z
; public: unsigned long __cdecl CButtonSettings::GetButtonIdFromIndex(unsigned long)__ptr64 
?GetButtonIdFromIndex@CButtonSettings@@QEAAKK@Z
; public: long __cdecl CButtonSettings::GetButtonIds(unsigned long *__ptr64,int)const __ptr64 
?GetButtonIds@CButtonSettings@@QEBAJPEAKH@Z
; public: unsigned short const *__ptr64 __cdecl CButtonSetting::GetButtonName(void)__ptr64 
?GetButtonName@CButtonSetting@@QEAAPEBGXZ
; public: unsigned short const *__ptr64 __cdecl CButtonSettings::GetButtonName(int)const __ptr64 
?GetButtonName@CButtonSettings@@QEBAPEBGH@Z
; public: int __cdecl CActions::GetCount(void)__ptr64 
?GetCount@CActions@@QEAAHXZ
; public: unsigned long __cdecl CButtonConfig::GetCurrentDisplayOrientation(void)__ptr64 
?GetCurrentDisplayOrientation@CButtonConfig@@QEAAKXZ
; public: struct ACTION *__ptr64 *__ptr64 __cdecl ATL::<struct ACTION *__ptr64,class ATL::<struct ACTION *__ptr64>>::GetData(void)const __ptr64 
?GetData@?$CSimpleArray@PEAUACTION@@V?$CSimpleArrayEqualHelper@PEAUACTION@@@ATL@@@ATL@@QEBAPEAPEAUACTION@@XZ
; public: class CButtonAction *__ptr64 *__ptr64 __cdecl ATL::<class CButtonAction *__ptr64,class ATL::<class CButtonAction *__ptr64>>::GetData(void)const __ptr64 
?GetData@?$CSimpleArray@PEAVCButtonAction@@V?$CSimpleArrayEqualHelper@PEAVCButtonAction@@@ATL@@@ATL@@QEBAPEAPEAVCButtonAction@@XZ
; public: class CButtonSetting *__ptr64 *__ptr64 __cdecl ATL::<class CButtonSetting *__ptr64,class ATL::<class CButtonSetting *__ptr64>>::GetData(void)const __ptr64 
?GetData@?$CSimpleArray@PEAVCButtonSetting@@V?$CSimpleArrayEqualHelper@PEAVCButtonSetting@@@ATL@@@ATL@@QEBAPEAPEAVCButtonSetting@@XZ
; public: class COrientation *__ptr64 *__ptr64 __cdecl ATL::<class COrientation *__ptr64,class ATL::<class COrientation *__ptr64>>::GetData(void)const __ptr64 
?GetData@?$CSimpleArray@PEAVCOrientation@@V?$CSimpleArrayEqualHelper@PEAVCOrientation@@@ATL@@@ATL@@QEBAPEAPEAVCOrientation@@XZ
; public: unsigned char *__ptr64 const __cdecl CButtonAction::GetData(void)const __ptr64 
?GetData@CButtonAction@@QEBAQEAEXZ
; public: unsigned long const __cdecl CButtonAction::GetDataDWORD(void)const __ptr64 
?GetDataDWORD@CButtonAction@@QEBA?BKXZ
; public: unsigned long __cdecl COrientation::GetDefSeq(void)__ptr64 
?GetDefSeq@COrientation@@QEAAKXZ
; public: unsigned short const *__ptr64 __cdecl COrientation::GetDescription(void)__ptr64 
?GetDescription@COrientation@@QEAAPEBGXZ
; public: struct HBITMAP__ *__ptr64 __cdecl CButtonSettings::GetDetailImage(unsigned long,unsigned long)__ptr64 
?GetDetailImage@CButtonSettings@@QEAAPEAUHBITMAP__@@KK@Z
; public: unsigned short const *__ptr64 __cdecl CButtonSetting::GetDisallowedActions(void)__ptr64 
?GetDisallowedActions@CButtonSetting@@QEAAPEBGXZ
; public: unsigned short const *__ptr64 __cdecl CButtonConfig::GetDisplayOrientationName(unsigned long)__ptr64 
?GetDisplayOrientationName@CButtonConfig@@QEAAPEBGK@Z
; public: unsigned long __cdecl CButtonSetting::GetFlags(void)__ptr64 
?GetFlags@CButtonSetting@@QEAAKXZ
; public: unsigned long __cdecl CButtonSettings::GetFnKeyButtonId(void)__ptr64 
?GetFnKeyButtonId@CButtonSettings@@QEAAKXZ
; private: int __cdecl CHidButton::GetHidBtnUsages(struct _hidbtndev *__ptr64,struct tagRAWINPUT *__ptr64,unsigned short,unsigned short,struct _USAGE_AND_PAGE *__ptr64,unsigned long *__ptr64)__ptr64 
?GetHidBtnUsages@CHidButton@@AEAAHPEAU_hidbtndev@@PEAUtagRAWINPUT@@GGPEAU_USAGE_AND_PAGE@@PEAK@Z
; public: unsigned long __cdecl CButtonAction::GetId(void)const __ptr64 
?GetId@CButtonAction@@QEBAKXZ
; public: unsigned long __cdecl CButtonSetting::GetId(void)__ptr64 
?GetId@CButtonSetting@@QEAAKXZ
; public: unsigned long &__ptr64 __cdecl ATL::<unsigned long,class CButtonImages *__ptr64,class ATL::<unsigned long,class CButtonImages *__ptr64>>::GetKeyAt(int)const __ptr64 
?GetKeyAt@?$CSimpleMap@KPEAVCButtonImages@@V?$CSimpleMapEqualHelper@KPEAVCButtonImages@@@ATL@@@ATL@@QEBAAEAKH@Z
; public: unsigned short const *__ptr64 __cdecl COrientation::GetKeyName(void)__ptr64 
?GetKeyName@COrientation@@QEAAPEBGXZ
; public: struct HBITMAP__ *__ptr64 __cdecl CButtonSettings::GetLocationImage(unsigned long,unsigned long)__ptr64 
?GetLocationImage@CButtonSettings@@QEAAPEAUHBITMAP__@@KK@Z
; public: unsigned long __cdecl COrientation::GetMode(void)__ptr64 
?GetMode@COrientation@@QEAAKXZ
; public: unsigned long __cdecl CButtonConfig::GetOrientSeq(unsigned int)const __ptr64 
?GetOrientSeq@CButtonConfig@@QEBAKI@Z
; public: unsigned long __cdecl CButtonConfig::GetOrientSeqCount(void)const __ptr64 
?GetOrientSeqCount@CButtonConfig@@QEBAKXZ
; public: unsigned long __cdecl CButtonAction::GetOrientationMode(void)const __ptr64 
?GetOrientationMode@CButtonAction@@QEBAKXZ
; public: unsigned long __cdecl CButtonAction::GetRegType(void)const __ptr64 
?GetRegType@CButtonAction@@QEBAKXZ
; public: int __cdecl ATL::<struct ACTION *__ptr64,class ATL::<struct ACTION *__ptr64>>::GetSize(void)const __ptr64 
?GetSize@?$CSimpleArray@PEAUACTION@@V?$CSimpleArrayEqualHelper@PEAUACTION@@@ATL@@@ATL@@QEBAHXZ
; public: int __cdecl ATL::<class CButtonAction *__ptr64,class ATL::<class CButtonAction *__ptr64>>::GetSize(void)const __ptr64 
?GetSize@?$CSimpleArray@PEAVCButtonAction@@V?$CSimpleArrayEqualHelper@PEAVCButtonAction@@@ATL@@@ATL@@QEBAHXZ
; public: int __cdecl ATL::<class CButtonSetting *__ptr64,class ATL::<class CButtonSetting *__ptr64>>::GetSize(void)const __ptr64 
?GetSize@?$CSimpleArray@PEAVCButtonSetting@@V?$CSimpleArrayEqualHelper@PEAVCButtonSetting@@@ATL@@@ATL@@QEBAHXZ
; public: int __cdecl ATL::<class COrientation *__ptr64,class ATL::<class COrientation *__ptr64>>::GetSize(void)const __ptr64 
?GetSize@?$CSimpleArray@PEAVCOrientation@@V?$CSimpleArrayEqualHelper@PEAVCOrientation@@@ATL@@@ATL@@QEBAHXZ
; public: int __cdecl ATL::<unsigned long,class CButtonImages *__ptr64,class ATL::<unsigned long,class CButtonImages *__ptr64>>::GetSize(void)const __ptr64 
?GetSize@?$CSimpleMap@KPEAVCButtonImages@@V?$CSimpleMapEqualHelper@KPEAVCButtonImages@@@ATL@@@ATL@@QEBAHXZ
; public: unsigned long __cdecl CButtonAction::GetSize(void)const __ptr64 
?GetSize@CButtonAction@@QEBAKXZ
; public: class CButtonImages *__ptr64 &__ptr64 __cdecl ATL::<unsigned long,class CButtonImages *__ptr64,class ATL::<unsigned long,class CButtonImages *__ptr64>>::GetValueAt(int)const __ptr64 
?GetValueAt@?$CSimpleMap@KPEAVCButtonImages@@V?$CSimpleMapEqualHelper@KPEAVCButtonImages@@@ATL@@@ATL@@QEBAAEAPEAVCButtonImages@@H@Z
HandleTabletButtonMessages
; public: long __cdecl CFunctionNotification::Hide(void)__ptr64 
?Hide@CFunctionNotification@@QEAAJXZ
; private: int __cdecl CButtonMonitor::InSession0(void)__ptr64 
?InSession0@CButtonMonitor@@AEAAHXZ
; public: long __cdecl CActions::Init(void)__ptr64 
?Init@CActions@@QEAAJXZ
; public: long __cdecl CButtonConfig::Init(int)__ptr64 
?Init@CButtonConfig@@QEAAJH@Z
; public: long __cdecl CButtonMonitor::Init(struct HWND__ *__ptr64)__ptr64 
?Init@CButtonMonitor@@QEAAJPEAUHWND__@@@Z
; public: long __cdecl COrientation::Init(struct HKEY__ *__ptr64)__ptr64 
?Init@COrientation@@QEAAJPEAUHKEY__@@@Z
InitializeTabletButtons
; public: void __cdecl ATL::<struct ACTION *__ptr64,class ATL::<struct ACTION *__ptr64>>::InternalSetAtIndex(int,struct ACTION *__ptr64 const &__ptr64 )__ptr64 
?InternalSetAtIndex@?$CSimpleArray@PEAUACTION@@V?$CSimpleArrayEqualHelper@PEAUACTION@@@ATL@@@ATL@@QEAAXHAEBQEAUACTION@@@Z
; public: void __cdecl ATL::<class CButtonAction *__ptr64,class ATL::<class CButtonAction *__ptr64>>::InternalSetAtIndex(int,class CButtonAction *__ptr64 const &__ptr64 )__ptr64 
?InternalSetAtIndex@?$CSimpleArray@PEAVCButtonAction@@V?$CSimpleArrayEqualHelper@PEAVCButtonAction@@@ATL@@@ATL@@QEAAXHAEBQEAVCButtonAction@@@Z
; public: void __cdecl ATL::<class CButtonSetting *__ptr64,class ATL::<class CButtonSetting *__ptr64>>::InternalSetAtIndex(int,class CButtonSetting *__ptr64 const &__ptr64 )__ptr64 
?InternalSetAtIndex@?$CSimpleArray@PEAVCButtonSetting@@V?$CSimpleArrayEqualHelper@PEAVCButtonSetting@@@ATL@@@ATL@@QEAAXHAEBQEAVCButtonSetting@@@Z
; public: void __cdecl ATL::<class COrientation *__ptr64,class ATL::<class COrientation *__ptr64>>::InternalSetAtIndex(int,class COrientation *__ptr64 const &__ptr64 )__ptr64 
?InternalSetAtIndex@?$CSimpleArray@PEAVCOrientation@@V?$CSimpleArrayEqualHelper@PEAVCOrientation@@@ATL@@@ATL@@QEAAXHAEBQEAVCOrientation@@@Z
; public: void __cdecl ATL::<unsigned long,class CButtonImages *__ptr64,class ATL::<unsigned long,class CButtonImages *__ptr64>>::InternalSetAtIndex(int,unsigned long const &__ptr64 ,class CButtonImages *__ptr64 const &__ptr64 )__ptr64 
?InternalSetAtIndex@?$CSimpleMap@KPEAVCButtonImages@@V?$CSimpleMapEqualHelper@KPEAVCButtonImages@@@ATL@@@ATL@@QEAAXHAEBKAEBQEAVCButtonImages@@@Z
; public: static int __cdecl CButtonAction::IsActionRepeatable(unsigned long)
?IsActionRepeatable@CButtonAction@@SAHK@Z
; public: static int __cdecl CButtonMonitor::IsActionUnsupported(unsigned long)
?IsActionUnsupported@CButtonMonitor@@SAHK@Z
; public: int __cdecl CButtonAction::IsSameAction(class CButtonAction const *__ptr64)const __ptr64 
?IsSameAction@CButtonAction@@QEBAHPEBV1@@Z
; private: int __cdecl CButtonSettings::LoadImageDLL(void)__ptr64 
?LoadImageDLL@CButtonSettings@@AEAAHXZ
; public: long __cdecl CButtonConfig::LoadSettings(void)__ptr64 
?LoadSettings@CButtonConfig@@QEAAJXZ
; public: class CButtonImages *__ptr64 __cdecl ATL::<unsigned long,class CButtonImages *__ptr64,class ATL::<unsigned long,class CButtonImages *__ptr64>>::Lookup(unsigned long const &__ptr64 )const __ptr64 
?Lookup@?$CSimpleMap@KPEAVCButtonImages@@V?$CSimpleMapEqualHelper@KPEAVCButtonImages@@@ATL@@@ATL@@QEBAPEAVCButtonImages@@AEBK@Z
; public: long __cdecl CButtonSetting::MakeAllUserActionsEqual(unsigned long)__ptr64 
?MakeAllUserActionsEqual@CButtonSetting@@QEAAJK@Z
; private: long __cdecl CButtonMonitor::NotifyFnMode(int)__ptr64 
?NotifyFnMode@CButtonMonitor@@AEAAJH@Z
; private: long __cdecl CButtonMonitor::OnActionAppCommand(class CButtonAction *__ptr64,int,int)__ptr64 
?OnActionAppCommand@CButtonMonitor@@AEAAJPEAVCButtonAction@@HH@Z
; private: long __cdecl CButtonMonitor::OnActionContextMenu(class CButtonAction *__ptr64,int,int)__ptr64 
?OnActionContextMenu@CButtonMonitor@@AEAAJPEAVCButtonAction@@HH@Z
; private: long __cdecl CButtonMonitor::OnActionDisplayOff(class CButtonAction *__ptr64,int,int)__ptr64 
?OnActionDisplayOff@CButtonMonitor@@AEAAJPEAVCButtonAction@@HH@Z
; private: long __cdecl CButtonMonitor::OnActionLaunchApp(class CButtonAction *__ptr64,int,int)__ptr64 
?OnActionLaunchApp@CButtonMonitor@@AEAAJPEAVCButtonAction@@HH@Z
; private: long __cdecl CButtonMonitor::OnActionMouseWheel(class CButtonAction *__ptr64,int,int)__ptr64 
?OnActionMouseWheel@CButtonMonitor@@AEAAJPEAVCButtonAction@@HH@Z
; private: long __cdecl CButtonMonitor::OnActionSendKey(class CButtonAction *__ptr64,int,int)__ptr64 
?OnActionSendKey@CButtonMonitor@@AEAAJPEAVCButtonAction@@HH@Z
; private: long __cdecl CButtonMonitor::OnActionSetOrientation(class CButtonAction *__ptr64,int,int)__ptr64 
?OnActionSetOrientation@CButtonMonitor@@AEAAJPEAVCButtonAction@@HH@Z
; private: long __cdecl CButtonMonitor::OnActionUnknown(class CButtonAction *__ptr64,int,int)__ptr64 
?OnActionUnknown@CButtonMonitor@@AEAAJPEAVCButtonAction@@HH@Z
; private: long __cdecl CButtonMonitor::OnActionWindowsFlip3d(class CButtonAction *__ptr64,int,int)__ptr64 
?OnActionWindowsFlip3d@CButtonMonitor@@AEAAJPEAVCButtonAction@@HH@Z
; private: long __cdecl CButtonMonitor::OnActionWindowsFlip(class CButtonAction *__ptr64,int,int)__ptr64 
?OnActionWindowsFlip@CButtonMonitor@@AEAAJPEAVCButtonAction@@HH@Z
; private: void __cdecl CButtonMonitor::OnButtonDown(unsigned __int64,__int64)__ptr64 
?OnButtonDown@CButtonMonitor@@AEAAX_K_J@Z
; private: void __cdecl CButtonMonitor::OnButtonUp(unsigned __int64,__int64)__ptr64 
?OnButtonUp@CButtonMonitor@@AEAAX_K_J@Z
; private: void __cdecl CButtonMonitor::OnDisplayChange(unsigned __int64,__int64)__ptr64 
?OnDisplayChange@CButtonMonitor@@AEAAX_K_J@Z
; private: void __cdecl CButtonMonitor::OnFnKeyTimer(void)__ptr64 
?OnFnKeyTimer@CButtonMonitor@@AEAAXXZ
; private: void __cdecl CButtonMonitor::OnHoldTimer(void)__ptr64 
?OnHoldTimer@CButtonMonitor@@AEAAXXZ
; private: void __cdecl CButtonMonitor::OnInput(unsigned __int64,__int64)__ptr64 
?OnInput@CButtonMonitor@@AEAAX_K_J@Z
; public: void __cdecl CButtonMonitor::OnMessage(unsigned int,unsigned __int64,__int64)__ptr64 
?OnMessage@CButtonMonitor@@QEAAXI_K_J@Z
; private: void __cdecl CButtonMonitor::OnRepeatTimer(void)__ptr64 
?OnRepeatTimer@CButtonMonitor@@AEAAXXZ
; private: void __cdecl CButtonMonitor::OnSettingChange(unsigned __int64,__int64)__ptr64 
?OnSettingChange@CButtonMonitor@@AEAAX_K_J@Z
; private: void __cdecl CButtonMonitor::OnTimer(unsigned __int64,__int64)__ptr64 
?OnTimer@CButtonMonitor@@AEAAX_K_J@Z
; private: long __cdecl CButtonMonitor::ProcessAction(unsigned long,int)__ptr64 
?ProcessAction@CButtonMonitor@@AEAAJKH@Z
; private: long __cdecl CButtonMonitor::ProcessEvent(unsigned long,int)__ptr64 
?ProcessEvent@CButtonMonitor@@AEAAJKH@Z
; public: void __cdecl CButtonConfig::RegReadActions(struct HKEY__ *__ptr64,class CButtonSetting *__ptr64,int)__ptr64 
?RegReadActions@CButtonConfig@@QEAAXPEAUHKEY__@@PEAVCButtonSetting@@H@Z
; public: static long __cdecl CButtonConfig::RegReadAndAllocate(struct HKEY__ *__ptr64,unsigned short const *__ptr64,unsigned long *__ptr64,unsigned char *__ptr64 *__ptr64,unsigned long *__ptr64)
?RegReadAndAllocate@CButtonConfig@@SAJPEAUHKEY__@@PEBGPEAKPEAPEAE2@Z
; public: long __cdecl CButtonConfig::RegReadButtonSetting(struct HKEY__ *__ptr64,int,int)__ptr64 
?RegReadButtonSetting@CButtonConfig@@QEAAJPEAUHKEY__@@HH@Z
; public: long __cdecl CButtonConfig::RegReadButtonsSettings(void)__ptr64 
?RegReadButtonsSettings@CButtonConfig@@QEAAJXZ
; public: long __cdecl CButtonConfig::RegReadDisplayOrientations(void)__ptr64 
?RegReadDisplayOrientations@CButtonConfig@@QEAAJXZ
; public: long __cdecl CButtonConfig::RegReadOrientationSeq(void)__ptr64 
?RegReadOrientationSeq@CButtonConfig@@QEAAJXZ
; public: long __cdecl CButtonMonitor::RegisterButtonDevices(void)__ptr64 
?RegisterButtonDevices@CButtonMonitor@@QEAAJXZ
; private: long __cdecl CButtonMonitor::RegisterForPopups(void)__ptr64 
?RegisterForPopups@CButtonMonitor@@AEAAJXZ
; public: struct _hidbtndev *__ptr64 __cdecl CHidButton::RegisterHidBtnDevice(void *__ptr64,unsigned long *__ptr64)__ptr64 
?RegisterHidBtnDevice@CHidButton@@QEAAPEAU_hidbtndev@@PEAXPEAK@Z
; private: long __cdecl CButtonMonitor::ReleaseDownButtons(void)__ptr64 
?ReleaseDownButtons@CButtonMonitor@@AEAAJXZ
; private: long __cdecl CButtonMonitor::ReleaseRepeatOrHoldButton(void)__ptr64 
?ReleaseRepeatOrHoldButton@CButtonMonitor@@AEAAJXZ
; public: int __cdecl ATL::<struct ACTION *__ptr64,class ATL::<struct ACTION *__ptr64>>::Remove(struct ACTION *__ptr64 const &__ptr64 )__ptr64 
?Remove@?$CSimpleArray@PEAUACTION@@V?$CSimpleArrayEqualHelper@PEAUACTION@@@ATL@@@ATL@@QEAAHAEBQEAUACTION@@@Z
; public: int __cdecl ATL::<class CButtonAction *__ptr64,class ATL::<class CButtonAction *__ptr64>>::Remove(class CButtonAction *__ptr64 const &__ptr64 )__ptr64 
?Remove@?$CSimpleArray@PEAVCButtonAction@@V?$CSimpleArrayEqualHelper@PEAVCButtonAction@@@ATL@@@ATL@@QEAAHAEBQEAVCButtonAction@@@Z
; public: int __cdecl ATL::<class CButtonSetting *__ptr64,class ATL::<class CButtonSetting *__ptr64>>::Remove(class CButtonSetting *__ptr64 const &__ptr64 )__ptr64 
?Remove@?$CSimpleArray@PEAVCButtonSetting@@V?$CSimpleArrayEqualHelper@PEAVCButtonSetting@@@ATL@@@ATL@@QEAAHAEBQEAVCButtonSetting@@@Z
; public: int __cdecl ATL::<class COrientation *__ptr64,class ATL::<class COrientation *__ptr64>>::Remove(class COrientation *__ptr64 const &__ptr64 )__ptr64 
?Remove@?$CSimpleArray@PEAVCOrientation@@V?$CSimpleArrayEqualHelper@PEAVCOrientation@@@ATL@@@ATL@@QEAAHAEBQEAVCOrientation@@@Z
; public: int __cdecl ATL::<unsigned long,class CButtonImages *__ptr64,class ATL::<unsigned long,class CButtonImages *__ptr64>>::Remove(unsigned long const &__ptr64 )__ptr64 
?Remove@?$CSimpleMap@KPEAVCButtonImages@@V?$CSimpleMapEqualHelper@KPEAVCButtonImages@@@ATL@@@ATL@@QEAAHAEBK@Z
; public: void __cdecl ATL::<struct ACTION *__ptr64,class ATL::<struct ACTION *__ptr64>>::RemoveAll(void)__ptr64 
?RemoveAll@?$CSimpleArray@PEAUACTION@@V?$CSimpleArrayEqualHelper@PEAUACTION@@@ATL@@@ATL@@QEAAXXZ
; public: void __cdecl ATL::<class CButtonAction *__ptr64,class ATL::<class CButtonAction *__ptr64>>::RemoveAll(void)__ptr64 
?RemoveAll@?$CSimpleArray@PEAVCButtonAction@@V?$CSimpleArrayEqualHelper@PEAVCButtonAction@@@ATL@@@ATL@@QEAAXXZ
; public: void __cdecl ATL::<class CButtonSetting *__ptr64,class ATL::<class CButtonSetting *__ptr64>>::RemoveAll(void)__ptr64 
?RemoveAll@?$CSimpleArray@PEAVCButtonSetting@@V?$CSimpleArrayEqualHelper@PEAVCButtonSetting@@@ATL@@@ATL@@QEAAXXZ
; public: void __cdecl ATL::<class COrientation *__ptr64,class ATL::<class COrientation *__ptr64>>::RemoveAll(void)__ptr64 
?RemoveAll@?$CSimpleArray@PEAVCOrientation@@V?$CSimpleArrayEqualHelper@PEAVCOrientation@@@ATL@@@ATL@@QEAAXXZ
; public: void __cdecl ATL::<unsigned long,class CButtonImages *__ptr64,class ATL::<unsigned long,class CButtonImages *__ptr64>>::RemoveAll(void)__ptr64 
?RemoveAll@?$CSimpleMap@KPEAVCButtonImages@@V?$CSimpleMapEqualHelper@KPEAVCButtonImages@@@ATL@@@ATL@@QEAAXXZ
; public: int __cdecl ATL::<struct ACTION *__ptr64,class ATL::<struct ACTION *__ptr64>>::RemoveAt(int)__ptr64 
?RemoveAt@?$CSimpleArray@PEAUACTION@@V?$CSimpleArrayEqualHelper@PEAUACTION@@@ATL@@@ATL@@QEAAHH@Z
; public: int __cdecl ATL::<class CButtonAction *__ptr64,class ATL::<class CButtonAction *__ptr64>>::RemoveAt(int)__ptr64 
?RemoveAt@?$CSimpleArray@PEAVCButtonAction@@V?$CSimpleArrayEqualHelper@PEAVCButtonAction@@@ATL@@@ATL@@QEAAHH@Z
; public: int __cdecl ATL::<class CButtonSetting *__ptr64,class ATL::<class CButtonSetting *__ptr64>>::RemoveAt(int)__ptr64 
?RemoveAt@?$CSimpleArray@PEAVCButtonSetting@@V?$CSimpleArrayEqualHelper@PEAVCButtonSetting@@@ATL@@@ATL@@QEAAHH@Z
; public: int __cdecl ATL::<class COrientation *__ptr64,class ATL::<class COrientation *__ptr64>>::RemoveAt(int)__ptr64 
?RemoveAt@?$CSimpleArray@PEAVCOrientation@@V?$CSimpleArrayEqualHelper@PEAVCOrientation@@@ATL@@@ATL@@QEAAHH@Z
; public: int __cdecl ATL::<unsigned long,class CButtonImages *__ptr64,class ATL::<unsigned long,class CButtonImages *__ptr64>>::RemoveAt(int)__ptr64 
?RemoveAt@?$CSimpleMap@KPEAVCButtonImages@@V?$CSimpleMapEqualHelper@KPEAVCButtonImages@@@ATL@@@ATL@@QEAAHH@Z
; private: void __cdecl CButtonConfig::ResetDeprecatedAction(class CButtonAction *__ptr64)__ptr64 
?ResetDeprecatedAction@CButtonConfig@@AEAAXPEAVCButtonAction@@@Z
; public: unsigned long __cdecl ATL::<unsigned long,class CButtonImages *__ptr64,class ATL::<unsigned long,class CButtonImages *__ptr64>>::ReverseLookup(class CButtonImages *__ptr64 const &__ptr64 )const __ptr64 
?ReverseLookup@?$CSimpleMap@KPEAVCButtonImages@@V?$CSimpleMapEqualHelper@KPEAVCButtonImages@@@ATL@@@ATL@@QEBAKAEBQEAVCButtonImages@@@Z
; public: long __cdecl CButtonConfig::SaveSettings(void)__ptr64 
?SaveSettings@CButtonConfig@@QEAAJXZ
; private: long __cdecl CButtonMonitor::SendAppCommand(unsigned short)__ptr64 
?SendAppCommand@CButtonMonitor@@AEAAJG@Z
; private: static void __cdecl CButtonMonitor::SendModKeys(unsigned char,int)
?SendModKeys@CButtonMonitor@@CAXEH@Z
; private: static void __cdecl CButtonMonitor::SendVKey(unsigned char,unsigned char,int)
?SendVKey@CButtonMonitor@@CAXEEH@Z
; public: long __cdecl CButtonAction::Set(class CButtonAction const *__ptr64)__ptr64 
?Set@CButtonAction@@QEAAJPEBV1@@Z
; public: int __cdecl ATL::<unsigned long,class CButtonImages *__ptr64,class ATL::<unsigned long,class CButtonImages *__ptr64>>::SetAt(unsigned long const &__ptr64 ,class CButtonImages *__ptr64 const &__ptr64 )__ptr64 
?SetAt@?$CSimpleMap@KPEAVCButtonImages@@V?$CSimpleMapEqualHelper@KPEAVCButtonImages@@@ATL@@@ATL@@QEAAHAEBKAEBQEAVCButtonImages@@@Z
; public: int __cdecl ATL::<struct ACTION *__ptr64,class ATL::<struct ACTION *__ptr64>>::SetAtIndex(int,struct ACTION *__ptr64 const &__ptr64 )__ptr64 
?SetAtIndex@?$CSimpleArray@PEAUACTION@@V?$CSimpleArrayEqualHelper@PEAUACTION@@@ATL@@@ATL@@QEAAHHAEBQEAUACTION@@@Z
; public: int __cdecl ATL::<class CButtonAction *__ptr64,class ATL::<class CButtonAction *__ptr64>>::SetAtIndex(int,class CButtonAction *__ptr64 const &__ptr64 )__ptr64 
?SetAtIndex@?$CSimpleArray@PEAVCButtonAction@@V?$CSimpleArrayEqualHelper@PEAVCButtonAction@@@ATL@@@ATL@@QEAAHHAEBQEAVCButtonAction@@@Z
; public: int __cdecl ATL::<class CButtonSetting *__ptr64,class ATL::<class CButtonSetting *__ptr64>>::SetAtIndex(int,class CButtonSetting *__ptr64 const &__ptr64 )__ptr64 
?SetAtIndex@?$CSimpleArray@PEAVCButtonSetting@@V?$CSimpleArrayEqualHelper@PEAVCButtonSetting@@@ATL@@@ATL@@QEAAHHAEBQEAVCButtonSetting@@@Z
; public: int __cdecl ATL::<class COrientation *__ptr64,class ATL::<class COrientation *__ptr64>>::SetAtIndex(int,class COrientation *__ptr64 const &__ptr64 )__ptr64 
?SetAtIndex@?$CSimpleArray@PEAVCOrientation@@V?$CSimpleArrayEqualHelper@PEAVCOrientation@@@ATL@@@ATL@@QEAAHHAEBQEAVCOrientation@@@Z
; public: int __cdecl ATL::<unsigned long,class CButtonImages *__ptr64,class ATL::<unsigned long,class CButtonImages *__ptr64>>::SetAtIndex(int,unsigned long const &__ptr64 ,class CButtonImages *__ptr64 const &__ptr64 )__ptr64 
?SetAtIndex@?$CSimpleMap@KPEAVCButtonImages@@V?$CSimpleMapEqualHelper@KPEAVCButtonImages@@@ATL@@@ATL@@QEAAHHAEBKAEBQEAVCButtonImages@@@Z
; public: long __cdecl CButtonAction::SetData(unsigned char *__ptr64 const,unsigned long)__ptr64 
?SetData@CButtonAction@@QEAAJQEAEK@Z
; public: long __cdecl CButtonAction::SetDataDWORD(unsigned long)__ptr64 
?SetDataDWORD@CButtonAction@@QEAAJK@Z
; private: long __cdecl CButtonMonitor::SetDisplayOrientation(int)__ptr64 
?SetDisplayOrientation@CButtonMonitor@@AEAAJH@Z
; private: void __cdecl CButtonMonitor::SetDisplayPower(int)__ptr64 
?SetDisplayPower@CButtonMonitor@@AEAAXH@Z
; public: void __cdecl CButtonAction::SetId(unsigned long)__ptr64 
?SetId@CButtonAction@@QEAAXK@Z
; public: int __cdecl CButtonSettings::ShouldButtonShowUI(int)const __ptr64 
?ShouldButtonShowUI@CButtonSettings@@QEBAHH@Z
; private: int __cdecl CButtonMonitor::ShouldSendEscapeForBack(void)__ptr64 
?ShouldSendEscapeForBack@CButtonMonitor@@AEAAHXZ
; public: long __cdecl CFunctionNotification::Show(void)__ptr64 
?Show@CFunctionNotification@@QEAAJXZ
; private: static long __cdecl CButtonMonitor::ShowWindowSwitchWindow(void)
?ShowWindowSwitchWindow@CButtonMonitor@@CAJXZ
UninitializeTabletButtons
; public: long __cdecl CButtonMonitor::UnregisterButtonDevices(void)__ptr64 
?UnregisterButtonDevices@CButtonMonitor@@QEAAJXZ
; public: int __cdecl CHidButton::UnregisterHidBtnDevice(struct _hidbtndev *__ptr64,unsigned long *__ptr64)__ptr64 
?UnregisterHidBtnDevice@CHidButton@@QEAAHPEAU_hidbtndev@@PEAK@Z
; public: long __cdecl CButtonConfig::UpdateButtonRates(void)__ptr64 
?UpdateButtonRates@CButtonConfig@@QEAAJXZ
; public: void __cdecl CButtonConfig::UpdateCurrentDisplayOrientation(void)__ptr64 
?UpdateCurrentDisplayOrientation@CButtonConfig@@QEAAXXZ
; public: static void __cdecl CButtonMonitor::WinEventProc(struct HWINEVENTHOOK__ *__ptr64,unsigned long,struct HWND__ *__ptr64,long,long,unsigned long,unsigned long)
?WinEventProc@CButtonMonitor@@SAXPEAUHWINEVENTHOOK__@@KPEAUHWND__@@JJKK@Z
; public: static __int64 __cdecl CFunctionNotification::WindowProc(struct HWND__ *__ptr64,unsigned int,unsigned __int64,__int64)
?WindowProc@CFunctionNotification@@SA_JPEAUHWND__@@I_K_J@Z
; public: static unsigned long CButtonMonitor::sm_dwPopupCount
?sm_dwPopupCount@CButtonMonitor@@2KA DATA
