;
; Definition file of vdsvd.DLL
; Automatic generated by gendef
; written by Kai Tietz 2008
;
LIBRARY "vdsvd.DLL"
EXPORTS
; public: __cdecl CPrvEnumObject::CPrvEnumObject(void)__ptr64 
??0CPrvEnumObject@@QEAA@XZ
; public: __cdecl CRtlSharedLock::CRtlSharedLock(void)__ptr64 
??0CRtlSharedLock@@QEAA@XZ
; public: __cdecl CVdsCriticalSection::CVdsCriticalSection(struct _RTL_CRITICAL_SECTION *__ptr64)__ptr64 
??0CVdsCriticalSection@@QEAA@PEAU_RTL_CRITICAL_SECTION@@@Z
; public: __cdecl CVdsPnPNotificationBase::CVdsPnPNotificationBase(void)__ptr64 
??0CVdsPnPNotificationBase@@QEAA@XZ
; public: __cdecl CVdsUnlockIt::CVdsUnlockIt(long &__ptr64 )__ptr64 
??0CVdsUnlockIt@@QEAA@AEAJ@Z
; public: __cdecl CPrvEnumObject::~CPrvEnumObject(void)__ptr64 
??1CPrvEnumObject@@QEAA@XZ
; public: __cdecl CRtlSharedLock::~CRtlSharedLock(void)__ptr64 
??1CRtlSharedLock@@QEAA@XZ
; public: __cdecl CVdsCriticalSection::~CVdsCriticalSection(void)__ptr64 
??1CVdsCriticalSection@@QEAA@XZ
; public: __cdecl CVdsPnPNotificationBase::~CVdsPnPNotificationBase(void)__ptr64 
??1CVdsPnPNotificationBase@@QEAA@XZ
; public: __cdecl CVdsUnlockIt::~CVdsUnlockIt(void)__ptr64 
??1CVdsUnlockIt@@QEAA@XZ
; public: void __cdecl CRtlList::__dflt_ctor_closure(void)__ptr64 
??_FCRtlList@@QEAAXXZ
; public: void __cdecl CRtlMap::__dflt_ctor_closure(void)__ptr64 
??_FCRtlMap@@QEAAXXZ
; private: void __cdecl CRtlSharedLock::AcquireRead(void)__ptr64 
?AcquireRead@CRtlSharedLock@@AEAAXXZ
; private: void __cdecl CRtlSharedLock::AcquireWrite(void)__ptr64 
?AcquireWrite@CRtlSharedLock@@AEAAXXZ
; public: void __cdecl CVdsAsyncObjectBase::AllowCancel(void)__ptr64 
?AllowCancel@CVdsAsyncObjectBase@@QEAAXXZ
; public: int __cdecl CRtlSharedLock::CurrentThreadIsWriter(void)__ptr64 
?CurrentThreadIsWriter@CRtlSharedLock@@QEAAHXZ
; public: void __cdecl CVdsAsyncObjectBase::DisallowCancel(void)__ptr64 
?DisallowCancel@CVdsAsyncObjectBase@@QEAAXXZ
; private: void __cdecl CRtlSharedLock::Downgrade(void)__ptr64 
?Downgrade@CRtlSharedLock@@AEAAXXZ
; public: enum _VDS_ASYNC_OUTPUT_TYPE __cdecl CVdsAsyncObjectBase::GetOutputType(void)__ptr64 
?GetOutputType@CVdsAsyncObjectBase@@QEAA?AW4_VDS_ASYNC_OUTPUT_TYPE@@XZ
; public: int __cdecl CVdsAsyncObjectBase::IsCancelRequested(void)__ptr64 
?IsCancelRequested@CVdsAsyncObjectBase@@QEAAHXZ
; private: void __cdecl CRtlSharedLock::Release(void)__ptr64 
?Release@CRtlSharedLock@@AEAAXXZ
; public: void __cdecl CVdsAsyncObjectBase::SetOutput(struct _VDS_ASYNC_OUTPUT)__ptr64 
?SetOutput@CVdsAsyncObjectBase@@QEAAXU_VDS_ASYNC_OUTPUT@@@Z
; public: void __cdecl CVdsAsyncObjectBase::SetOutputType(enum _VDS_ASYNC_OUTPUT_TYPE)__ptr64 
?SetOutputType@CVdsAsyncObjectBase@@QEAAXW4_VDS_ASYNC_OUTPUT_TYPE@@@Z
; public: void __cdecl CPrvEnumObject::SetPositionToLast(void)__ptr64 
?SetPositionToLast@CPrvEnumObject@@QEAAXXZ
; unsigned long __cdecl StartReferenceHistory(void)
?StartReferenceHistory@@YAKXZ
; void __cdecl StopReferenceHistory(void)
?StopReferenceHistory@@YAXXZ
; private: void __cdecl CRtlSharedLock::Upgrade(void)__ptr64 
?Upgrade@CRtlSharedLock@@AEAAXXZ
; public: void __cdecl CVdsAsyncObjectBase::ZeroAsyncOut(void)__ptr64 
?ZeroAsyncOut@CVdsAsyncObjectBase@@QEAAXXZ
; public: int __cdecl CVdsTraceSettings::m_ExtraLogging(void)__ptr64 
?m_ExtraLogging@CVdsTraceSettings@@QEAAHXZ
; public: int __cdecl CVdsTraceSettings::m_NoDebuggerLogging(void)__ptr64 
?m_NoDebuggerLogging@CVdsTraceSettings@@QEAAHXZ
DllCanUnloadNow
DllGetClassObject
DllRegisterServer
DllUnregisterServer
