;
; Definition file of WSManMigrationPlugin.dll
; Automatic generated by gendef
; written by Kai Tietz 2008
;
LIBRARY "WSManMigrationPlugin.dll"
EXPORTS
; public: __cdecl <class Locale::Key,unsigned long,class <class Locale::Key,unsigned long>>::<class Locale::Key,unsigned long,class <class Locale::Key,unsigned long>>(void)__ptr64 
??0?$SafeMap@VKey@Locale@@KV?$SafeMap_Iterator@VKey@Locale@@K@@@@QEAA@XZ
; public: __cdecl <class Locale::Key,unsigned long>::<class Locale::Key,unsigned long>(class <class Locale::Key,unsigned long,class <class Locale::Key,unsigned long>> &__ptr64 ,bool)__ptr64 
??0?$SafeMap_Iterator@VKey@Locale@@K@@QEAA@AEAV?$SafeMap@VKey@Locale@@KV?$SafeMap_Iterator@VKey@Locale@@K@@@@_N@Z
; public: __cdecl <class Locale::Key,unsigned long,class <class Locale::Key,unsigned long>>::<class Locale::Key,unsigned long,class <class Locale::Key,unsigned long>>(class <class Locale::Key,unsigned long,class <class Locale::Key,unsigned long>> const &__ptr64 ,bool)__ptr64 
??0?$SafeMap_Lock@VKey@Locale@@KV?$SafeMap_Iterator@VKey@Locale@@K@@@@QEAA@AEBV?$SafeMap@VKey@Locale@@KV?$SafeMap_Iterator@VKey@Locale@@K@@@@_N@Z
; public: __cdecl <class Locale::Key,unsigned long,class <class Locale::Key,unsigned long>>::~<class Locale::Key,unsigned long,class <class Locale::Key,unsigned long>>(void)__ptr64 
??1?$SafeMap@VKey@Locale@@KV?$SafeMap_Iterator@VKey@Locale@@K@@@@QEAA@XZ
; public: __cdecl <class Locale::Key,unsigned long>::~<class Locale::Key,unsigned long>(void)__ptr64 
??1?$SafeMap_Iterator@VKey@Locale@@K@@QEAA@XZ
; public: __cdecl <class Locale::Key,unsigned long,class <class Locale::Key,unsigned long>>::~<class Locale::Key,unsigned long,class <class Locale::Key,unsigned long>>(void)__ptr64 
??1?$SafeMap_Lock@VKey@Locale@@KV?$SafeMap_Iterator@VKey@Locale@@K@@@@QEAA@XZ
; public: __cdecl CWSManCriticalSectionWithConditionVar::~CWSManCriticalSectionWithConditionVar(void)__ptr64 
??1CWSManCriticalSectionWithConditionVar@@QEAA@XZ
; const <class Locale::Key,unsigned long,class <class Locale::Key,unsigned long>>::$vftable
??_7?$SafeMap@VKey@Locale@@KV?$SafeMap_Iterator@VKey@Locale@@K@@@@6B@ DATA
; public: virtual void __cdecl <class Locale::Key,unsigned long,class <class Locale::Key,unsigned long>>::Acquire(void)const __ptr64 
?Acquire@?$SafeMap@VKey@Locale@@KV?$SafeMap_Iterator@VKey@Locale@@K@@@@UEBAXXZ
; public: void __cdecl <class Locale::Key,unsigned long,class <class Locale::Key,unsigned long>>::Acquire(void)__ptr64 
?Acquire@?$SafeMap_Lock@VKey@Locale@@KV?$SafeMap_Iterator@VKey@Locale@@K@@@@QEAAXXZ
; public: bool __cdecl <class Locale::Key,unsigned long,class <class Locale::Key,unsigned long>>::Acquired(void)__ptr64 
?Acquired@?$SafeMap_Lock@VKey@Locale@@KV?$SafeMap_Iterator@VKey@Locale@@K@@@@QEAA_NXZ
; public: class <class Locale::Key,unsigned long,class <class Locale::Key,unsigned long>> &__ptr64 __cdecl <class Locale::Key,unsigned long,class <class Locale::Key,unsigned long>>::AsReference(void)__ptr64 
?AsReference@?$SafeMap@VKey@Locale@@KV?$SafeMap_Iterator@VKey@Locale@@K@@@@QEAAAEAV1@XZ
; protected: class <class Locale::Key,unsigned long> &__ptr64 __cdecl <class Locale::Key,unsigned long>::Data(void)const __ptr64 
?Data@?$SafeMap_Iterator@VKey@Locale@@K@@IEBAAEAV?$STLMap@VKey@Locale@@K@@XZ
; public: virtual bool __cdecl <class Locale::Key,unsigned long,class <class Locale::Key,unsigned long>>::DeInitialize(class IRequestContext &__ptr64 )__ptr64 
?DeInitialize@?$SafeMap@VKey@Locale@@KV?$SafeMap_Iterator@VKey@Locale@@K@@@@UEAA_NAEAVIRequestContext@@@Z
; public: unsigned long __cdecl CWSManCriticalSection::GetInitError(void)const __ptr64 
?GetInitError@CWSManCriticalSection@@QEBAKXZ
; public: class <class Locale::Key,unsigned long,class <class Locale::Key,unsigned long>> &__ptr64 __cdecl <class Locale::Key,unsigned long>::GetMap(void)const __ptr64 
?GetMap@?$SafeMap_Iterator@VKey@Locale@@K@@QEBAAEAV?$SafeMap@VKey@Locale@@KV?$SafeMap_Iterator@VKey@Locale@@K@@@@XZ
; public: class <class Locale::Key,unsigned long,class <class Locale::Key,unsigned long>> const &__ptr64 __cdecl <class Locale::Key,unsigned long,class <class Locale::Key,unsigned long>>::GetMap(void)const __ptr64 
?GetMap@?$SafeMap_Lock@VKey@Locale@@KV?$SafeMap_Iterator@VKey@Locale@@K@@@@QEBAAEBV?$SafeMap@VKey@Locale@@KV?$SafeMap_Iterator@VKey@Locale@@K@@@@XZ
; public: virtual bool __cdecl <class Locale::Key,unsigned long,class <class Locale::Key,unsigned long>>::Initialize(class IRequestContext &__ptr64 )__ptr64 
?Initialize@?$SafeMap@VKey@Locale@@KV?$SafeMap_Iterator@VKey@Locale@@K@@@@UEAA_NAEAVIRequestContext@@@Z
; public: bool __cdecl <class Locale::Key,unsigned long>::IsValid(void)const __ptr64 
?IsValid@?$SafeMap_Iterator@VKey@Locale@@K@@QEBA_NXZ
; public: virtual void __cdecl <class Locale::Key,unsigned long,class <class Locale::Key,unsigned long>>::Release(void)const __ptr64 
?Release@?$SafeMap@VKey@Locale@@KV?$SafeMap_Iterator@VKey@Locale@@K@@@@UEBAXXZ
; public: void __cdecl <class Locale::Key,unsigned long>::Reset(void)__ptr64 
?Reset@?$SafeMap_Iterator@VKey@Locale@@K@@QEAAXXZ
; protected: void __cdecl <class Locale::Key,unsigned long>::SkipOrphans(void)__ptr64 
?SkipOrphans@?$SafeMap_Iterator@VKey@Locale@@K@@IEAAXXZ
DllCanUnloadNow
DllGetClassObject
DllMain
DllRegisterServer
DllUnregisterServer
