;
; Definition file of wsmandisp.dll
; Automatic generated by gendef
; written by Kai Tietz 2008
;
LIBRARY "wsmandisp.dll"
EXPORTS
; public: __cdecl <class <class Locale::Resources>,class Locale::Resources *__ptr64>::<class <class Locale::Resources>,class Locale::Resources *__ptr64>(class Locale::Resources *__ptr64)__ptr64 
??0?$AutoCleanup@V?$AutoDelete@VResources@Locale@@@@PEAVResources@Locale@@@@QEAA@PEAVResources@Locale@@@Z
; public: __cdecl <class <unsigned char>,unsigned char *__ptr64>::<class <unsigned char>,unsigned char *__ptr64>(unsigned char *__ptr64)__ptr64 
??0?$AutoCleanup@V?$AutoDeleteVector@E@@PEAE@@QEAA@PEAE@Z
; public: __cdecl <class <unsigned short>,unsigned short *__ptr64>::<class <unsigned short>,unsigned short *__ptr64>(unsigned short *__ptr64)__ptr64 
??0?$AutoCleanup@V?$AutoDeleteVector@G@@PEAG@@QEAA@PEAG@Z
; public: __cdecl <class <unsigned char>,unsigned char *__ptr64>::<class <unsigned char>,unsigned char *__ptr64>(unsigned char *__ptr64)__ptr64 
??0?$AutoCleanup@V?$AutoFree@E@@PEAE@@QEAA@PEAE@Z
; public: __cdecl <class <class CRequestContext>,class CRequestContext *__ptr64>::<class <class CRequestContext>,class CRequestContext *__ptr64>(class CRequestContext *__ptr64)__ptr64 
??0?$AutoCleanup@V?$AutoRelease@VCRequestContext@@@@PEAVCRequestContext@@@@QEAA@PEAVCRequestContext@@@Z
; public: __cdecl <class <class CWSManSecurityUI>,class CWSManSecurityUI *__ptr64>::<class <class CWSManSecurityUI>,class CWSManSecurityUI *__ptr64>(class CWSManSecurityUI *__ptr64)__ptr64 
??0?$AutoCleanup@V?$AutoRelease@VCWSManSecurityUI@@@@PEAVCWSManSecurityUI@@@@QEAA@PEAVCWSManSecurityUI@@@Z
; public: __cdecl <class AutoBstr,unsigned short *__ptr64>::<class AutoBstr,unsigned short *__ptr64>(unsigned short *__ptr64)__ptr64 
??0?$AutoCleanup@VAutoBstr@@PEAG@@QEAA@PEAG@Z
; public: __cdecl <class AutoBstr,unsigned short *__ptr64>::<class AutoBstr,unsigned short *__ptr64>(void)__ptr64 
??0?$AutoCleanup@VAutoBstr@@PEAG@@QEAA@XZ
; public: __cdecl <class AutoBstrNoAlloc,unsigned short *__ptr64>::<class AutoBstrNoAlloc,unsigned short *__ptr64>(unsigned short *__ptr64)__ptr64 
??0?$AutoCleanup@VAutoBstrNoAlloc@@PEAG@@QEAA@PEAG@Z
; public: __cdecl <class AutoBstrNoAlloc,unsigned short *__ptr64>::<class AutoBstrNoAlloc,unsigned short *__ptr64>(void)__ptr64 
??0?$AutoCleanup@VAutoBstrNoAlloc@@PEAG@@QEAA@XZ
; public: __cdecl <class AutoCertContext,struct _CERT_CONTEXT const *__ptr64>::<class AutoCertContext,struct _CERT_CONTEXT const *__ptr64>(struct _CERT_CONTEXT const *__ptr64)__ptr64 
??0?$AutoCleanup@VAutoCertContext@@PEBU_CERT_CONTEXT@@@@QEAA@PEBU_CERT_CONTEXT@@@Z
; public: __cdecl <class AutoCertContext,struct _CERT_CONTEXT const *__ptr64>::<class AutoCertContext,struct _CERT_CONTEXT const *__ptr64>(void)__ptr64 
??0?$AutoCleanup@VAutoCertContext@@PEBU_CERT_CONTEXT@@@@QEAA@XZ
; public: __cdecl <class AutoChainContext,struct _CERT_CHAIN_CONTEXT const *__ptr64>::<class AutoChainContext,struct _CERT_CHAIN_CONTEXT const *__ptr64>(struct _CERT_CHAIN_CONTEXT const *__ptr64)__ptr64 
??0?$AutoCleanup@VAutoChainContext@@PEBU_CERT_CHAIN_CONTEXT@@@@QEAA@PEBU_CERT_CHAIN_CONTEXT@@@Z
; public: __cdecl <class AutoChainContext,struct _CERT_CHAIN_CONTEXT const *__ptr64>::<class AutoChainContext,struct _CERT_CHAIN_CONTEXT const *__ptr64>(void)__ptr64 
??0?$AutoCleanup@VAutoChainContext@@PEBU_CERT_CHAIN_CONTEXT@@@@QEAA@XZ
; public: __cdecl <class AutoCoTaskMemFree,void *__ptr64>::<class AutoCoTaskMemFree,void *__ptr64>(void *__ptr64)__ptr64 
??0?$AutoCleanup@VAutoCoTaskMemFree@@PEAX@@QEAA@PEAX@Z
; public: __cdecl <class AutoCoTaskMemFree,void *__ptr64>::<class AutoCoTaskMemFree,void *__ptr64>(void)__ptr64 
??0?$AutoCleanup@VAutoCoTaskMemFree@@PEAX@@QEAA@XZ
; public: __cdecl <class AutoEnvironmentBlock,void *__ptr64>::<class AutoEnvironmentBlock,void *__ptr64>(void *__ptr64)__ptr64 
??0?$AutoCleanup@VAutoEnvironmentBlock@@PEAX@@QEAA@PEAX@Z
; public: __cdecl <class AutoEnvironmentBlock,void *__ptr64>::<class AutoEnvironmentBlock,void *__ptr64>(void)__ptr64 
??0?$AutoCleanup@VAutoEnvironmentBlock@@PEAX@@QEAA@XZ
; public: __cdecl <class AutoFwXmlCloseParser,void *__ptr64>::<class AutoFwXmlCloseParser,void *__ptr64>(void *__ptr64)__ptr64 
??0?$AutoCleanup@VAutoFwXmlCloseParser@@PEAX@@QEAA@PEAX@Z
; public: __cdecl <class AutoFwXmlCloseParser,void *__ptr64>::<class AutoFwXmlCloseParser,void *__ptr64>(void)__ptr64 
??0?$AutoCleanup@VAutoFwXmlCloseParser@@PEAX@@QEAA@XZ
; public: __cdecl <class AutoHandle,void *__ptr64>::<class AutoHandle,void *__ptr64>(void *__ptr64)__ptr64 
??0?$AutoCleanup@VAutoHandle@@PEAX@@QEAA@PEAX@Z
; public: __cdecl <class AutoHandle,void *__ptr64>::<class AutoHandle,void *__ptr64>(void)__ptr64 
??0?$AutoCleanup@VAutoHandle@@PEAX@@QEAA@XZ
; public: __cdecl <class AutoImpersonateUser,void *__ptr64>::<class AutoImpersonateUser,void *__ptr64>(void *__ptr64)__ptr64 
??0?$AutoCleanup@VAutoImpersonateUser@@PEAX@@QEAA@PEAX@Z
; public: __cdecl <class AutoImpersonateUser,void *__ptr64>::<class AutoImpersonateUser,void *__ptr64>(void)__ptr64 
??0?$AutoCleanup@VAutoImpersonateUser@@PEAX@@QEAA@XZ
; public: __cdecl <class AutoLibrary,struct HINSTANCE__ *__ptr64>::<class AutoLibrary,struct HINSTANCE__ *__ptr64>(struct HINSTANCE__ *__ptr64)__ptr64 
??0?$AutoCleanup@VAutoLibrary@@PEAUHINSTANCE__@@@@QEAA@PEAUHINSTANCE__@@@Z
; public: __cdecl <class AutoLibrary,struct HINSTANCE__ *__ptr64>::<class AutoLibrary,struct HINSTANCE__ *__ptr64>(void)__ptr64 
??0?$AutoCleanup@VAutoLibrary@@PEAUHINSTANCE__@@@@QEAA@XZ
; public: __cdecl <class AutoLocalFree,void *__ptr64>::<class AutoLocalFree,void *__ptr64>(void *__ptr64)__ptr64 
??0?$AutoCleanup@VAutoLocalFree@@PEAX@@QEAA@PEAX@Z
; public: __cdecl <class AutoLocalFree,void *__ptr64>::<class AutoLocalFree,void *__ptr64>(void)__ptr64 
??0?$AutoCleanup@VAutoLocalFree@@PEAX@@QEAA@XZ
; public: __cdecl <class AutoMIClass,struct _MI_Class *__ptr64>::<class AutoMIClass,struct _MI_Class *__ptr64>(struct _MI_Class *__ptr64)__ptr64 
??0?$AutoCleanup@VAutoMIClass@@PEAU_MI_Class@@@@QEAA@PEAU_MI_Class@@@Z
; public: __cdecl <class AutoMIClass,struct _MI_Class *__ptr64>::<class AutoMIClass,struct _MI_Class *__ptr64>(void)__ptr64 
??0?$AutoCleanup@VAutoMIClass@@PEAU_MI_Class@@@@QEAA@XZ
; public: __cdecl <class AutoMIInstance,struct _MI_Instance *__ptr64>::<class AutoMIInstance,struct _MI_Instance *__ptr64>(struct _MI_Instance *__ptr64)__ptr64 
??0?$AutoCleanup@VAutoMIInstance@@PEAU_MI_Instance@@@@QEAA@PEAU_MI_Instance@@@Z
; public: __cdecl <class AutoMIInstance,struct _MI_Instance *__ptr64>::<class AutoMIInstance,struct _MI_Instance *__ptr64>(void)__ptr64 
??0?$AutoCleanup@VAutoMIInstance@@PEAU_MI_Instance@@@@QEAA@XZ
; public: __cdecl <class AutoObject,struct WSMAN_OBJECT *__ptr64>::<class AutoObject,struct WSMAN_OBJECT *__ptr64>(struct WSMAN_OBJECT *__ptr64)__ptr64 
??0?$AutoCleanup@VAutoObject@@PEAUWSMAN_OBJECT@@@@QEAA@PEAUWSMAN_OBJECT@@@Z
; public: __cdecl <class AutoObject,struct WSMAN_OBJECT *__ptr64>::<class AutoObject,struct WSMAN_OBJECT *__ptr64>(void)__ptr64 
??0?$AutoCleanup@VAutoObject@@PEAUWSMAN_OBJECT@@@@QEAA@XZ
; public: __cdecl <class AutoRegKey,struct HKEY__ *__ptr64>::<class AutoRegKey,struct HKEY__ *__ptr64>(struct HKEY__ *__ptr64)__ptr64 
??0?$AutoCleanup@VAutoRegKey@@PEAUHKEY__@@@@QEAA@PEAUHKEY__@@@Z
; public: __cdecl <class AutoRegKey,struct HKEY__ *__ptr64>::<class AutoRegKey,struct HKEY__ *__ptr64>(void)__ptr64 
??0?$AutoCleanup@VAutoRegKey@@PEAUHKEY__@@@@QEAA@XZ
; public: __cdecl <class AutoSecurityDescriptor,void *__ptr64>::<class AutoSecurityDescriptor,void *__ptr64>(void *__ptr64)__ptr64 
??0?$AutoCleanup@VAutoSecurityDescriptor@@PEAX@@QEAA@PEAX@Z
; public: __cdecl <class AutoSecurityDescriptor,void *__ptr64>::<class AutoSecurityDescriptor,void *__ptr64>(void)__ptr64 
??0?$AutoCleanup@VAutoSecurityDescriptor@@PEAX@@QEAA@XZ
; public: __cdecl <class AutoWaitHandle,void *__ptr64>::<class AutoWaitHandle,void *__ptr64>(void *__ptr64)__ptr64 
??0?$AutoCleanup@VAutoWaitHandle@@PEAX@@QEAA@PEAX@Z
; public: __cdecl <class AutoWaitHandle,void *__ptr64>::<class AutoWaitHandle,void *__ptr64>(void)__ptr64 
??0?$AutoCleanup@VAutoWaitHandle@@PEAX@@QEAA@XZ
; public: __cdecl <class Locale::Resources>::<class Locale::Resources>(class Locale::Resources *__ptr64)__ptr64 
??0?$AutoDelete@VResources@Locale@@@@QEAA@PEAVResources@Locale@@@Z
; public: __cdecl <unsigned char>::<unsigned char>(void)__ptr64 
??0?$AutoDeleteVector@E@@QEAA@XZ
; public: __cdecl <unsigned short>::<unsigned short>(unsigned short *__ptr64)__ptr64 
??0?$AutoDeleteVector@G@@QEAA@PEAG@Z
; public: __cdecl <unsigned short>::<unsigned short>(void)__ptr64 
??0?$AutoDeleteVector@G@@QEAA@XZ
; public: __cdecl <unsigned char>::<unsigned char>(unsigned char *__ptr64)__ptr64 
??0?$AutoFree@E@@QEAA@PEAE@Z
; public: __cdecl <class CRequestContext>::<class CRequestContext>(class CRequestContext *__ptr64)__ptr64 
??0?$AutoRelease@VCRequestContext@@@@QEAA@PEAVCRequestContext@@@Z
; public: __cdecl <class CWSManSecurityUI>::<class CWSManSecurityUI>(void)__ptr64 
??0?$AutoRelease@VCWSManSecurityUI@@@@QEAA@XZ
; public: __cdecl <class Locale::Resources>::<class Locale::Resources>(bool(__cdecl Locale::Resources::*)(class IRequestContext &__ptr64 )__ptr64 ,bool(__cdecl Locale::Resources::*)(class IRequestContext &__ptr64 )__ptr64 )__ptr64 
??0?$ILoader@VResources@Locale@@@@QEAA@P8Resources@Locale@@EAA_NAEAVIRequestContext@@@Z1@Z
; public: __cdecl <class Locale::Resources,0x0ULL>::<class Locale::Resources,0x0ULL>(bool(__cdecl Locale::Resources::*)(class IRequestContext &__ptr64 )__ptr64 ,bool(__cdecl Locale::Resources::*)(class IRequestContext &__ptr64 )__ptr64 )__ptr64 
??0?$LoaderSerializer@VResources@Locale@@$0A@@@QEAA@P8Resources@Locale@@EAA_NAEAVIRequestContext@@@Z1@Z
; public: __cdecl <class Locale::Key,unsigned long,class <class Locale::Key,unsigned long>>::<class Locale::Key,unsigned long,class <class Locale::Key,unsigned long>>(void)__ptr64 
??0?$SafeMap@VKey@Locale@@KV?$SafeMap_Iterator@VKey@Locale@@K@@@@QEAA@XZ
; public: __cdecl <class Locale::Key,unsigned long>::<class Locale::Key,unsigned long>(class <class Locale::Key,unsigned long,class <class Locale::Key,unsigned long>> &__ptr64 ,bool)__ptr64 
??0?$SafeMap_Iterator@VKey@Locale@@K@@QEAA@AEAV?$SafeMap@VKey@Locale@@KV?$SafeMap_Iterator@VKey@Locale@@K@@@@_N@Z
; public: __cdecl <class Locale::Key,unsigned long,class <class Locale::Key,unsigned long>>::<class Locale::Key,unsigned long,class <class Locale::Key,unsigned long>>(class <class Locale::Key,unsigned long,class <class Locale::Key,unsigned long>> const &__ptr64 ,bool)__ptr64 
??0?$SafeMap_Lock@VKey@Locale@@KV?$SafeMap_Iterator@VKey@Locale@@K@@@@QEAA@AEBV?$SafeMap@VKey@Locale@@KV?$SafeMap_Iterator@VKey@Locale@@K@@@@_N@Z
; public: __cdecl <union _LARGE_INTEGER>::<union _LARGE_INTEGER>(void)__ptr64 
??0?$SimpleQueue@T_LARGE_INTEGER@@@@QEAA@XZ
; public: __cdecl AutoBstr::AutoBstr(unsigned short *__ptr64)__ptr64 
??0AutoBstr@@QEAA@PEAG@Z
; public: __cdecl AutoBstr::AutoBstr(void)__ptr64 
??0AutoBstr@@QEAA@XZ
; public: __cdecl AutoBstrNoAlloc::AutoBstrNoAlloc(unsigned short *__ptr64)__ptr64 
??0AutoBstrNoAlloc@@QEAA@PEAG@Z
; public: __cdecl AutoBstrNoAlloc::AutoBstrNoAlloc(void)__ptr64 
??0AutoBstrNoAlloc@@QEAA@XZ
; public: __cdecl AutoCertContext::AutoCertContext(struct _CERT_CONTEXT const *__ptr64)__ptr64 
??0AutoCertContext@@QEAA@PEBU_CERT_CONTEXT@@@Z
; public: __cdecl AutoCertContext::AutoCertContext(void)__ptr64 
??0AutoCertContext@@QEAA@XZ
; public: __cdecl AutoChainContext::AutoChainContext(struct _CERT_CHAIN_CONTEXT const *__ptr64)__ptr64 
??0AutoChainContext@@QEAA@PEBU_CERT_CHAIN_CONTEXT@@@Z
; public: __cdecl AutoChainContext::AutoChainContext(void)__ptr64 
??0AutoChainContext@@QEAA@XZ
; public: __cdecl AutoCoTaskMemFree::AutoCoTaskMemFree(void *__ptr64)__ptr64 
??0AutoCoTaskMemFree@@QEAA@PEAX@Z
; public: __cdecl AutoCoTaskMemFree::AutoCoTaskMemFree(void)__ptr64 
??0AutoCoTaskMemFree@@QEAA@XZ
; public: __cdecl AutoEnvironmentBlock::AutoEnvironmentBlock(void *__ptr64)__ptr64 
??0AutoEnvironmentBlock@@QEAA@PEAX@Z
; public: __cdecl AutoEnvironmentBlock::AutoEnvironmentBlock(void)__ptr64 
??0AutoEnvironmentBlock@@QEAA@XZ
; public: __cdecl AutoFwXmlCloseParser::AutoFwXmlCloseParser(void *__ptr64)__ptr64 
??0AutoFwXmlCloseParser@@QEAA@PEAX@Z
; public: __cdecl AutoFwXmlCloseParser::AutoFwXmlCloseParser(void)__ptr64 
??0AutoFwXmlCloseParser@@QEAA@XZ
; public: __cdecl AutoHandle::AutoHandle(void *__ptr64)__ptr64 
??0AutoHandle@@QEAA@PEAX@Z
; public: __cdecl AutoHandle::AutoHandle(void)__ptr64 
??0AutoHandle@@QEAA@XZ
; public: __cdecl AutoImpersonateUser::AutoImpersonateUser(void *__ptr64)__ptr64 
??0AutoImpersonateUser@@QEAA@PEAX@Z
; public: __cdecl AutoImpersonateUser::AutoImpersonateUser(void)__ptr64 
??0AutoImpersonateUser@@QEAA@XZ
; public: __cdecl AutoLibrary::AutoLibrary(struct HINSTANCE__ *__ptr64)__ptr64 
??0AutoLibrary@@QEAA@PEAUHINSTANCE__@@@Z
; public: __cdecl AutoLibrary::AutoLibrary(void)__ptr64 
??0AutoLibrary@@QEAA@XZ
; public: __cdecl AutoLocalFree::AutoLocalFree(void *__ptr64)__ptr64 
??0AutoLocalFree@@QEAA@PEAX@Z
; public: __cdecl AutoLocalFree::AutoLocalFree(void)__ptr64 
??0AutoLocalFree@@QEAA@XZ
; public: __cdecl AutoMIClass::AutoMIClass(struct _MI_Class *__ptr64)__ptr64 
??0AutoMIClass@@QEAA@PEAU_MI_Class@@@Z
; public: __cdecl AutoMIClass::AutoMIClass(void)__ptr64 
??0AutoMIClass@@QEAA@XZ
; public: __cdecl AutoMIInstance::AutoMIInstance(struct _MI_Instance *__ptr64)__ptr64 
??0AutoMIInstance@@QEAA@PEAU_MI_Instance@@@Z
; public: __cdecl AutoMIInstance::AutoMIInstance(void)__ptr64 
??0AutoMIInstance@@QEAA@XZ
; public: __cdecl AutoObject::AutoObject(struct WSMAN_OBJECT *__ptr64)__ptr64 
??0AutoObject@@QEAA@PEAUWSMAN_OBJECT@@@Z
; public: __cdecl AutoObject::AutoObject(void)__ptr64 
??0AutoObject@@QEAA@XZ
; public: __cdecl AutoRegKey::AutoRegKey(struct HKEY__ *__ptr64)__ptr64 
??0AutoRegKey@@QEAA@PEAUHKEY__@@@Z
; public: __cdecl AutoRegKey::AutoRegKey(void)__ptr64 
??0AutoRegKey@@QEAA@XZ
; public: __cdecl AutoSecurityDescriptor::AutoSecurityDescriptor(void *__ptr64)__ptr64 
??0AutoSecurityDescriptor@@QEAA@PEAX@Z
; public: __cdecl AutoSecurityDescriptor::AutoSecurityDescriptor(void)__ptr64 
??0AutoSecurityDescriptor@@QEAA@XZ
; public: __cdecl AutoWaitHandle::AutoWaitHandle(void *__ptr64)__ptr64 
??0AutoWaitHandle@@QEAA@PEAX@Z
; public: __cdecl AutoWaitHandle::AutoWaitHandle(void)__ptr64 
??0AutoWaitHandle@@QEAA@XZ
; public: __cdecl BufferFormatter::BufferFormatter(unsigned char *__ptr64,unsigned long)__ptr64 
??0BufferFormatter@@QEAA@PEAEK@Z
; public: __cdecl BufferFormatter::BufferFormatter(void)__ptr64 
??0BufferFormatter@@QEAA@XZ
; public: __cdecl CWSManResource::CWSManResource(int)__ptr64 
??0CWSManResource@@QEAA@H@Z
; public: __cdecl ChildLifeTimeManager::ChildLifeTimeManager(void)__ptr64 
??0ChildLifeTimeManager@@QEAA@XZ
; public: __cdecl CircularBufferFormatter::CircularBufferFormatter(void)__ptr64 
??0CircularBufferFormatter@@QEAA@XZ
; public: __cdecl EtwCorrelationHelper::EtwCorrelationHelper(class EtwCorrelationHelper const &__ptr64 )__ptr64 
??0EtwCorrelationHelper@@QEAA@AEBV0@@Z
; public: __cdecl FastLock::FastLock(void)__ptr64 
??0FastLock@@QEAA@XZ
; public: __cdecl ILifeTimeMgmt::ILifeTimeMgmt(class ILifeTimeMgmt const &__ptr64 )__ptr64 
??0ILifeTimeMgmt@@QEAA@AEBV0@@Z
; public: __cdecl ILifeTimeMgmt::ILifeTimeMgmt(void)__ptr64 
??0ILifeTimeMgmt@@QEAA@XZ
; protected: __cdecl IRequestContext::IRequestContext(void)__ptr64 
??0IRequestContext@@IEAA@XZ
; public: __cdecl OwnLock::OwnLock(class FastLock &__ptr64 )__ptr64 
??0OwnLock@@QEAA@AEAVFastLock@@@Z
; public: __cdecl ShareLock::ShareLock(class FastLock &__ptr64 )__ptr64 
??0ShareLock@@QEAA@AEAVFastLock@@@Z
; public: __cdecl <class <unsigned short>,unsigned short *__ptr64>::~<class <unsigned short>,unsigned short *__ptr64>(void)__ptr64 
??1?$AutoCleanup@V?$AutoDelete@G@@PEAG@@QEAA@XZ
; public: __cdecl <class <class Locale::Resources>,class Locale::Resources *__ptr64>::~<class <class Locale::Resources>,class Locale::Resources *__ptr64>(void)__ptr64 
??1?$AutoCleanup@V?$AutoDelete@VResources@Locale@@@@PEAVResources@Locale@@@@QEAA@XZ
; public: __cdecl <class <unsigned char>,unsigned char *__ptr64>::~<class <unsigned char>,unsigned char *__ptr64>(void)__ptr64 
??1?$AutoCleanup@V?$AutoDeleteVector@E@@PEAE@@QEAA@XZ
; public: __cdecl <class <unsigned short>,unsigned short *__ptr64>::~<class <unsigned short>,unsigned short *__ptr64>(void)__ptr64 
??1?$AutoCleanup@V?$AutoDeleteVector@G@@PEAG@@QEAA@XZ
; public: __cdecl <class <unsigned short const *__ptr64>,unsigned short const *__ptr64 *__ptr64>::~<class <unsigned short const *__ptr64>,unsigned short const *__ptr64 *__ptr64>(void)__ptr64 
??1?$AutoCleanup@V?$AutoDeleteVector@PEBG@@PEAPEBG@@QEAA@XZ
; public: __cdecl <class <struct _WSMAN_OPTION>,struct _WSMAN_OPTION *__ptr64>::~<class <struct _WSMAN_OPTION>,struct _WSMAN_OPTION *__ptr64>(void)__ptr64 
??1?$AutoCleanup@V?$AutoDeleteVector@U_WSMAN_OPTION@@@@PEAU_WSMAN_OPTION@@@@QEAA@XZ
; public: __cdecl <class <unsigned char>,unsigned char *__ptr64>::~<class <unsigned char>,unsigned char *__ptr64>(void)__ptr64 
??1?$AutoCleanup@V?$AutoFree@E@@PEAE@@QEAA@XZ
; public: __cdecl <class <class CRequestContext>,class CRequestContext *__ptr64>::~<class <class CRequestContext>,class CRequestContext *__ptr64>(void)__ptr64 
??1?$AutoCleanup@V?$AutoRelease@VCRequestContext@@@@PEAVCRequestContext@@@@QEAA@XZ
; public: __cdecl <class <class CWSManSecurityUI>,class CWSManSecurityUI *__ptr64>::~<class <class CWSManSecurityUI>,class CWSManSecurityUI *__ptr64>(void)__ptr64 
??1?$AutoCleanup@V?$AutoRelease@VCWSManSecurityUI@@@@PEAVCWSManSecurityUI@@@@QEAA@XZ
; public: __cdecl <class AutoBstr,unsigned short *__ptr64>::~<class AutoBstr,unsigned short *__ptr64>(void)__ptr64 
??1?$AutoCleanup@VAutoBstr@@PEAG@@QEAA@XZ
; public: __cdecl <class AutoBstrNoAlloc,unsigned short *__ptr64>::~<class AutoBstrNoAlloc,unsigned short *__ptr64>(void)__ptr64 
??1?$AutoCleanup@VAutoBstrNoAlloc@@PEAG@@QEAA@XZ
; public: __cdecl <class AutoCertContext,struct _CERT_CONTEXT const *__ptr64>::~<class AutoCertContext,struct _CERT_CONTEXT const *__ptr64>(void)__ptr64 
??1?$AutoCleanup@VAutoCertContext@@PEBU_CERT_CONTEXT@@@@QEAA@XZ
; public: __cdecl <class AutoChainContext,struct _CERT_CHAIN_CONTEXT const *__ptr64>::~<class AutoChainContext,struct _CERT_CHAIN_CONTEXT const *__ptr64>(void)__ptr64 
??1?$AutoCleanup@VAutoChainContext@@PEBU_CERT_CHAIN_CONTEXT@@@@QEAA@XZ
; public: __cdecl <class AutoCoTaskMemFree,void *__ptr64>::~<class AutoCoTaskMemFree,void *__ptr64>(void)__ptr64 
??1?$AutoCleanup@VAutoCoTaskMemFree@@PEAX@@QEAA@XZ
; public: __cdecl <class AutoEnvironmentBlock,void *__ptr64>::~<class AutoEnvironmentBlock,void *__ptr64>(void)__ptr64 
??1?$AutoCleanup@VAutoEnvironmentBlock@@PEAX@@QEAA@XZ
; public: __cdecl <class AutoFwXmlCloseParser,void *__ptr64>::~<class AutoFwXmlCloseParser,void *__ptr64>(void)__ptr64 
??1?$AutoCleanup@VAutoFwXmlCloseParser@@PEAX@@QEAA@XZ
; public: __cdecl <class AutoHandle,void *__ptr64>::~<class AutoHandle,void *__ptr64>(void)__ptr64 
??1?$AutoCleanup@VAutoHandle@@PEAX@@QEAA@XZ
; public: __cdecl <class AutoImpersonateUser,void *__ptr64>::~<class AutoImpersonateUser,void *__ptr64>(void)__ptr64 
??1?$AutoCleanup@VAutoImpersonateUser@@PEAX@@QEAA@XZ
; public: __cdecl <class AutoLibrary,struct HINSTANCE__ *__ptr64>::~<class AutoLibrary,struct HINSTANCE__ *__ptr64>(void)__ptr64 
??1?$AutoCleanup@VAutoLibrary@@PEAUHINSTANCE__@@@@QEAA@XZ
; public: __cdecl <class AutoLocalFree,void *__ptr64>::~<class AutoLocalFree,void *__ptr64>(void)__ptr64 
??1?$AutoCleanup@VAutoLocalFree@@PEAX@@QEAA@XZ
; public: __cdecl <class AutoMIClass,struct _MI_Class *__ptr64>::~<class AutoMIClass,struct _MI_Class *__ptr64>(void)__ptr64 
??1?$AutoCleanup@VAutoMIClass@@PEAU_MI_Class@@@@QEAA@XZ
; public: __cdecl <class AutoMIInstance,struct _MI_Instance *__ptr64>::~<class AutoMIInstance,struct _MI_Instance *__ptr64>(void)__ptr64 
??1?$AutoCleanup@VAutoMIInstance@@PEAU_MI_Instance@@@@QEAA@XZ
; public: __cdecl <class AutoObject,struct WSMAN_OBJECT *__ptr64>::~<class AutoObject,struct WSMAN_OBJECT *__ptr64>(void)__ptr64 
??1?$AutoCleanup@VAutoObject@@PEAUWSMAN_OBJECT@@@@QEAA@XZ
; public: __cdecl <class AutoRegKey,struct HKEY__ *__ptr64>::~<class AutoRegKey,struct HKEY__ *__ptr64>(void)__ptr64 
??1?$AutoCleanup@VAutoRegKey@@PEAUHKEY__@@@@QEAA@XZ
; public: __cdecl <class AutoSecurityDescriptor,void *__ptr64>::~<class AutoSecurityDescriptor,void *__ptr64>(void)__ptr64 
??1?$AutoCleanup@VAutoSecurityDescriptor@@PEAX@@QEAA@XZ
; public: __cdecl <class AutoWaitHandle,void *__ptr64>::~<class AutoWaitHandle,void *__ptr64>(void)__ptr64 
??1?$AutoCleanup@VAutoWaitHandle@@PEAX@@QEAA@XZ
; public: __cdecl <unsigned short>::~<unsigned short>(void)__ptr64 
??1?$AutoDelete@G@@QEAA@XZ
; public: __cdecl <class Locale::Resources>::~<class Locale::Resources>(void)__ptr64 
??1?$AutoDelete@VResources@Locale@@@@QEAA@XZ
; public: __cdecl <unsigned char>::~<unsigned char>(void)__ptr64 
??1?$AutoDeleteVector@E@@QEAA@XZ
; public: __cdecl <unsigned short>::~<unsigned short>(void)__ptr64 
??1?$AutoDeleteVector@G@@QEAA@XZ
; public: __cdecl <unsigned short const *__ptr64>::~<unsigned short const *__ptr64>(void)__ptr64 
??1?$AutoDeleteVector@PEBG@@QEAA@XZ
; public: __cdecl <struct _WSMAN_OPTION>::~<struct _WSMAN_OPTION>(void)__ptr64 
??1?$AutoDeleteVector@U_WSMAN_OPTION@@@@QEAA@XZ
; public: __cdecl <unsigned char>::~<unsigned char>(void)__ptr64 
??1?$AutoFree@E@@QEAA@XZ
; public: __cdecl <class CRequestContext>::~<class CRequestContext>(void)__ptr64 
??1?$AutoRelease@VCRequestContext@@@@QEAA@XZ
; public: __cdecl <class CWSManSecurityUI>::~<class CWSManSecurityUI>(void)__ptr64 
??1?$AutoRelease@VCWSManSecurityUI@@@@QEAA@XZ
; public: __cdecl <class Locale::Resources>::~<class Locale::Resources>(void)__ptr64 
??1?$ILoader@VResources@Locale@@@@QEAA@XZ
; public: __cdecl <class Locale::Resources,0x0ULL>::~<class Locale::Resources,0x0ULL>(void)__ptr64 
??1?$Loader@VResources@Locale@@$0A@@@QEAA@XZ
; public: __cdecl <class Locale::Resources,0x0ULL>::~<class Locale::Resources,0x0ULL>(void)__ptr64 
??1?$LoaderSerializer@VResources@Locale@@$0A@@@QEAA@XZ
; public: __cdecl <class Locale::Key,unsigned long,class <class Locale::Key,unsigned long>>::~<class Locale::Key,unsigned long,class <class Locale::Key,unsigned long>>(void)__ptr64 
??1?$SafeMap@VKey@Locale@@KV?$SafeMap_Iterator@VKey@Locale@@K@@@@QEAA@XZ
; public: __cdecl <class Locale::Key,unsigned long>::~<class Locale::Key,unsigned long>(void)__ptr64 
??1?$SafeMap_Iterator@VKey@Locale@@K@@QEAA@XZ
; public: __cdecl <class Locale::Key,unsigned long,class <class Locale::Key,unsigned long>>::~<class Locale::Key,unsigned long,class <class Locale::Key,unsigned long>>(void)__ptr64 
??1?$SafeMap_Lock@VKey@Locale@@KV?$SafeMap_Iterator@VKey@Locale@@K@@@@QEAA@XZ
; public: __cdecl <union _LARGE_INTEGER>::~<union _LARGE_INTEGER>(void)__ptr64 
??1?$SimpleQueue@T_LARGE_INTEGER@@@@QEAA@XZ
; public: __cdecl AutoBstr::~AutoBstr(void)__ptr64 
??1AutoBstr@@QEAA@XZ
; public: __cdecl AutoBstrNoAlloc::~AutoBstrNoAlloc(void)__ptr64 
??1AutoBstrNoAlloc@@QEAA@XZ
; public: __cdecl AutoCertContext::~AutoCertContext(void)__ptr64 
??1AutoCertContext@@QEAA@XZ
; public: __cdecl AutoChainContext::~AutoChainContext(void)__ptr64 
??1AutoChainContext@@QEAA@XZ
; public: __cdecl AutoCoTaskMemFree::~AutoCoTaskMemFree(void)__ptr64 
??1AutoCoTaskMemFree@@QEAA@XZ
; public: __cdecl AutoEnvironmentBlock::~AutoEnvironmentBlock(void)__ptr64 
??1AutoEnvironmentBlock@@QEAA@XZ
; public: __cdecl AutoFwXmlCloseParser::~AutoFwXmlCloseParser(void)__ptr64 
??1AutoFwXmlCloseParser@@QEAA@XZ
; public: __cdecl AutoHandle::~AutoHandle(void)__ptr64 
??1AutoHandle@@QEAA@XZ
; public: __cdecl AutoImpersonateUser::~AutoImpersonateUser(void)__ptr64 
??1AutoImpersonateUser@@QEAA@XZ
; public: __cdecl AutoLibrary::~AutoLibrary(void)__ptr64 
??1AutoLibrary@@QEAA@XZ
; public: __cdecl AutoLocalFree::~AutoLocalFree(void)__ptr64 
??1AutoLocalFree@@QEAA@XZ
; public: __cdecl AutoMIClass::~AutoMIClass(void)__ptr64 
??1AutoMIClass@@QEAA@XZ
; public: __cdecl AutoMIInstance::~AutoMIInstance(void)__ptr64 
??1AutoMIInstance@@QEAA@XZ
; public: __cdecl AutoObject::~AutoObject(void)__ptr64 
??1AutoObject@@QEAA@XZ
; public: __cdecl AutoRegKey::~AutoRegKey(void)__ptr64 
??1AutoRegKey@@QEAA@XZ
; public: __cdecl AutoSecurityDescriptor::~AutoSecurityDescriptor(void)__ptr64 
??1AutoSecurityDescriptor@@QEAA@XZ
; public: __cdecl AutoWaitHandle::~AutoWaitHandle(void)__ptr64 
??1AutoWaitHandle@@QEAA@XZ
; public: virtual __cdecl BufferFormatter::~BufferFormatter(void)__ptr64 
??1BufferFormatter@@UEAA@XZ
; public: __cdecl CWSManCriticalSectionWithConditionVar::~CWSManCriticalSectionWithConditionVar(void)__ptr64 
??1CWSManCriticalSectionWithConditionVar@@QEAA@XZ
; public: virtual __cdecl CWSManResource::~CWSManResource(void)__ptr64 
??1CWSManResource@@UEAA@XZ
; public: __cdecl ChildLifeTimeManager::~ChildLifeTimeManager(void)__ptr64 
??1ChildLifeTimeManager@@QEAA@XZ
; public: virtual __cdecl CircularBufferFormatter::~CircularBufferFormatter(void)__ptr64 
??1CircularBufferFormatter@@UEAA@XZ
; public: virtual __cdecl EtwCorrelationHelper::~EtwCorrelationHelper(void)__ptr64 
??1EtwCorrelationHelper@@UEAA@XZ
; public: virtual __cdecl ILifeTimeMgmt::~ILifeTimeMgmt(void)__ptr64 
??1ILifeTimeMgmt@@UEAA@XZ
; public: virtual __cdecl IRequestContext::~IRequestContext(void)__ptr64 
??1IRequestContext@@UEAA@XZ
; public: __cdecl OwnLock::~OwnLock(void)__ptr64 
??1OwnLock@@QEAA@XZ
; public: __cdecl ShareLock::~ShareLock(void)__ptr64 
??1ShareLock@@QEAA@XZ
; public: class <unsigned short> &__ptr64 __cdecl <class <unsigned short>,unsigned short *__ptr64>::operator =(unsigned short *__ptr64)__ptr64 
??4?$AutoCleanup@V?$AutoDeleteVector@G@@PEAG@@QEAAAEAV?$AutoDeleteVector@G@@PEAG@Z
; public: class <class CWSManSecurityUI> &__ptr64 __cdecl <class <class CWSManSecurityUI>,class CWSManSecurityUI *__ptr64>::operator =(class CWSManSecurityUI *__ptr64)__ptr64 
??4?$AutoCleanup@V?$AutoRelease@VCWSManSecurityUI@@@@PEAVCWSManSecurityUI@@@@QEAAAEAV?$AutoRelease@VCWSManSecurityUI@@@@PEAVCWSManSecurityUI@@@Z
; public: class AutoBstr &__ptr64 __cdecl <class AutoBstr,unsigned short *__ptr64>::operator =(unsigned short *__ptr64)__ptr64 
??4?$AutoCleanup@VAutoBstr@@PEAG@@QEAAAEAVAutoBstr@@PEAG@Z
; public: class AutoBstrNoAlloc &__ptr64 __cdecl <class AutoBstrNoAlloc,unsigned short *__ptr64>::operator =(unsigned short *__ptr64)__ptr64 
??4?$AutoCleanup@VAutoBstrNoAlloc@@PEAG@@QEAAAEAVAutoBstrNoAlloc@@PEAG@Z
; public: class AutoCertContext &__ptr64 __cdecl <class AutoCertContext,struct _CERT_CONTEXT const *__ptr64>::operator =(struct _CERT_CONTEXT const *__ptr64)__ptr64 
??4?$AutoCleanup@VAutoCertContext@@PEBU_CERT_CONTEXT@@@@QEAAAEAVAutoCertContext@@PEBU_CERT_CONTEXT@@@Z
; public: class AutoChainContext &__ptr64 __cdecl <class AutoChainContext,struct _CERT_CHAIN_CONTEXT const *__ptr64>::operator =(struct _CERT_CHAIN_CONTEXT const *__ptr64)__ptr64 
??4?$AutoCleanup@VAutoChainContext@@PEBU_CERT_CHAIN_CONTEXT@@@@QEAAAEAVAutoChainContext@@PEBU_CERT_CHAIN_CONTEXT@@@Z
; public: class AutoCoTaskMemFree &__ptr64 __cdecl <class AutoCoTaskMemFree,void *__ptr64>::operator =(void *__ptr64)__ptr64 
??4?$AutoCleanup@VAutoCoTaskMemFree@@PEAX@@QEAAAEAVAutoCoTaskMemFree@@PEAX@Z
; public: class AutoEnvironmentBlock &__ptr64 __cdecl <class AutoEnvironmentBlock,void *__ptr64>::operator =(void *__ptr64)__ptr64 
??4?$AutoCleanup@VAutoEnvironmentBlock@@PEAX@@QEAAAEAVAutoEnvironmentBlock@@PEAX@Z
; public: class AutoFwXmlCloseParser &__ptr64 __cdecl <class AutoFwXmlCloseParser,void *__ptr64>::operator =(void *__ptr64)__ptr64 
??4?$AutoCleanup@VAutoFwXmlCloseParser@@PEAX@@QEAAAEAVAutoFwXmlCloseParser@@PEAX@Z
; public: class AutoHandle &__ptr64 __cdecl <class AutoHandle,void *__ptr64>::operator =(void *__ptr64)__ptr64 
??4?$AutoCleanup@VAutoHandle@@PEAX@@QEAAAEAVAutoHandle@@PEAX@Z
; public: class AutoImpersonateUser &__ptr64 __cdecl <class AutoImpersonateUser,void *__ptr64>::operator =(void *__ptr64)__ptr64 
??4?$AutoCleanup@VAutoImpersonateUser@@PEAX@@QEAAAEAVAutoImpersonateUser@@PEAX@Z
; public: class AutoLibrary &__ptr64 __cdecl <class AutoLibrary,struct HINSTANCE__ *__ptr64>::operator =(struct HINSTANCE__ *__ptr64)__ptr64 
??4?$AutoCleanup@VAutoLibrary@@PEAUHINSTANCE__@@@@QEAAAEAVAutoLibrary@@PEAUHINSTANCE__@@@Z
; public: class AutoLocalFree &__ptr64 __cdecl <class AutoLocalFree,void *__ptr64>::operator =(void *__ptr64)__ptr64 
??4?$AutoCleanup@VAutoLocalFree@@PEAX@@QEAAAEAVAutoLocalFree@@PEAX@Z
; public: class AutoMIClass &__ptr64 __cdecl <class AutoMIClass,struct _MI_Class *__ptr64>::operator =(struct _MI_Class *__ptr64)__ptr64 
??4?$AutoCleanup@VAutoMIClass@@PEAU_MI_Class@@@@QEAAAEAVAutoMIClass@@PEAU_MI_Class@@@Z
; public: class AutoMIInstance &__ptr64 __cdecl <class AutoMIInstance,struct _MI_Instance *__ptr64>::operator =(struct _MI_Instance *__ptr64)__ptr64 
??4?$AutoCleanup@VAutoMIInstance@@PEAU_MI_Instance@@@@QEAAAEAVAutoMIInstance@@PEAU_MI_Instance@@@Z
; public: class AutoObject &__ptr64 __cdecl <class AutoObject,struct WSMAN_OBJECT *__ptr64>::operator =(struct WSMAN_OBJECT *__ptr64)__ptr64 
??4?$AutoCleanup@VAutoObject@@PEAUWSMAN_OBJECT@@@@QEAAAEAVAutoObject@@PEAUWSMAN_OBJECT@@@Z
; public: class AutoRegKey &__ptr64 __cdecl <class AutoRegKey,struct HKEY__ *__ptr64>::operator =(struct HKEY__ *__ptr64)__ptr64 
??4?$AutoCleanup@VAutoRegKey@@PEAUHKEY__@@@@QEAAAEAVAutoRegKey@@PEAUHKEY__@@@Z
; public: class AutoSecurityDescriptor &__ptr64 __cdecl <class AutoSecurityDescriptor,void *__ptr64>::operator =(void *__ptr64)__ptr64 
??4?$AutoCleanup@VAutoSecurityDescriptor@@PEAX@@QEAAAEAVAutoSecurityDescriptor@@PEAX@Z
; public: class AutoWaitHandle &__ptr64 __cdecl <class AutoWaitHandle,void *__ptr64>::operator =(void *__ptr64)__ptr64 
??4?$AutoCleanup@VAutoWaitHandle@@PEAX@@QEAAAEAVAutoWaitHandle@@PEAX@Z
; public: class <unsigned short> &__ptr64 __cdecl <unsigned short>::operator =(unsigned short *__ptr64)__ptr64 
??4?$AutoDeleteVector@G@@QEAAAEAV0@PEAG@Z
; public: class <class CWSManSecurityUI> &__ptr64 __cdecl <class CWSManSecurityUI>::operator =(class CWSManSecurityUI *__ptr64)__ptr64 
??4?$AutoRelease@VCWSManSecurityUI@@@@QEAAAEAV0@PEAVCWSManSecurityUI@@@Z
; public: class <union _LARGE_INTEGER> &__ptr64 __cdecl <union _LARGE_INTEGER>::operator =(class <union _LARGE_INTEGER> const &__ptr64 )__ptr64 
??4?$SimpleQueue@T_LARGE_INTEGER@@@@QEAAAEAV0@AEBV0@@Z
; public: class AutoBstr &__ptr64 __cdecl AutoBstr::operator =(unsigned short *__ptr64)__ptr64 
??4AutoBstr@@QEAAAEAV0@PEAG@Z
; public: class AutoBstrNoAlloc &__ptr64 __cdecl AutoBstrNoAlloc::operator =(unsigned short *__ptr64)__ptr64 
??4AutoBstrNoAlloc@@QEAAAEAV0@PEAG@Z
; public: class AutoCertContext &__ptr64 __cdecl AutoCertContext::operator =(struct _CERT_CONTEXT const *__ptr64)__ptr64 
??4AutoCertContext@@QEAAAEAV0@PEBU_CERT_CONTEXT@@@Z
; public: class AutoChainContext &__ptr64 __cdecl AutoChainContext::operator =(struct _CERT_CHAIN_CONTEXT const *__ptr64)__ptr64 
??4AutoChainContext@@QEAAAEAV0@PEBU_CERT_CHAIN_CONTEXT@@@Z
; public: class AutoCoTaskMemFree &__ptr64 __cdecl AutoCoTaskMemFree::operator =(void *__ptr64)__ptr64 
??4AutoCoTaskMemFree@@QEAAAEAV0@PEAX@Z
; public: class AutoEnvironmentBlock &__ptr64 __cdecl AutoEnvironmentBlock::operator =(void *__ptr64)__ptr64 
??4AutoEnvironmentBlock@@QEAAAEAV0@PEAX@Z
; public: class AutoFwXmlCloseParser &__ptr64 __cdecl AutoFwXmlCloseParser::operator =(void *__ptr64)__ptr64 
??4AutoFwXmlCloseParser@@QEAAAEAV0@PEAX@Z
; public: class AutoHandle &__ptr64 __cdecl AutoHandle::operator =(void *__ptr64)__ptr64 
??4AutoHandle@@QEAAAEAV0@PEAX@Z
; public: class AutoImpersonateUser &__ptr64 __cdecl AutoImpersonateUser::operator =(void *__ptr64)__ptr64 
??4AutoImpersonateUser@@QEAAAEAV0@PEAX@Z
; public: class AutoLibrary &__ptr64 __cdecl AutoLibrary::operator =(struct HINSTANCE__ *__ptr64)__ptr64 
??4AutoLibrary@@QEAAAEAV0@PEAUHINSTANCE__@@@Z
; public: class AutoLocalFree &__ptr64 __cdecl AutoLocalFree::operator =(void *__ptr64)__ptr64 
??4AutoLocalFree@@QEAAAEAV0@PEAX@Z
; public: class AutoMIClass &__ptr64 __cdecl AutoMIClass::operator =(struct _MI_Class *__ptr64)__ptr64 
??4AutoMIClass@@QEAAAEAV0@PEAU_MI_Class@@@Z
; public: class AutoMIInstance &__ptr64 __cdecl AutoMIInstance::operator =(struct _MI_Instance *__ptr64)__ptr64 
??4AutoMIInstance@@QEAAAEAV0@PEAU_MI_Instance@@@Z
; public: class AutoObject &__ptr64 __cdecl AutoObject::operator =(struct WSMAN_OBJECT *__ptr64)__ptr64 
??4AutoObject@@QEAAAEAV0@PEAUWSMAN_OBJECT@@@Z
; public: class AutoRegKey &__ptr64 __cdecl AutoRegKey::operator =(struct HKEY__ *__ptr64)__ptr64 
??4AutoRegKey@@QEAAAEAV0@PEAUHKEY__@@@Z
; public: class AutoSecurityDescriptor &__ptr64 __cdecl AutoSecurityDescriptor::operator =(void *__ptr64)__ptr64 
??4AutoSecurityDescriptor@@QEAAAEAV0@PEAX@Z
; public: class AutoWaitHandle &__ptr64 __cdecl AutoWaitHandle::operator =(void *__ptr64)__ptr64 
??4AutoWaitHandle@@QEAAAEAV0@PEAX@Z
; public: class ChildLifeTimeManager &__ptr64 __cdecl ChildLifeTimeManager::operator =(class ChildLifeTimeManager const &__ptr64 )__ptr64 
??4ChildLifeTimeManager@@QEAAAEAV0@AEBV0@@Z
; public: class EtwCorrelationHelper &__ptr64 __cdecl EtwCorrelationHelper::operator =(class EtwCorrelationHelper const &__ptr64 )__ptr64 
??4EtwCorrelationHelper@@QEAAAEAV0@AEBV0@@Z
; public: class EventLog &__ptr64 __cdecl EventLog::operator =(class EventLog const &__ptr64 )__ptr64 
??4EventLog@@QEAAAEAV0@AEBV0@@Z
; public: class FastLock &__ptr64 __cdecl FastLock::operator =(class FastLock const &__ptr64 )__ptr64 
??4FastLock@@QEAAAEAV0@AEBV0@@Z
; public: class ILifeTimeMgmt &__ptr64 __cdecl ILifeTimeMgmt::operator =(class ILifeTimeMgmt const &__ptr64 )__ptr64 
??4ILifeTimeMgmt@@QEAAAEAV0@AEBV0@@Z
; public: class PacketFormatter &__ptr64 __cdecl PacketFormatter::operator =(class PacketFormatter const &__ptr64 )__ptr64 
??4PacketFormatter@@QEAAAEAV0@AEBV0@@Z
; public: bool __cdecl <class <unsigned short>,unsigned short *__ptr64>::operator !(void)const __ptr64 
??7?$AutoCleanup@V?$AutoDeleteVector@G@@PEAG@@QEBA_NXZ
; public: bool __cdecl <class <class CRequestContext>,class CRequestContext *__ptr64>::operator !(void)const __ptr64 
??7?$AutoCleanup@V?$AutoRelease@VCRequestContext@@@@PEAVCRequestContext@@@@QEBA_NXZ
; public: bool __cdecl <class <class CWSManSecurityUI>,class CWSManSecurityUI *__ptr64>::operator !(void)const __ptr64 
??7?$AutoCleanup@V?$AutoRelease@VCWSManSecurityUI@@@@PEAVCWSManSecurityUI@@@@QEBA_NXZ
; public: void __cdecl <class <class Locale::Resources>,class Locale::Resources *__ptr64>::operator class Locale::Resources *__ptr64(...)__ptr64 throw()
??B?$AutoCleanup@V?$AutoDelete@VResources@Locale@@@@PEAVResources@Locale@@@@QEAAPEAVResources@Locale@@XZ
; public: void __cdecl <class <unsigned char>,unsigned char *__ptr64>::operator unsigned char *__ptr64(...)__ptr64 throw()
??B?$AutoCleanup@V?$AutoDeleteVector@E@@PEAE@@QEAAPEAEXZ
; public: void __cdecl <class <unsigned short>,unsigned short *__ptr64>::operator unsigned short *__ptr64(...)__ptr64 throw()
??B?$AutoCleanup@V?$AutoDeleteVector@G@@PEAG@@QEAAPEAGXZ
; public: void __cdecl <class <unsigned short const *__ptr64>,unsigned short const *__ptr64 *__ptr64>::operator unsigned short const *__ptr64 *__ptr64(...)__ptr64 throw()
??B?$AutoCleanup@V?$AutoDeleteVector@PEBG@@PEAPEBG@@QEAAPEAPEBGXZ
; public: void __cdecl <class <struct _WSMAN_OPTION>,struct _WSMAN_OPTION *__ptr64>::operator struct _WSMAN_OPTION *__ptr64(...)__ptr64 throw()
??B?$AutoCleanup@V?$AutoDeleteVector@U_WSMAN_OPTION@@@@PEAU_WSMAN_OPTION@@@@QEAAPEAU_WSMAN_OPTION@@XZ
; public: void __cdecl <class <unsigned char>,unsigned char *__ptr64>::operator unsigned char *__ptr64(...)__ptr64 throw()
??B?$AutoCleanup@V?$AutoFree@E@@PEAE@@QEAAPEAEXZ
; public: void __cdecl <class <unsigned char>,unsigned char *__ptr64>::operator unsigned char *__ptr64 const(...)const __ptr64 throw()
??B?$AutoCleanup@V?$AutoFree@E@@PEAE@@QEBAQEAEXZ
; public: void __cdecl <class <class CWSManSecurityUI>,class CWSManSecurityUI *__ptr64>::operator class CWSManSecurityUI *__ptr64(...)__ptr64 throw()
??B?$AutoCleanup@V?$AutoRelease@VCWSManSecurityUI@@@@PEAVCWSManSecurityUI@@@@QEAAPEAVCWSManSecurityUI@@XZ
; public: void __cdecl <class AutoLocalFree,void *__ptr64>::operator void *__ptr64(...)__ptr64 throw()
??B?$AutoCleanup@VAutoLocalFree@@PEAX@@QEAAPEAXXZ
; public: class CRequestContext *__ptr64 __cdecl <class <class CRequestContext>,class CRequestContext *__ptr64>::operator ->(void)__ptr64 
??C?$AutoCleanup@V?$AutoRelease@VCRequestContext@@@@PEAVCRequestContext@@@@QEAAPEAVCRequestContext@@XZ
; public: class CWSManSecurityUI *__ptr64 __cdecl <class <class CWSManSecurityUI>,class CWSManSecurityUI *__ptr64>::operator ->(void)__ptr64 
??C?$AutoCleanup@V?$AutoRelease@VCWSManSecurityUI@@@@PEAVCWSManSecurityUI@@@@QEAAPEAVCWSManSecurityUI@@XZ
; const <class Locale::Key,unsigned long,class <class Locale::Key,unsigned long>>::$vftable
??_7?$SafeMap@VKey@Locale@@KV?$SafeMap_Iterator@VKey@Locale@@K@@@@6B@ DATA
; const BufferFormatter::$vftable
??_7BufferFormatter@@6B@ DATA
; const CWSManResource::$vftable
??_7CWSManResource@@6B@ DATA
; const CircularBufferFormatter::$vftable
??_7CircularBufferFormatter@@6B@ DATA
; const EtwCorrelationHelper::$vftable
??_7EtwCorrelationHelper@@6B@ DATA
; const ILifeTimeMgmt::$vftable
??_7ILifeTimeMgmt@@6B@ DATA
; const IRequestContext::$vftable
??_7IRequestContext@@6B@ DATA
; public: void __cdecl CErrorContext::__dflt_ctor_closure(void)__ptr64 
??_FCErrorContext@@QEAAXXZ
; public: virtual void __cdecl <class Locale::Key,unsigned long,class <class Locale::Key,unsigned long>>::Acquire(void)const __ptr64 
?Acquire@?$SafeMap@VKey@Locale@@KV?$SafeMap_Iterator@VKey@Locale@@K@@@@UEBAXXZ
; public: void __cdecl <class Locale::Key,unsigned long,class <class Locale::Key,unsigned long>>::Acquire(void)__ptr64 
?Acquire@?$SafeMap_Lock@VKey@Locale@@KV?$SafeMap_Iterator@VKey@Locale@@K@@@@QEAAXXZ
; public: void __cdecl FastLock::AcquireExclusive(void)__ptr64 
?AcquireExclusive@FastLock@@QEAAXXZ
; public: void __cdecl FastLock::AcquireShared(void)__ptr64 
?AcquireShared@FastLock@@QEAAXXZ
; public: bool __cdecl <class Locale::Key,unsigned long,class <class Locale::Key,unsigned long>>::Acquired(void)__ptr64 
?Acquired@?$SafeMap_Lock@VKey@Locale@@KV?$SafeMap_Iterator@VKey@Locale@@K@@@@QEAA_NXZ
; public: virtual long __cdecl ILifeTimeMgmt::AddRef(void)__ptr64 
?AddRef@ILifeTimeMgmt@@UEAAJXZ
; public: class <class Locale::Key,unsigned long,class <class Locale::Key,unsigned long>> &__ptr64 __cdecl <class Locale::Key,unsigned long,class <class Locale::Key,unsigned long>>::AsReference(void)__ptr64 
?AsReference@?$SafeMap@VKey@Locale@@KV?$SafeMap_Iterator@VKey@Locale@@K@@@@QEAAAEAV1@XZ
; protected: bool __cdecl <class Locale::Resources>::CreateInstance(class IRequestContext &__ptr64 )__ptr64 
?CreateInstance@?$ILoader@VResources@Locale@@@@IEAA_NAEAVIRequestContext@@@Z
; protected: class <class Locale::Key,unsigned long> &__ptr64 __cdecl <class Locale::Key,unsigned long>::Data(void)const __ptr64 
?Data@?$SafeMap_Iterator@VKey@Locale@@K@@IEBAAEAV?$STLMap@VKey@Locale@@K@@XZ
; public: virtual bool __cdecl <class Locale::Key,unsigned long,class <class Locale::Key,unsigned long>>::DeInitialize(class IRequestContext &__ptr64 )__ptr64 
?DeInitialize@?$SafeMap@VKey@Locale@@KV?$SafeMap_Iterator@VKey@Locale@@K@@@@UEAA_NAEAVIRequestContext@@@Z
; public: class Locale::Resources *__ptr64 __cdecl <class <class Locale::Resources>,class Locale::Resources *__ptr64>::Detach(void)__ptr64 
?Detach@?$AutoCleanup@V?$AutoDelete@VResources@Locale@@@@PEAVResources@Locale@@@@QEAAPEAVResources@Locale@@XZ
; public: unsigned short *__ptr64 __cdecl <class <unsigned short>,unsigned short *__ptr64>::Detach(void)__ptr64 
?Detach@?$AutoCleanup@V?$AutoDeleteVector@G@@PEAG@@QEAAPEAGXZ
; public: unsigned char *__ptr64 __cdecl <class <unsigned char>,unsigned char *__ptr64>::Detach(void)__ptr64 
?Detach@?$AutoCleanup@V?$AutoFree@E@@PEAE@@QEAAPEAEXZ
; public: unsigned char *__ptr64 __cdecl BufferFormatter::Detach(void)__ptr64 
?Detach@BufferFormatter@@QEAAPEAEXZ
; public: bool __cdecl <class Locale::Resources>::FreeInstance(class IRequestContext &__ptr64 ,bool)__ptr64 
?FreeInstance@?$ILoader@VResources@Locale@@@@QEAA_NAEAVIRequestContext@@_N@Z
; public: enum PacketFormatter::Charset __cdecl PacketFormatter::GetBomIndex(void)const __ptr64 
?GetBomIndex@PacketFormatter@@QEBA?AW4Charset@1@XZ
; public: virtual unsigned char *__ptr64 __cdecl BufferFormatter::GetBuffer(void)__ptr64 
?GetBuffer@BufferFormatter@@UEAAPEAEXZ
; public: virtual unsigned char const *__ptr64 __cdecl BufferFormatter::GetBuffer(void)const __ptr64 
?GetBuffer@BufferFormatter@@UEBAPEBEXZ
; public: virtual unsigned char const *__ptr64 __cdecl CircularBufferFormatter::GetBuffer(void)const __ptr64 
?GetBuffer@CircularBufferFormatter@@UEBAPEBEXZ
; public: unsigned short const *__ptr64 __cdecl XmlReader::GetBuffer(void)__ptr64 
?GetBuffer@XmlReader@@QEAAPEBGXZ
; public: unsigned long __cdecl BufferFormatter::GetBufferSize(void)const __ptr64 
?GetBufferSize@BufferFormatter@@QEBAKXZ
; public: virtual unsigned long __cdecl BufferFormatter::GetCalculationSize(bool)const __ptr64 
?GetCalculationSize@BufferFormatter@@UEBAK_N@Z
; public: enum PacketFormatter::Charset __cdecl PacketFormatter::GetCharset(void)const __ptr64 
?GetCharset@PacketFormatter@@QEBA?AW4Charset@1@XZ
; public: long __cdecl ChildLifeTimeManager::GetChildCount(void)const __ptr64 
?GetChildCount@ChildLifeTimeManager@@QEBAJXZ
; public: unsigned long __cdecl BufferFormatter::GetError(void)const __ptr64 
?GetError@BufferFormatter@@QEBAKXZ
; public: virtual unsigned long __cdecl CErrorContext::GetErrorCode(void)const __ptr64 
?GetErrorCode@CErrorContext@@UEBAKXZ
; public: virtual unsigned short const *__ptr64 __cdecl CErrorContext::GetFaultXML(void)const __ptr64 
?GetFaultXML@CErrorContext@@UEBAPEBGXZ
; public: virtual unsigned short const *__ptr64 __cdecl CRequestContext::GetFaultXML(void)const __ptr64 
?GetFaultXML@CRequestContext@@UEBAPEBGXZ
; public: enum PacketFormatter::Charset __cdecl BufferFormatter::GetFormatterMode(void)__ptr64 
?GetFormatterMode@BufferFormatter@@QEAA?AW4Charset@PacketFormatter@@XZ
; public: unsigned long __cdecl CWSManCriticalSection::GetInitError(void)const __ptr64 
?GetInitError@CWSManCriticalSection@@QEBAKXZ
; public: class Locale::Resources *__ptr64 __cdecl <class Locale::Resources,0x0ULL>::GetInstance(class IRequestContext &__ptr64 )__ptr64 
?GetInstance@?$LoaderSerializer@VResources@Locale@@$0A@@@QEAAPEAVResources@Locale@@AEAVIRequestContext@@@Z
; public: unsigned long __cdecl Locale::GetLCID(void)__ptr64 
?GetLCID@Locale@@QEAAKXZ
; public: unsigned __int64 __cdecl XmlReader::GetLength(void)__ptr64 
?GetLength@XmlReader@@QEAA_KXZ
; public: class Locale &__ptr64 __cdecl CRequestContext::GetLocale(void)__ptr64 
?GetLocale@CRequestContext@@QEAAAEAVLocale@@XZ
; public: unsigned short const *__ptr64 __cdecl CRequestContext::GetLocaleString(void)__ptr64 
?GetLocaleString@CRequestContext@@QEAAPEBGXZ
; public: class <class Locale::Key,unsigned long,class <class Locale::Key,unsigned long>> &__ptr64 __cdecl <class Locale::Key,unsigned long>::GetMap(void)const __ptr64 
?GetMap@?$SafeMap_Iterator@VKey@Locale@@K@@QEBAAEAV?$SafeMap@VKey@Locale@@KV?$SafeMap_Iterator@VKey@Locale@@K@@@@XZ
; public: class <class Locale::Key,unsigned long,class <class Locale::Key,unsigned long>> const &__ptr64 __cdecl <class Locale::Key,unsigned long,class <class Locale::Key,unsigned long>>::GetMap(void)const __ptr64 
?GetMap@?$SafeMap_Lock@VKey@Locale@@KV?$SafeMap_Iterator@VKey@Locale@@K@@@@QEBAAEBV?$SafeMap@VKey@Locale@@KV?$SafeMap_Iterator@VKey@Locale@@K@@@@XZ
; public: virtual unsigned long __cdecl CErrorContext::GetMessageId(void)const __ptr64 
?GetMessageId@CErrorContext@@UEBAKXZ
; public: virtual unsigned long __cdecl CRequestContext::GetMessageId(void)const __ptr64 
?GetMessageId@CRequestContext@@UEBAKXZ
; protected: class Locale::Resources *__ptr64 __cdecl <class Locale::Resources>::GetObjectW(void)const __ptr64 
?GetObjectW@?$ILoader@VResources@Locale@@@@IEBAPEAVResources@Locale@@XZ
; public: unsigned long __cdecl CWSManResourceNoResourceUri::GetOptionCount(void)__ptr64 
?GetOptionCount@CWSManResourceNoResourceUri@@QEAAKXZ
; public: unsigned short const *__ptr64 *__ptr64 __cdecl CWSManResourceNoResourceUri::GetOptionTypes(void)__ptr64 
?GetOptionTypes@CWSManResourceNoResourceUri@@QEAAPEAPEBGXZ
; public: struct _WSMAN_OPTION *__ptr64 __cdecl CWSManResourceNoResourceUri::GetOptions(void)__ptr64 
?GetOptions@CWSManResourceNoResourceUri@@QEAAPEAU_WSMAN_OPTION@@XZ
; public: int __cdecl CWSManResourceNoResourceUri::GetOptionsMustUnderstandValue(void)__ptr64 
?GetOptionsMustUnderstandValue@CWSManResourceNoResourceUri@@QEAAHXZ
; public: void *__ptr64 __cdecl XmlReader::GetParser(void)__ptr64 
?GetParser@XmlReader@@QEAAPEAXXZ
; public: long __cdecl ILifeTimeMgmt::GetRefCount(void)__ptr64 
?GetRefCount@ILifeTimeMgmt@@QEAAJXZ
; public: virtual unsigned long __cdecl BufferFormatter::GetSpaceUsed(bool)const __ptr64 
?GetSpaceUsed@BufferFormatter@@UEBAK_N@Z
; public: int __cdecl CRequestContext::HasFaultXML(void)const __ptr64 
?HasFaultXML@CRequestContext@@QEBAHXZ
; private: int __cdecl CRequestContext::HasHtmlError(void)const __ptr64 
?HasHtmlError@CRequestContext@@AEBAHXZ
; public: virtual bool __cdecl <class Locale::Key,unsigned long,class <class Locale::Key,unsigned long>>::Initialize(class IRequestContext &__ptr64 )__ptr64 
?Initialize@?$SafeMap@VKey@Locale@@KV?$SafeMap_Iterator@VKey@Locale@@K@@@@UEAA_NAEAVIRequestContext@@@Z
; public: bool __cdecl ChildLifeTimeManager::IsActive(void)__ptr64 
?IsActive@ChildLifeTimeManager@@QEAA_NXZ
; public: int __cdecl CRequestContext::IsCIM_Error(void)__ptr64 
?IsCIM_Error@CRequestContext@@QEAAHXZ
; public: bool __cdecl <class Locale::Resources>::IsEmpty(void)const __ptr64 
?IsEmpty@?$ILoader@VResources@Locale@@@@QEBA_NXZ
; public: virtual bool __cdecl CErrorContext::IsGeneratingError(void)const __ptr64 
?IsGeneratingError@CErrorContext@@UEBA_NXZ
; public: bool __cdecl BufferFormatter::IsInCommitMode(void)__ptr64 
?IsInCommitMode@BufferFormatter@@QEAA_NXZ
; public: bool __cdecl <class Locale::Key,unsigned long>::IsValid(void)const __ptr64 
?IsValid@?$SafeMap_Iterator@VKey@Locale@@K@@QEBA_NXZ
; public: void __cdecl CRequestContext::LogErrorCode(void)__ptr64 
?LogErrorCode@CRequestContext@@QEAAXXZ
; private: class <unsigned short> &__ptr64 __cdecl <class <unsigned short>,unsigned short *__ptr64>::Me(void)__ptr64 
?Me@?$AutoCleanup@V?$AutoDelete@G@@PEAG@@AEAAAEAV?$AutoDelete@G@@XZ
; private: class <class Locale::Resources> &__ptr64 __cdecl <class <class Locale::Resources>,class Locale::Resources *__ptr64>::Me(void)__ptr64 
?Me@?$AutoCleanup@V?$AutoDelete@VResources@Locale@@@@PEAVResources@Locale@@@@AEAAAEAV?$AutoDelete@VResources@Locale@@@@XZ
; private: class <unsigned char> &__ptr64 __cdecl <class <unsigned char>,unsigned char *__ptr64>::Me(void)__ptr64 
?Me@?$AutoCleanup@V?$AutoDeleteVector@E@@PEAE@@AEAAAEAV?$AutoDeleteVector@E@@XZ
; private: class <unsigned short> &__ptr64 __cdecl <class <unsigned short>,unsigned short *__ptr64>::Me(void)__ptr64 
?Me@?$AutoCleanup@V?$AutoDeleteVector@G@@PEAG@@AEAAAEAV?$AutoDeleteVector@G@@XZ
; private: class <unsigned short const *__ptr64> &__ptr64 __cdecl <class <unsigned short const *__ptr64>,unsigned short const *__ptr64 *__ptr64>::Me(void)__ptr64 
?Me@?$AutoCleanup@V?$AutoDeleteVector@PEBG@@PEAPEBG@@AEAAAEAV?$AutoDeleteVector@PEBG@@XZ
; private: class <struct _WSMAN_OPTION> &__ptr64 __cdecl <class <struct _WSMAN_OPTION>,struct _WSMAN_OPTION *__ptr64>::Me(void)__ptr64 
?Me@?$AutoCleanup@V?$AutoDeleteVector@U_WSMAN_OPTION@@@@PEAU_WSMAN_OPTION@@@@AEAAAEAV?$AutoDeleteVector@U_WSMAN_OPTION@@@@XZ
; private: class <unsigned char> &__ptr64 __cdecl <class <unsigned char>,unsigned char *__ptr64>::Me(void)__ptr64 
?Me@?$AutoCleanup@V?$AutoFree@E@@PEAE@@AEAAAEAV?$AutoFree@E@@XZ
; private: class <class CRequestContext> &__ptr64 __cdecl <class <class CRequestContext>,class CRequestContext *__ptr64>::Me(void)__ptr64 
?Me@?$AutoCleanup@V?$AutoRelease@VCRequestContext@@@@PEAVCRequestContext@@@@AEAAAEAV?$AutoRelease@VCRequestContext@@@@XZ
; private: class <class CWSManSecurityUI> &__ptr64 __cdecl <class <class CWSManSecurityUI>,class CWSManSecurityUI *__ptr64>::Me(void)__ptr64 
?Me@?$AutoCleanup@V?$AutoRelease@VCWSManSecurityUI@@@@PEAVCWSManSecurityUI@@@@AEAAAEAV?$AutoRelease@VCWSManSecurityUI@@@@XZ
; private: class AutoBstr &__ptr64 __cdecl <class AutoBstr,unsigned short *__ptr64>::Me(void)__ptr64 
?Me@?$AutoCleanup@VAutoBstr@@PEAG@@AEAAAEAVAutoBstr@@XZ
; private: class AutoBstrNoAlloc &__ptr64 __cdecl <class AutoBstrNoAlloc,unsigned short *__ptr64>::Me(void)__ptr64 
?Me@?$AutoCleanup@VAutoBstrNoAlloc@@PEAG@@AEAAAEAVAutoBstrNoAlloc@@XZ
; private: class AutoCertContext &__ptr64 __cdecl <class AutoCertContext,struct _CERT_CONTEXT const *__ptr64>::Me(void)__ptr64 
?Me@?$AutoCleanup@VAutoCertContext@@PEBU_CERT_CONTEXT@@@@AEAAAEAVAutoCertContext@@XZ
; private: class AutoChainContext &__ptr64 __cdecl <class AutoChainContext,struct _CERT_CHAIN_CONTEXT const *__ptr64>::Me(void)__ptr64 
?Me@?$AutoCleanup@VAutoChainContext@@PEBU_CERT_CHAIN_CONTEXT@@@@AEAAAEAVAutoChainContext@@XZ
; private: class AutoCoTaskMemFree &__ptr64 __cdecl <class AutoCoTaskMemFree,void *__ptr64>::Me(void)__ptr64 
?Me@?$AutoCleanup@VAutoCoTaskMemFree@@PEAX@@AEAAAEAVAutoCoTaskMemFree@@XZ
; private: class AutoEnvironmentBlock &__ptr64 __cdecl <class AutoEnvironmentBlock,void *__ptr64>::Me(void)__ptr64 
?Me@?$AutoCleanup@VAutoEnvironmentBlock@@PEAX@@AEAAAEAVAutoEnvironmentBlock@@XZ
; private: class AutoFwXmlCloseParser &__ptr64 __cdecl <class AutoFwXmlCloseParser,void *__ptr64>::Me(void)__ptr64 
?Me@?$AutoCleanup@VAutoFwXmlCloseParser@@PEAX@@AEAAAEAVAutoFwXmlCloseParser@@XZ
; private: class AutoHandle &__ptr64 __cdecl <class AutoHandle,void *__ptr64>::Me(void)__ptr64 
?Me@?$AutoCleanup@VAutoHandle@@PEAX@@AEAAAEAVAutoHandle@@XZ
; private: class AutoImpersonateUser &__ptr64 __cdecl <class AutoImpersonateUser,void *__ptr64>::Me(void)__ptr64 
?Me@?$AutoCleanup@VAutoImpersonateUser@@PEAX@@AEAAAEAVAutoImpersonateUser@@XZ
; private: class AutoLibrary &__ptr64 __cdecl <class AutoLibrary,struct HINSTANCE__ *__ptr64>::Me(void)__ptr64 
?Me@?$AutoCleanup@VAutoLibrary@@PEAUHINSTANCE__@@@@AEAAAEAVAutoLibrary@@XZ
; private: class AutoLocalFree &__ptr64 __cdecl <class AutoLocalFree,void *__ptr64>::Me(void)__ptr64 
?Me@?$AutoCleanup@VAutoLocalFree@@PEAX@@AEAAAEAVAutoLocalFree@@XZ
; private: class AutoMIClass &__ptr64 __cdecl <class AutoMIClass,struct _MI_Class *__ptr64>::Me(void)__ptr64 
?Me@?$AutoCleanup@VAutoMIClass@@PEAU_MI_Class@@@@AEAAAEAVAutoMIClass@@XZ
; private: class AutoMIInstance &__ptr64 __cdecl <class AutoMIInstance,struct _MI_Instance *__ptr64>::Me(void)__ptr64 
?Me@?$AutoCleanup@VAutoMIInstance@@PEAU_MI_Instance@@@@AEAAAEAVAutoMIInstance@@XZ
; private: class AutoObject &__ptr64 __cdecl <class AutoObject,struct WSMAN_OBJECT *__ptr64>::Me(void)__ptr64 
?Me@?$AutoCleanup@VAutoObject@@PEAUWSMAN_OBJECT@@@@AEAAAEAVAutoObject@@XZ
; private: class AutoRegKey &__ptr64 __cdecl <class AutoRegKey,struct HKEY__ *__ptr64>::Me(void)__ptr64 
?Me@?$AutoCleanup@VAutoRegKey@@PEAUHKEY__@@@@AEAAAEAVAutoRegKey@@XZ
; private: class AutoSecurityDescriptor &__ptr64 __cdecl <class AutoSecurityDescriptor,void *__ptr64>::Me(void)__ptr64 
?Me@?$AutoCleanup@VAutoSecurityDescriptor@@PEAX@@AEAAAEAVAutoSecurityDescriptor@@XZ
; private: class AutoWaitHandle &__ptr64 __cdecl <class AutoWaitHandle,void *__ptr64>::Me(void)__ptr64 
?Me@?$AutoCleanup@VAutoWaitHandle@@PEAX@@AEAAAEAVAutoWaitHandle@@XZ
; public: virtual int __cdecl CErrorContext::Passed(void)const __ptr64 
?Passed@CErrorContext@@UEBAHXZ
; public: virtual unsigned long __cdecl CircularBufferFormatter::PrepareToCommitWithSize(unsigned long)__ptr64 
?PrepareToCommitWithSize@CircularBufferFormatter@@UEAAKK@Z
; public: int __cdecl CRequestContext::ProcessContext(int,struct _WSMAN_ENUMERATOR_RESULT *__ptr64)__ptr64 
?ProcessContext@CRequestContext@@QEAAHHPEAU_WSMAN_ENUMERATOR_RESULT@@@Z
; public: int __cdecl CRequestContext::ProcessContext(int,struct _WSMAN_EVENTS_RESULT *__ptr64)__ptr64 
?ProcessContext@CRequestContext@@QEAAHHPEAU_WSMAN_EVENTS_RESULT@@@Z
; public: int __cdecl CRequestContext::ProcessContext(int,struct _WSMAN_RESULT *__ptr64)__ptr64 
?ProcessContext@CRequestContext@@QEAAHHPEAU_WSMAN_RESULT@@@Z
; public: int __cdecl CRequestContext::ProcessContext(int,struct _WSMAN_STATUS *__ptr64)__ptr64 
?ProcessContext@CRequestContext@@QEAAHHPEAU_WSMAN_STATUS@@@Z
; public: virtual int __cdecl CErrorContext::ProviderFailure(void)const __ptr64 
?ProviderFailure@CErrorContext@@UEBAHXZ
; public: virtual void __cdecl CRequestContext::RecordAccessDenied(void)__ptr64 
?RecordAccessDenied@CRequestContext@@UEAAXXZ
; public: virtual void __cdecl CRequestContext::RecordFailure(unsigned long)__ptr64 
?RecordFailure@CRequestContext@@UEAAXK@Z
; public: int __cdecl CRequestContext::RecordHtmlError(unsigned long,struct _FWXML_ELEMENT *__ptr64)__ptr64 
?RecordHtmlError@CRequestContext@@QEAAHKPEAU_FWXML_ELEMENT@@@Z
; public: int __cdecl CRequestContext::RecordHtmlError(unsigned long,unsigned short const *__ptr64,unsigned long)__ptr64 
?RecordHtmlError@CRequestContext@@QEAAHKPEBGK@Z
; public: void __cdecl IRequestContext::RecordMIFailure(enum _MI_Result,unsigned long)__ptr64 
?RecordMIFailure@IRequestContext@@QEAAXW4_MI_Result@@K@Z
; public: virtual void __cdecl CRequestContext::RecordOutOfMemory(void)__ptr64 
?RecordOutOfMemory@CRequestContext@@UEAAXXZ
; public: void __cdecl CRequestContext::RecordProviderFailure(unsigned long,int,unsigned short const *__ptr64,unsigned short const *__ptr64,unsigned short const *__ptr64)__ptr64 
?RecordProviderFailure@CRequestContext@@QEAAXKHPEBG00@Z
; public: int __cdecl CRequestContext::RecordSoapError(unsigned long,struct _FWXML_ELEMENT *__ptr64)__ptr64 
?RecordSoapError@CRequestContext@@QEAAHKPEAU_FWXML_ELEMENT@@@Z
; public: virtual int __cdecl CRequestContext::RecordSoapError(unsigned long,unsigned short const *__ptr64)__ptr64 
?RecordSoapError@CRequestContext@@UEAAHKPEBG@Z
; public: bool __cdecl ChildLifeTimeManager::RegisterChild(void)__ptr64 
?RegisterChild@ChildLifeTimeManager@@QEAA_NXZ
; public: virtual void __cdecl <class Locale::Key,unsigned long,class <class Locale::Key,unsigned long>>::Release(void)const __ptr64 
?Release@?$SafeMap@VKey@Locale@@KV?$SafeMap_Iterator@VKey@Locale@@K@@@@UEBAXXZ
; public: virtual long __cdecl ILifeTimeMgmt::Release(void(__cdecl *)(void *__ptr64),void *__ptr64)__ptr64 
?Release@ILifeTimeMgmt@@UEAAJP6AXPEAX@Z0@Z
; public: void __cdecl FastLock::ReleaseExclusive(void)__ptr64 
?ReleaseExclusive@FastLock@@QEAAXXZ
; private: void __cdecl <class <unsigned short>,unsigned short *__ptr64>::ReleasePtr(void)__ptr64 
?ReleasePtr@?$AutoCleanup@V?$AutoDelete@G@@PEAG@@AEAAXXZ
; private: void __cdecl <class <class Locale::Resources>,class Locale::Resources *__ptr64>::ReleasePtr(void)__ptr64 
?ReleasePtr@?$AutoCleanup@V?$AutoDelete@VResources@Locale@@@@PEAVResources@Locale@@@@AEAAXXZ
; private: void __cdecl <class <unsigned char>,unsigned char *__ptr64>::ReleasePtr(void)__ptr64 
?ReleasePtr@?$AutoCleanup@V?$AutoDeleteVector@E@@PEAE@@AEAAXXZ
; private: void __cdecl <class <unsigned short>,unsigned short *__ptr64>::ReleasePtr(void)__ptr64 
?ReleasePtr@?$AutoCleanup@V?$AutoDeleteVector@G@@PEAG@@AEAAXXZ
; private: void __cdecl <class <unsigned short const *__ptr64>,unsigned short const *__ptr64 *__ptr64>::ReleasePtr(void)__ptr64 
?ReleasePtr@?$AutoCleanup@V?$AutoDeleteVector@PEBG@@PEAPEBG@@AEAAXXZ
; private: void __cdecl <class <struct _WSMAN_OPTION>,struct _WSMAN_OPTION *__ptr64>::ReleasePtr(void)__ptr64 
?ReleasePtr@?$AutoCleanup@V?$AutoDeleteVector@U_WSMAN_OPTION@@@@PEAU_WSMAN_OPTION@@@@AEAAXXZ
; private: void __cdecl <class <unsigned char>,unsigned char *__ptr64>::ReleasePtr(void)__ptr64 
?ReleasePtr@?$AutoCleanup@V?$AutoFree@E@@PEAE@@AEAAXXZ
; private: void __cdecl <class <class CRequestContext>,class CRequestContext *__ptr64>::ReleasePtr(void)__ptr64 
?ReleasePtr@?$AutoCleanup@V?$AutoRelease@VCRequestContext@@@@PEAVCRequestContext@@@@AEAAXXZ
; private: void __cdecl <class <class CWSManSecurityUI>,class CWSManSecurityUI *__ptr64>::ReleasePtr(void)__ptr64 
?ReleasePtr@?$AutoCleanup@V?$AutoRelease@VCWSManSecurityUI@@@@PEAVCWSManSecurityUI@@@@AEAAXXZ
; private: void __cdecl <class AutoBstr,unsigned short *__ptr64>::ReleasePtr(void)__ptr64 
?ReleasePtr@?$AutoCleanup@VAutoBstr@@PEAG@@AEAAXXZ
; private: void __cdecl <class AutoBstrNoAlloc,unsigned short *__ptr64>::ReleasePtr(void)__ptr64 
?ReleasePtr@?$AutoCleanup@VAutoBstrNoAlloc@@PEAG@@AEAAXXZ
; private: void __cdecl <class AutoCertContext,struct _CERT_CONTEXT const *__ptr64>::ReleasePtr(void)__ptr64 
?ReleasePtr@?$AutoCleanup@VAutoCertContext@@PEBU_CERT_CONTEXT@@@@AEAAXXZ
; private: void __cdecl <class AutoChainContext,struct _CERT_CHAIN_CONTEXT const *__ptr64>::ReleasePtr(void)__ptr64 
?ReleasePtr@?$AutoCleanup@VAutoChainContext@@PEBU_CERT_CHAIN_CONTEXT@@@@AEAAXXZ
; private: void __cdecl <class AutoCoTaskMemFree,void *__ptr64>::ReleasePtr(void)__ptr64 
?ReleasePtr@?$AutoCleanup@VAutoCoTaskMemFree@@PEAX@@AEAAXXZ
; private: void __cdecl <class AutoEnvironmentBlock,void *__ptr64>::ReleasePtr(void)__ptr64 
?ReleasePtr@?$AutoCleanup@VAutoEnvironmentBlock@@PEAX@@AEAAXXZ
; private: void __cdecl <class AutoFwXmlCloseParser,void *__ptr64>::ReleasePtr(void)__ptr64 
?ReleasePtr@?$AutoCleanup@VAutoFwXmlCloseParser@@PEAX@@AEAAXXZ
; private: void __cdecl <class AutoHandle,void *__ptr64>::ReleasePtr(void)__ptr64 
?ReleasePtr@?$AutoCleanup@VAutoHandle@@PEAX@@AEAAXXZ
; private: void __cdecl <class AutoImpersonateUser,void *__ptr64>::ReleasePtr(void)__ptr64 
?ReleasePtr@?$AutoCleanup@VAutoImpersonateUser@@PEAX@@AEAAXXZ
; private: void __cdecl <class AutoLibrary,struct HINSTANCE__ *__ptr64>::ReleasePtr(void)__ptr64 
?ReleasePtr@?$AutoCleanup@VAutoLibrary@@PEAUHINSTANCE__@@@@AEAAXXZ
; private: void __cdecl <class AutoLocalFree,void *__ptr64>::ReleasePtr(void)__ptr64 
?ReleasePtr@?$AutoCleanup@VAutoLocalFree@@PEAX@@AEAAXXZ
; private: void __cdecl <class AutoMIClass,struct _MI_Class *__ptr64>::ReleasePtr(void)__ptr64 
?ReleasePtr@?$AutoCleanup@VAutoMIClass@@PEAU_MI_Class@@@@AEAAXXZ
; private: void __cdecl <class AutoMIInstance,struct _MI_Instance *__ptr64>::ReleasePtr(void)__ptr64 
?ReleasePtr@?$AutoCleanup@VAutoMIInstance@@PEAU_MI_Instance@@@@AEAAXXZ
; private: void __cdecl <class AutoObject,struct WSMAN_OBJECT *__ptr64>::ReleasePtr(void)__ptr64 
?ReleasePtr@?$AutoCleanup@VAutoObject@@PEAUWSMAN_OBJECT@@@@AEAAXXZ
; private: void __cdecl <class AutoRegKey,struct HKEY__ *__ptr64>::ReleasePtr(void)__ptr64 
?ReleasePtr@?$AutoCleanup@VAutoRegKey@@PEAUHKEY__@@@@AEAAXXZ
; private: void __cdecl <class AutoSecurityDescriptor,void *__ptr64>::ReleasePtr(void)__ptr64 
?ReleasePtr@?$AutoCleanup@VAutoSecurityDescriptor@@PEAX@@AEAAXXZ
; private: void __cdecl <class AutoWaitHandle,void *__ptr64>::ReleasePtr(void)__ptr64 
?ReleasePtr@?$AutoCleanup@VAutoWaitHandle@@PEAX@@AEAAXXZ
; public: void __cdecl FastLock::ReleaseShared(void)__ptr64 
?ReleaseShared@FastLock@@QEAAXXZ
; public: void __cdecl <class Locale::Key,unsigned long>::Reset(void)__ptr64 
?Reset@?$SafeMap_Iterator@VKey@Locale@@K@@QEAAXXZ
; public: virtual void __cdecl BufferFormatter::Reset(void)__ptr64 
?Reset@BufferFormatter@@UEAAXXZ
; public: virtual void __cdecl CircularBufferFormatter::Reset(void)__ptr64 
?Reset@CircularBufferFormatter@@UEAAXXZ
; public: virtual void __cdecl CErrorContext::SetCIM_Error(void)__ptr64 
?SetCIM_Error@CErrorContext@@UEAAXXZ
; public: virtual void __cdecl CRequestContext::SetCIM_Error(void)__ptr64 
?SetCIM_Error@CRequestContext@@UEAAXXZ
; public: void __cdecl CErrorContext::SetExtraLogInfo(unsigned short const *__ptr64,unsigned short const *__ptr64,unsigned short const *__ptr64,unsigned short const *__ptr64)__ptr64 
?SetExtraLogInfo@CErrorContext@@QEAAXPEBG000@Z
; public: void __cdecl BufferFormatter::SetFormatterMode(enum PacketFormatter::Charset,enum PacketFormatter::Charset)__ptr64 
?SetFormatterMode@BufferFormatter@@QEAAXW4Charset@PacketFormatter@@0@Z
; public: virtual void __cdecl CErrorContext::SetGeneratingError(void)__ptr64 
?SetGeneratingError@CErrorContext@@UEAAXXZ
; public: bool __cdecl CRequestContext::SetLocale(unsigned short const *__ptr64,unsigned long)__ptr64 
?SetLocale@CRequestContext@@QEAA_NPEBGK@Z
; public: unsigned long __cdecl CRequestContext::SetMachineName(unsigned short const *__ptr64)__ptr64 
?SetMachineName@CRequestContext@@QEAAKPEBG@Z
; public: void __cdecl CircularBufferFormatter::SetMaxEnvelopeSize(unsigned long)__ptr64 
?SetMaxEnvelopeSize@CircularBufferFormatter@@QEAAXK@Z
; public: void __cdecl CWSManResourceNoResourceUri::SetOptionsMustUnderstandValue(int)__ptr64 
?SetOptionsMustUnderstandValue@CWSManResourceNoResourceUri@@QEAAXH@Z
; public: virtual void __cdecl BufferFormatter::SetUpdateMode(enum BufferFormatter::Mode)__ptr64 
?SetUpdateMode@BufferFormatter@@UEAAXW4Mode@1@@Z
; public: virtual void __cdecl CircularBufferFormatter::SetUpdateMode(enum BufferFormatter::Mode)__ptr64 
?SetUpdateMode@CircularBufferFormatter@@UEAAXW4Mode@BufferFormatter@@@Z
; public: void __cdecl ChildLifeTimeManager::Shutdown(void)__ptr64 
?Shutdown@ChildLifeTimeManager@@QEAAXXZ
; protected: void __cdecl <class Locale::Key,unsigned long>::SkipOrphans(void)__ptr64 
?SkipOrphans@?$SafeMap_Iterator@VKey@Locale@@K@@IEAAXXZ
; public: void __cdecl ChildLifeTimeManager::UnregisterChild(void)__ptr64 
?UnregisterChild@ChildLifeTimeManager@@QEAAXXZ
; public: virtual int __cdecl CErrorContext::UseDefaultConfig(void)const __ptr64 
?UseDefaultConfig@CErrorContext@@UEBAHXZ
; public: bool __cdecl Locale::UsingDefaultLCID(void)__ptr64 
?UsingDefaultLCID@Locale@@QEAA_NXZ
; public: void __cdecl ChildLifeTimeManager::WaitForAllChildrenToUnregister(unsigned long)__ptr64 
?WaitForAllChildrenToUnregister@ChildLifeTimeManager@@QEAAXK@Z
; private: void __cdecl ChildLifeTimeManager::WakeAllWaitingOnNoOfChildren(void)__ptr64 
?WakeAllWaitingOnNoOfChildren@ChildLifeTimeManager@@AEAAXXZ
; public: bool __cdecl <union _LARGE_INTEGER>::empty(void)const __ptr64 
?empty@?$SimpleQueue@T_LARGE_INTEGER@@@@QEBA_NXZ
; public: void __cdecl <union _LARGE_INTEGER>::pop(void)__ptr64 
?pop@?$SimpleQueue@T_LARGE_INTEGER@@@@QEAAXXZ
DllCanUnloadNow
DllGetClassObject
DllRegisterServer
DllUnregisterServer
