;
; Definition file of WsmSvc.DLL
; Automatic generated by gendef
; written by Kai Tietz 2008
;
LIBRARY "WsmSvc.DLL"
EXPORTS
; public: __cdecl <class <char>,char *__ptr64>::<class <char>,char *__ptr64>(char *__ptr64)__ptr64 
??0?$AutoCleanup@V?$AutoDelete@D@@PEAD@@QEAA@PEAD@Z
; public: __cdecl <class <unsigned short>,unsigned short *__ptr64>::<class <unsigned short>,unsigned short *__ptr64>(unsigned short *__ptr64)__ptr64 
??0?$AutoCleanup@V?$AutoDelete@G@@PEAG@@QEAA@PEAG@Z
; public: __cdecl <class <struct CWSManIPFilter::IPRange>,struct CWSManIPFilter::IPRange *__ptr64>::<class <struct CWSManIPFilter::IPRange>,struct CWSManIPFilter::IPRange *__ptr64>(struct CWSManIPFilter::IPRange *__ptr64)__ptr64 
??0?$AutoCleanup@V?$AutoDelete@UIPRange@CWSManIPFilter@@@@PEAUIPRange@CWSManIPFilter@@@@QEAA@PEAUIPRange@CWSManIPFilter@@@Z
; public: __cdecl <class <struct _SID>,struct _SID *__ptr64>::<class <struct _SID>,struct _SID *__ptr64>(struct _SID *__ptr64)__ptr64 
??0?$AutoCleanup@V?$AutoDelete@U_SID@@@@PEAU_SID@@@@QEAA@PEAU_SID@@@Z
; public: __cdecl <class <struct _WSMAN_STREAM_ID_SET>,struct _WSMAN_STREAM_ID_SET *__ptr64>::<class <struct _WSMAN_STREAM_ID_SET>,struct _WSMAN_STREAM_ID_SET *__ptr64>(struct _WSMAN_STREAM_ID_SET *__ptr64)__ptr64 
??0?$AutoCleanup@V?$AutoDelete@U_WSMAN_STREAM_ID_SET@@@@PEAU_WSMAN_STREAM_ID_SET@@@@QEAA@PEAU_WSMAN_STREAM_ID_SET@@@Z
; public: __cdecl <class <class <class ISubscription>>,class <class ISubscription> *__ptr64>::<class <class <class ISubscription>>,class <class ISubscription> *__ptr64>(class <class ISubscription> *__ptr64)__ptr64 
??0?$AutoCleanup@V?$AutoDelete@V?$Handle@VISubscription@@@@@@PEAV?$Handle@VISubscription@@@@@@QEAA@PEAV?$Handle@VISubscription@@@@@Z
; public: __cdecl <class <class <class StringKeyCI,unsigned long>>,class <class StringKeyCI,unsigned long> *__ptr64>::<class <class <class StringKeyCI,unsigned long>>,class <class StringKeyCI,unsigned long> *__ptr64>(class <class StringKeyCI,unsigned long> *__ptr64)__ptr64 
??0?$AutoCleanup@V?$AutoDelete@V?$SafeMap_Iterator@VStringKeyCI@@K@@@@PEAV?$SafeMap_Iterator@VStringKeyCI@@K@@@@QEAA@PEAV?$SafeMap_Iterator@VStringKeyCI@@K@@@Z
; public: __cdecl <class <class <enum WSManSessionOption,class WSMan::Client::SessionOptions::OptionValue *__ptr64>>,class <enum WSManSessionOption,class WSMan::Client::SessionOptions::OptionValue *__ptr64> *__ptr64>::<class <class <enum WSManSessionOption,class WSMan::Client::SessionOptions::OptionValue *__ptr64>>,class <enum WSManSessionOption,class WSMan::Client::SessionOptions::OptionValue *__ptr64> *__ptr64>(class <enum WSManSessionOption,class WSMan::Client::SessionOptions::OptionValue *__ptr64> *__ptr64)__ptr64 
??0?$AutoCleanup@V?$AutoDelete@V?$SafeMap_Iterator@W4WSManSessionOption@@PEAVOptionValue@SessionOptions@Client@WSMan@@@@@@PEAV?$SafeMap_Iterator@W4WSManSessionOption@@PEAVOptionValue@SessionOptions@Client@WSMan@@@@@@QEAA@PEAV?$SafeMap_Iterator@W4WSManSessionOption@@PEAVOptionValue@SessionOptions@Client@WSMan@@@@@Z
; public: __cdecl <class <class <class CCertMapping *__ptr64>>,class <class CCertMapping *__ptr64> *__ptr64>::<class <class <class CCertMapping *__ptr64>>,class <class CCertMapping *__ptr64> *__ptr64>(class <class CCertMapping *__ptr64> *__ptr64)__ptr64 
??0?$AutoCleanup@V?$AutoDelete@V?$SafeSet@PEAVCCertMapping@@@@@@PEAV?$SafeSet@PEAVCCertMapping@@@@@@QEAA@PEAV?$SafeSet@PEAVCCertMapping@@@@@Z
; public: __cdecl <class <class <class CShellUriSettings *__ptr64>>,class <class CShellUriSettings *__ptr64> *__ptr64>::<class <class <class CShellUriSettings *__ptr64>>,class <class CShellUriSettings *__ptr64> *__ptr64>(class <class CShellUriSettings *__ptr64> *__ptr64)__ptr64 
??0?$AutoCleanup@V?$AutoDelete@V?$SafeSet@PEAVCShellUriSettings@@@@@@PEAV?$SafeSet@PEAVCShellUriSettings@@@@@@QEAA@PEAV?$SafeSet@PEAVCShellUriSettings@@@@@Z
; public: __cdecl <class <class <class CListenerOperation *__ptr64>>,class <class CListenerOperation *__ptr64> *__ptr64>::<class <class <class CListenerOperation *__ptr64>>,class <class CListenerOperation *__ptr64> *__ptr64>(class <class CListenerOperation *__ptr64> *__ptr64)__ptr64 
??0?$AutoCleanup@V?$AutoDelete@V?$SafeSet_Iterator@PEAVCListenerOperation@@@@@@PEAV?$SafeSet_Iterator@PEAVCListenerOperation@@@@@@QEAA@PEAV?$SafeSet_Iterator@PEAVCListenerOperation@@@@@Z
; public: __cdecl <class <class <class CListenerOperation>>,class <class CListenerOperation> *__ptr64>::<class <class <class CListenerOperation>>,class <class CListenerOperation> *__ptr64>(class <class CListenerOperation> *__ptr64)__ptr64 
??0?$AutoCleanup@V?$AutoDelete@V?$SimpleStack@VCListenerOperation@@@@@@PEAV?$SimpleStack@VCListenerOperation@@@@@@QEAA@PEAV?$SimpleStack@VCListenerOperation@@@@@Z
; public: __cdecl <class <class <class ShellHostEntry>>,class <class ShellHostEntry> *__ptr64>::<class <class <class ShellHostEntry>>,class <class ShellHostEntry> *__ptr64>(class <class ShellHostEntry> *__ptr64)__ptr64 
??0?$AutoCleanup@V?$AutoDelete@V?$SimpleStack@VShellHostEntry@@@@@@PEAV?$SimpleStack@VShellHostEntry@@@@@@QEAA@PEAV?$SimpleStack@VShellHostEntry@@@@@Z
; public: __cdecl <class <class std::<class CListenerSettings *__ptr64,class CServiceConfigSettings::CListenerSettingsLessFunctor,class <class CListenerSettings *__ptr64>>>,class std::<class CListenerSettings *__ptr64,class CServiceConfigSettings::CListenerSettingsLessFunctor,class <class CListenerSettings *__ptr64>> *__ptr64>::<class <class std::<class CListenerSettings *__ptr64,class CServiceConfigSettings::CListenerSettingsLessFunctor,class <class CListenerSettings *__ptr64>>>,class std::<class CListenerSettings *__ptr64,class CServiceConfigSettings::CListenerSettingsLessFunctor,class <class CListenerSettings *__ptr64>> *__ptr64>(class std::<class CListenerSettings *__ptr64,class CServiceConfigSettings::CListenerSettingsLessFunctor,class <class CListenerSettings *__ptr64>> *__ptr64)__ptr64 
??0?$AutoCleanup@V?$AutoDelete@V?$set@PEAVCListenerSettings@@VCListenerSettingsLessFunctor@CServiceConfigSettings@@V?$transport_allocator@PEAVCListenerSettings@@@@@std@@@@PEAV?$set@PEAVCListenerSettings@@VCListenerSettingsLessFunctor@CServiceConfigSettings@@V?$transport_allocator@PEAVCListenerSettings@@@@@std@@@@QEAA@PEAV?$set@PEAVCListenerSettings@@VCListenerSettingsLessFunctor@CServiceConfigSettings@@V?$transport_allocator@PEAVCListenerSettings@@@@@std@@@Z
; public: __cdecl <class <class std::<struct sockaddr_storage,class CListenerSettings::SockAddrLessFunctor,class <struct sockaddr_storage>>>,class std::<struct sockaddr_storage,class CListenerSettings::SockAddrLessFunctor,class <struct sockaddr_storage>> *__ptr64>::<class <class std::<struct sockaddr_storage,class CListenerSettings::SockAddrLessFunctor,class <struct sockaddr_storage>>>,class std::<struct sockaddr_storage,class CListenerSettings::SockAddrLessFunctor,class <struct sockaddr_storage>> *__ptr64>(class std::<struct sockaddr_storage,class CListenerSettings::SockAddrLessFunctor,class <struct sockaddr_storage>> *__ptr64)__ptr64 
??0?$AutoCleanup@V?$AutoDelete@V?$set@Usockaddr_storage@@VSockAddrLessFunctor@CListenerSettings@@V?$transport_allocator@Usockaddr_storage@@@@@std@@@@PEAV?$set@Usockaddr_storage@@VSockAddrLessFunctor@CListenerSettings@@V?$transport_allocator@Usockaddr_storage@@@@@std@@@@QEAA@PEAV?$set@Usockaddr_storage@@VSockAddrLessFunctor@CListenerSettings@@V?$transport_allocator@Usockaddr_storage@@@@@std@@@Z
; public: __cdecl <class <class std::<class WSMan::Client::HandleImpl *__ptr64,class <class WSMan::Client::HandleImpl *__ptr64>>>,class std::<class WSMan::Client::HandleImpl *__ptr64,class <class WSMan::Client::HandleImpl *__ptr64>> *__ptr64>::<class <class std::<class WSMan::Client::HandleImpl *__ptr64,class <class WSMan::Client::HandleImpl *__ptr64>>>,class std::<class WSMan::Client::HandleImpl *__ptr64,class <class WSMan::Client::HandleImpl *__ptr64>> *__ptr64>(class std::<class WSMan::Client::HandleImpl *__ptr64,class <class WSMan::Client::HandleImpl *__ptr64>> *__ptr64)__ptr64 
??0?$AutoCleanup@V?$AutoDelete@V?$vector@PEAVHandleImpl@Client@WSMan@@V?$transport_allocator@PEAVHandleImpl@Client@WSMan@@@@@std@@@@PEAV?$vector@PEAVHandleImpl@Client@WSMan@@V?$transport_allocator@PEAVHandleImpl@Client@WSMan@@@@@std@@@@QEAA@PEAV?$vector@PEAVHandleImpl@Client@WSMan@@V?$transport_allocator@PEAVHandleImpl@Client@WSMan@@@@@std@@@Z
; public: __cdecl <class <class std::<class IServiceConfigObserver *__ptr64,class <class IServiceConfigObserver *__ptr64>>>,class std::<class IServiceConfigObserver *__ptr64,class <class IServiceConfigObserver *__ptr64>> *__ptr64>::<class <class std::<class IServiceConfigObserver *__ptr64,class <class IServiceConfigObserver *__ptr64>>>,class std::<class IServiceConfigObserver *__ptr64,class <class IServiceConfigObserver *__ptr64>> *__ptr64>(class std::<class IServiceConfigObserver *__ptr64,class <class IServiceConfigObserver *__ptr64>> *__ptr64)__ptr64 
??0?$AutoCleanup@V?$AutoDelete@V?$vector@PEAVIServiceConfigObserver@@V?$transport_allocator@PEAVIServiceConfigObserver@@@@@std@@@@PEAV?$vector@PEAVIServiceConfigObserver@@V?$transport_allocator@PEAVIServiceConfigObserver@@@@@std@@@@QEAA@PEAV?$vector@PEAVIServiceConfigObserver@@V?$transport_allocator@PEAVIServiceConfigObserver@@@@@std@@@Z
; public: __cdecl <class <class CSecurity::AdminSid>,class CSecurity::AdminSid *__ptr64>::<class <class CSecurity::AdminSid>,class CSecurity::AdminSid *__ptr64>(class CSecurity::AdminSid *__ptr64)__ptr64 
??0?$AutoCleanup@V?$AutoDelete@VAdminSid@CSecurity@@@@PEAVAdminSid@CSecurity@@@@QEAA@PEAVAdminSid@CSecurity@@@Z
; public: __cdecl <class <class BlockedRecord>,class BlockedRecord *__ptr64>::<class <class BlockedRecord>,class BlockedRecord *__ptr64>(class BlockedRecord *__ptr64)__ptr64 
??0?$AutoCleanup@V?$AutoDelete@VBlockedRecord@@@@PEAVBlockedRecord@@@@QEAA@PEAVBlockedRecord@@@Z
; public: __cdecl <class <class CBaseConfigCache>,class CBaseConfigCache *__ptr64>::<class <class CBaseConfigCache>,class CBaseConfigCache *__ptr64>(class CBaseConfigCache *__ptr64)__ptr64 
??0?$AutoCleanup@V?$AutoDelete@VCBaseConfigCache@@@@PEAVCBaseConfigCache@@@@QEAA@PEAVCBaseConfigCache@@@Z
; public: __cdecl <class <class CCertMapping>,class CCertMapping *__ptr64>::<class <class CCertMapping>,class CCertMapping *__ptr64>(class CCertMapping *__ptr64)__ptr64 
??0?$AutoCleanup@V?$AutoDelete@VCCertMapping@@@@PEAVCCertMapping@@@@QEAA@PEAVCCertMapping@@@Z
; public: __cdecl <class <class CConfigChangeSource>,class CConfigChangeSource *__ptr64>::<class <class CConfigChangeSource>,class CConfigChangeSource *__ptr64>(class CConfigChangeSource *__ptr64)__ptr64 
??0?$AutoCleanup@V?$AutoDelete@VCConfigChangeSource@@@@PEAVCConfigChangeSource@@@@QEAA@PEAVCConfigChangeSource@@@Z
; public: __cdecl <class <class CListenerSettings>,class CListenerSettings *__ptr64>::<class <class CListenerSettings>,class CListenerSettings *__ptr64>(class CListenerSettings *__ptr64)__ptr64 
??0?$AutoCleanup@V?$AutoDelete@VCListenerSettings@@@@PEAVCListenerSettings@@@@QEAA@PEAVCListenerSettings@@@Z
; public: __cdecl <class <class CObserverConfigChangeErrors>,class CObserverConfigChangeErrors *__ptr64>::<class <class CObserverConfigChangeErrors>,class CObserverConfigChangeErrors *__ptr64>(class CObserverConfigChangeErrors *__ptr64)__ptr64 
??0?$AutoCleanup@V?$AutoDelete@VCObserverConfigChangeErrors@@@@PEAVCObserverConfigChangeErrors@@@@QEAA@PEAVCObserverConfigChangeErrors@@@Z
; public: __cdecl <class <class CServiceConfigCache::CServiceWatcher>,class CServiceConfigCache::CServiceWatcher *__ptr64>::<class <class CServiceConfigCache::CServiceWatcher>,class CServiceConfigCache::CServiceWatcher *__ptr64>(class CServiceConfigCache::CServiceWatcher *__ptr64)__ptr64 
??0?$AutoCleanup@V?$AutoDelete@VCServiceWatcher@CServiceConfigCache@@@@PEAVCServiceWatcher@CServiceConfigCache@@@@QEAA@PEAVCServiceWatcher@CServiceConfigCache@@@Z
; public: __cdecl <class <class CShellUriSettings>,class CShellUriSettings *__ptr64>::<class <class CShellUriSettings>,class CShellUriSettings *__ptr64>(class CShellUriSettings *__ptr64)__ptr64 
??0?$AutoCleanup@V?$AutoDelete@VCShellUriSettings@@@@PEAVCShellUriSettings@@@@QEAA@PEAVCShellUriSettings@@@Z
; public: __cdecl <class <class CWSManEPR>,class CWSManEPR *__ptr64>::<class <class CWSManEPR>,class CWSManEPR *__ptr64>(class CWSManEPR *__ptr64)__ptr64 
??0?$AutoCleanup@V?$AutoDelete@VCWSManEPR@@@@PEAVCWSManEPR@@@@QEAA@PEAVCWSManEPR@@@Z
; public: __cdecl <class <class CWSManResource>,class CWSManResource *__ptr64>::<class <class CWSManResource>,class CWSManResource *__ptr64>(class CWSManResource *__ptr64)__ptr64 
??0?$AutoCleanup@V?$AutoDelete@VCWSManResource@@@@PEAVCWSManResource@@@@QEAA@PEAVCWSManResource@@@Z
; public: __cdecl <class <class CertHash>,class CertHash *__ptr64>::<class <class CertHash>,class CertHash *__ptr64>(class CertHash *__ptr64)__ptr64 
??0?$AutoCleanup@V?$AutoDelete@VCertHash@@@@PEAVCertHash@@@@QEAA@PEAVCertHash@@@Z
; public: __cdecl <class <class ConfigUpdate>,class ConfigUpdate *__ptr64>::<class <class ConfigUpdate>,class ConfigUpdate *__ptr64>(class ConfigUpdate *__ptr64)__ptr64 
??0?$AutoCleanup@V?$AutoDelete@VConfigUpdate@@@@PEAVConfigUpdate@@@@QEAA@PEAVConfigUpdate@@@Z
; public: __cdecl <class <class CredUIDllLoader>,class CredUIDllLoader *__ptr64>::<class <class CredUIDllLoader>,class CredUIDllLoader *__ptr64>(class CredUIDllLoader *__ptr64)__ptr64 
??0?$AutoCleanup@V?$AutoDelete@VCredUIDllLoader@@@@PEAVCredUIDllLoader@@@@QEAA@PEAVCredUIDllLoader@@@Z
; public: __cdecl <class <class EnumSinkEx>,class EnumSinkEx *__ptr64>::<class <class EnumSinkEx>,class EnumSinkEx *__ptr64>(class EnumSinkEx *__ptr64)__ptr64 
??0?$AutoCleanup@V?$AutoDelete@VEnumSinkEx@@@@PEAVEnumSinkEx@@@@QEAA@PEAVEnumSinkEx@@@Z
; public: __cdecl <class <class EnumSinkEx>,class EnumSinkEx *__ptr64>::<class <class EnumSinkEx>,class EnumSinkEx *__ptr64>(void)__ptr64 
??0?$AutoCleanup@V?$AutoDelete@VEnumSinkEx@@@@PEAVEnumSinkEx@@@@QEAA@XZ
; public: __cdecl <class <class WSMan::EventHandler>,class WSMan::EventHandler *__ptr64>::<class <class WSMan::EventHandler>,class WSMan::EventHandler *__ptr64>(class WSMan::EventHandler *__ptr64)__ptr64 
??0?$AutoCleanup@V?$AutoDelete@VEventHandler@WSMan@@@@PEAVEventHandler@WSMan@@@@QEAA@PEAVEventHandler@WSMan@@@Z
; public: __cdecl <class <class ExpiredOperationIdRecord>,class ExpiredOperationIdRecord *__ptr64>::<class <class ExpiredOperationIdRecord>,class ExpiredOperationIdRecord *__ptr64>(class ExpiredOperationIdRecord *__ptr64)__ptr64 
??0?$AutoCleanup@V?$AutoDelete@VExpiredOperationIdRecord@@@@PEAVExpiredOperationIdRecord@@@@QEAA@PEAVExpiredOperationIdRecord@@@Z
; public: __cdecl <class <class GPApiManager>,class GPApiManager *__ptr64>::<class <class GPApiManager>,class GPApiManager *__ptr64>(class GPApiManager *__ptr64)__ptr64 
??0?$AutoCleanup@V?$AutoDelete@VGPApiManager@@@@PEAVGPApiManager@@@@QEAA@PEAVGPApiManager@@@Z
; public: __cdecl <class <class GeneralSinkEx>,class GeneralSinkEx *__ptr64>::<class <class GeneralSinkEx>,class GeneralSinkEx *__ptr64>(class GeneralSinkEx *__ptr64)__ptr64 
??0?$AutoCleanup@V?$AutoDelete@VGeneralSinkEx@@@@PEAVGeneralSinkEx@@@@QEAA@PEAVGeneralSinkEx@@@Z
; public: __cdecl <class <class GeneralSinkEx>,class GeneralSinkEx *__ptr64>::<class <class GeneralSinkEx>,class GeneralSinkEx *__ptr64>(void)__ptr64 
??0?$AutoCleanup@V?$AutoDelete@VGeneralSinkEx@@@@PEAVGeneralSinkEx@@@@QEAA@XZ
; public: __cdecl <class <class IChannelObserverFactory>,class IChannelObserverFactory *__ptr64>::<class <class IChannelObserverFactory>,class IChannelObserverFactory *__ptr64>(class IChannelObserverFactory *__ptr64)__ptr64 
??0?$AutoCleanup@V?$AutoDelete@VIChannelObserverFactory@@@@PEAVIChannelObserverFactory@@@@QEAA@PEAVIChannelObserverFactory@@@Z
; public: __cdecl <class <class IQueryDASHSMASHInterface>,class IQueryDASHSMASHInterface *__ptr64>::<class <class IQueryDASHSMASHInterface>,class IQueryDASHSMASHInterface *__ptr64>(class IQueryDASHSMASHInterface *__ptr64)__ptr64 
??0?$AutoCleanup@V?$AutoDelete@VIQueryDASHSMASHInterface@@@@PEAVIQueryDASHSMASHInterface@@@@QEAA@PEAVIQueryDASHSMASHInterface@@@Z
; public: __cdecl <class <class IQueryDASHSMASHInterface>,class IQueryDASHSMASHInterface *__ptr64>::<class <class IQueryDASHSMASHInterface>,class IQueryDASHSMASHInterface *__ptr64>(void)__ptr64 
??0?$AutoCleanup@V?$AutoDelete@VIQueryDASHSMASHInterface@@@@PEAVIQueryDASHSMASHInterface@@@@QEAA@XZ
; public: __cdecl <class <class ISpecification>,class ISpecification *__ptr64>::<class <class ISpecification>,class ISpecification *__ptr64>(class ISpecification *__ptr64)__ptr64 
??0?$AutoCleanup@V?$AutoDelete@VISpecification@@@@PEAVISpecification@@@@QEAA@PEAVISpecification@@@Z
; public: __cdecl <class <class ISpecification>,class ISpecification *__ptr64>::<class <class ISpecification>,class ISpecification *__ptr64>(void)__ptr64 
??0?$AutoCleanup@V?$AutoDelete@VISpecification@@@@PEAVISpecification@@@@QEAA@XZ
; public: __cdecl <class <class CSecurity::InteractiveSid>,class CSecurity::InteractiveSid *__ptr64>::<class <class CSecurity::InteractiveSid>,class CSecurity::InteractiveSid *__ptr64>(class CSecurity::InteractiveSid *__ptr64)__ptr64 
??0?$AutoCleanup@V?$AutoDelete@VInteractiveSid@CSecurity@@@@PEAVInteractiveSid@CSecurity@@@@QEAA@PEAVInteractiveSid@CSecurity@@@Z
; public: __cdecl <class <class IpHlpApiDllLoader>,class IpHlpApiDllLoader *__ptr64>::<class <class IpHlpApiDllLoader>,class IpHlpApiDllLoader *__ptr64>(class IpHlpApiDllLoader *__ptr64)__ptr64 
??0?$AutoCleanup@V?$AutoDelete@VIpHlpApiDllLoader@@@@PEAVIpHlpApiDllLoader@@@@QEAA@PEAVIpHlpApiDllLoader@@@Z
; public: __cdecl <class <class MachineName>,class MachineName *__ptr64>::<class <class MachineName>,class MachineName *__ptr64>(class MachineName *__ptr64)__ptr64 
??0?$AutoCleanup@V?$AutoDelete@VMachineName@@@@PEAVMachineName@@@@QEAA@PEAVMachineName@@@Z
; public: __cdecl <class <class CSecurity::NetworkServiceSid>,class CSecurity::NetworkServiceSid *__ptr64>::<class <class CSecurity::NetworkServiceSid>,class CSecurity::NetworkServiceSid *__ptr64>(class CSecurity::NetworkServiceSid *__ptr64)__ptr64 
??0?$AutoCleanup@V?$AutoDelete@VNetworkServiceSid@CSecurity@@@@PEAVNetworkServiceSid@CSecurity@@@@QEAA@PEAVNetworkServiceSid@CSecurity@@@Z
; public: __cdecl <class <class NtDsApiDllLoader>,class NtDsApiDllLoader *__ptr64>::<class <class NtDsApiDllLoader>,class NtDsApiDllLoader *__ptr64>(class NtDsApiDllLoader *__ptr64)__ptr64 
??0?$AutoCleanup@V?$AutoDelete@VNtDsApiDllLoader@@@@PEAVNtDsApiDllLoader@@@@QEAA@PEAVNtDsApiDllLoader@@@Z
; public: __cdecl <class <class WSMan::Client::SessionOptions::OptionValue>,class WSMan::Client::SessionOptions::OptionValue *__ptr64>::<class <class WSMan::Client::SessionOptions::OptionValue>,class WSMan::Client::SessionOptions::OptionValue *__ptr64>(class WSMan::Client::SessionOptions::OptionValue *__ptr64)__ptr64 
??0?$AutoCleanup@V?$AutoDelete@VOptionValue@SessionOptions@Client@WSMan@@@@PEAVOptionValue@SessionOptions@Client@WSMan@@@@QEAA@PEAVOptionValue@SessionOptions@Client@WSMan@@@Z
; public: __cdecl <class <class PacketCreator>,class PacketCreator *__ptr64>::<class <class PacketCreator>,class PacketCreator *__ptr64>(class PacketCreator *__ptr64)__ptr64 
??0?$AutoCleanup@V?$AutoDelete@VPacketCreator@@@@PEAVPacketCreator@@@@QEAA@PEAVPacketCreator@@@Z
; public: __cdecl <class <class PacketParser>,class PacketParser *__ptr64>::<class <class PacketParser>,class PacketParser *__ptr64>(class PacketParser *__ptr64)__ptr64 
??0?$AutoCleanup@V?$AutoDelete@VPacketParser@@@@PEAVPacketParser@@@@QEAA@PEAVPacketParser@@@Z
; public: __cdecl <class <class Locale::Resources>,class Locale::Resources *__ptr64>::<class <class Locale::Resources>,class Locale::Resources *__ptr64>(class Locale::Resources *__ptr64)__ptr64 
??0?$AutoCleanup@V?$AutoDelete@VResources@Locale@@@@PEAVResources@Locale@@@@QEAA@PEAVResources@Locale@@@Z
; public: __cdecl <class <class RunAsConfiguration>,class RunAsConfiguration *__ptr64>::<class <class RunAsConfiguration>,class RunAsConfiguration *__ptr64>(class RunAsConfiguration *__ptr64)__ptr64 
??0?$AutoCleanup@V?$AutoDelete@VRunAsConfiguration@@@@PEAVRunAsConfiguration@@@@QEAA@PEAVRunAsConfiguration@@@Z
; public: __cdecl <class <class Catalog::SecurityEntry>,class Catalog::SecurityEntry *__ptr64>::<class <class Catalog::SecurityEntry>,class Catalog::SecurityEntry *__ptr64>(class Catalog::SecurityEntry *__ptr64)__ptr64 
??0?$AutoCleanup@V?$AutoDelete@VSecurityEntry@Catalog@@@@PEAVSecurityEntry@Catalog@@@@QEAA@PEAVSecurityEntry@Catalog@@@Z
; public: __cdecl <class <class RobustConnectionBuffer::SendPacketArgs>,class RobustConnectionBuffer::SendPacketArgs *__ptr64>::<class <class RobustConnectionBuffer::SendPacketArgs>,class RobustConnectionBuffer::SendPacketArgs *__ptr64>(class RobustConnectionBuffer::SendPacketArgs *__ptr64)__ptr64 
??0?$AutoCleanup@V?$AutoDelete@VSendPacketArgs@RobustConnectionBuffer@@@@PEAVSendPacketArgs@RobustConnectionBuffer@@@@QEAA@PEAVSendPacketArgs@RobustConnectionBuffer@@@Z
; public: __cdecl <class <class ServiceSoapProcessor>,class ServiceSoapProcessor *__ptr64>::<class <class ServiceSoapProcessor>,class ServiceSoapProcessor *__ptr64>(class ServiceSoapProcessor *__ptr64)__ptr64 
??0?$AutoCleanup@V?$AutoDelete@VServiceSoapProcessor@@@@PEAVServiceSoapProcessor@@@@QEAA@PEAVServiceSoapProcessor@@@Z
; public: __cdecl <class <class Shell32DllLoader>,class Shell32DllLoader *__ptr64>::<class <class Shell32DllLoader>,class Shell32DllLoader *__ptr64>(class Shell32DllLoader *__ptr64)__ptr64 
??0?$AutoCleanup@V?$AutoDelete@VShell32DllLoader@@@@PEAVShell32DllLoader@@@@QEAA@PEAVShell32DllLoader@@@Z
; public: __cdecl <class <class ShlWApiDllLoader>,class ShlWApiDllLoader *__ptr64>::<class <class ShlWApiDllLoader>,class ShlWApiDllLoader *__ptr64>(class ShlWApiDllLoader *__ptr64)__ptr64 
??0?$AutoCleanup@V?$AutoDelete@VShlWApiDllLoader@@@@PEAVShlWApiDllLoader@@@@QEAA@PEAVShlWApiDllLoader@@@Z
; public: __cdecl <class <class SubscriptionEnumerator>,class SubscriptionEnumerator *__ptr64>::<class <class SubscriptionEnumerator>,class SubscriptionEnumerator *__ptr64>(class SubscriptionEnumerator *__ptr64)__ptr64 
??0?$AutoCleanup@V?$AutoDelete@VSubscriptionEnumerator@@@@PEAVSubscriptionEnumerator@@@@QEAA@PEAVSubscriptionEnumerator@@@Z
; public: __cdecl <class <class SubscriptionManager>,class SubscriptionManager *__ptr64>::<class <class SubscriptionManager>,class SubscriptionManager *__ptr64>(class SubscriptionManager *__ptr64)__ptr64 
??0?$AutoCleanup@V?$AutoDelete@VSubscriptionManager@@@@PEAVSubscriptionManager@@@@QEAA@PEAVSubscriptionManager@@@Z
; public: __cdecl <class <class TSTRBUFFER>,class TSTRBUFFER *__ptr64>::<class <class TSTRBUFFER>,class TSTRBUFFER *__ptr64>(class TSTRBUFFER *__ptr64)__ptr64 
??0?$AutoCleanup@V?$AutoDelete@VTSTRBUFFER@@@@PEAVTSTRBUFFER@@@@QEAA@PEAVTSTRBUFFER@@@Z
; public: __cdecl <class <class TSTRBUFFER>,class TSTRBUFFER *__ptr64>::<class <class TSTRBUFFER>,class TSTRBUFFER *__ptr64>(void)__ptr64 
??0?$AutoCleanup@V?$AutoDelete@VTSTRBUFFER@@@@PEAVTSTRBUFFER@@@@QEAA@XZ
; public: __cdecl <class <class UniqueStringOverflow>,class UniqueStringOverflow *__ptr64>::<class <class UniqueStringOverflow>,class UniqueStringOverflow *__ptr64>(class UniqueStringOverflow *__ptr64)__ptr64 
??0?$AutoCleanup@V?$AutoDelete@VUniqueStringOverflow@@@@PEAVUniqueStringOverflow@@@@QEAA@PEAVUniqueStringOverflow@@@Z
; public: __cdecl <class <class User32DllLoader>,class User32DllLoader *__ptr64>::<class <class User32DllLoader>,class User32DllLoader *__ptr64>(class User32DllLoader *__ptr64)__ptr64 
??0?$AutoCleanup@V?$AutoDelete@VUser32DllLoader@@@@PEAVUser32DllLoader@@@@QEAA@PEAVUser32DllLoader@@@Z
; public: __cdecl <class <class WSMANCONFIGTABLE_IDENTITY>,class WSMANCONFIGTABLE_IDENTITY *__ptr64>::<class <class WSMANCONFIGTABLE_IDENTITY>,class WSMANCONFIGTABLE_IDENTITY *__ptr64>(class WSMANCONFIGTABLE_IDENTITY *__ptr64)__ptr64 
??0?$AutoCleanup@V?$AutoDelete@VWSMANCONFIGTABLE_IDENTITY@@@@PEAVWSMANCONFIGTABLE_IDENTITY@@@@QEAA@PEAVWSMANCONFIGTABLE_IDENTITY@@@Z
; public: __cdecl <class <class WSManMemCryptManager>,class WSManMemCryptManager *__ptr64>::<class <class WSManMemCryptManager>,class WSManMemCryptManager *__ptr64>(class WSManMemCryptManager *__ptr64)__ptr64 
??0?$AutoCleanup@V?$AutoDelete@VWSManMemCryptManager@@@@PEAVWSManMemCryptManager@@@@QEAA@PEAVWSManMemCryptManager@@@Z
; public: __cdecl <class <class WmiEnumContext>,class WmiEnumContext *__ptr64>::<class <class WmiEnumContext>,class WmiEnumContext *__ptr64>(class WmiEnumContext *__ptr64)__ptr64 
??0?$AutoCleanup@V?$AutoDelete@VWmiEnumContext@@@@PEAVWmiEnumContext@@@@QEAA@PEAVWmiEnumContext@@@Z
; public: __cdecl <class <class WmiEnumContext>,class WmiEnumContext *__ptr64>::<class <class WmiEnumContext>,class WmiEnumContext *__ptr64>(void)__ptr64 
??0?$AutoCleanup@V?$AutoDelete@VWmiEnumContext@@@@PEAVWmiEnumContext@@@@QEAA@XZ
; public: __cdecl <class <class XmlReader>,class XmlReader *__ptr64>::<class <class XmlReader>,class XmlReader *__ptr64>(class XmlReader *__ptr64)__ptr64 
??0?$AutoCleanup@V?$AutoDelete@VXmlReader@@@@PEAVXmlReader@@@@QEAA@PEAVXmlReader@@@Z
; public: __cdecl <class <unsigned short const>,unsigned short const *__ptr64>::<class <unsigned short const>,unsigned short const *__ptr64>(unsigned short const *__ptr64)__ptr64 
??0?$AutoCleanup@V?$AutoDeleteVector@$$CBG@@PEBG@@QEAA@PEBG@Z
; public: __cdecl <class <char>,char *__ptr64>::<class <char>,char *__ptr64>(char *__ptr64)__ptr64 
??0?$AutoCleanup@V?$AutoDeleteVector@D@@PEAD@@QEAA@PEAD@Z
; public: __cdecl <class <unsigned char>,unsigned char *__ptr64>::<class <unsigned char>,unsigned char *__ptr64>(unsigned char *__ptr64)__ptr64 
??0?$AutoCleanup@V?$AutoDeleteVector@E@@PEAE@@QEAA@PEAE@Z
; public: __cdecl <class <unsigned char>,unsigned char *__ptr64>::<class <unsigned char>,unsigned char *__ptr64>(void)__ptr64 
??0?$AutoCleanup@V?$AutoDeleteVector@E@@PEAE@@QEAA@XZ
; public: __cdecl <class <unsigned short>,unsigned short *__ptr64>::<class <unsigned short>,unsigned short *__ptr64>(unsigned short *__ptr64)__ptr64 
??0?$AutoCleanup@V?$AutoDeleteVector@G@@PEAG@@QEAA@PEAG@Z
; public: __cdecl <class <unsigned short>,unsigned short *__ptr64>::<class <unsigned short>,unsigned short *__ptr64>(void)__ptr64 
??0?$AutoCleanup@V?$AutoDeleteVector@G@@PEAG@@QEAA@XZ
; public: __cdecl <class <int>,int *__ptr64>::<class <int>,int *__ptr64>(int *__ptr64)__ptr64 
??0?$AutoCleanup@V?$AutoDeleteVector@H@@PEAH@@QEAA@PEAH@Z
; public: __cdecl <class <unsigned short *__ptr64>,unsigned short *__ptr64 *__ptr64>::<class <unsigned short *__ptr64>,unsigned short *__ptr64 *__ptr64>(unsigned short *__ptr64 *__ptr64)__ptr64 
??0?$AutoCleanup@V?$AutoDeleteVector@PEAG@@PEAPEAG@@QEAA@PEAPEAG@Z
; public: __cdecl <class <unsigned short *__ptr64>,unsigned short *__ptr64 *__ptr64>::<class <unsigned short *__ptr64>,unsigned short *__ptr64 *__ptr64>(void)__ptr64 
??0?$AutoCleanup@V?$AutoDeleteVector@PEAG@@PEAPEAG@@QEAA@XZ
; public: __cdecl <class <unsigned short const *__ptr64>,unsigned short const *__ptr64 *__ptr64>::<class <unsigned short const *__ptr64>,unsigned short const *__ptr64 *__ptr64>(unsigned short const *__ptr64 *__ptr64)__ptr64 
??0?$AutoCleanup@V?$AutoDeleteVector@PEBG@@PEAPEBG@@QEAA@PEAPEBG@Z
; public: __cdecl <class <unsigned short const *__ptr64>,unsigned short const *__ptr64 *__ptr64>::<class <unsigned short const *__ptr64>,unsigned short const *__ptr64 *__ptr64>(void)__ptr64 
??0?$AutoCleanup@V?$AutoDeleteVector@PEBG@@PEAPEBG@@QEAA@XZ
; public: __cdecl <class <struct _CONFIG_UPDATE>,struct _CONFIG_UPDATE *__ptr64>::<class <struct _CONFIG_UPDATE>,struct _CONFIG_UPDATE *__ptr64>(struct _CONFIG_UPDATE *__ptr64)__ptr64 
??0?$AutoCleanup@V?$AutoDeleteVector@U_CONFIG_UPDATE@@@@PEAU_CONFIG_UPDATE@@@@QEAA@PEAU_CONFIG_UPDATE@@@Z
; public: __cdecl <class <struct _WINRS_CREATE_SHELL_ENVIRONMENT_VARIABLE>,struct _WINRS_CREATE_SHELL_ENVIRONMENT_VARIABLE *__ptr64>::<class <struct _WINRS_CREATE_SHELL_ENVIRONMENT_VARIABLE>,struct _WINRS_CREATE_SHELL_ENVIRONMENT_VARIABLE *__ptr64>(struct _WINRS_CREATE_SHELL_ENVIRONMENT_VARIABLE *__ptr64)__ptr64 
??0?$AutoCleanup@V?$AutoDeleteVector@U_WINRS_CREATE_SHELL_ENVIRONMENT_VARIABLE@@@@PEAU_WINRS_CREATE_SHELL_ENVIRONMENT_VARIABLE@@@@QEAA@PEAU_WINRS_CREATE_SHELL_ENVIRONMENT_VARIABLE@@@Z
; public: __cdecl <class <struct _WINRS_CREATE_SHELL_ENVIRONMENT_VARIABLE>,struct _WINRS_CREATE_SHELL_ENVIRONMENT_VARIABLE *__ptr64>::<class <struct _WINRS_CREATE_SHELL_ENVIRONMENT_VARIABLE>,struct _WINRS_CREATE_SHELL_ENVIRONMENT_VARIABLE *__ptr64>(void)__ptr64 
??0?$AutoCleanup@V?$AutoDeleteVector@U_WINRS_CREATE_SHELL_ENVIRONMENT_VARIABLE@@@@PEAU_WINRS_CREATE_SHELL_ENVIRONMENT_VARIABLE@@@@QEAA@XZ
; public: __cdecl <class <struct _WINRS_RUN_COMMAND_ARG>,struct _WINRS_RUN_COMMAND_ARG *__ptr64>::<class <struct _WINRS_RUN_COMMAND_ARG>,struct _WINRS_RUN_COMMAND_ARG *__ptr64>(struct _WINRS_RUN_COMMAND_ARG *__ptr64)__ptr64 
??0?$AutoCleanup@V?$AutoDeleteVector@U_WINRS_RUN_COMMAND_ARG@@@@PEAU_WINRS_RUN_COMMAND_ARG@@@@QEAA@PEAU_WINRS_RUN_COMMAND_ARG@@@Z
; public: __cdecl <class <struct _WINRS_RUN_COMMAND_ARG>,struct _WINRS_RUN_COMMAND_ARG *__ptr64>::<class <struct _WINRS_RUN_COMMAND_ARG>,struct _WINRS_RUN_COMMAND_ARG *__ptr64>(void)__ptr64 
??0?$AutoCleanup@V?$AutoDeleteVector@U_WINRS_RUN_COMMAND_ARG@@@@PEAU_WINRS_RUN_COMMAND_ARG@@@@QEAA@XZ
; public: __cdecl <class <struct _WSMAN_OPTION>,struct _WSMAN_OPTION *__ptr64>::<class <struct _WSMAN_OPTION>,struct _WSMAN_OPTION *__ptr64>(struct _WSMAN_OPTION *__ptr64)__ptr64 
??0?$AutoCleanup@V?$AutoDeleteVector@U_WSMAN_OPTION@@@@PEAU_WSMAN_OPTION@@@@QEAA@PEAU_WSMAN_OPTION@@@Z
; public: __cdecl <class <void>,void *__ptr64>::<class <void>,void *__ptr64>(void *__ptr64)__ptr64 
??0?$AutoCleanup@V?$AutoDeleteVector@X@@PEAX@@QEAA@PEAX@Z
; public: __cdecl <class <unsigned char>,unsigned char *__ptr64>::<class <unsigned char>,unsigned char *__ptr64>(unsigned char *__ptr64)__ptr64 
??0?$AutoCleanup@V?$AutoFree@E@@PEAE@@QEAA@PEAE@Z
; public: __cdecl <class <class Packet>,class Packet *__ptr64>::<class <class Packet>,class Packet *__ptr64>(class Packet *__ptr64)__ptr64 
??0?$AutoCleanup@V?$AutoLocklessItemRecycle@VPacket@@@@PEAVPacket@@@@QEAA@PEAVPacket@@@Z
; public: __cdecl <class <struct IAppHostAdminManager>,struct IAppHostAdminManager *__ptr64>::<class <struct IAppHostAdminManager>,struct IAppHostAdminManager *__ptr64>(struct IAppHostAdminManager *__ptr64)__ptr64 
??0?$AutoCleanup@V?$AutoRelease@UIAppHostAdminManager@@@@PEAUIAppHostAdminManager@@@@QEAA@PEAUIAppHostAdminManager@@@Z
; public: __cdecl <class <struct IAppHostChildElementCollection>,struct IAppHostChildElementCollection *__ptr64>::<class <struct IAppHostChildElementCollection>,struct IAppHostChildElementCollection *__ptr64>(struct IAppHostChildElementCollection *__ptr64)__ptr64 
??0?$AutoCleanup@V?$AutoRelease@UIAppHostChildElementCollection@@@@PEAUIAppHostChildElementCollection@@@@QEAA@PEAUIAppHostChildElementCollection@@@Z
; public: __cdecl <class <struct IAppHostConfigException>,struct IAppHostConfigException *__ptr64>::<class <struct IAppHostConfigException>,struct IAppHostConfigException *__ptr64>(struct IAppHostConfigException *__ptr64)__ptr64 
??0?$AutoCleanup@V?$AutoRelease@UIAppHostConfigException@@@@PEAUIAppHostConfigException@@@@QEAA@PEAUIAppHostConfigException@@@Z
; public: __cdecl <class <struct IAppHostElement>,struct IAppHostElement *__ptr64>::<class <struct IAppHostElement>,struct IAppHostElement *__ptr64>(struct IAppHostElement *__ptr64)__ptr64 
??0?$AutoCleanup@V?$AutoRelease@UIAppHostElement@@@@PEAUIAppHostElement@@@@QEAA@PEAUIAppHostElement@@@Z
; public: __cdecl <class <struct IAppHostElementCollection>,struct IAppHostElementCollection *__ptr64>::<class <struct IAppHostElementCollection>,struct IAppHostElementCollection *__ptr64>(struct IAppHostElementCollection *__ptr64)__ptr64 
??0?$AutoCleanup@V?$AutoRelease@UIAppHostElementCollection@@@@PEAUIAppHostElementCollection@@@@QEAA@PEAUIAppHostElementCollection@@@Z
; public: __cdecl <class <struct IAppHostProperty>,struct IAppHostProperty *__ptr64>::<class <struct IAppHostProperty>,struct IAppHostProperty *__ptr64>(struct IAppHostProperty *__ptr64)__ptr64 
??0?$AutoCleanup@V?$AutoRelease@UIAppHostProperty@@@@PEAUIAppHostProperty@@@@QEAA@PEAUIAppHostProperty@@@Z
; public: __cdecl <class <struct IAppHostPropertyCollection>,struct IAppHostPropertyCollection *__ptr64>::<class <struct IAppHostPropertyCollection>,struct IAppHostPropertyCollection *__ptr64>(struct IAppHostPropertyCollection *__ptr64)__ptr64 
??0?$AutoCleanup@V?$AutoRelease@UIAppHostPropertyCollection@@@@PEAUIAppHostPropertyCollection@@@@QEAA@PEAUIAppHostPropertyCollection@@@Z
; public: __cdecl <class <struct IClientSecurity>,struct IClientSecurity *__ptr64>::<class <struct IClientSecurity>,struct IClientSecurity *__ptr64>(struct IClientSecurity *__ptr64)__ptr64 
??0?$AutoCleanup@V?$AutoRelease@UIClientSecurity@@@@PEAUIClientSecurity@@@@QEAA@PEAUIClientSecurity@@@Z
; public: __cdecl <class <struct IClientSecurity>,struct IClientSecurity *__ptr64>::<class <struct IClientSecurity>,struct IClientSecurity *__ptr64>(void)__ptr64 
??0?$AutoCleanup@V?$AutoRelease@UIClientSecurity@@@@PEAUIClientSecurity@@@@QEAA@XZ
; public: __cdecl <class <struct IEnumWbemClassObject>,struct IEnumWbemClassObject *__ptr64>::<class <struct IEnumWbemClassObject>,struct IEnumWbemClassObject *__ptr64>(struct IEnumWbemClassObject *__ptr64)__ptr64 
??0?$AutoCleanup@V?$AutoRelease@UIEnumWbemClassObject@@@@PEAUIEnumWbemClassObject@@@@QEAA@PEAUIEnumWbemClassObject@@@Z
; public: __cdecl <class <struct IEnumWbemClassObject>,struct IEnumWbemClassObject *__ptr64>::<class <struct IEnumWbemClassObject>,struct IEnumWbemClassObject *__ptr64>(void)__ptr64 
??0?$AutoCleanup@V?$AutoRelease@UIEnumWbemClassObject@@@@PEAUIEnumWbemClassObject@@@@QEAA@XZ
; public: __cdecl <class <struct IErrorInfo>,struct IErrorInfo *__ptr64>::<class <struct IErrorInfo>,struct IErrorInfo *__ptr64>(struct IErrorInfo *__ptr64)__ptr64 
??0?$AutoCleanup@V?$AutoRelease@UIErrorInfo@@@@PEAUIErrorInfo@@@@QEAA@PEAUIErrorInfo@@@Z
; public: __cdecl <class <struct IErrorInfo>,struct IErrorInfo *__ptr64>::<class <struct IErrorInfo>,struct IErrorInfo *__ptr64>(void)__ptr64 
??0?$AutoCleanup@V?$AutoRelease@UIErrorInfo@@@@PEAUIErrorInfo@@@@QEAA@XZ
; public: __cdecl <class <struct IUnknown>,struct IUnknown *__ptr64>::<class <struct IUnknown>,struct IUnknown *__ptr64>(struct IUnknown *__ptr64)__ptr64 
??0?$AutoCleanup@V?$AutoRelease@UIUnknown@@@@PEAUIUnknown@@@@QEAA@PEAUIUnknown@@@Z
; public: __cdecl <class <struct IUnknown>,struct IUnknown *__ptr64>::<class <struct IUnknown>,struct IUnknown *__ptr64>(void)__ptr64 
??0?$AutoCleanup@V?$AutoRelease@UIUnknown@@@@PEAUIUnknown@@@@QEAA@XZ
; public: __cdecl <class <struct IWbemClassObject>,struct IWbemClassObject *__ptr64>::<class <struct IWbemClassObject>,struct IWbemClassObject *__ptr64>(struct IWbemClassObject *__ptr64)__ptr64 
??0?$AutoCleanup@V?$AutoRelease@UIWbemClassObject@@@@PEAUIWbemClassObject@@@@QEAA@PEAUIWbemClassObject@@@Z
; public: __cdecl <class <struct IWbemClassObject>,struct IWbemClassObject *__ptr64>::<class <struct IWbemClassObject>,struct IWbemClassObject *__ptr64>(void)__ptr64 
??0?$AutoCleanup@V?$AutoRelease@UIWbemClassObject@@@@PEAUIWbemClassObject@@@@QEAA@XZ
; public: __cdecl <class <struct IWbemContext>,struct IWbemContext *__ptr64>::<class <struct IWbemContext>,struct IWbemContext *__ptr64>(struct IWbemContext *__ptr64)__ptr64 
??0?$AutoCleanup@V?$AutoRelease@UIWbemContext@@@@PEAUIWbemContext@@@@QEAA@PEAUIWbemContext@@@Z
; public: __cdecl <class <struct IWbemContext>,struct IWbemContext *__ptr64>::<class <struct IWbemContext>,struct IWbemContext *__ptr64>(void)__ptr64 
??0?$AutoCleanup@V?$AutoRelease@UIWbemContext@@@@PEAUIWbemContext@@@@QEAA@XZ
; public: __cdecl <class <struct IWbemLocator>,struct IWbemLocator *__ptr64>::<class <struct IWbemLocator>,struct IWbemLocator *__ptr64>(struct IWbemLocator *__ptr64)__ptr64 
??0?$AutoCleanup@V?$AutoRelease@UIWbemLocator@@@@PEAUIWbemLocator@@@@QEAA@PEAUIWbemLocator@@@Z
; public: __cdecl <class <struct IWbemLocator>,struct IWbemLocator *__ptr64>::<class <struct IWbemLocator>,struct IWbemLocator *__ptr64>(void)__ptr64 
??0?$AutoCleanup@V?$AutoRelease@UIWbemLocator@@@@PEAUIWbemLocator@@@@QEAA@XZ
; public: __cdecl <class <struct IWbemObjectTextSrc>,struct IWbemObjectTextSrc *__ptr64>::<class <struct IWbemObjectTextSrc>,struct IWbemObjectTextSrc *__ptr64>(struct IWbemObjectTextSrc *__ptr64)__ptr64 
??0?$AutoCleanup@V?$AutoRelease@UIWbemObjectTextSrc@@@@PEAUIWbemObjectTextSrc@@@@QEAA@PEAUIWbemObjectTextSrc@@@Z
; public: __cdecl <class <struct IWbemObjectTextSrc>,struct IWbemObjectTextSrc *__ptr64>::<class <struct IWbemObjectTextSrc>,struct IWbemObjectTextSrc *__ptr64>(void)__ptr64 
??0?$AutoCleanup@V?$AutoRelease@UIWbemObjectTextSrc@@@@PEAUIWbemObjectTextSrc@@@@QEAA@XZ
; public: __cdecl <class <struct IWbemPath>,struct IWbemPath *__ptr64>::<class <struct IWbemPath>,struct IWbemPath *__ptr64>(struct IWbemPath *__ptr64)__ptr64 
??0?$AutoCleanup@V?$AutoRelease@UIWbemPath@@@@PEAUIWbemPath@@@@QEAA@PEAUIWbemPath@@@Z
; public: __cdecl <class <struct IWbemPath>,struct IWbemPath *__ptr64>::<class <struct IWbemPath>,struct IWbemPath *__ptr64>(void)__ptr64 
??0?$AutoCleanup@V?$AutoRelease@UIWbemPath@@@@PEAUIWbemPath@@@@QEAA@XZ
; public: __cdecl <class <struct IWbemPathKeyList>,struct IWbemPathKeyList *__ptr64>::<class <struct IWbemPathKeyList>,struct IWbemPathKeyList *__ptr64>(struct IWbemPathKeyList *__ptr64)__ptr64 
??0?$AutoCleanup@V?$AutoRelease@UIWbemPathKeyList@@@@PEAUIWbemPathKeyList@@@@QEAA@PEAUIWbemPathKeyList@@@Z
; public: __cdecl <class <struct IWbemPathKeyList>,struct IWbemPathKeyList *__ptr64>::<class <struct IWbemPathKeyList>,struct IWbemPathKeyList *__ptr64>(void)__ptr64 
??0?$AutoCleanup@V?$AutoRelease@UIWbemPathKeyList@@@@PEAUIWbemPathKeyList@@@@QEAA@XZ
; public: __cdecl <class <struct IWbemQualifierSet>,struct IWbemQualifierSet *__ptr64>::<class <struct IWbemQualifierSet>,struct IWbemQualifierSet *__ptr64>(struct IWbemQualifierSet *__ptr64)__ptr64 
??0?$AutoCleanup@V?$AutoRelease@UIWbemQualifierSet@@@@PEAUIWbemQualifierSet@@@@QEAA@PEAUIWbemQualifierSet@@@Z
; public: __cdecl <class <struct IWbemQualifierSet>,struct IWbemQualifierSet *__ptr64>::<class <struct IWbemQualifierSet>,struct IWbemQualifierSet *__ptr64>(void)__ptr64 
??0?$AutoCleanup@V?$AutoRelease@UIWbemQualifierSet@@@@PEAUIWbemQualifierSet@@@@QEAA@XZ
; public: __cdecl <class <struct IWbemQuery>,struct IWbemQuery *__ptr64>::<class <struct IWbemQuery>,struct IWbemQuery *__ptr64>(struct IWbemQuery *__ptr64)__ptr64 
??0?$AutoCleanup@V?$AutoRelease@UIWbemQuery@@@@PEAUIWbemQuery@@@@QEAA@PEAUIWbemQuery@@@Z
; public: __cdecl <class <struct IWbemQuery>,struct IWbemQuery *__ptr64>::<class <struct IWbemQuery>,struct IWbemQuery *__ptr64>(void)__ptr64 
??0?$AutoCleanup@V?$AutoRelease@UIWbemQuery@@@@PEAUIWbemQuery@@@@QEAA@XZ
; public: __cdecl <class <struct IWbemServices>,struct IWbemServices *__ptr64>::<class <struct IWbemServices>,struct IWbemServices *__ptr64>(struct IWbemServices *__ptr64)__ptr64 
??0?$AutoCleanup@V?$AutoRelease@UIWbemServices@@@@PEAUIWbemServices@@@@QEAA@PEAUIWbemServices@@@Z
; public: __cdecl <class <struct IWbemServices>,struct IWbemServices *__ptr64>::<class <struct IWbemServices>,struct IWbemServices *__ptr64>(void)__ptr64 
??0?$AutoCleanup@V?$AutoRelease@UIWbemServices@@@@PEAUIWbemServices@@@@QEAA@XZ
; public: __cdecl <class <class WSMan::Client::Application>,class WSMan::Client::Application *__ptr64>::<class <class WSMan::Client::Application>,class WSMan::Client::Application *__ptr64>(class WSMan::Client::Application *__ptr64)__ptr64 
??0?$AutoCleanup@V?$AutoRelease@VApplication@Client@WSMan@@@@PEAVApplication@Client@WSMan@@@@QEAA@PEAVApplication@Client@WSMan@@@Z
; public: __cdecl <class <class CBaseConfigCache>,class CBaseConfigCache *__ptr64>::<class <class CBaseConfigCache>,class CBaseConfigCache *__ptr64>(class CBaseConfigCache *__ptr64)__ptr64 
??0?$AutoCleanup@V?$AutoRelease@VCBaseConfigCache@@@@PEAVCBaseConfigCache@@@@QEAA@PEAVCBaseConfigCache@@@Z
; public: __cdecl <class <class CClientConfigSettings>,class CClientConfigSettings *__ptr64>::<class <class CClientConfigSettings>,class CClientConfigSettings *__ptr64>(class CClientConfigSettings *__ptr64)__ptr64 
??0?$AutoCleanup@V?$AutoRelease@VCClientConfigSettings@@@@PEAVCClientConfigSettings@@@@QEAA@PEAVCClientConfigSettings@@@Z
; public: __cdecl <class <class CCommonConfigSettings>,class CCommonConfigSettings *__ptr64>::<class <class CCommonConfigSettings>,class CCommonConfigSettings *__ptr64>(class CCommonConfigSettings *__ptr64)__ptr64 
??0?$AutoCleanup@V?$AutoRelease@VCCommonConfigSettings@@@@PEAVCCommonConfigSettings@@@@QEAA@PEAVCCommonConfigSettings@@@Z
; public: __cdecl <class <class CBaseConfigCache::CConfigCacheMap>,class CBaseConfigCache::CConfigCacheMap *__ptr64>::<class <class CBaseConfigCache::CConfigCacheMap>,class CBaseConfigCache::CConfigCacheMap *__ptr64>(class CBaseConfigCache::CConfigCacheMap *__ptr64)__ptr64 
??0?$AutoCleanup@V?$AutoRelease@VCConfigCacheMap@CBaseConfigCache@@@@PEAVCConfigCacheMap@CBaseConfigCache@@@@QEAA@PEAVCConfigCacheMap@CBaseConfigCache@@@Z
; public: __cdecl <class <class CConfigManager>,class CConfigManager *__ptr64>::<class <class CConfigManager>,class CConfigManager *__ptr64>(class CConfigManager *__ptr64)__ptr64 
??0?$AutoCleanup@V?$AutoRelease@VCConfigManager@@@@PEAVCConfigManager@@@@QEAA@PEAVCConfigManager@@@Z
; public: __cdecl <class <class CRemoteOperation>,class CRemoteOperation *__ptr64>::<class <class CRemoteOperation>,class CRemoteOperation *__ptr64>(class CRemoteOperation *__ptr64)__ptr64 
??0?$AutoCleanup@V?$AutoRelease@VCRemoteOperation@@@@PEAVCRemoteOperation@@@@QEAA@PEAVCRemoteOperation@@@Z
; public: __cdecl <class <class CRemoteSession>,class CRemoteSession *__ptr64>::<class <class CRemoteSession>,class CRemoteSession *__ptr64>(class CRemoteSession *__ptr64)__ptr64 
??0?$AutoCleanup@V?$AutoRelease@VCRemoteSession@@@@PEAVCRemoteSession@@@@QEAA@PEAVCRemoteSession@@@Z
; public: __cdecl <class <class CRequestContext>,class CRequestContext *__ptr64>::<class <class CRequestContext>,class CRequestContext *__ptr64>(class CRequestContext *__ptr64)__ptr64 
??0?$AutoCleanup@V?$AutoRelease@VCRequestContext@@@@PEAVCRequestContext@@@@QEAA@PEAVCRequestContext@@@Z
; public: __cdecl <class <class CServiceCommonConfigSettings>,class CServiceCommonConfigSettings *__ptr64>::<class <class CServiceCommonConfigSettings>,class CServiceCommonConfigSettings *__ptr64>(class CServiceCommonConfigSettings *__ptr64)__ptr64 
??0?$AutoCleanup@V?$AutoRelease@VCServiceCommonConfigSettings@@@@PEAVCServiceCommonConfigSettings@@@@QEAA@PEAVCServiceCommonConfigSettings@@@Z
; public: __cdecl <class <class CServiceConfigCache>,class CServiceConfigCache *__ptr64>::<class <class CServiceConfigCache>,class CServiceConfigCache *__ptr64>(class CServiceConfigCache *__ptr64)__ptr64 
??0?$AutoCleanup@V?$AutoRelease@VCServiceConfigCache@@@@PEAVCServiceConfigCache@@@@QEAA@PEAVCServiceConfigCache@@@Z
; public: __cdecl <class <class CServiceConfigSettings>,class CServiceConfigSettings *__ptr64>::<class <class CServiceConfigSettings>,class CServiceConfigSettings *__ptr64>(class CServiceConfigSettings *__ptr64)__ptr64 
??0?$AutoCleanup@V?$AutoRelease@VCServiceConfigSettings@@@@PEAVCServiceConfigSettings@@@@QEAA@PEAVCServiceConfigSettings@@@Z
; public: __cdecl <class <class CWSManEPR>,class CWSManEPR *__ptr64>::<class <class CWSManEPR>,class CWSManEPR *__ptr64>(class CWSManEPR *__ptr64)__ptr64 
??0?$AutoCleanup@V?$AutoRelease@VCWSManEPR@@@@PEAVCWSManEPR@@@@QEAA@PEAVCWSManEPR@@@Z
; public: __cdecl <class <class CWSManEPR>,class CWSManEPR *__ptr64>::<class <class CWSManEPR>,class CWSManEPR *__ptr64>(void)__ptr64 
??0?$AutoCleanup@V?$AutoRelease@VCWSManEPR@@@@PEAVCWSManEPR@@@@QEAA@XZ
; public: __cdecl <class <class CWSManGroupPolicyCache>,class CWSManGroupPolicyCache *__ptr64>::<class <class CWSManGroupPolicyCache>,class CWSManGroupPolicyCache *__ptr64>(class CWSManGroupPolicyCache *__ptr64)__ptr64 
??0?$AutoCleanup@V?$AutoRelease@VCWSManGroupPolicyCache@@@@PEAVCWSManGroupPolicyCache@@@@QEAA@PEAVCWSManGroupPolicyCache@@@Z
; public: __cdecl <class <class CWSManGroupPolicyManager>,class CWSManGroupPolicyManager *__ptr64>::<class <class CWSManGroupPolicyManager>,class CWSManGroupPolicyManager *__ptr64>(class CWSManGroupPolicyManager *__ptr64)__ptr64 
??0?$AutoCleanup@V?$AutoRelease@VCWSManGroupPolicyManager@@@@PEAVCWSManGroupPolicyManager@@@@QEAA@PEAVCWSManGroupPolicyManager@@@Z
; public: __cdecl <class <class CWSManObject>,class CWSManObject *__ptr64>::<class <class CWSManObject>,class CWSManObject *__ptr64>(class CWSManObject *__ptr64)__ptr64 
??0?$AutoCleanup@V?$AutoRelease@VCWSManObject@@@@PEAVCWSManObject@@@@QEAA@PEAVCWSManObject@@@Z
; public: __cdecl <class <class CWSManResource>,class CWSManResource *__ptr64>::<class <class CWSManResource>,class CWSManResource *__ptr64>(class CWSManResource *__ptr64)__ptr64 
??0?$AutoCleanup@V?$AutoRelease@VCWSManResource@@@@PEAVCWSManResource@@@@QEAA@PEAVCWSManResource@@@Z
; public: __cdecl <class <class CWinRSPluginConfigCache>,class CWinRSPluginConfigCache *__ptr64>::<class <class CWinRSPluginConfigCache>,class CWinRSPluginConfigCache *__ptr64>(class CWinRSPluginConfigCache *__ptr64)__ptr64 
??0?$AutoCleanup@V?$AutoRelease@VCWinRSPluginConfigCache@@@@PEAVCWinRSPluginConfigCache@@@@QEAA@PEAVCWinRSPluginConfigCache@@@Z
; public: __cdecl <class <class CWinRSPluginConfigCache>,class CWinRSPluginConfigCache *__ptr64>::<class <class CWinRSPluginConfigCache>,class CWinRSPluginConfigCache *__ptr64>(void)__ptr64 
??0?$AutoCleanup@V?$AutoRelease@VCWinRSPluginConfigCache@@@@PEAVCWinRSPluginConfigCache@@@@QEAA@XZ
; public: __cdecl <class <class CWinRSPluginConfigSettings>,class CWinRSPluginConfigSettings *__ptr64>::<class <class CWinRSPluginConfigSettings>,class CWinRSPluginConfigSettings *__ptr64>(class CWinRSPluginConfigSettings *__ptr64)__ptr64 
??0?$AutoCleanup@V?$AutoRelease@VCWinRSPluginConfigSettings@@@@PEAVCWinRSPluginConfigSettings@@@@QEAA@PEAVCWinRSPluginConfigSettings@@@Z
; public: __cdecl <class <class WSMan::Client::Command>,class WSMan::Client::Command *__ptr64>::<class <class WSMan::Client::Command>,class WSMan::Client::Command *__ptr64>(class WSMan::Client::Command *__ptr64)__ptr64 
??0?$AutoCleanup@V?$AutoRelease@VCommand@Client@WSMan@@@@PEAVCommand@Client@WSMan@@@@QEAA@PEAVCommand@Client@WSMan@@@Z
; public: __cdecl <class <class ConfigNotification>,class ConfigNotification *__ptr64>::<class <class ConfigNotification>,class ConfigNotification *__ptr64>(class ConfigNotification *__ptr64)__ptr64 
??0?$AutoCleanup@V?$AutoRelease@VConfigNotification@@@@PEAVConfigNotification@@@@QEAA@PEAVConfigNotification@@@Z
; public: __cdecl <class <class WSMan::Client::ConnectShellOperation>,class WSMan::Client::ConnectShellOperation *__ptr64>::<class <class WSMan::Client::ConnectShellOperation>,class WSMan::Client::ConnectShellOperation *__ptr64>(class WSMan::Client::ConnectShellOperation *__ptr64)__ptr64 
??0?$AutoCleanup@V?$AutoRelease@VConnectShellOperation@Client@WSMan@@@@PEAVConnectShellOperation@Client@WSMan@@@@QEAA@PEAVConnectShellOperation@Client@WSMan@@@Z
; public: __cdecl <class <class WSMan::Client::CreateShellOperation>,class WSMan::Client::CreateShellOperation *__ptr64>::<class <class WSMan::Client::CreateShellOperation>,class WSMan::Client::CreateShellOperation *__ptr64>(class WSMan::Client::CreateShellOperation *__ptr64)__ptr64 
??0?$AutoCleanup@V?$AutoRelease@VCreateShellOperation@Client@WSMan@@@@PEAVCreateShellOperation@Client@WSMan@@@@QEAA@PEAVCreateShellOperation@Client@WSMan@@@Z
; public: __cdecl <class <class WSMan::Client::DeleteShellOperation>,class WSMan::Client::DeleteShellOperation *__ptr64>::<class <class WSMan::Client::DeleteShellOperation>,class WSMan::Client::DeleteShellOperation *__ptr64>(class WSMan::Client::DeleteShellOperation *__ptr64)__ptr64 
??0?$AutoCleanup@V?$AutoRelease@VDeleteShellOperation@Client@WSMan@@@@PEAVDeleteShellOperation@Client@WSMan@@@@QEAA@PEAVDeleteShellOperation@Client@WSMan@@@Z
; public: __cdecl <class <class WSMan::Client::DisconnectOperation>,class WSMan::Client::DisconnectOperation *__ptr64>::<class <class WSMan::Client::DisconnectOperation>,class WSMan::Client::DisconnectOperation *__ptr64>(class WSMan::Client::DisconnectOperation *__ptr64)__ptr64 
??0?$AutoCleanup@V?$AutoRelease@VDisconnectOperation@Client@WSMan@@@@PEAVDisconnectOperation@Client@WSMan@@@@QEAA@PEAVDisconnectOperation@Client@WSMan@@@Z
; public: __cdecl <class <class EnumSinkEx>,class EnumSinkEx *__ptr64>::<class <class EnumSinkEx>,class EnumSinkEx *__ptr64>(class EnumSinkEx *__ptr64)__ptr64 
??0?$AutoCleanup@V?$AutoRelease@VEnumSinkEx@@@@PEAVEnumSinkEx@@@@QEAA@PEAVEnumSinkEx@@@Z
; public: __cdecl <class <class EnumSinkEx>,class EnumSinkEx *__ptr64>::<class <class EnumSinkEx>,class EnumSinkEx *__ptr64>(void)__ptr64 
??0?$AutoCleanup@V?$AutoRelease@VEnumSinkEx@@@@PEAVEnumSinkEx@@@@QEAA@XZ
; public: __cdecl <class <class GeneralSinkEx>,class GeneralSinkEx *__ptr64>::<class <class GeneralSinkEx>,class GeneralSinkEx *__ptr64>(class GeneralSinkEx *__ptr64)__ptr64 
??0?$AutoCleanup@V?$AutoRelease@VGeneralSinkEx@@@@PEAVGeneralSinkEx@@@@QEAA@PEAVGeneralSinkEx@@@Z
; public: __cdecl <class <class GeneralSinkEx>,class GeneralSinkEx *__ptr64>::<class <class GeneralSinkEx>,class GeneralSinkEx *__ptr64>(void)__ptr64 
??0?$AutoCleanup@V?$AutoRelease@VGeneralSinkEx@@@@PEAVGeneralSinkEx@@@@QEAA@XZ
; public: __cdecl <class <class IISConfigSettings>,class IISConfigSettings *__ptr64>::<class <class IISConfigSettings>,class IISConfigSettings *__ptr64>(class IISConfigSettings *__ptr64)__ptr64 
??0?$AutoCleanup@V?$AutoRelease@VIISConfigSettings@@@@PEAVIISConfigSettings@@@@QEAA@PEAVIISConfigSettings@@@Z
; public: __cdecl <class <class IPCSoapProcessor>,class IPCSoapProcessor *__ptr64>::<class <class IPCSoapProcessor>,class IPCSoapProcessor *__ptr64>(class IPCSoapProcessor *__ptr64)__ptr64 
??0?$AutoCleanup@V?$AutoRelease@VIPCSoapProcessor@@@@PEAVIPCSoapProcessor@@@@QEAA@PEAVIPCSoapProcessor@@@Z
; public: __cdecl <class <class IRequestContext>,class IRequestContext *__ptr64>::<class <class IRequestContext>,class IRequestContext *__ptr64>(class IRequestContext *__ptr64)__ptr64 
??0?$AutoCleanup@V?$AutoRelease@VIRequestContext@@@@PEAVIRequestContext@@@@QEAA@PEAVIRequestContext@@@Z
; public: __cdecl <class <class IRequestContext>,class IRequestContext *__ptr64>::<class <class IRequestContext>,class IRequestContext *__ptr64>(void)__ptr64 
??0?$AutoCleanup@V?$AutoRelease@VIRequestContext@@@@PEAVIRequestContext@@@@QEAA@XZ
; public: __cdecl <class <class ISubscription>,class ISubscription *__ptr64>::<class <class ISubscription>,class ISubscription *__ptr64>(class ISubscription *__ptr64)__ptr64 
??0?$AutoCleanup@V?$AutoRelease@VISubscription@@@@PEAVISubscription@@@@QEAA@PEAVISubscription@@@Z
; public: __cdecl <class <class InboundRequestDetails>,class InboundRequestDetails *__ptr64>::<class <class InboundRequestDetails>,class InboundRequestDetails *__ptr64>(class InboundRequestDetails *__ptr64)__ptr64 
??0?$AutoCleanup@V?$AutoRelease@VInboundRequestDetails@@@@PEAVInboundRequestDetails@@@@QEAA@PEAVInboundRequestDetails@@@Z
; public: __cdecl <class <class WSMan::Client::ReceiveOperation>,class WSMan::Client::ReceiveOperation *__ptr64>::<class <class WSMan::Client::ReceiveOperation>,class WSMan::Client::ReceiveOperation *__ptr64>(class WSMan::Client::ReceiveOperation *__ptr64)__ptr64 
??0?$AutoCleanup@V?$AutoRelease@VReceiveOperation@Client@WSMan@@@@PEAVReceiveOperation@Client@WSMan@@@@QEAA@PEAVReceiveOperation@Client@WSMan@@@Z
; public: __cdecl <class <class WSMan::Client::ReconnectOperation>,class WSMan::Client::ReconnectOperation *__ptr64>::<class <class WSMan::Client::ReconnectOperation>,class WSMan::Client::ReconnectOperation *__ptr64>(class WSMan::Client::ReconnectOperation *__ptr64)__ptr64 
??0?$AutoCleanup@V?$AutoRelease@VReconnectOperation@Client@WSMan@@@@PEAVReconnectOperation@Client@WSMan@@@@QEAA@PEAVReconnectOperation@Client@WSMan@@@Z
; public: __cdecl <class <class WSMan::Client::SendOperation>,class WSMan::Client::SendOperation *__ptr64>::<class <class WSMan::Client::SendOperation>,class WSMan::Client::SendOperation *__ptr64>(class WSMan::Client::SendOperation *__ptr64)__ptr64 
??0?$AutoCleanup@V?$AutoRelease@VSendOperation@Client@WSMan@@@@PEAVSendOperation@Client@WSMan@@@@QEAA@PEAVSendOperation@Client@WSMan@@@Z
; public: __cdecl <class <class WSMan::Client::Shell>,class WSMan::Client::Shell *__ptr64>::<class <class WSMan::Client::Shell>,class WSMan::Client::Shell *__ptr64>(class WSMan::Client::Shell *__ptr64)__ptr64 
??0?$AutoCleanup@V?$AutoRelease@VShell@Client@WSMan@@@@PEAVShell@Client@WSMan@@@@QEAA@PEAVShell@Client@WSMan@@@Z
; public: __cdecl <class <class ShellInfo>,class ShellInfo *__ptr64>::<class <class ShellInfo>,class ShellInfo *__ptr64>(class ShellInfo *__ptr64)__ptr64 
??0?$AutoCleanup@V?$AutoRelease@VShellInfo@@@@PEAVShellInfo@@@@QEAA@PEAVShellInfo@@@Z
; public: __cdecl <class <class WSMan::Client::SignalOperation>,class WSMan::Client::SignalOperation *__ptr64>::<class <class WSMan::Client::SignalOperation>,class WSMan::Client::SignalOperation *__ptr64>(class WSMan::Client::SignalOperation *__ptr64)__ptr64 
??0?$AutoCleanup@V?$AutoRelease@VSignalOperation@Client@WSMan@@@@PEAVSignalOperation@Client@WSMan@@@@QEAA@PEAVSignalOperation@Client@WSMan@@@Z
; public: __cdecl <class <class UserRecord>,class UserRecord *__ptr64>::<class <class UserRecord>,class UserRecord *__ptr64>(class UserRecord *__ptr64)__ptr64 
??0?$AutoCleanup@V?$AutoRelease@VUserRecord@@@@PEAVUserRecord@@@@QEAA@PEAVUserRecord@@@Z
; public: __cdecl <class <class WSManHttpListener>,class WSManHttpListener *__ptr64>::<class <class WSManHttpListener>,class WSManHttpListener *__ptr64>(class WSManHttpListener *__ptr64)__ptr64 
??0?$AutoCleanup@V?$AutoRelease@VWSManHttpListener@@@@PEAVWSManHttpListener@@@@QEAA@PEAVWSManHttpListener@@@Z
; public: __cdecl <class <class HostMappingTableEntry>,class HostMappingTableEntry *__ptr64>::<class <class HostMappingTableEntry>,class HostMappingTableEntry *__ptr64>(class HostMappingTableEntry *__ptr64)__ptr64 
??0?$AutoCleanup@V?$AutoReleaseEx@VHostMappingTableEntry@@@@PEAVHostMappingTableEntry@@@@QEAA@PEAVHostMappingTableEntry@@@Z
; public: __cdecl <class <class WSMan::Client::Shell>,class WSMan::Client::Shell *__ptr64>::<class <class WSMan::Client::Shell>,class WSMan::Client::Shell *__ptr64>(class WSMan::Client::Shell *__ptr64)__ptr64 
??0?$AutoCleanup@V?$AutoReleaseEx@VShell@Client@WSMan@@@@PEAVShell@Client@WSMan@@@@QEAA@PEAVShell@Client@WSMan@@@Z
; public: __cdecl <class AutoBstr,unsigned short *__ptr64>::<class AutoBstr,unsigned short *__ptr64>(unsigned short *__ptr64)__ptr64 
??0?$AutoCleanup@VAutoBstr@@PEAG@@QEAA@PEAG@Z
; public: __cdecl <class AutoBstr,unsigned short *__ptr64>::<class AutoBstr,unsigned short *__ptr64>(void)__ptr64 
??0?$AutoCleanup@VAutoBstr@@PEAG@@QEAA@XZ
; public: __cdecl <class AutoBstrNoAlloc,unsigned short *__ptr64>::<class AutoBstrNoAlloc,unsigned short *__ptr64>(unsigned short *__ptr64)__ptr64 
??0?$AutoCleanup@VAutoBstrNoAlloc@@PEAG@@QEAA@PEAG@Z
; public: __cdecl <class AutoBstrNoAlloc,unsigned short *__ptr64>::<class AutoBstrNoAlloc,unsigned short *__ptr64>(void)__ptr64 
??0?$AutoCleanup@VAutoBstrNoAlloc@@PEAG@@QEAA@XZ
; public: __cdecl <class AutoCertContext,struct _CERT_CONTEXT const *__ptr64>::<class AutoCertContext,struct _CERT_CONTEXT const *__ptr64>(struct _CERT_CONTEXT const *__ptr64)__ptr64 
??0?$AutoCleanup@VAutoCertContext@@PEBU_CERT_CONTEXT@@@@QEAA@PEBU_CERT_CONTEXT@@@Z
; public: __cdecl <class AutoCertContext,struct _CERT_CONTEXT const *__ptr64>::<class AutoCertContext,struct _CERT_CONTEXT const *__ptr64>(void)__ptr64 
??0?$AutoCleanup@VAutoCertContext@@PEBU_CERT_CONTEXT@@@@QEAA@XZ
; public: __cdecl <class AutoChainContext,struct _CERT_CHAIN_CONTEXT const *__ptr64>::<class AutoChainContext,struct _CERT_CHAIN_CONTEXT const *__ptr64>(struct _CERT_CHAIN_CONTEXT const *__ptr64)__ptr64 
??0?$AutoCleanup@VAutoChainContext@@PEBU_CERT_CHAIN_CONTEXT@@@@QEAA@PEBU_CERT_CHAIN_CONTEXT@@@Z
; public: __cdecl <class AutoChainContext,struct _CERT_CHAIN_CONTEXT const *__ptr64>::<class AutoChainContext,struct _CERT_CHAIN_CONTEXT const *__ptr64>(void)__ptr64 
??0?$AutoCleanup@VAutoChainContext@@PEBU_CERT_CHAIN_CONTEXT@@@@QEAA@XZ
; public: __cdecl <class AutoCoTaskMemFree,void *__ptr64>::<class AutoCoTaskMemFree,void *__ptr64>(void *__ptr64)__ptr64 
??0?$AutoCleanup@VAutoCoTaskMemFree@@PEAX@@QEAA@PEAX@Z
; public: __cdecl <class AutoCoTaskMemFree,void *__ptr64>::<class AutoCoTaskMemFree,void *__ptr64>(void)__ptr64 
??0?$AutoCleanup@VAutoCoTaskMemFree@@PEAX@@QEAA@XZ
; public: __cdecl <class AutoEnvironmentBlock,void *__ptr64>::<class AutoEnvironmentBlock,void *__ptr64>(void *__ptr64)__ptr64 
??0?$AutoCleanup@VAutoEnvironmentBlock@@PEAX@@QEAA@PEAX@Z
; public: __cdecl <class AutoEnvironmentBlock,void *__ptr64>::<class AutoEnvironmentBlock,void *__ptr64>(void)__ptr64 
??0?$AutoCleanup@VAutoEnvironmentBlock@@PEAX@@QEAA@XZ
; public: __cdecl <class AutoFwXmlCloseParser,void *__ptr64>::<class AutoFwXmlCloseParser,void *__ptr64>(void *__ptr64)__ptr64 
??0?$AutoCleanup@VAutoFwXmlCloseParser@@PEAX@@QEAA@PEAX@Z
; public: __cdecl <class AutoFwXmlCloseParser,void *__ptr64>::<class AutoFwXmlCloseParser,void *__ptr64>(void)__ptr64 
??0?$AutoCleanup@VAutoFwXmlCloseParser@@PEAX@@QEAA@XZ
; public: __cdecl <class AutoHandle,void *__ptr64>::<class AutoHandle,void *__ptr64>(void *__ptr64)__ptr64 
??0?$AutoCleanup@VAutoHandle@@PEAX@@QEAA@PEAX@Z
; public: __cdecl <class AutoHandle,void *__ptr64>::<class AutoHandle,void *__ptr64>(void)__ptr64 
??0?$AutoCleanup@VAutoHandle@@PEAX@@QEAA@XZ
; public: __cdecl <class AutoImpersonateUser,void *__ptr64>::<class AutoImpersonateUser,void *__ptr64>(void *__ptr64)__ptr64 
??0?$AutoCleanup@VAutoImpersonateUser@@PEAX@@QEAA@PEAX@Z
; public: __cdecl <class AutoImpersonateUser,void *__ptr64>::<class AutoImpersonateUser,void *__ptr64>(void)__ptr64 
??0?$AutoCleanup@VAutoImpersonateUser@@PEAX@@QEAA@XZ
; public: __cdecl <class AutoLibrary,struct HINSTANCE__ *__ptr64>::<class AutoLibrary,struct HINSTANCE__ *__ptr64>(struct HINSTANCE__ *__ptr64)__ptr64 
??0?$AutoCleanup@VAutoLibrary@@PEAUHINSTANCE__@@@@QEAA@PEAUHINSTANCE__@@@Z
; public: __cdecl <class AutoLibrary,struct HINSTANCE__ *__ptr64>::<class AutoLibrary,struct HINSTANCE__ *__ptr64>(void)__ptr64 
??0?$AutoCleanup@VAutoLibrary@@PEAUHINSTANCE__@@@@QEAA@XZ
; public: __cdecl <class AutoLocalFree,void *__ptr64>::<class AutoLocalFree,void *__ptr64>(void *__ptr64)__ptr64 
??0?$AutoCleanup@VAutoLocalFree@@PEAX@@QEAA@PEAX@Z
; public: __cdecl <class AutoLocalFree,void *__ptr64>::<class AutoLocalFree,void *__ptr64>(void)__ptr64 
??0?$AutoCleanup@VAutoLocalFree@@PEAX@@QEAA@XZ
; public: __cdecl <class AutoMIClass,struct _MI_Class *__ptr64>::<class AutoMIClass,struct _MI_Class *__ptr64>(struct _MI_Class *__ptr64)__ptr64 
??0?$AutoCleanup@VAutoMIClass@@PEAU_MI_Class@@@@QEAA@PEAU_MI_Class@@@Z
; public: __cdecl <class AutoMIClass,struct _MI_Class *__ptr64>::<class AutoMIClass,struct _MI_Class *__ptr64>(void)__ptr64 
??0?$AutoCleanup@VAutoMIClass@@PEAU_MI_Class@@@@QEAA@XZ
; public: __cdecl <class AutoMIInstance,struct _MI_Instance *__ptr64>::<class AutoMIInstance,struct _MI_Instance *__ptr64>(struct _MI_Instance *__ptr64)__ptr64 
??0?$AutoCleanup@VAutoMIInstance@@PEAU_MI_Instance@@@@QEAA@PEAU_MI_Instance@@@Z
; public: __cdecl <class AutoMIInstance,struct _MI_Instance *__ptr64>::<class AutoMIInstance,struct _MI_Instance *__ptr64>(void)__ptr64 
??0?$AutoCleanup@VAutoMIInstance@@PEAU_MI_Instance@@@@QEAA@XZ
; public: __cdecl <class AutoObject,struct WSMAN_OBJECT *__ptr64>::<class AutoObject,struct WSMAN_OBJECT *__ptr64>(struct WSMAN_OBJECT *__ptr64)__ptr64 
??0?$AutoCleanup@VAutoObject@@PEAUWSMAN_OBJECT@@@@QEAA@PEAUWSMAN_OBJECT@@@Z
; public: __cdecl <class AutoObject,struct WSMAN_OBJECT *__ptr64>::<class AutoObject,struct WSMAN_OBJECT *__ptr64>(void)__ptr64 
??0?$AutoCleanup@VAutoObject@@PEAUWSMAN_OBJECT@@@@QEAA@XZ
; public: __cdecl <class AutoRegKey,struct HKEY__ *__ptr64>::<class AutoRegKey,struct HKEY__ *__ptr64>(struct HKEY__ *__ptr64)__ptr64 
??0?$AutoCleanup@VAutoRegKey@@PEAUHKEY__@@@@QEAA@PEAUHKEY__@@@Z
; public: __cdecl <class AutoRegKey,struct HKEY__ *__ptr64>::<class AutoRegKey,struct HKEY__ *__ptr64>(void)__ptr64 
??0?$AutoCleanup@VAutoRegKey@@PEAUHKEY__@@@@QEAA@XZ
; public: __cdecl <class AutoSecurityDescriptor,void *__ptr64>::<class AutoSecurityDescriptor,void *__ptr64>(void *__ptr64)__ptr64 
??0?$AutoCleanup@VAutoSecurityDescriptor@@PEAX@@QEAA@PEAX@Z
; public: __cdecl <class AutoSecurityDescriptor,void *__ptr64>::<class AutoSecurityDescriptor,void *__ptr64>(void)__ptr64 
??0?$AutoCleanup@VAutoSecurityDescriptor@@PEAX@@QEAA@XZ
; public: __cdecl <class AutoWaitHandle,void *__ptr64>::<class AutoWaitHandle,void *__ptr64>(void *__ptr64)__ptr64 
??0?$AutoCleanup@VAutoWaitHandle@@PEAX@@QEAA@PEAX@Z
; public: __cdecl <class AutoWaitHandle,void *__ptr64>::<class AutoWaitHandle,void *__ptr64>(void)__ptr64 
??0?$AutoCleanup@VAutoWaitHandle@@PEAX@@QEAA@XZ
; public: __cdecl <char>::<char>(void)__ptr64 
??0?$AutoDelete@D@@QEAA@XZ
; public: __cdecl <unsigned short>::<unsigned short>(unsigned short *__ptr64)__ptr64 
??0?$AutoDelete@G@@QEAA@PEAG@Z
; public: __cdecl <unsigned short>::<unsigned short>(void)__ptr64 
??0?$AutoDelete@G@@QEAA@XZ
; public: __cdecl <struct CWSManIPFilter::IPRange>::<struct CWSManIPFilter::IPRange>(void)__ptr64 
??0?$AutoDelete@UIPRange@CWSManIPFilter@@@@QEAA@XZ
; public: __cdecl <struct _SID>::<struct _SID>(struct _SID *__ptr64)__ptr64 
??0?$AutoDelete@U_SID@@@@QEAA@PEAU_SID@@@Z
; public: __cdecl <struct _WSMAN_STREAM_ID_SET>::<struct _WSMAN_STREAM_ID_SET>(struct _WSMAN_STREAM_ID_SET *__ptr64)__ptr64 
??0?$AutoDelete@U_WSMAN_STREAM_ID_SET@@@@QEAA@PEAU_WSMAN_STREAM_ID_SET@@@Z
; public: __cdecl <class <class ISubscription>>::<class <class ISubscription>>(class <class ISubscription> *__ptr64)__ptr64 
??0?$AutoDelete@V?$Handle@VISubscription@@@@@@QEAA@PEAV?$Handle@VISubscription@@@@@Z
; public: __cdecl <class <class StringKeyCI,unsigned long>>::<class <class StringKeyCI,unsigned long>>(void)__ptr64 
??0?$AutoDelete@V?$SafeMap_Iterator@VStringKeyCI@@K@@@@QEAA@XZ
; public: __cdecl <class <enum WSManSessionOption,class WSMan::Client::SessionOptions::OptionValue *__ptr64>>::<class <enum WSManSessionOption,class WSMan::Client::SessionOptions::OptionValue *__ptr64>>(void)__ptr64 
??0?$AutoDelete@V?$SafeMap_Iterator@W4WSManSessionOption@@PEAVOptionValue@SessionOptions@Client@WSMan@@@@@@QEAA@XZ
; public: __cdecl <class <class CCertMapping *__ptr64>>::<class <class CCertMapping *__ptr64>>(class <class CCertMapping *__ptr64> *__ptr64)__ptr64 
??0?$AutoDelete@V?$SafeSet@PEAVCCertMapping@@@@@@QEAA@PEAV?$SafeSet@PEAVCCertMapping@@@@@Z
; public: __cdecl <class <class CCertMapping *__ptr64>>::<class <class CCertMapping *__ptr64>>(void)__ptr64 
??0?$AutoDelete@V?$SafeSet@PEAVCCertMapping@@@@@@QEAA@XZ
; public: __cdecl <class <class CShellUriSettings *__ptr64>>::<class <class CShellUriSettings *__ptr64>>(class <class CShellUriSettings *__ptr64> *__ptr64)__ptr64 
??0?$AutoDelete@V?$SafeSet@PEAVCShellUriSettings@@@@@@QEAA@PEAV?$SafeSet@PEAVCShellUriSettings@@@@@Z
; public: __cdecl <class <class CShellUriSettings *__ptr64>>::<class <class CShellUriSettings *__ptr64>>(void)__ptr64 
??0?$AutoDelete@V?$SafeSet@PEAVCShellUriSettings@@@@@@QEAA@XZ
; public: __cdecl <class <class CListenerOperation *__ptr64>>::<class <class CListenerOperation *__ptr64>>(void)__ptr64 
??0?$AutoDelete@V?$SafeSet_Iterator@PEAVCListenerOperation@@@@@@QEAA@XZ
; public: __cdecl <class <class CListenerOperation>>::<class <class CListenerOperation>>(void)__ptr64 
??0?$AutoDelete@V?$SimpleStack@VCListenerOperation@@@@@@QEAA@XZ
; public: __cdecl <class <class ShellHostEntry>>::<class <class ShellHostEntry>>(void)__ptr64 
??0?$AutoDelete@V?$SimpleStack@VShellHostEntry@@@@@@QEAA@XZ
; public: __cdecl <class std::<class CListenerSettings *__ptr64,class CServiceConfigSettings::CListenerSettingsLessFunctor,class <class CListenerSettings *__ptr64>>>::<class std::<class CListenerSettings *__ptr64,class CServiceConfigSettings::CListenerSettingsLessFunctor,class <class CListenerSettings *__ptr64>>>(class std::<class CListenerSettings *__ptr64,class CServiceConfigSettings::CListenerSettingsLessFunctor,class <class CListenerSettings *__ptr64>> *__ptr64)__ptr64 
??0?$AutoDelete@V?$set@PEAVCListenerSettings@@VCListenerSettingsLessFunctor@CServiceConfigSettings@@V?$transport_allocator@PEAVCListenerSettings@@@@@std@@@@QEAA@PEAV?$set@PEAVCListenerSettings@@VCListenerSettingsLessFunctor@CServiceConfigSettings@@V?$transport_allocator@PEAVCListenerSettings@@@@@std@@@Z
; public: __cdecl <class std::<class CListenerSettings *__ptr64,class CServiceConfigSettings::CListenerSettingsLessFunctor,class <class CListenerSettings *__ptr64>>>::<class std::<class CListenerSettings *__ptr64,class CServiceConfigSettings::CListenerSettingsLessFunctor,class <class CListenerSettings *__ptr64>>>(void)__ptr64 
??0?$AutoDelete@V?$set@PEAVCListenerSettings@@VCListenerSettingsLessFunctor@CServiceConfigSettings@@V?$transport_allocator@PEAVCListenerSettings@@@@@std@@@@QEAA@XZ
; public: __cdecl <class std::<struct sockaddr_storage,class CListenerSettings::SockAddrLessFunctor,class <struct sockaddr_storage>>>::<class std::<struct sockaddr_storage,class CListenerSettings::SockAddrLessFunctor,class <struct sockaddr_storage>>>(void)__ptr64 
??0?$AutoDelete@V?$set@Usockaddr_storage@@VSockAddrLessFunctor@CListenerSettings@@V?$transport_allocator@Usockaddr_storage@@@@@std@@@@QEAA@XZ
; public: __cdecl <class std::<class WSMan::Client::HandleImpl *__ptr64,class <class WSMan::Client::HandleImpl *__ptr64>>>::<class std::<class WSMan::Client::HandleImpl *__ptr64,class <class WSMan::Client::HandleImpl *__ptr64>>>(void)__ptr64 
??0?$AutoDelete@V?$vector@PEAVHandleImpl@Client@WSMan@@V?$transport_allocator@PEAVHandleImpl@Client@WSMan@@@@@std@@@@QEAA@XZ
; public: __cdecl <class std::<class IServiceConfigObserver *__ptr64,class <class IServiceConfigObserver *__ptr64>>>::<class std::<class IServiceConfigObserver *__ptr64,class <class IServiceConfigObserver *__ptr64>>>(void)__ptr64 
??0?$AutoDelete@V?$vector@PEAVIServiceConfigObserver@@V?$transport_allocator@PEAVIServiceConfigObserver@@@@@std@@@@QEAA@XZ
; public: __cdecl <class CSecurity::AdminSid>::<class CSecurity::AdminSid>(class CSecurity::AdminSid *__ptr64)__ptr64 
??0?$AutoDelete@VAdminSid@CSecurity@@@@QEAA@PEAVAdminSid@CSecurity@@@Z
; public: __cdecl <class BlockedRecord>::<class BlockedRecord>(void)__ptr64 
??0?$AutoDelete@VBlockedRecord@@@@QEAA@XZ
; public: __cdecl <class CBaseConfigCache>::<class CBaseConfigCache>(class CBaseConfigCache *__ptr64)__ptr64 
??0?$AutoDelete@VCBaseConfigCache@@@@QEAA@PEAVCBaseConfigCache@@@Z
; public: __cdecl <class CCertMapping>::<class CCertMapping>(class CCertMapping *__ptr64)__ptr64 
??0?$AutoDelete@VCCertMapping@@@@QEAA@PEAVCCertMapping@@@Z
; public: __cdecl <class CConfigChangeSource>::<class CConfigChangeSource>(void)__ptr64 
??0?$AutoDelete@VCConfigChangeSource@@@@QEAA@XZ
; public: __cdecl <class CListenerSettings>::<class CListenerSettings>(class CListenerSettings *__ptr64)__ptr64 
??0?$AutoDelete@VCListenerSettings@@@@QEAA@PEAVCListenerSettings@@@Z
; public: __cdecl <class CObserverConfigChangeErrors>::<class CObserverConfigChangeErrors>(void)__ptr64 
??0?$AutoDelete@VCObserverConfigChangeErrors@@@@QEAA@XZ
; public: __cdecl <class CServiceConfigCache::CServiceWatcher>::<class CServiceConfigCache::CServiceWatcher>(class CServiceConfigCache::CServiceWatcher *__ptr64)__ptr64 
??0?$AutoDelete@VCServiceWatcher@CServiceConfigCache@@@@QEAA@PEAVCServiceWatcher@CServiceConfigCache@@@Z
; public: __cdecl <class CServiceConfigCache::CServiceWatcher>::<class CServiceConfigCache::CServiceWatcher>(void)__ptr64 
??0?$AutoDelete@VCServiceWatcher@CServiceConfigCache@@@@QEAA@XZ
; public: __cdecl <class CShellUriSettings>::<class CShellUriSettings>(class CShellUriSettings *__ptr64)__ptr64 
??0?$AutoDelete@VCShellUriSettings@@@@QEAA@PEAVCShellUriSettings@@@Z
; public: __cdecl <class CWSManEPR>::<class CWSManEPR>(class CWSManEPR *__ptr64)__ptr64 
??0?$AutoDelete@VCWSManEPR@@@@QEAA@PEAVCWSManEPR@@@Z
; public: __cdecl <class CWSManResource>::<class CWSManResource>(class CWSManResource *__ptr64)__ptr64 
??0?$AutoDelete@VCWSManResource@@@@QEAA@PEAVCWSManResource@@@Z
; public: __cdecl <class CWSManResource>::<class CWSManResource>(void)__ptr64 
??0?$AutoDelete@VCWSManResource@@@@QEAA@XZ
; public: __cdecl <class CertHash>::<class CertHash>(class CertHash *__ptr64)__ptr64 
??0?$AutoDelete@VCertHash@@@@QEAA@PEAVCertHash@@@Z
; public: __cdecl <class CertHash>::<class CertHash>(void)__ptr64 
??0?$AutoDelete@VCertHash@@@@QEAA@XZ
; public: __cdecl <class ConfigUpdate>::<class ConfigUpdate>(class ConfigUpdate *__ptr64)__ptr64 
??0?$AutoDelete@VConfigUpdate@@@@QEAA@PEAVConfigUpdate@@@Z
; public: __cdecl <class ConfigUpdate>::<class ConfigUpdate>(void)__ptr64 
??0?$AutoDelete@VConfigUpdate@@@@QEAA@XZ
; public: __cdecl <class CredUIDllLoader>::<class CredUIDllLoader>(class CredUIDllLoader *__ptr64)__ptr64 
??0?$AutoDelete@VCredUIDllLoader@@@@QEAA@PEAVCredUIDllLoader@@@Z
; public: __cdecl <class EnumSinkEx>::<class EnumSinkEx>(class EnumSinkEx *__ptr64)__ptr64 
??0?$AutoDelete@VEnumSinkEx@@@@QEAA@PEAVEnumSinkEx@@@Z
; public: __cdecl <class EnumSinkEx>::<class EnumSinkEx>(void)__ptr64 
??0?$AutoDelete@VEnumSinkEx@@@@QEAA@XZ
; public: __cdecl <class WSMan::EventHandler>::<class WSMan::EventHandler>(class WSMan::EventHandler *__ptr64)__ptr64 
??0?$AutoDelete@VEventHandler@WSMan@@@@QEAA@PEAVEventHandler@WSMan@@@Z
; public: __cdecl <class ExpiredOperationIdRecord>::<class ExpiredOperationIdRecord>(class ExpiredOperationIdRecord *__ptr64)__ptr64 
??0?$AutoDelete@VExpiredOperationIdRecord@@@@QEAA@PEAVExpiredOperationIdRecord@@@Z
; public: __cdecl <class GPApiManager>::<class GPApiManager>(void)__ptr64 
??0?$AutoDelete@VGPApiManager@@@@QEAA@XZ
; public: __cdecl <class GeneralSinkEx>::<class GeneralSinkEx>(class GeneralSinkEx *__ptr64)__ptr64 
??0?$AutoDelete@VGeneralSinkEx@@@@QEAA@PEAVGeneralSinkEx@@@Z
; public: __cdecl <class GeneralSinkEx>::<class GeneralSinkEx>(void)__ptr64 
??0?$AutoDelete@VGeneralSinkEx@@@@QEAA@XZ
; public: __cdecl <class IChannelObserverFactory>::<class IChannelObserverFactory>(class IChannelObserverFactory *__ptr64)__ptr64 
??0?$AutoDelete@VIChannelObserverFactory@@@@QEAA@PEAVIChannelObserverFactory@@@Z
; public: __cdecl <class IChannelObserverFactory>::<class IChannelObserverFactory>(void)__ptr64 
??0?$AutoDelete@VIChannelObserverFactory@@@@QEAA@XZ
; public: __cdecl <class IQueryDASHSMASHInterface>::<class IQueryDASHSMASHInterface>(class IQueryDASHSMASHInterface *__ptr64)__ptr64 
??0?$AutoDelete@VIQueryDASHSMASHInterface@@@@QEAA@PEAVIQueryDASHSMASHInterface@@@Z
; public: __cdecl <class IQueryDASHSMASHInterface>::<class IQueryDASHSMASHInterface>(void)__ptr64 
??0?$AutoDelete@VIQueryDASHSMASHInterface@@@@QEAA@XZ
; public: __cdecl <class ISpecification>::<class ISpecification>(class ISpecification *__ptr64)__ptr64 
??0?$AutoDelete@VISpecification@@@@QEAA@PEAVISpecification@@@Z
; public: __cdecl <class ISpecification>::<class ISpecification>(void)__ptr64 
??0?$AutoDelete@VISpecification@@@@QEAA@XZ
; public: __cdecl <class CSecurity::InteractiveSid>::<class CSecurity::InteractiveSid>(class CSecurity::InteractiveSid *__ptr64)__ptr64 
??0?$AutoDelete@VInteractiveSid@CSecurity@@@@QEAA@PEAVInteractiveSid@CSecurity@@@Z
; public: __cdecl <class IpHlpApiDllLoader>::<class IpHlpApiDllLoader>(class IpHlpApiDllLoader *__ptr64)__ptr64 
??0?$AutoDelete@VIpHlpApiDllLoader@@@@QEAA@PEAVIpHlpApiDllLoader@@@Z
; public: __cdecl <class MachineName>::<class MachineName>(class MachineName *__ptr64)__ptr64 
??0?$AutoDelete@VMachineName@@@@QEAA@PEAVMachineName@@@Z
; public: __cdecl <class CSecurity::NetworkServiceSid>::<class CSecurity::NetworkServiceSid>(class CSecurity::NetworkServiceSid *__ptr64)__ptr64 
??0?$AutoDelete@VNetworkServiceSid@CSecurity@@@@QEAA@PEAVNetworkServiceSid@CSecurity@@@Z
; public: __cdecl <class NtDsApiDllLoader>::<class NtDsApiDllLoader>(class NtDsApiDllLoader *__ptr64)__ptr64 
??0?$AutoDelete@VNtDsApiDllLoader@@@@QEAA@PEAVNtDsApiDllLoader@@@Z
; public: __cdecl <class WSMan::Client::SessionOptions::OptionValue>::<class WSMan::Client::SessionOptions::OptionValue>(class WSMan::Client::SessionOptions::OptionValue *__ptr64)__ptr64 
??0?$AutoDelete@VOptionValue@SessionOptions@Client@WSMan@@@@QEAA@PEAVOptionValue@SessionOptions@Client@WSMan@@@Z
; public: __cdecl <class PacketCreator>::<class PacketCreator>(class PacketCreator *__ptr64)__ptr64 
??0?$AutoDelete@VPacketCreator@@@@QEAA@PEAVPacketCreator@@@Z
; public: __cdecl <class PacketCreator>::<class PacketCreator>(void)__ptr64 
??0?$AutoDelete@VPacketCreator@@@@QEAA@XZ
; public: __cdecl <class PacketParser>::<class PacketParser>(void)__ptr64 
??0?$AutoDelete@VPacketParser@@@@QEAA@XZ
; public: __cdecl <class Locale::Resources>::<class Locale::Resources>(class Locale::Resources *__ptr64)__ptr64 
??0?$AutoDelete@VResources@Locale@@@@QEAA@PEAVResources@Locale@@@Z
; public: __cdecl <class RunAsConfiguration>::<class RunAsConfiguration>(class RunAsConfiguration *__ptr64)__ptr64 
??0?$AutoDelete@VRunAsConfiguration@@@@QEAA@PEAVRunAsConfiguration@@@Z
; public: __cdecl <class Catalog::SecurityEntry>::<class Catalog::SecurityEntry>(class Catalog::SecurityEntry *__ptr64)__ptr64 
??0?$AutoDelete@VSecurityEntry@Catalog@@@@QEAA@PEAVSecurityEntry@Catalog@@@Z
; public: __cdecl <class RobustConnectionBuffer::SendPacketArgs>::<class RobustConnectionBuffer::SendPacketArgs>(class RobustConnectionBuffer::SendPacketArgs *__ptr64)__ptr64 
??0?$AutoDelete@VSendPacketArgs@RobustConnectionBuffer@@@@QEAA@PEAVSendPacketArgs@RobustConnectionBuffer@@@Z
; public: __cdecl <class ServiceSoapProcessor>::<class ServiceSoapProcessor>(void)__ptr64 
??0?$AutoDelete@VServiceSoapProcessor@@@@QEAA@XZ
; public: __cdecl <class Shell32DllLoader>::<class Shell32DllLoader>(class Shell32DllLoader *__ptr64)__ptr64 
??0?$AutoDelete@VShell32DllLoader@@@@QEAA@PEAVShell32DllLoader@@@Z
; public: __cdecl <class ShlWApiDllLoader>::<class ShlWApiDllLoader>(class ShlWApiDllLoader *__ptr64)__ptr64 
??0?$AutoDelete@VShlWApiDllLoader@@@@QEAA@PEAVShlWApiDllLoader@@@Z
; public: __cdecl <class SubscriptionEnumerator>::<class SubscriptionEnumerator>(void)__ptr64 
??0?$AutoDelete@VSubscriptionEnumerator@@@@QEAA@XZ
; public: __cdecl <class SubscriptionManager>::<class SubscriptionManager>(class SubscriptionManager *__ptr64)__ptr64 
??0?$AutoDelete@VSubscriptionManager@@@@QEAA@PEAVSubscriptionManager@@@Z
; public: __cdecl <class TSTRBUFFER>::<class TSTRBUFFER>(class TSTRBUFFER *__ptr64)__ptr64 
??0?$AutoDelete@VTSTRBUFFER@@@@QEAA@PEAVTSTRBUFFER@@@Z
; public: __cdecl <class TSTRBUFFER>::<class TSTRBUFFER>(void)__ptr64 
??0?$AutoDelete@VTSTRBUFFER@@@@QEAA@XZ
; public: __cdecl <class UniqueStringOverflow>::<class UniqueStringOverflow>(void)__ptr64 
??0?$AutoDelete@VUniqueStringOverflow@@@@QEAA@XZ
; public: __cdecl <class User32DllLoader>::<class User32DllLoader>(class User32DllLoader *__ptr64)__ptr64 
??0?$AutoDelete@VUser32DllLoader@@@@QEAA@PEAVUser32DllLoader@@@Z
; public: __cdecl <class WSMANCONFIGTABLE_IDENTITY>::<class WSMANCONFIGTABLE_IDENTITY>(class WSMANCONFIGTABLE_IDENTITY *__ptr64)__ptr64 
??0?$AutoDelete@VWSMANCONFIGTABLE_IDENTITY@@@@QEAA@PEAVWSMANCONFIGTABLE_IDENTITY@@@Z
; public: __cdecl <class WSManMemCryptManager>::<class WSManMemCryptManager>(class WSManMemCryptManager *__ptr64)__ptr64 
??0?$AutoDelete@VWSManMemCryptManager@@@@QEAA@PEAVWSManMemCryptManager@@@Z
; public: __cdecl <class WmiEnumContext>::<class WmiEnumContext>(class WmiEnumContext *__ptr64)__ptr64 
??0?$AutoDelete@VWmiEnumContext@@@@QEAA@PEAVWmiEnumContext@@@Z
; public: __cdecl <class WmiEnumContext>::<class WmiEnumContext>(void)__ptr64 
??0?$AutoDelete@VWmiEnumContext@@@@QEAA@XZ
; public: __cdecl <class XmlReader>::<class XmlReader>(class XmlReader *__ptr64)__ptr64 
??0?$AutoDelete@VXmlReader@@@@QEAA@PEAVXmlReader@@@Z
; public: __cdecl <class XmlReader>::<class XmlReader>(void)__ptr64 
??0?$AutoDelete@VXmlReader@@@@QEAA@XZ
; public: __cdecl <unsigned short const>::<unsigned short const>(void)__ptr64 
??0?$AutoDeleteVector@$$CBG@@QEAA@XZ
; public: __cdecl <char>::<char>(char *__ptr64)__ptr64 
??0?$AutoDeleteVector@D@@QEAA@PEAD@Z
; public: __cdecl <char>::<char>(void)__ptr64 
??0?$AutoDeleteVector@D@@QEAA@XZ
; public: __cdecl <unsigned char>::<unsigned char>(unsigned char *__ptr64)__ptr64 
??0?$AutoDeleteVector@E@@QEAA@PEAE@Z
; public: __cdecl <unsigned char>::<unsigned char>(void)__ptr64 
??0?$AutoDeleteVector@E@@QEAA@XZ
; public: __cdecl <unsigned short>::<unsigned short>(unsigned short *__ptr64)__ptr64 
??0?$AutoDeleteVector@G@@QEAA@PEAG@Z
; public: __cdecl <unsigned short>::<unsigned short>(void)__ptr64 
??0?$AutoDeleteVector@G@@QEAA@XZ
; public: __cdecl <int>::<int>(int *__ptr64)__ptr64 
??0?$AutoDeleteVector@H@@QEAA@PEAH@Z
; public: __cdecl <unsigned short *__ptr64>::<unsigned short *__ptr64>(unsigned short *__ptr64 *__ptr64)__ptr64 
??0?$AutoDeleteVector@PEAG@@QEAA@PEAPEAG@Z
; public: __cdecl <unsigned short *__ptr64>::<unsigned short *__ptr64>(void)__ptr64 
??0?$AutoDeleteVector@PEAG@@QEAA@XZ
; public: __cdecl <unsigned short const *__ptr64>::<unsigned short const *__ptr64>(unsigned short const *__ptr64 *__ptr64)__ptr64 
??0?$AutoDeleteVector@PEBG@@QEAA@PEAPEBG@Z
; public: __cdecl <unsigned short const *__ptr64>::<unsigned short const *__ptr64>(void)__ptr64 
??0?$AutoDeleteVector@PEBG@@QEAA@XZ
; public: __cdecl <struct _CONFIG_UPDATE>::<struct _CONFIG_UPDATE>(void)__ptr64 
??0?$AutoDeleteVector@U_CONFIG_UPDATE@@@@QEAA@XZ
; public: __cdecl <struct _WINRS_CREATE_SHELL_ENVIRONMENT_VARIABLE>::<struct _WINRS_CREATE_SHELL_ENVIRONMENT_VARIABLE>(struct _WINRS_CREATE_SHELL_ENVIRONMENT_VARIABLE *__ptr64)__ptr64 
??0?$AutoDeleteVector@U_WINRS_CREATE_SHELL_ENVIRONMENT_VARIABLE@@@@QEAA@PEAU_WINRS_CREATE_SHELL_ENVIRONMENT_VARIABLE@@@Z
; public: __cdecl <struct _WINRS_CREATE_SHELL_ENVIRONMENT_VARIABLE>::<struct _WINRS_CREATE_SHELL_ENVIRONMENT_VARIABLE>(void)__ptr64 
??0?$AutoDeleteVector@U_WINRS_CREATE_SHELL_ENVIRONMENT_VARIABLE@@@@QEAA@XZ
; public: __cdecl <struct _WINRS_RUN_COMMAND_ARG>::<struct _WINRS_RUN_COMMAND_ARG>(struct _WINRS_RUN_COMMAND_ARG *__ptr64)__ptr64 
??0?$AutoDeleteVector@U_WINRS_RUN_COMMAND_ARG@@@@QEAA@PEAU_WINRS_RUN_COMMAND_ARG@@@Z
; public: __cdecl <struct _WINRS_RUN_COMMAND_ARG>::<struct _WINRS_RUN_COMMAND_ARG>(void)__ptr64 
??0?$AutoDeleteVector@U_WINRS_RUN_COMMAND_ARG@@@@QEAA@XZ
; public: __cdecl <struct _WSMAN_OPTION>::<struct _WSMAN_OPTION>(struct _WSMAN_OPTION *__ptr64)__ptr64 
??0?$AutoDeleteVector@U_WSMAN_OPTION@@@@QEAA@PEAU_WSMAN_OPTION@@@Z
; public: __cdecl <struct _WSMAN_OPTION>::<struct _WSMAN_OPTION>(void)__ptr64 
??0?$AutoDeleteVector@U_WSMAN_OPTION@@@@QEAA@XZ
; public: __cdecl <void>::<void>(void *__ptr64)__ptr64 
??0?$AutoDeleteVector@X@@QEAA@PEAX@Z
; public: __cdecl <void>::<void>(void)__ptr64 
??0?$AutoDeleteVector@X@@QEAA@XZ
; public: __cdecl <unsigned char>::<unsigned char>(unsigned char *__ptr64)__ptr64 
??0?$AutoFree@E@@QEAA@PEAE@Z
; public: __cdecl <unsigned char>::<unsigned char>(void)__ptr64 
??0?$AutoFree@E@@QEAA@XZ
; public: __cdecl <class Packet>::<class Packet>(class Packet *__ptr64)__ptr64 
??0?$AutoLocklessItemRecycle@VPacket@@@@QEAA@PEAVPacket@@@Z
; public: __cdecl <class Packet>::<class Packet>(void)__ptr64 
??0?$AutoLocklessItemRecycle@VPacket@@@@QEAA@XZ
; public: __cdecl <struct IAppHostAdminManager>::<struct IAppHostAdminManager>(struct IAppHostAdminManager *__ptr64)__ptr64 
??0?$AutoRelease@UIAppHostAdminManager@@@@QEAA@PEAUIAppHostAdminManager@@@Z
; public: __cdecl <struct IAppHostChildElementCollection>::<struct IAppHostChildElementCollection>(void)__ptr64 
??0?$AutoRelease@UIAppHostChildElementCollection@@@@QEAA@XZ
; public: __cdecl <struct IAppHostConfigException>::<struct IAppHostConfigException>(struct IAppHostConfigException *__ptr64)__ptr64 
??0?$AutoRelease@UIAppHostConfigException@@@@QEAA@PEAUIAppHostConfigException@@@Z
; public: __cdecl <struct IAppHostElement>::<struct IAppHostElement>(struct IAppHostElement *__ptr64)__ptr64 
??0?$AutoRelease@UIAppHostElement@@@@QEAA@PEAUIAppHostElement@@@Z
; public: __cdecl <struct IAppHostElement>::<struct IAppHostElement>(void)__ptr64 
??0?$AutoRelease@UIAppHostElement@@@@QEAA@XZ
; public: __cdecl <struct IAppHostElementCollection>::<struct IAppHostElementCollection>(void)__ptr64 
??0?$AutoRelease@UIAppHostElementCollection@@@@QEAA@XZ
; public: __cdecl <struct IAppHostProperty>::<struct IAppHostProperty>(void)__ptr64 
??0?$AutoRelease@UIAppHostProperty@@@@QEAA@XZ
; public: __cdecl <struct IAppHostPropertyCollection>::<struct IAppHostPropertyCollection>(void)__ptr64 
??0?$AutoRelease@UIAppHostPropertyCollection@@@@QEAA@XZ
; public: __cdecl <struct IClientSecurity>::<struct IClientSecurity>(struct IClientSecurity *__ptr64)__ptr64 
??0?$AutoRelease@UIClientSecurity@@@@QEAA@PEAUIClientSecurity@@@Z
; public: __cdecl <struct IClientSecurity>::<struct IClientSecurity>(void)__ptr64 
??0?$AutoRelease@UIClientSecurity@@@@QEAA@XZ
; public: __cdecl <struct IEnumWbemClassObject>::<struct IEnumWbemClassObject>(struct IEnumWbemClassObject *__ptr64)__ptr64 
??0?$AutoRelease@UIEnumWbemClassObject@@@@QEAA@PEAUIEnumWbemClassObject@@@Z
; public: __cdecl <struct IEnumWbemClassObject>::<struct IEnumWbemClassObject>(void)__ptr64 
??0?$AutoRelease@UIEnumWbemClassObject@@@@QEAA@XZ
; public: __cdecl <struct IErrorInfo>::<struct IErrorInfo>(struct IErrorInfo *__ptr64)__ptr64 
??0?$AutoRelease@UIErrorInfo@@@@QEAA@PEAUIErrorInfo@@@Z
; public: __cdecl <struct IErrorInfo>::<struct IErrorInfo>(void)__ptr64 
??0?$AutoRelease@UIErrorInfo@@@@QEAA@XZ
; public: __cdecl <struct IUnknown>::<struct IUnknown>(struct IUnknown *__ptr64)__ptr64 
??0?$AutoRelease@UIUnknown@@@@QEAA@PEAUIUnknown@@@Z
; public: __cdecl <struct IUnknown>::<struct IUnknown>(void)__ptr64 
??0?$AutoRelease@UIUnknown@@@@QEAA@XZ
; public: __cdecl <struct IWbemClassObject>::<struct IWbemClassObject>(struct IWbemClassObject *__ptr64)__ptr64 
??0?$AutoRelease@UIWbemClassObject@@@@QEAA@PEAUIWbemClassObject@@@Z
; public: __cdecl <struct IWbemClassObject>::<struct IWbemClassObject>(void)__ptr64 
??0?$AutoRelease@UIWbemClassObject@@@@QEAA@XZ
; public: __cdecl <struct IWbemContext>::<struct IWbemContext>(struct IWbemContext *__ptr64)__ptr64 
??0?$AutoRelease@UIWbemContext@@@@QEAA@PEAUIWbemContext@@@Z
; public: __cdecl <struct IWbemContext>::<struct IWbemContext>(void)__ptr64 
??0?$AutoRelease@UIWbemContext@@@@QEAA@XZ
; public: __cdecl <struct IWbemLocator>::<struct IWbemLocator>(struct IWbemLocator *__ptr64)__ptr64 
??0?$AutoRelease@UIWbemLocator@@@@QEAA@PEAUIWbemLocator@@@Z
; public: __cdecl <struct IWbemLocator>::<struct IWbemLocator>(void)__ptr64 
??0?$AutoRelease@UIWbemLocator@@@@QEAA@XZ
; public: __cdecl <struct IWbemObjectTextSrc>::<struct IWbemObjectTextSrc>(struct IWbemObjectTextSrc *__ptr64)__ptr64 
??0?$AutoRelease@UIWbemObjectTextSrc@@@@QEAA@PEAUIWbemObjectTextSrc@@@Z
; public: __cdecl <struct IWbemObjectTextSrc>::<struct IWbemObjectTextSrc>(void)__ptr64 
??0?$AutoRelease@UIWbemObjectTextSrc@@@@QEAA@XZ
; public: __cdecl <struct IWbemPath>::<struct IWbemPath>(struct IWbemPath *__ptr64)__ptr64 
??0?$AutoRelease@UIWbemPath@@@@QEAA@PEAUIWbemPath@@@Z
; public: __cdecl <struct IWbemPath>::<struct IWbemPath>(void)__ptr64 
??0?$AutoRelease@UIWbemPath@@@@QEAA@XZ
; public: __cdecl <struct IWbemPathKeyList>::<struct IWbemPathKeyList>(struct IWbemPathKeyList *__ptr64)__ptr64 
??0?$AutoRelease@UIWbemPathKeyList@@@@QEAA@PEAUIWbemPathKeyList@@@Z
; public: __cdecl <struct IWbemPathKeyList>::<struct IWbemPathKeyList>(void)__ptr64 
??0?$AutoRelease@UIWbemPathKeyList@@@@QEAA@XZ
; public: __cdecl <struct IWbemQualifierSet>::<struct IWbemQualifierSet>(struct IWbemQualifierSet *__ptr64)__ptr64 
??0?$AutoRelease@UIWbemQualifierSet@@@@QEAA@PEAUIWbemQualifierSet@@@Z
; public: __cdecl <struct IWbemQualifierSet>::<struct IWbemQualifierSet>(void)__ptr64 
??0?$AutoRelease@UIWbemQualifierSet@@@@QEAA@XZ
; public: __cdecl <struct IWbemQuery>::<struct IWbemQuery>(struct IWbemQuery *__ptr64)__ptr64 
??0?$AutoRelease@UIWbemQuery@@@@QEAA@PEAUIWbemQuery@@@Z
; public: __cdecl <struct IWbemQuery>::<struct IWbemQuery>(void)__ptr64 
??0?$AutoRelease@UIWbemQuery@@@@QEAA@XZ
; public: __cdecl <struct IWbemServices>::<struct IWbemServices>(struct IWbemServices *__ptr64)__ptr64 
??0?$AutoRelease@UIWbemServices@@@@QEAA@PEAUIWbemServices@@@Z
; public: __cdecl <struct IWbemServices>::<struct IWbemServices>(void)__ptr64 
??0?$AutoRelease@UIWbemServices@@@@QEAA@XZ
; public: __cdecl <class WSMan::Client::Application>::<class WSMan::Client::Application>(void)__ptr64 
??0?$AutoRelease@VApplication@Client@WSMan@@@@QEAA@XZ
; public: __cdecl <class CBaseConfigCache>::<class CBaseConfigCache>(class CBaseConfigCache *__ptr64)__ptr64 
??0?$AutoRelease@VCBaseConfigCache@@@@QEAA@PEAVCBaseConfigCache@@@Z
; public: __cdecl <class CClientConfigSettings>::<class CClientConfigSettings>(class CClientConfigSettings *__ptr64)__ptr64 
??0?$AutoRelease@VCClientConfigSettings@@@@QEAA@PEAVCClientConfigSettings@@@Z
; public: __cdecl <class CClientConfigSettings>::<class CClientConfigSettings>(void)__ptr64 
??0?$AutoRelease@VCClientConfigSettings@@@@QEAA@XZ
; public: __cdecl <class CCommonConfigSettings>::<class CCommonConfigSettings>(class CCommonConfigSettings *__ptr64)__ptr64 
??0?$AutoRelease@VCCommonConfigSettings@@@@QEAA@PEAVCCommonConfigSettings@@@Z
; public: __cdecl <class CCommonConfigSettings>::<class CCommonConfigSettings>(void)__ptr64 
??0?$AutoRelease@VCCommonConfigSettings@@@@QEAA@XZ
; public: __cdecl <class CBaseConfigCache::CConfigCacheMap>::<class CBaseConfigCache::CConfigCacheMap>(class CBaseConfigCache::CConfigCacheMap *__ptr64)__ptr64 
??0?$AutoRelease@VCConfigCacheMap@CBaseConfigCache@@@@QEAA@PEAVCConfigCacheMap@CBaseConfigCache@@@Z
; public: __cdecl <class CBaseConfigCache::CConfigCacheMap>::<class CBaseConfigCache::CConfigCacheMap>(void)__ptr64 
??0?$AutoRelease@VCConfigCacheMap@CBaseConfigCache@@@@QEAA@XZ
; public: __cdecl <class CConfigManager>::<class CConfigManager>(class CConfigManager *__ptr64)__ptr64 
??0?$AutoRelease@VCConfigManager@@@@QEAA@PEAVCConfigManager@@@Z
; public: __cdecl <class CConfigManager>::<class CConfigManager>(void)__ptr64 
??0?$AutoRelease@VCConfigManager@@@@QEAA@XZ
; public: __cdecl <class CRemoteOperation>::<class CRemoteOperation>(class CRemoteOperation *__ptr64)__ptr64 
??0?$AutoRelease@VCRemoteOperation@@@@QEAA@PEAVCRemoteOperation@@@Z
; public: __cdecl <class CRemoteSession>::<class CRemoteSession>(class CRemoteSession *__ptr64)__ptr64 
??0?$AutoRelease@VCRemoteSession@@@@QEAA@PEAVCRemoteSession@@@Z
; public: __cdecl <class CRemoteSession>::<class CRemoteSession>(void)__ptr64 
??0?$AutoRelease@VCRemoteSession@@@@QEAA@XZ
; public: __cdecl <class CRequestContext>::<class CRequestContext>(class CRequestContext *__ptr64)__ptr64 
??0?$AutoRelease@VCRequestContext@@@@QEAA@PEAVCRequestContext@@@Z
; public: __cdecl <class CRequestContext>::<class CRequestContext>(void)__ptr64 
??0?$AutoRelease@VCRequestContext@@@@QEAA@XZ
; public: __cdecl <class CServiceCommonConfigSettings>::<class CServiceCommonConfigSettings>(class CServiceCommonConfigSettings *__ptr64)__ptr64 
??0?$AutoRelease@VCServiceCommonConfigSettings@@@@QEAA@PEAVCServiceCommonConfigSettings@@@Z
; public: __cdecl <class CServiceCommonConfigSettings>::<class CServiceCommonConfigSettings>(void)__ptr64 
??0?$AutoRelease@VCServiceCommonConfigSettings@@@@QEAA@XZ
; public: __cdecl <class CServiceConfigCache>::<class CServiceConfigCache>(class CServiceConfigCache *__ptr64)__ptr64 
??0?$AutoRelease@VCServiceConfigCache@@@@QEAA@PEAVCServiceConfigCache@@@Z
; public: __cdecl <class CServiceConfigCache>::<class CServiceConfigCache>(void)__ptr64 
??0?$AutoRelease@VCServiceConfigCache@@@@QEAA@XZ
; public: __cdecl <class CServiceConfigSettings>::<class CServiceConfigSettings>(class CServiceConfigSettings *__ptr64)__ptr64 
??0?$AutoRelease@VCServiceConfigSettings@@@@QEAA@PEAVCServiceConfigSettings@@@Z
; public: __cdecl <class CServiceConfigSettings>::<class CServiceConfigSettings>(void)__ptr64 
??0?$AutoRelease@VCServiceConfigSettings@@@@QEAA@XZ
; public: __cdecl <class CWSManEPR>::<class CWSManEPR>(class CWSManEPR *__ptr64)__ptr64 
??0?$AutoRelease@VCWSManEPR@@@@QEAA@PEAVCWSManEPR@@@Z
; public: __cdecl <class CWSManEPR>::<class CWSManEPR>(void)__ptr64 
??0?$AutoRelease@VCWSManEPR@@@@QEAA@XZ
; public: __cdecl <class CWSManGroupPolicyCache>::<class CWSManGroupPolicyCache>(class CWSManGroupPolicyCache *__ptr64)__ptr64 
??0?$AutoRelease@VCWSManGroupPolicyCache@@@@QEAA@PEAVCWSManGroupPolicyCache@@@Z
; public: __cdecl <class CWSManGroupPolicyManager>::<class CWSManGroupPolicyManager>(class CWSManGroupPolicyManager *__ptr64)__ptr64 
??0?$AutoRelease@VCWSManGroupPolicyManager@@@@QEAA@PEAVCWSManGroupPolicyManager@@@Z
; public: __cdecl <class CWSManObject>::<class CWSManObject>(class CWSManObject *__ptr64)__ptr64 
??0?$AutoRelease@VCWSManObject@@@@QEAA@PEAVCWSManObject@@@Z
; public: __cdecl <class CWSManResource>::<class CWSManResource>(class CWSManResource *__ptr64)__ptr64 
??0?$AutoRelease@VCWSManResource@@@@QEAA@PEAVCWSManResource@@@Z
; public: __cdecl <class CWSManResource>::<class CWSManResource>(void)__ptr64 
??0?$AutoRelease@VCWSManResource@@@@QEAA@XZ
; public: __cdecl <class CWinRSPluginConfigCache>::<class CWinRSPluginConfigCache>(class CWinRSPluginConfigCache *__ptr64)__ptr64 
??0?$AutoRelease@VCWinRSPluginConfigCache@@@@QEAA@PEAVCWinRSPluginConfigCache@@@Z
; public: __cdecl <class CWinRSPluginConfigCache>::<class CWinRSPluginConfigCache>(void)__ptr64 
??0?$AutoRelease@VCWinRSPluginConfigCache@@@@QEAA@XZ
; public: __cdecl <class CWinRSPluginConfigSettings>::<class CWinRSPluginConfigSettings>(class CWinRSPluginConfigSettings *__ptr64)__ptr64 
??0?$AutoRelease@VCWinRSPluginConfigSettings@@@@QEAA@PEAVCWinRSPluginConfigSettings@@@Z
; public: __cdecl <class WSMan::Client::Command>::<class WSMan::Client::Command>(class WSMan::Client::Command *__ptr64)__ptr64 
??0?$AutoRelease@VCommand@Client@WSMan@@@@QEAA@PEAVCommand@Client@WSMan@@@Z
; public: __cdecl <class ConfigNotification>::<class ConfigNotification>(class ConfigNotification *__ptr64)__ptr64 
??0?$AutoRelease@VConfigNotification@@@@QEAA@PEAVConfigNotification@@@Z
; public: __cdecl <class WSMan::Client::ConnectShellOperation>::<class WSMan::Client::ConnectShellOperation>(class WSMan::Client::ConnectShellOperation *__ptr64)__ptr64 
??0?$AutoRelease@VConnectShellOperation@Client@WSMan@@@@QEAA@PEAVConnectShellOperation@Client@WSMan@@@Z
; public: __cdecl <class WSMan::Client::CreateShellOperation>::<class WSMan::Client::CreateShellOperation>(class WSMan::Client::CreateShellOperation *__ptr64)__ptr64 
??0?$AutoRelease@VCreateShellOperation@Client@WSMan@@@@QEAA@PEAVCreateShellOperation@Client@WSMan@@@Z
; public: __cdecl <class WSMan::Client::DeleteShellOperation>::<class WSMan::Client::DeleteShellOperation>(class WSMan::Client::DeleteShellOperation *__ptr64)__ptr64 
??0?$AutoRelease@VDeleteShellOperation@Client@WSMan@@@@QEAA@PEAVDeleteShellOperation@Client@WSMan@@@Z
; public: __cdecl <class WSMan::Client::DisconnectOperation>::<class WSMan::Client::DisconnectOperation>(class WSMan::Client::DisconnectOperation *__ptr64)__ptr64 
??0?$AutoRelease@VDisconnectOperation@Client@WSMan@@@@QEAA@PEAVDisconnectOperation@Client@WSMan@@@Z
; public: __cdecl <class EnumSinkEx>::<class EnumSinkEx>(class EnumSinkEx *__ptr64)__ptr64 
??0?$AutoRelease@VEnumSinkEx@@@@QEAA@PEAVEnumSinkEx@@@Z
; public: __cdecl <class EnumSinkEx>::<class EnumSinkEx>(void)__ptr64 
??0?$AutoRelease@VEnumSinkEx@@@@QEAA@XZ
; public: __cdecl <class GeneralSinkEx>::<class GeneralSinkEx>(class GeneralSinkEx *__ptr64)__ptr64 
??0?$AutoRelease@VGeneralSinkEx@@@@QEAA@PEAVGeneralSinkEx@@@Z
; public: __cdecl <class GeneralSinkEx>::<class GeneralSinkEx>(void)__ptr64 
??0?$AutoRelease@VGeneralSinkEx@@@@QEAA@XZ
; public: __cdecl <class IISConfigSettings>::<class IISConfigSettings>(void)__ptr64 
??0?$AutoRelease@VIISConfigSettings@@@@QEAA@XZ
; public: __cdecl <class IPCSoapProcessor>::<class IPCSoapProcessor>(class IPCSoapProcessor *__ptr64)__ptr64 
??0?$AutoRelease@VIPCSoapProcessor@@@@QEAA@PEAVIPCSoapProcessor@@@Z
; public: __cdecl <class IRequestContext>::<class IRequestContext>(class IRequestContext *__ptr64)__ptr64 
??0?$AutoRelease@VIRequestContext@@@@QEAA@PEAVIRequestContext@@@Z
; public: __cdecl <class IRequestContext>::<class IRequestContext>(void)__ptr64 
??0?$AutoRelease@VIRequestContext@@@@QEAA@XZ
; public: __cdecl <class ISubscription>::<class ISubscription>(class ISubscription *__ptr64)__ptr64 
??0?$AutoRelease@VISubscription@@@@QEAA@PEAVISubscription@@@Z
; public: __cdecl <class InboundRequestDetails>::<class InboundRequestDetails>(void)__ptr64 
??0?$AutoRelease@VInboundRequestDetails@@@@QEAA@XZ
; public: __cdecl <class WSMan::Client::ReceiveOperation>::<class WSMan::Client::ReceiveOperation>(class WSMan::Client::ReceiveOperation *__ptr64)__ptr64 
??0?$AutoRelease@VReceiveOperation@Client@WSMan@@@@QEAA@PEAVReceiveOperation@Client@WSMan@@@Z
; public: __cdecl <class WSMan::Client::ReconnectOperation>::<class WSMan::Client::ReconnectOperation>(class WSMan::Client::ReconnectOperation *__ptr64)__ptr64 
??0?$AutoRelease@VReconnectOperation@Client@WSMan@@@@QEAA@PEAVReconnectOperation@Client@WSMan@@@Z
; public: __cdecl <class WSMan::Client::SendOperation>::<class WSMan::Client::SendOperation>(class WSMan::Client::SendOperation *__ptr64)__ptr64 
??0?$AutoRelease@VSendOperation@Client@WSMan@@@@QEAA@PEAVSendOperation@Client@WSMan@@@Z
; public: __cdecl <class WSMan::Client::Shell>::<class WSMan::Client::Shell>(class WSMan::Client::Shell *__ptr64)__ptr64 
??0?$AutoRelease@VShell@Client@WSMan@@@@QEAA@PEAVShell@Client@WSMan@@@Z
; public: __cdecl <class ShellInfo>::<class ShellInfo>(void)__ptr64 
??0?$AutoRelease@VShellInfo@@@@QEAA@XZ
; public: __cdecl <class WSMan::Client::SignalOperation>::<class WSMan::Client::SignalOperation>(class WSMan::Client::SignalOperation *__ptr64)__ptr64 
??0?$AutoRelease@VSignalOperation@Client@WSMan@@@@QEAA@PEAVSignalOperation@Client@WSMan@@@Z
; public: __cdecl <class UserRecord>::<class UserRecord>(void)__ptr64 
??0?$AutoRelease@VUserRecord@@@@QEAA@XZ
; public: __cdecl <class WSManHttpListener>::<class WSManHttpListener>(class WSManHttpListener *__ptr64)__ptr64 
??0?$AutoRelease@VWSManHttpListener@@@@QEAA@PEAVWSManHttpListener@@@Z
; public: __cdecl <class HostMappingTableEntry>::<class HostMappingTableEntry>(void)__ptr64 
??0?$AutoReleaseEx@VHostMappingTableEntry@@@@QEAA@XZ
; public: __cdecl <class WSMan::Client::Shell>::<class WSMan::Client::Shell>(class WSMan::Client::Shell *__ptr64)__ptr64 
??0?$AutoReleaseEx@VShell@Client@WSMan@@@@QEAA@PEAVShell@Client@WSMan@@@Z
; public: __cdecl <class CSecurity::AdminSid>::<class CSecurity::AdminSid>(bool(__cdecl CSecurity::AdminSid::*)(class IRequestContext &__ptr64 )__ptr64 ,bool(__cdecl CSecurity::AdminSid::*)(class IRequestContext &__ptr64 )__ptr64 )__ptr64 
??0?$ILoader@VAdminSid@CSecurity@@@@QEAA@P8AdminSid@CSecurity@@EAA_NAEAVIRequestContext@@@Z1@Z
; public: __cdecl <class CredUIDllLoader>::<class CredUIDllLoader>(bool(__cdecl CredUIDllLoader::*)(class IRequestContext &__ptr64 )__ptr64 ,bool(__cdecl CredUIDllLoader::*)(class IRequestContext &__ptr64 )__ptr64 )__ptr64 
??0?$ILoader@VCredUIDllLoader@@@@QEAA@P8CredUIDllLoader@@EAA_NAEAVIRequestContext@@@Z1@Z
; public: __cdecl <class WSMan::EventHandler>::<class WSMan::EventHandler>(bool(__cdecl WSMan::EventHandler::*)(class IRequestContext &__ptr64 )__ptr64 ,bool(__cdecl WSMan::EventHandler::*)(class IRequestContext &__ptr64 )__ptr64 )__ptr64 
??0?$ILoader@VEventHandler@WSMan@@@@QEAA@P8EventHandler@WSMan@@EAA_NAEAVIRequestContext@@@Z1@Z
; public: __cdecl <class CSecurity::InteractiveSid>::<class CSecurity::InteractiveSid>(bool(__cdecl CSecurity::InteractiveSid::*)(class IRequestContext &__ptr64 )__ptr64 ,bool(__cdecl CSecurity::InteractiveSid::*)(class IRequestContext &__ptr64 )__ptr64 )__ptr64 
??0?$ILoader@VInteractiveSid@CSecurity@@@@QEAA@P8InteractiveSid@CSecurity@@EAA_NAEAVIRequestContext@@@Z1@Z
; public: __cdecl <class IpHlpApiDllLoader>::<class IpHlpApiDllLoader>(bool(__cdecl IpHlpApiDllLoader::*)(class IRequestContext &__ptr64 )__ptr64 ,bool(__cdecl IpHlpApiDllLoader::*)(class IRequestContext &__ptr64 )__ptr64 )__ptr64 
??0?$ILoader@VIpHlpApiDllLoader@@@@QEAA@P8IpHlpApiDllLoader@@EAA_NAEAVIRequestContext@@@Z1@Z
; public: __cdecl <class MachineName>::<class MachineName>(bool(__cdecl MachineName::*)(class IRequestContext &__ptr64 )__ptr64 ,bool(__cdecl MachineName::*)(class IRequestContext &__ptr64 )__ptr64 )__ptr64 
??0?$ILoader@VMachineName@@@@QEAA@P8MachineName@@EAA_NAEAVIRequestContext@@@Z1@Z
; public: __cdecl <class CSecurity::NetworkServiceSid>::<class CSecurity::NetworkServiceSid>(bool(__cdecl CSecurity::NetworkServiceSid::*)(class IRequestContext &__ptr64 )__ptr64 ,bool(__cdecl CSecurity::NetworkServiceSid::*)(class IRequestContext &__ptr64 )__ptr64 )__ptr64 
??0?$ILoader@VNetworkServiceSid@CSecurity@@@@QEAA@P8NetworkServiceSid@CSecurity@@EAA_NAEAVIRequestContext@@@Z1@Z
; public: __cdecl <class NtDsApiDllLoader>::<class NtDsApiDllLoader>(bool(__cdecl NtDsApiDllLoader::*)(class IRequestContext &__ptr64 )__ptr64 ,bool(__cdecl NtDsApiDllLoader::*)(class IRequestContext &__ptr64 )__ptr64 )__ptr64 
??0?$ILoader@VNtDsApiDllLoader@@@@QEAA@P8NtDsApiDllLoader@@EAA_NAEAVIRequestContext@@@Z1@Z
; public: __cdecl <class Locale::Resources>::<class Locale::Resources>(bool(__cdecl Locale::Resources::*)(class IRequestContext &__ptr64 )__ptr64 ,bool(__cdecl Locale::Resources::*)(class IRequestContext &__ptr64 )__ptr64 )__ptr64 
??0?$ILoader@VResources@Locale@@@@QEAA@P8Resources@Locale@@EAA_NAEAVIRequestContext@@@Z1@Z
; public: __cdecl <class Shell32DllLoader>::<class Shell32DllLoader>(bool(__cdecl Shell32DllLoader::*)(class IRequestContext &__ptr64 )__ptr64 ,bool(__cdecl Shell32DllLoader::*)(class IRequestContext &__ptr64 )__ptr64 )__ptr64 
??0?$ILoader@VShell32DllLoader@@@@QEAA@P8Shell32DllLoader@@EAA_NAEAVIRequestContext@@@Z1@Z
; public: __cdecl <class ShlWApiDllLoader>::<class ShlWApiDllLoader>(bool(__cdecl ShlWApiDllLoader::*)(class IRequestContext &__ptr64 )__ptr64 ,bool(__cdecl ShlWApiDllLoader::*)(class IRequestContext &__ptr64 )__ptr64 )__ptr64 
??0?$ILoader@VShlWApiDllLoader@@@@QEAA@P8ShlWApiDllLoader@@EAA_NAEAVIRequestContext@@@Z1@Z
; public: __cdecl <class SubscriptionManager>::<class SubscriptionManager>(bool(__cdecl SubscriptionManager::*)(class IRequestContext &__ptr64 )__ptr64 ,bool(__cdecl SubscriptionManager::*)(class IRequestContext &__ptr64 )__ptr64 )__ptr64 
??0?$ILoader@VSubscriptionManager@@@@QEAA@P8SubscriptionManager@@EAA_NAEAVIRequestContext@@@Z1@Z
; public: __cdecl <class User32DllLoader>::<class User32DllLoader>(bool(__cdecl User32DllLoader::*)(class IRequestContext &__ptr64 )__ptr64 ,bool(__cdecl User32DllLoader::*)(class IRequestContext &__ptr64 )__ptr64 )__ptr64 
??0?$ILoader@VUser32DllLoader@@@@QEAA@P8User32DllLoader@@EAA_NAEAVIRequestContext@@@Z1@Z
; public: __cdecl <class WSManMemCryptManager>::<class WSManMemCryptManager>(bool(__cdecl WSManMemCryptManager::*)(class IRequestContext &__ptr64 )__ptr64 ,bool(__cdecl WSManMemCryptManager::*)(class IRequestContext &__ptr64 )__ptr64 )__ptr64 
??0?$ILoader@VWSManMemCryptManager@@@@QEAA@P8WSManMemCryptManager@@EAA_NAEAVIRequestContext@@@Z1@Z
; public: __cdecl <class CSecurity::AdminSid,0x1ULL>::<class CSecurity::AdminSid,0x1ULL>(void)__ptr64 
??0?$Loader@VAdminSid@CSecurity@@$00@@QEAA@XZ
; public: __cdecl <class CredUIDllLoader,0x1ULL>::<class CredUIDllLoader,0x1ULL>(void)__ptr64 
??0?$Loader@VCredUIDllLoader@@$00@@QEAA@XZ
; public: __cdecl <class WSMan::EventHandler,0x1ULL>::<class WSMan::EventHandler,0x1ULL>(void)__ptr64 
??0?$Loader@VEventHandler@WSMan@@$00@@QEAA@XZ
; public: __cdecl <class CSecurity::InteractiveSid,0x1ULL>::<class CSecurity::InteractiveSid,0x1ULL>(void)__ptr64 
??0?$Loader@VInteractiveSid@CSecurity@@$00@@QEAA@XZ
; public: __cdecl <class IpHlpApiDllLoader,0x1ULL>::<class IpHlpApiDllLoader,0x1ULL>(void)__ptr64 
??0?$Loader@VIpHlpApiDllLoader@@$00@@QEAA@XZ
; public: __cdecl <class MachineName,0x1ULL>::<class MachineName,0x1ULL>(void)__ptr64 
??0?$Loader@VMachineName@@$00@@QEAA@XZ
; public: __cdecl <class CSecurity::NetworkServiceSid,0x1ULL>::<class CSecurity::NetworkServiceSid,0x1ULL>(void)__ptr64 
??0?$Loader@VNetworkServiceSid@CSecurity@@$00@@QEAA@XZ
; public: __cdecl <class NtDsApiDllLoader,0x1ULL>::<class NtDsApiDllLoader,0x1ULL>(void)__ptr64 
??0?$Loader@VNtDsApiDllLoader@@$00@@QEAA@XZ
; public: __cdecl <class Locale::Resources,0x0ULL>::<class Locale::Resources,0x0ULL>(void)__ptr64 
??0?$Loader@VResources@Locale@@$0A@@@QEAA@XZ
; public: __cdecl <class Shell32DllLoader,0x1ULL>::<class Shell32DllLoader,0x1ULL>(void)__ptr64 
??0?$Loader@VShell32DllLoader@@$00@@QEAA@XZ
; public: __cdecl <class ShlWApiDllLoader,0x1ULL>::<class ShlWApiDllLoader,0x1ULL>(void)__ptr64 
??0?$Loader@VShlWApiDllLoader@@$00@@QEAA@XZ
; public: __cdecl <class User32DllLoader,0x1ULL>::<class User32DllLoader,0x1ULL>(void)__ptr64 
??0?$Loader@VUser32DllLoader@@$00@@QEAA@XZ
; public: __cdecl <class WSManMemCryptManager,0x1ULL>::<class WSManMemCryptManager,0x1ULL>(void)__ptr64 
??0?$Loader@VWSManMemCryptManager@@$00@@QEAA@XZ
; public: __cdecl <class CSecurity::AdminSid,0x1ULL>::<class CSecurity::AdminSid,0x1ULL>(bool(__cdecl CSecurity::AdminSid::*)(class IRequestContext &__ptr64 )__ptr64 ,bool(__cdecl CSecurity::AdminSid::*)(class IRequestContext &__ptr64 )__ptr64 )__ptr64 
??0?$LoaderSerializer@VAdminSid@CSecurity@@$00@@QEAA@P8AdminSid@CSecurity@@EAA_NAEAVIRequestContext@@@Z1@Z
; public: __cdecl <class CredUIDllLoader,0x1ULL>::<class CredUIDllLoader,0x1ULL>(bool(__cdecl CredUIDllLoader::*)(class IRequestContext &__ptr64 )__ptr64 ,bool(__cdecl CredUIDllLoader::*)(class IRequestContext &__ptr64 )__ptr64 )__ptr64 
??0?$LoaderSerializer@VCredUIDllLoader@@$00@@QEAA@P8CredUIDllLoader@@EAA_NAEAVIRequestContext@@@Z1@Z
; public: __cdecl <class WSMan::EventHandler,0x1ULL>::<class WSMan::EventHandler,0x1ULL>(bool(__cdecl WSMan::EventHandler::*)(class IRequestContext &__ptr64 )__ptr64 ,bool(__cdecl WSMan::EventHandler::*)(class IRequestContext &__ptr64 )__ptr64 )__ptr64 
??0?$LoaderSerializer@VEventHandler@WSMan@@$00@@QEAA@P8EventHandler@WSMan@@EAA_NAEAVIRequestContext@@@Z1@Z
; public: __cdecl <class CSecurity::InteractiveSid,0x1ULL>::<class CSecurity::InteractiveSid,0x1ULL>(bool(__cdecl CSecurity::InteractiveSid::*)(class IRequestContext &__ptr64 )__ptr64 ,bool(__cdecl CSecurity::InteractiveSid::*)(class IRequestContext &__ptr64 )__ptr64 )__ptr64 
??0?$LoaderSerializer@VInteractiveSid@CSecurity@@$00@@QEAA@P8InteractiveSid@CSecurity@@EAA_NAEAVIRequestContext@@@Z1@Z
; public: __cdecl <class IpHlpApiDllLoader,0x1ULL>::<class IpHlpApiDllLoader,0x1ULL>(bool(__cdecl IpHlpApiDllLoader::*)(class IRequestContext &__ptr64 )__ptr64 ,bool(__cdecl IpHlpApiDllLoader::*)(class IRequestContext &__ptr64 )__ptr64 )__ptr64 
??0?$LoaderSerializer@VIpHlpApiDllLoader@@$00@@QEAA@P8IpHlpApiDllLoader@@EAA_NAEAVIRequestContext@@@Z1@Z
; public: __cdecl <class MachineName,0x1ULL>::<class MachineName,0x1ULL>(bool(__cdecl MachineName::*)(class IRequestContext &__ptr64 )__ptr64 ,bool(__cdecl MachineName::*)(class IRequestContext &__ptr64 )__ptr64 )__ptr64 
??0?$LoaderSerializer@VMachineName@@$00@@QEAA@P8MachineName@@EAA_NAEAVIRequestContext@@@Z1@Z
; public: __cdecl <class CSecurity::NetworkServiceSid,0x1ULL>::<class CSecurity::NetworkServiceSid,0x1ULL>(bool(__cdecl CSecurity::NetworkServiceSid::*)(class IRequestContext &__ptr64 )__ptr64 ,bool(__cdecl CSecurity::NetworkServiceSid::*)(class IRequestContext &__ptr64 )__ptr64 )__ptr64 
??0?$LoaderSerializer@VNetworkServiceSid@CSecurity@@$00@@QEAA@P8NetworkServiceSid@CSecurity@@EAA_NAEAVIRequestContext@@@Z1@Z
; public: __cdecl <class NtDsApiDllLoader,0x1ULL>::<class NtDsApiDllLoader,0x1ULL>(bool(__cdecl NtDsApiDllLoader::*)(class IRequestContext &__ptr64 )__ptr64 ,bool(__cdecl NtDsApiDllLoader::*)(class IRequestContext &__ptr64 )__ptr64 )__ptr64 
??0?$LoaderSerializer@VNtDsApiDllLoader@@$00@@QEAA@P8NtDsApiDllLoader@@EAA_NAEAVIRequestContext@@@Z1@Z
; public: __cdecl <class Locale::Resources,0x0ULL>::<class Locale::Resources,0x0ULL>(bool(__cdecl Locale::Resources::*)(class IRequestContext &__ptr64 )__ptr64 ,bool(__cdecl Locale::Resources::*)(class IRequestContext &__ptr64 )__ptr64 )__ptr64 
??0?$LoaderSerializer@VResources@Locale@@$0A@@@QEAA@P8Resources@Locale@@EAA_NAEAVIRequestContext@@@Z1@Z
; public: __cdecl <class Shell32DllLoader,0x1ULL>::<class Shell32DllLoader,0x1ULL>(bool(__cdecl Shell32DllLoader::*)(class IRequestContext &__ptr64 )__ptr64 ,bool(__cdecl Shell32DllLoader::*)(class IRequestContext &__ptr64 )__ptr64 )__ptr64 
??0?$LoaderSerializer@VShell32DllLoader@@$00@@QEAA@P8Shell32DllLoader@@EAA_NAEAVIRequestContext@@@Z1@Z
; public: __cdecl <class ShlWApiDllLoader,0x1ULL>::<class ShlWApiDllLoader,0x1ULL>(bool(__cdecl ShlWApiDllLoader::*)(class IRequestContext &__ptr64 )__ptr64 ,bool(__cdecl ShlWApiDllLoader::*)(class IRequestContext &__ptr64 )__ptr64 )__ptr64 
??0?$LoaderSerializer@VShlWApiDllLoader@@$00@@QEAA@P8ShlWApiDllLoader@@EAA_NAEAVIRequestContext@@@Z1@Z
; public: __cdecl <class SubscriptionManager,0x2ULL>::<class SubscriptionManager,0x2ULL>(bool(__cdecl SubscriptionManager::*)(class IRequestContext &__ptr64 )__ptr64 ,bool(__cdecl SubscriptionManager::*)(class IRequestContext &__ptr64 )__ptr64 )__ptr64 
??0?$LoaderSerializer@VSubscriptionManager@@$01@@QEAA@P8SubscriptionManager@@EAA_NAEAVIRequestContext@@@Z1@Z
; public: __cdecl <class User32DllLoader,0x1ULL>::<class User32DllLoader,0x1ULL>(bool(__cdecl User32DllLoader::*)(class IRequestContext &__ptr64 )__ptr64 ,bool(__cdecl User32DllLoader::*)(class IRequestContext &__ptr64 )__ptr64 )__ptr64 
??0?$LoaderSerializer@VUser32DllLoader@@$00@@QEAA@P8User32DllLoader@@EAA_NAEAVIRequestContext@@@Z1@Z
; public: __cdecl <class WSManMemCryptManager,0x1ULL>::<class WSManMemCryptManager,0x1ULL>(bool(__cdecl WSManMemCryptManager::*)(class IRequestContext &__ptr64 )__ptr64 ,bool(__cdecl WSManMemCryptManager::*)(class IRequestContext &__ptr64 )__ptr64 )__ptr64 
??0?$LoaderSerializer@VWSManMemCryptManager@@$00@@QEAA@P8WSManMemCryptManager@@EAA_NAEAVIRequestContext@@@Z1@Z
; public: __cdecl PacketParser::<unsigned long>::<unsigned long>(void)__ptr64 
??0?$PacketElement@K@PacketParser@@QEAA@XZ
; public: __cdecl PacketParser::<struct _FWXML_ELEMENT *__ptr64>::<struct _FWXML_ELEMENT *__ptr64>(void)__ptr64 
??0?$PacketElement@PEAU_FWXML_ELEMENT@@@PacketParser@@QEAA@XZ
; public: __cdecl PacketParser::<unsigned short const *__ptr64>::<unsigned short const *__ptr64>(void)__ptr64 
??0?$PacketElement@PEBG@PacketParser@@QEAA@XZ
; public: __cdecl PacketParser::<unsigned __int64>::<unsigned __int64>(void)__ptr64 
??0?$PacketElement@_K@PacketParser@@QEAA@XZ
; public: __cdecl <class CCertMapping *__ptr64,struct Empty,class <class CCertMapping *__ptr64>>::<class CCertMapping *__ptr64,struct Empty,class <class CCertMapping *__ptr64>>(void)__ptr64 
??0?$SafeMap@PEAVCCertMapping@@UEmpty@@V?$SafeSet_Iterator@PEAVCCertMapping@@@@@@QEAA@XZ
; public: __cdecl <class CListenerOperation *__ptr64,struct Empty,class <class CListenerOperation *__ptr64>>::<class CListenerOperation *__ptr64,struct Empty,class <class CListenerOperation *__ptr64>>(void)__ptr64 
??0?$SafeMap@PEAVCListenerOperation@@UEmpty@@V?$SafeSet_Iterator@PEAVCListenerOperation@@@@@@QEAA@XZ
; public: __cdecl <class CShellUriSettings *__ptr64,struct Empty,class <class CShellUriSettings *__ptr64>>::<class CShellUriSettings *__ptr64,struct Empty,class <class CShellUriSettings *__ptr64>>(void)__ptr64 
??0?$SafeMap@PEAVCShellUriSettings@@UEmpty@@V?$SafeSet_Iterator@PEAVCShellUriSettings@@@@@@QEAA@XZ
; public: __cdecl <void *__ptr64,struct Empty,class <void *__ptr64>>::<void *__ptr64,struct Empty,class <void *__ptr64>>(void)__ptr64 
??0?$SafeMap@PEAXUEmpty@@V?$SafeSet_Iterator@PEAX@@@@QEAA@XZ
; public: __cdecl <struct PluginKey,unsigned long,class <struct PluginKey,unsigned long>>::<struct PluginKey,unsigned long,class <struct PluginKey,unsigned long>>(void)__ptr64 
??0?$SafeMap@UPluginKey@@KV?$SafeMap_Iterator@UPluginKey@@K@@@@QEAA@XZ
; public: __cdecl <struct UserKey,class BlockedRecord *__ptr64,class <struct UserKey,class BlockedRecord *__ptr64>>::<struct UserKey,class BlockedRecord *__ptr64,class <struct UserKey,class BlockedRecord *__ptr64>>(void)__ptr64 
??0?$SafeMap@UUserKey@@PEAVBlockedRecord@@V?$SafeMap_Iterator@UUserKey@@PEAVBlockedRecord@@@@@@QEAA@XZ
; public: __cdecl <class CertThumbprintKey,class CServiceConfigSettings::CertThumbprintMappedSet,class <class CertThumbprintKey,class CServiceConfigSettings::CertThumbprintMappedSet>>::<class CertThumbprintKey,class CServiceConfigSettings::CertThumbprintMappedSet,class <class CertThumbprintKey,class CServiceConfigSettings::CertThumbprintMappedSet>>(void)__ptr64 
??0?$SafeMap@VCertThumbprintKey@@VCertThumbprintMappedSet@CServiceConfigSettings@@V?$SafeMap_Iterator@VCertThumbprintKey@@VCertThumbprintMappedSet@CServiceConfigSettings@@@@@@QEAA@XZ
; public: __cdecl <class Locale::Key,unsigned long,class <class Locale::Key,unsigned long>>::<class Locale::Key,unsigned long,class <class Locale::Key,unsigned long>>(void)__ptr64 
??0?$SafeMap@VKey@Locale@@KV?$SafeMap_Iterator@VKey@Locale@@K@@@@QEAA@XZ
; public: __cdecl <class StringKeyCI,unsigned long,class <class StringKeyCI,unsigned long>>::<class StringKeyCI,unsigned long,class <class StringKeyCI,unsigned long>>(void)__ptr64 
??0?$SafeMap@VStringKeyCI@@KV?$SafeMap_Iterator@VStringKeyCI@@K@@@@QEAA@XZ
; public: __cdecl <class StringKeyCI,struct WSManHttpListener::USER_CONTEXT_INFO,class <class StringKeyCI,struct WSManHttpListener::USER_CONTEXT_INFO>>::<class StringKeyCI,struct WSManHttpListener::USER_CONTEXT_INFO,class <class StringKeyCI,struct WSManHttpListener::USER_CONTEXT_INFO>>(void)__ptr64 
??0?$SafeMap@VStringKeyCI@@UUSER_CONTEXT_INFO@WSManHttpListener@@V?$SafeMap_Iterator@VStringKeyCI@@UUSER_CONTEXT_INFO@WSManHttpListener@@@@@@QEAA@XZ
; public: __cdecl <class StringKeyStore,class ExpiredOperationIdRecord *__ptr64,class <class StringKeyStore,class ExpiredOperationIdRecord *__ptr64>>::<class StringKeyStore,class ExpiredOperationIdRecord *__ptr64,class <class StringKeyStore,class ExpiredOperationIdRecord *__ptr64>>(void)__ptr64 
??0?$SafeMap@VStringKeyStore@@PEAVExpiredOperationIdRecord@@V?$SafeMap_Iterator@VStringKeyStore@@PEAVExpiredOperationIdRecord@@@@@@QEAA@XZ
; public: __cdecl <class StringKeyStore,class ServerFullDuplexChannel *__ptr64,class <class StringKeyStore,class ServerFullDuplexChannel *__ptr64>>::<class StringKeyStore,class ServerFullDuplexChannel *__ptr64,class <class StringKeyStore,class ServerFullDuplexChannel *__ptr64>>(void)__ptr64 
??0?$SafeMap@VStringKeyStore@@PEAVServerFullDuplexChannel@@V?$SafeMap_Iterator@VStringKeyStore@@PEAVServerFullDuplexChannel@@@@@@QEAA@XZ
; public: __cdecl <enum WSManSessionOption,class WSMan::Client::SessionOptions::OptionValue *__ptr64,class <enum WSManSessionOption,class WSMan::Client::SessionOptions::OptionValue *__ptr64>>::<enum WSManSessionOption,class WSMan::Client::SessionOptions::OptionValue *__ptr64,class <enum WSManSessionOption,class WSMan::Client::SessionOptions::OptionValue *__ptr64>>(void)__ptr64 
??0?$SafeMap@W4WSManSessionOption@@PEAVOptionValue@SessionOptions@Client@WSMan@@V?$SafeMap_Iterator@W4WSManSessionOption@@PEAVOptionValue@SessionOptions@Client@WSMan@@@@@@QEAA@XZ
; public: __cdecl <unsigned __int64,class RobustConnectionBuffer::SendPacketArgs *__ptr64,class <unsigned __int64,class RobustConnectionBuffer::SendPacketArgs *__ptr64>>::<unsigned __int64,class RobustConnectionBuffer::SendPacketArgs *__ptr64,class <unsigned __int64,class RobustConnectionBuffer::SendPacketArgs *__ptr64>>(void)__ptr64 
??0?$SafeMap@_KPEAVSendPacketArgs@RobustConnectionBuffer@@V?$SafeMap_Iterator@_KPEAVSendPacketArgs@RobustConnectionBuffer@@@@@@QEAA@XZ
; public: __cdecl <class CCertMapping *__ptr64,struct Empty>::<class CCertMapping *__ptr64,struct Empty>(class <class CCertMapping *__ptr64,struct Empty,class <class CCertMapping *__ptr64,struct Empty>> &__ptr64 ,bool)__ptr64 
??0?$SafeMap_Iterator@PEAVCCertMapping@@UEmpty@@@@QEAA@AEAV?$SafeMap@PEAVCCertMapping@@UEmpty@@V?$SafeMap_Iterator@PEAVCCertMapping@@UEmpty@@@@@@_N@Z
; public: __cdecl <class CListenerOperation *__ptr64,struct Empty>::<class CListenerOperation *__ptr64,struct Empty>(class <class CListenerOperation *__ptr64,struct Empty,class <class CListenerOperation *__ptr64,struct Empty>> &__ptr64 ,bool)__ptr64 
??0?$SafeMap_Iterator@PEAVCListenerOperation@@UEmpty@@@@QEAA@AEAV?$SafeMap@PEAVCListenerOperation@@UEmpty@@V?$SafeMap_Iterator@PEAVCListenerOperation@@UEmpty@@@@@@_N@Z
; public: __cdecl <class CShellUriSettings *__ptr64,struct Empty>::<class CShellUriSettings *__ptr64,struct Empty>(class <class CShellUriSettings *__ptr64,struct Empty,class <class CShellUriSettings *__ptr64,struct Empty>> &__ptr64 ,bool)__ptr64 
??0?$SafeMap_Iterator@PEAVCShellUriSettings@@UEmpty@@@@QEAA@AEAV?$SafeMap@PEAVCShellUriSettings@@UEmpty@@V?$SafeMap_Iterator@PEAVCShellUriSettings@@UEmpty@@@@@@_N@Z
; public: __cdecl <void *__ptr64,struct Empty>::<void *__ptr64,struct Empty>(class <void *__ptr64,struct Empty,class <void *__ptr64,struct Empty>> &__ptr64 ,bool)__ptr64 
??0?$SafeMap_Iterator@PEAXUEmpty@@@@QEAA@AEAV?$SafeMap@PEAXUEmpty@@V?$SafeMap_Iterator@PEAXUEmpty@@@@@@_N@Z
; public: __cdecl <struct PluginKey,unsigned long>::<struct PluginKey,unsigned long>(class <struct PluginKey,unsigned long,class <struct PluginKey,unsigned long>> &__ptr64 ,bool)__ptr64 
??0?$SafeMap_Iterator@UPluginKey@@K@@QEAA@AEAV?$SafeMap@UPluginKey@@KV?$SafeMap_Iterator@UPluginKey@@K@@@@_N@Z
; public: __cdecl <struct UserKey,class BlockedRecord *__ptr64>::<struct UserKey,class BlockedRecord *__ptr64>(class <struct UserKey,class BlockedRecord *__ptr64,class <struct UserKey,class BlockedRecord *__ptr64>> &__ptr64 ,bool)__ptr64 
??0?$SafeMap_Iterator@UUserKey@@PEAVBlockedRecord@@@@QEAA@AEAV?$SafeMap@UUserKey@@PEAVBlockedRecord@@V?$SafeMap_Iterator@UUserKey@@PEAVBlockedRecord@@@@@@_N@Z
; public: __cdecl <class CertThumbprintKey,class CServiceConfigSettings::CertThumbprintMappedSet>::<class CertThumbprintKey,class CServiceConfigSettings::CertThumbprintMappedSet>(class <class CertThumbprintKey,class CServiceConfigSettings::CertThumbprintMappedSet,class <class CertThumbprintKey,class CServiceConfigSettings::CertThumbprintMappedSet>> &__ptr64 ,bool)__ptr64 
??0?$SafeMap_Iterator@VCertThumbprintKey@@VCertThumbprintMappedSet@CServiceConfigSettings@@@@QEAA@AEAV?$SafeMap@VCertThumbprintKey@@VCertThumbprintMappedSet@CServiceConfigSettings@@V?$SafeMap_Iterator@VCertThumbprintKey@@VCertThumbprintMappedSet@CServiceConfigSettings@@@@@@_N@Z
; public: __cdecl <class Locale::Key,unsigned long>::<class Locale::Key,unsigned long>(class <class Locale::Key,unsigned long,class <class Locale::Key,unsigned long>> &__ptr64 ,bool)__ptr64 
??0?$SafeMap_Iterator@VKey@Locale@@K@@QEAA@AEAV?$SafeMap@VKey@Locale@@KV?$SafeMap_Iterator@VKey@Locale@@K@@@@_N@Z
; public: __cdecl <class StringKeyCI,unsigned long>::<class StringKeyCI,unsigned long>(class <class StringKeyCI,unsigned long,class <class StringKeyCI,unsigned long>> &__ptr64 ,bool)__ptr64 
??0?$SafeMap_Iterator@VStringKeyCI@@K@@QEAA@AEAV?$SafeMap@VStringKeyCI@@KV?$SafeMap_Iterator@VStringKeyCI@@K@@@@_N@Z
; public: __cdecl <class StringKeyCI,struct WSManHttpListener::USER_CONTEXT_INFO>::<class StringKeyCI,struct WSManHttpListener::USER_CONTEXT_INFO>(class <class StringKeyCI,struct WSManHttpListener::USER_CONTEXT_INFO,class <class StringKeyCI,struct WSManHttpListener::USER_CONTEXT_INFO>> &__ptr64 ,bool)__ptr64 
??0?$SafeMap_Iterator@VStringKeyCI@@UUSER_CONTEXT_INFO@WSManHttpListener@@@@QEAA@AEAV?$SafeMap@VStringKeyCI@@UUSER_CONTEXT_INFO@WSManHttpListener@@V?$SafeMap_Iterator@VStringKeyCI@@UUSER_CONTEXT_INFO@WSManHttpListener@@@@@@_N@Z
; public: __cdecl <class StringKeyStore,class ExpiredOperationIdRecord *__ptr64>::<class StringKeyStore,class ExpiredOperationIdRecord *__ptr64>(class <class StringKeyStore,class ExpiredOperationIdRecord *__ptr64,class <class StringKeyStore,class ExpiredOperationIdRecord *__ptr64>> &__ptr64 ,bool)__ptr64 
??0?$SafeMap_Iterator@VStringKeyStore@@PEAVExpiredOperationIdRecord@@@@QEAA@AEAV?$SafeMap@VStringKeyStore@@PEAVExpiredOperationIdRecord@@V?$SafeMap_Iterator@VStringKeyStore@@PEAVExpiredOperationIdRecord@@@@@@_N@Z
; public: __cdecl <class StringKeyStore,class ServerFullDuplexChannel *__ptr64>::<class StringKeyStore,class ServerFullDuplexChannel *__ptr64>(class <class StringKeyStore,class ServerFullDuplexChannel *__ptr64,class <class StringKeyStore,class ServerFullDuplexChannel *__ptr64>> &__ptr64 ,bool)__ptr64 
??0?$SafeMap_Iterator@VStringKeyStore@@PEAVServerFullDuplexChannel@@@@QEAA@AEAV?$SafeMap@VStringKeyStore@@PEAVServerFullDuplexChannel@@V?$SafeMap_Iterator@VStringKeyStore@@PEAVServerFullDuplexChannel@@@@@@_N@Z
; public: __cdecl <enum WSManSessionOption,class WSMan::Client::SessionOptions::OptionValue *__ptr64>::<enum WSManSessionOption,class WSMan::Client::SessionOptions::OptionValue *__ptr64>(class <enum WSManSessionOption,class WSMan::Client::SessionOptions::OptionValue *__ptr64,class <enum WSManSessionOption,class WSMan::Client::SessionOptions::OptionValue *__ptr64>> &__ptr64 ,bool)__ptr64 
??0?$SafeMap_Iterator@W4WSManSessionOption@@PEAVOptionValue@SessionOptions@Client@WSMan@@@@QEAA@AEAV?$SafeMap@W4WSManSessionOption@@PEAVOptionValue@SessionOptions@Client@WSMan@@V?$SafeMap_Iterator@W4WSManSessionOption@@PEAVOptionValue@SessionOptions@Client@WSMan@@@@@@_N@Z
; public: __cdecl <unsigned __int64,class RobustConnectionBuffer::SendPacketArgs *__ptr64>::<unsigned __int64,class RobustConnectionBuffer::SendPacketArgs *__ptr64>(class <unsigned __int64,class RobustConnectionBuffer::SendPacketArgs *__ptr64,class <unsigned __int64,class RobustConnectionBuffer::SendPacketArgs *__ptr64>> &__ptr64 ,bool)__ptr64 
??0?$SafeMap_Iterator@_KPEAVSendPacketArgs@RobustConnectionBuffer@@@@QEAA@AEAV?$SafeMap@_KPEAVSendPacketArgs@RobustConnectionBuffer@@V?$SafeMap_Iterator@_KPEAVSendPacketArgs@RobustConnectionBuffer@@@@@@_N@Z
; public: __cdecl <class CCertMapping *__ptr64,struct Empty,class <class CCertMapping *__ptr64,struct Empty>>::<class CCertMapping *__ptr64,struct Empty,class <class CCertMapping *__ptr64,struct Empty>>(class <class CCertMapping *__ptr64,struct Empty,class <class CCertMapping *__ptr64,struct Empty>> const &__ptr64 ,bool)__ptr64 
??0?$SafeMap_Lock@PEAVCCertMapping@@UEmpty@@V?$SafeMap_Iterator@PEAVCCertMapping@@UEmpty@@@@@@QEAA@AEBV?$SafeMap@PEAVCCertMapping@@UEmpty@@V?$SafeMap_Iterator@PEAVCCertMapping@@UEmpty@@@@@@_N@Z
; public: __cdecl <class CCertMapping *__ptr64,struct Empty,class <class CCertMapping *__ptr64>>::<class CCertMapping *__ptr64,struct Empty,class <class CCertMapping *__ptr64>>(class <class CCertMapping *__ptr64,struct Empty,class <class CCertMapping *__ptr64>> const &__ptr64 ,bool)__ptr64 
??0?$SafeMap_Lock@PEAVCCertMapping@@UEmpty@@V?$SafeSet_Iterator@PEAVCCertMapping@@@@@@QEAA@AEBV?$SafeMap@PEAVCCertMapping@@UEmpty@@V?$SafeSet_Iterator@PEAVCCertMapping@@@@@@_N@Z
; public: __cdecl <class CListenerOperation *__ptr64,struct Empty,class <class CListenerOperation *__ptr64,struct Empty>>::<class CListenerOperation *__ptr64,struct Empty,class <class CListenerOperation *__ptr64,struct Empty>>(class <class CListenerOperation *__ptr64,struct Empty,class <class CListenerOperation *__ptr64,struct Empty>> const &__ptr64 ,bool)__ptr64 
??0?$SafeMap_Lock@PEAVCListenerOperation@@UEmpty@@V?$SafeMap_Iterator@PEAVCListenerOperation@@UEmpty@@@@@@QEAA@AEBV?$SafeMap@PEAVCListenerOperation@@UEmpty@@V?$SafeMap_Iterator@PEAVCListenerOperation@@UEmpty@@@@@@_N@Z
; public: __cdecl <class CListenerOperation *__ptr64,struct Empty,class <class CListenerOperation *__ptr64>>::<class CListenerOperation *__ptr64,struct Empty,class <class CListenerOperation *__ptr64>>(class <class CListenerOperation *__ptr64,struct Empty,class <class CListenerOperation *__ptr64>> const &__ptr64 ,bool)__ptr64 
??0?$SafeMap_Lock@PEAVCListenerOperation@@UEmpty@@V?$SafeSet_Iterator@PEAVCListenerOperation@@@@@@QEAA@AEBV?$SafeMap@PEAVCListenerOperation@@UEmpty@@V?$SafeSet_Iterator@PEAVCListenerOperation@@@@@@_N@Z
; public: __cdecl <class CShellUriSettings *__ptr64,struct Empty,class <class CShellUriSettings *__ptr64,struct Empty>>::<class CShellUriSettings *__ptr64,struct Empty,class <class CShellUriSettings *__ptr64,struct Empty>>(class <class CShellUriSettings *__ptr64,struct Empty,class <class CShellUriSettings *__ptr64,struct Empty>> const &__ptr64 ,bool)__ptr64 
??0?$SafeMap_Lock@PEAVCShellUriSettings@@UEmpty@@V?$SafeMap_Iterator@PEAVCShellUriSettings@@UEmpty@@@@@@QEAA@AEBV?$SafeMap@PEAVCShellUriSettings@@UEmpty@@V?$SafeMap_Iterator@PEAVCShellUriSettings@@UEmpty@@@@@@_N@Z
; public: __cdecl <class CShellUriSettings *__ptr64,struct Empty,class <class CShellUriSettings *__ptr64>>::<class CShellUriSettings *__ptr64,struct Empty,class <class CShellUriSettings *__ptr64>>(class <class CShellUriSettings *__ptr64,struct Empty,class <class CShellUriSettings *__ptr64>> const &__ptr64 ,bool)__ptr64 
??0?$SafeMap_Lock@PEAVCShellUriSettings@@UEmpty@@V?$SafeSet_Iterator@PEAVCShellUriSettings@@@@@@QEAA@AEBV?$SafeMap@PEAVCShellUriSettings@@UEmpty@@V?$SafeSet_Iterator@PEAVCShellUriSettings@@@@@@_N@Z
; public: __cdecl <void *__ptr64,struct Empty,class <void *__ptr64,struct Empty>>::<void *__ptr64,struct Empty,class <void *__ptr64,struct Empty>>(class <void *__ptr64,struct Empty,class <void *__ptr64,struct Empty>> const &__ptr64 ,bool)__ptr64 
??0?$SafeMap_Lock@PEAXUEmpty@@V?$SafeMap_Iterator@PEAXUEmpty@@@@@@QEAA@AEBV?$SafeMap@PEAXUEmpty@@V?$SafeMap_Iterator@PEAXUEmpty@@@@@@_N@Z
; public: __cdecl <void *__ptr64,struct Empty,class <void *__ptr64>>::<void *__ptr64,struct Empty,class <void *__ptr64>>(class <void *__ptr64,struct Empty,class <void *__ptr64>> const &__ptr64 ,bool)__ptr64 
??0?$SafeMap_Lock@PEAXUEmpty@@V?$SafeSet_Iterator@PEAX@@@@QEAA@AEBV?$SafeMap@PEAXUEmpty@@V?$SafeSet_Iterator@PEAX@@@@_N@Z
; public: __cdecl <struct PluginKey,unsigned long,class <struct PluginKey,unsigned long>>::<struct PluginKey,unsigned long,class <struct PluginKey,unsigned long>>(class <struct PluginKey,unsigned long,class <struct PluginKey,unsigned long>> const &__ptr64 ,bool)__ptr64 
??0?$SafeMap_Lock@UPluginKey@@KV?$SafeMap_Iterator@UPluginKey@@K@@@@QEAA@AEBV?$SafeMap@UPluginKey@@KV?$SafeMap_Iterator@UPluginKey@@K@@@@_N@Z
; public: __cdecl <struct UserKey,class BlockedRecord *__ptr64,class <struct UserKey,class BlockedRecord *__ptr64>>::<struct UserKey,class BlockedRecord *__ptr64,class <struct UserKey,class BlockedRecord *__ptr64>>(class <struct UserKey,class BlockedRecord *__ptr64,class <struct UserKey,class BlockedRecord *__ptr64>> const &__ptr64 ,bool)__ptr64 
??0?$SafeMap_Lock@UUserKey@@PEAVBlockedRecord@@V?$SafeMap_Iterator@UUserKey@@PEAVBlockedRecord@@@@@@QEAA@AEBV?$SafeMap@UUserKey@@PEAVBlockedRecord@@V?$SafeMap_Iterator@UUserKey@@PEAVBlockedRecord@@@@@@_N@Z
; public: __cdecl <class CertThumbprintKey,class CServiceConfigSettings::CertThumbprintMappedSet,class <class CertThumbprintKey,class CServiceConfigSettings::CertThumbprintMappedSet>>::<class CertThumbprintKey,class CServiceConfigSettings::CertThumbprintMappedSet,class <class CertThumbprintKey,class CServiceConfigSettings::CertThumbprintMappedSet>>(class <class CertThumbprintKey,class CServiceConfigSettings::CertThumbprintMappedSet,class <class CertThumbprintKey,class CServiceConfigSettings::CertThumbprintMappedSet>> const &__ptr64 ,bool)__ptr64 
??0?$SafeMap_Lock@VCertThumbprintKey@@VCertThumbprintMappedSet@CServiceConfigSettings@@V?$SafeMap_Iterator@VCertThumbprintKey@@VCertThumbprintMappedSet@CServiceConfigSettings@@@@@@QEAA@AEBV?$SafeMap@VCertThumbprintKey@@VCertThumbprintMappedSet@CServiceConfigSettings@@V?$SafeMap_Iterator@VCertThumbprintKey@@VCertThumbprintMappedSet@CServiceConfigSettings@@@@@@_N@Z
; public: __cdecl <class Locale::Key,unsigned long,class <class Locale::Key,unsigned long>>::<class Locale::Key,unsigned long,class <class Locale::Key,unsigned long>>(class <class Locale::Key,unsigned long,class <class Locale::Key,unsigned long>> const &__ptr64 ,bool)__ptr64 
??0?$SafeMap_Lock@VKey@Locale@@KV?$SafeMap_Iterator@VKey@Locale@@K@@@@QEAA@AEBV?$SafeMap@VKey@Locale@@KV?$SafeMap_Iterator@VKey@Locale@@K@@@@_N@Z
; public: __cdecl <class StringKeyCI,unsigned long,class <class StringKeyCI,unsigned long>>::<class StringKeyCI,unsigned long,class <class StringKeyCI,unsigned long>>(class <class StringKeyCI,unsigned long,class <class StringKeyCI,unsigned long>> const &__ptr64 ,bool)__ptr64 
??0?$SafeMap_Lock@VStringKeyCI@@KV?$SafeMap_Iterator@VStringKeyCI@@K@@@@QEAA@AEBV?$SafeMap@VStringKeyCI@@KV?$SafeMap_Iterator@VStringKeyCI@@K@@@@_N@Z
; public: __cdecl <class StringKeyCI,struct Empty,class <class StringKeyCI>>::<class StringKeyCI,struct Empty,class <class StringKeyCI>>(class <class StringKeyCI,struct Empty,class <class StringKeyCI>> const &__ptr64 ,bool)__ptr64 
??0?$SafeMap_Lock@VStringKeyCI@@UEmpty@@V?$SafeSet_Iterator@VStringKeyCI@@@@@@QEAA@AEBV?$SafeMap@VStringKeyCI@@UEmpty@@V?$SafeSet_Iterator@VStringKeyCI@@@@@@_N@Z
; public: __cdecl <class StringKeyCI,struct WSManHttpListener::USER_CONTEXT_INFO,class <class StringKeyCI,struct WSManHttpListener::USER_CONTEXT_INFO>>::<class StringKeyCI,struct WSManHttpListener::USER_CONTEXT_INFO,class <class StringKeyCI,struct WSManHttpListener::USER_CONTEXT_INFO>>(class <class StringKeyCI,struct WSManHttpListener::USER_CONTEXT_INFO,class <class StringKeyCI,struct WSManHttpListener::USER_CONTEXT_INFO>> const &__ptr64 ,bool)__ptr64 
??0?$SafeMap_Lock@VStringKeyCI@@UUSER_CONTEXT_INFO@WSManHttpListener@@V?$SafeMap_Iterator@VStringKeyCI@@UUSER_CONTEXT_INFO@WSManHttpListener@@@@@@QEAA@AEBV?$SafeMap@VStringKeyCI@@UUSER_CONTEXT_INFO@WSManHttpListener@@V?$SafeMap_Iterator@VStringKeyCI@@UUSER_CONTEXT_INFO@WSManHttpListener@@@@@@_N@Z
; public: __cdecl <class StringKeyStore,class ExpiredOperationIdRecord *__ptr64,class <class StringKeyStore,class ExpiredOperationIdRecord *__ptr64>>::<class StringKeyStore,class ExpiredOperationIdRecord *__ptr64,class <class StringKeyStore,class ExpiredOperationIdRecord *__ptr64>>(class <class StringKeyStore,class ExpiredOperationIdRecord *__ptr64,class <class StringKeyStore,class ExpiredOperationIdRecord *__ptr64>> const &__ptr64 ,bool)__ptr64 
??0?$SafeMap_Lock@VStringKeyStore@@PEAVExpiredOperationIdRecord@@V?$SafeMap_Iterator@VStringKeyStore@@PEAVExpiredOperationIdRecord@@@@@@QEAA@AEBV?$SafeMap@VStringKeyStore@@PEAVExpiredOperationIdRecord@@V?$SafeMap_Iterator@VStringKeyStore@@PEAVExpiredOperationIdRecord@@@@@@_N@Z
; public: __cdecl <class StringKeyStore,class ServerFullDuplexChannel *__ptr64,class <class StringKeyStore,class ServerFullDuplexChannel *__ptr64>>::<class StringKeyStore,class ServerFullDuplexChannel *__ptr64,class <class StringKeyStore,class ServerFullDuplexChannel *__ptr64>>(class <class StringKeyStore,class ServerFullDuplexChannel *__ptr64,class <class StringKeyStore,class ServerFullDuplexChannel *__ptr64>> const &__ptr64 ,bool)__ptr64 
??0?$SafeMap_Lock@VStringKeyStore@@PEAVServerFullDuplexChannel@@V?$SafeMap_Iterator@VStringKeyStore@@PEAVServerFullDuplexChannel@@@@@@QEAA@AEBV?$SafeMap@VStringKeyStore@@PEAVServerFullDuplexChannel@@V?$SafeMap_Iterator@VStringKeyStore@@PEAVServerFullDuplexChannel@@@@@@_N@Z
; public: __cdecl <enum WSManSessionOption,class WSMan::Client::SessionOptions::OptionValue *__ptr64,class <enum WSManSessionOption,class WSMan::Client::SessionOptions::OptionValue *__ptr64>>::<enum WSManSessionOption,class WSMan::Client::SessionOptions::OptionValue *__ptr64,class <enum WSManSessionOption,class WSMan::Client::SessionOptions::OptionValue *__ptr64>>(class <enum WSManSessionOption,class WSMan::Client::SessionOptions::OptionValue *__ptr64,class <enum WSManSessionOption,class WSMan::Client::SessionOptions::OptionValue *__ptr64>> const &__ptr64 ,bool)__ptr64 
??0?$SafeMap_Lock@W4WSManSessionOption@@PEAVOptionValue@SessionOptions@Client@WSMan@@V?$SafeMap_Iterator@W4WSManSessionOption@@PEAVOptionValue@SessionOptions@Client@WSMan@@@@@@QEAA@AEBV?$SafeMap@W4WSManSessionOption@@PEAVOptionValue@SessionOptions@Client@WSMan@@V?$SafeMap_Iterator@W4WSManSessionOption@@PEAVOptionValue@SessionOptions@Client@WSMan@@@@@@_N@Z
; public: __cdecl <unsigned __int64,class RobustConnectionBuffer::SendPacketArgs *__ptr64,class <unsigned __int64,class RobustConnectionBuffer::SendPacketArgs *__ptr64>>::<unsigned __int64,class RobustConnectionBuffer::SendPacketArgs *__ptr64,class <unsigned __int64,class RobustConnectionBuffer::SendPacketArgs *__ptr64>>(class <unsigned __int64,class RobustConnectionBuffer::SendPacketArgs *__ptr64,class <unsigned __int64,class RobustConnectionBuffer::SendPacketArgs *__ptr64>> const &__ptr64 ,bool)__ptr64 
??0?$SafeMap_Lock@_KPEAVSendPacketArgs@RobustConnectionBuffer@@V?$SafeMap_Iterator@_KPEAVSendPacketArgs@RobustConnectionBuffer@@@@@@QEAA@AEBV?$SafeMap@_KPEAVSendPacketArgs@RobustConnectionBuffer@@V?$SafeMap_Iterator@_KPEAVSendPacketArgs@RobustConnectionBuffer@@@@@@_N@Z
; public: __cdecl <class CCertMapping *__ptr64>::<class CCertMapping *__ptr64>(void)__ptr64 
??0?$SafeSet@PEAVCCertMapping@@@@QEAA@XZ
; public: __cdecl <class CListenerOperation *__ptr64>::<class CListenerOperation *__ptr64>(void)__ptr64 
??0?$SafeSet@PEAVCListenerOperation@@@@QEAA@XZ
; public: __cdecl <class CShellUriSettings *__ptr64>::<class CShellUriSettings *__ptr64>(void)__ptr64 
??0?$SafeSet@PEAVCShellUriSettings@@@@QEAA@XZ
; public: __cdecl <void *__ptr64>::<void *__ptr64>(void)__ptr64 
??0?$SafeSet@PEAX@@QEAA@XZ
; public: __cdecl <class CCertMapping *__ptr64>::<class CCertMapping *__ptr64>(class <class CCertMapping *__ptr64,struct Empty,class <class CCertMapping *__ptr64>> &__ptr64 ,bool)__ptr64 
??0?$SafeSet_Iterator@PEAVCCertMapping@@@@QEAA@AEAV?$SafeMap@PEAVCCertMapping@@UEmpty@@V?$SafeSet_Iterator@PEAVCCertMapping@@@@@@_N@Z
; public: __cdecl <class CCertMapping *__ptr64>::<class CCertMapping *__ptr64>(class <class CCertMapping *__ptr64> &__ptr64 )__ptr64 
??0?$SafeSet_Iterator@PEAVCCertMapping@@@@QEAA@AEAV?$SafeSet@PEAVCCertMapping@@@@@Z
; public: __cdecl <class CListenerOperation *__ptr64>::<class CListenerOperation *__ptr64>(class <class CListenerOperation *__ptr64,struct Empty,class <class CListenerOperation *__ptr64>> &__ptr64 ,bool)__ptr64 
??0?$SafeSet_Iterator@PEAVCListenerOperation@@@@QEAA@AEAV?$SafeMap@PEAVCListenerOperation@@UEmpty@@V?$SafeSet_Iterator@PEAVCListenerOperation@@@@@@_N@Z
; public: __cdecl <class CListenerOperation *__ptr64>::<class CListenerOperation *__ptr64>(class <class CListenerOperation *__ptr64> &__ptr64 )__ptr64 
??0?$SafeSet_Iterator@PEAVCListenerOperation@@@@QEAA@AEAV?$SafeSet@PEAVCListenerOperation@@@@@Z
; public: __cdecl <class CShellUriSettings *__ptr64>::<class CShellUriSettings *__ptr64>(class <class CShellUriSettings *__ptr64,struct Empty,class <class CShellUriSettings *__ptr64>> &__ptr64 ,bool)__ptr64 
??0?$SafeSet_Iterator@PEAVCShellUriSettings@@@@QEAA@AEAV?$SafeMap@PEAVCShellUriSettings@@UEmpty@@V?$SafeSet_Iterator@PEAVCShellUriSettings@@@@@@_N@Z
; public: __cdecl <void *__ptr64>::<void *__ptr64>(class <void *__ptr64,struct Empty,class <void *__ptr64>> &__ptr64 ,bool)__ptr64 
??0?$SafeSet_Iterator@PEAX@@QEAA@AEAV?$SafeMap@PEAXUEmpty@@V?$SafeSet_Iterator@PEAX@@@@_N@Z
; public: __cdecl <union _LARGE_INTEGER>::<union _LARGE_INTEGER>(void)__ptr64 
??0?$SimpleQueue@T_LARGE_INTEGER@@@@QEAA@XZ
; public: __cdecl AutoBstr::AutoBstr(unsigned short *__ptr64)__ptr64 
??0AutoBstr@@QEAA@PEAG@Z
; public: __cdecl AutoBstr::AutoBstr(void)__ptr64 
??0AutoBstr@@QEAA@XZ
; public: __cdecl AutoBstrNoAlloc::AutoBstrNoAlloc(unsigned short *__ptr64)__ptr64 
??0AutoBstrNoAlloc@@QEAA@PEAG@Z
; public: __cdecl AutoBstrNoAlloc::AutoBstrNoAlloc(void)__ptr64 
??0AutoBstrNoAlloc@@QEAA@XZ
; public: __cdecl AutoCertContext::AutoCertContext(struct _CERT_CONTEXT const *__ptr64)__ptr64 
??0AutoCertContext@@QEAA@PEBU_CERT_CONTEXT@@@Z
; public: __cdecl AutoCertContext::AutoCertContext(void)__ptr64 
??0AutoCertContext@@QEAA@XZ
; public: __cdecl AutoChainContext::AutoChainContext(struct _CERT_CHAIN_CONTEXT const *__ptr64)__ptr64 
??0AutoChainContext@@QEAA@PEBU_CERT_CHAIN_CONTEXT@@@Z
; public: __cdecl AutoChainContext::AutoChainContext(void)__ptr64 
??0AutoChainContext@@QEAA@XZ
; public: __cdecl AutoCoTaskMemFree::AutoCoTaskMemFree(void *__ptr64)__ptr64 
??0AutoCoTaskMemFree@@QEAA@PEAX@Z
; public: __cdecl AutoCoTaskMemFree::AutoCoTaskMemFree(void)__ptr64 
??0AutoCoTaskMemFree@@QEAA@XZ
; public: __cdecl AutoEnvironmentBlock::AutoEnvironmentBlock(void *__ptr64)__ptr64 
??0AutoEnvironmentBlock@@QEAA@PEAX@Z
; public: __cdecl AutoEnvironmentBlock::AutoEnvironmentBlock(void)__ptr64 
??0AutoEnvironmentBlock@@QEAA@XZ
; public: __cdecl AutoFwXmlCloseParser::AutoFwXmlCloseParser(void *__ptr64)__ptr64 
??0AutoFwXmlCloseParser@@QEAA@PEAX@Z
; public: __cdecl AutoFwXmlCloseParser::AutoFwXmlCloseParser(void)__ptr64 
??0AutoFwXmlCloseParser@@QEAA@XZ
; public: __cdecl AutoHandle::AutoHandle(void *__ptr64)__ptr64 
??0AutoHandle@@QEAA@PEAX@Z
; public: __cdecl AutoHandle::AutoHandle(void)__ptr64 
??0AutoHandle@@QEAA@XZ
; public: __cdecl AutoImpersonateUser::AutoImpersonateUser(void *__ptr64)__ptr64 
??0AutoImpersonateUser@@QEAA@PEAX@Z
; public: __cdecl AutoImpersonateUser::AutoImpersonateUser(void)__ptr64 
??0AutoImpersonateUser@@QEAA@XZ
; public: __cdecl AutoLibrary::AutoLibrary(struct HINSTANCE__ *__ptr64)__ptr64 
??0AutoLibrary@@QEAA@PEAUHINSTANCE__@@@Z
; public: __cdecl AutoLibrary::AutoLibrary(void)__ptr64 
??0AutoLibrary@@QEAA@XZ
; public: __cdecl AutoLocalFree::AutoLocalFree(void *__ptr64)__ptr64 
??0AutoLocalFree@@QEAA@PEAX@Z
; public: __cdecl AutoLocalFree::AutoLocalFree(void)__ptr64 
??0AutoLocalFree@@QEAA@XZ
; public: __cdecl AutoMIClass::AutoMIClass(struct _MI_Class *__ptr64)__ptr64 
??0AutoMIClass@@QEAA@PEAU_MI_Class@@@Z
; public: __cdecl AutoMIClass::AutoMIClass(void)__ptr64 
??0AutoMIClass@@QEAA@XZ
; public: __cdecl AutoMIInstance::AutoMIInstance(struct _MI_Instance *__ptr64)__ptr64 
??0AutoMIInstance@@QEAA@PEAU_MI_Instance@@@Z
; public: __cdecl AutoMIInstance::AutoMIInstance(void)__ptr64 
??0AutoMIInstance@@QEAA@XZ
; public: __cdecl AutoObject::AutoObject(struct WSMAN_OBJECT *__ptr64)__ptr64 
??0AutoObject@@QEAA@PEAUWSMAN_OBJECT@@@Z
; public: __cdecl AutoObject::AutoObject(void)__ptr64 
??0AutoObject@@QEAA@XZ
; public: __cdecl AutoRegKey::AutoRegKey(struct HKEY__ *__ptr64)__ptr64 
??0AutoRegKey@@QEAA@PEAUHKEY__@@@Z
; public: __cdecl AutoRegKey::AutoRegKey(void)__ptr64 
??0AutoRegKey@@QEAA@XZ
; public: __cdecl AutoSecurityDescriptor::AutoSecurityDescriptor(void *__ptr64)__ptr64 
??0AutoSecurityDescriptor@@QEAA@PEAX@Z
; public: __cdecl AutoSecurityDescriptor::AutoSecurityDescriptor(void)__ptr64 
??0AutoSecurityDescriptor@@QEAA@XZ
; public: __cdecl AutoWaitHandle::AutoWaitHandle(void *__ptr64)__ptr64 
??0AutoWaitHandle@@QEAA@PEAX@Z
; public: __cdecl AutoWaitHandle::AutoWaitHandle(void)__ptr64 
??0AutoWaitHandle@@QEAA@XZ
; public: __cdecl BufferFormatter::BufferFormatter(unsigned char *__ptr64,unsigned long)__ptr64 
??0BufferFormatter@@QEAA@PEAEK@Z
; public: __cdecl BufferFormatter::BufferFormatter(void)__ptr64 
??0BufferFormatter@@QEAA@XZ
; protected: __cdecl CBaseConfigCache::CBaseConfigCache(enum CConfigChangeSource::ConfigLocation,class FastLock *__ptr64,class CBaseConfigCache::CConfigCacheMap *__ptr64)__ptr64 
??0CBaseConfigCache@@IEAA@W4ConfigLocation@CConfigChangeSource@@PEAVFastLock@@PEAVCConfigCacheMap@0@@Z
; private: __cdecl CClientConfigCache::CClientConfigCache(void)__ptr64 
??0CClientConfigCache@@AEAA@XZ
; private: __cdecl CConfigManager::CConfigManager(void)__ptr64 
??0CConfigManager@@AEAA@XZ
; public: __cdecl CErrorContext::CErrorContext(bool)__ptr64 
??0CErrorContext@@QEAA@_N@Z
; public: __cdecl CRequestContext::CRequestContext(unsigned short const *__ptr64)__ptr64 
??0CRequestContext@@QEAA@PEBG@Z
; public: __cdecl CRequestContext::CRequestContext(void)__ptr64 
??0CRequestContext@@QEAA@XZ
; public: __cdecl CResourceAlias::CResourceAlias(unsigned short const *__ptr64)__ptr64 
??0CResourceAlias@@QEAA@PEBG@Z
; private: __cdecl CServiceConfigCache::CServiceConfigCache(void)__ptr64 
??0CServiceConfigCache@@AEAA@XZ
; private: __cdecl CServiceConfigCache::CServiceWatcher::CServiceWatcher(class CServiceConfigCache *__ptr64,class IServiceConfigObserver *__ptr64)__ptr64 
??0CServiceWatcher@CServiceConfigCache@@AEAA@PEAV1@PEAVIServiceConfigObserver@@@Z
; public: __cdecl CWSManCriticalSection::CWSManCriticalSection(void)__ptr64 
??0CWSManCriticalSection@@QEAA@XZ
; public: __cdecl CWSManCriticalSectionWithConditionVar::CWSManCriticalSectionWithConditionVar(void)__ptr64 
??0CWSManCriticalSectionWithConditionVar@@QEAA@XZ
; public: __cdecl CWSManEPR::CWSManEPR(int)__ptr64 
??0CWSManEPR@@QEAA@H@Z
; private: __cdecl CWSManGroupPolicyManager::CWSManGroupPolicyManager(void)__ptr64 
??0CWSManGroupPolicyManager@@AEAA@XZ
; public: __cdecl CWSManResource::CWSManResource(int)__ptr64 
??0CWSManResource@@QEAA@H@Z
; public: __cdecl CWSManResourceNoResourceUri::CWSManResourceNoResourceUri(int)__ptr64 
??0CWSManResourceNoResourceUri@@QEAA@H@Z
; public: __cdecl CWSManSecurityUI::CWSManSecurityUI(void)__ptr64 
??0CWSManSecurityUI@@QEAA@XZ
; private: __cdecl CWinRSPluginConfigCache::CWinRSPluginConfigCache(void)__ptr64 
??0CWinRSPluginConfigCache@@AEAA@XZ
; public: __cdecl ChildLifeTimeManager::ChildLifeTimeManager(void)__ptr64 
??0ChildLifeTimeManager@@QEAA@XZ
; public: __cdecl CircularBufferFormatter::CircularBufferFormatter(void)__ptr64 
??0CircularBufferFormatter@@QEAA@XZ
; protected: __cdecl ConfigRegistry::ConfigRegistry(void)__ptr64 
??0ConfigRegistry@@IEAA@XZ
; public: __cdecl EtwCorrelationHelper::EtwCorrelationHelper(class EtwCorrelationHelper const &__ptr64 )__ptr64 
??0EtwCorrelationHelper@@QEAA@AEBV0@@Z
; public: __cdecl WSMan::EventHandler::EventHandler(void)__ptr64 
??0EventHandler@WSMan@@QEAA@XZ
; public: __cdecl ExtendedSemantic::ExtendedSemantic(unsigned long)__ptr64 
??0ExtendedSemantic@@QEAA@K@Z
; public: __cdecl FastLock::FastLock(void)__ptr64 
??0FastLock@@QEAA@XZ
; public: __cdecl PacketParser::Fragment::Fragment(void)__ptr64 
??0Fragment@PacketParser@@QEAA@XZ
; public: __cdecl IConfigChangeObserver::IConfigChangeObserver(class IConfigChangeObserver const &__ptr64 )__ptr64 
??0IConfigChangeObserver@@QEAA@AEBV0@@Z
; public: __cdecl IConfigChangeObserver::IConfigChangeObserver(void)__ptr64 
??0IConfigChangeObserver@@QEAA@XZ
; public: __cdecl ILifeTimeMgmt::ILifeTimeMgmt(class ILifeTimeMgmt const &__ptr64 )__ptr64 
??0ILifeTimeMgmt@@QEAA@AEBV0@@Z
; public: __cdecl ILifeTimeMgmt::ILifeTimeMgmt(void)__ptr64 
??0ILifeTimeMgmt@@QEAA@XZ
; protected: __cdecl IRequestContext::IRequestContext(void)__ptr64 
??0IRequestContext@@IEAA@XZ
; public: __cdecl IWSManGroupPolicyObserver::IWSManGroupPolicyObserver(class IWSManGroupPolicyObserver const &__ptr64 )__ptr64 
??0IWSManGroupPolicyObserver@@QEAA@AEBV0@@Z
; public: __cdecl IWSManGroupPolicyObserver::IWSManGroupPolicyObserver(void)__ptr64 
??0IWSManGroupPolicyObserver@@QEAA@XZ
; public: __cdecl IWSManGroupPolicyPublisher::IWSManGroupPolicyPublisher(class IWSManGroupPolicyPublisher const &__ptr64 )__ptr64 
??0IWSManGroupPolicyPublisher@@QEAA@AEBV0@@Z
; public: __cdecl IWSManGroupPolicyPublisher::IWSManGroupPolicyPublisher(void)__ptr64 
??0IWSManGroupPolicyPublisher@@QEAA@XZ
; public: __cdecl Locale::Locale(class Locale const &__ptr64 )__ptr64 
??0Locale@@QEAA@AEBV0@@Z
; public: __cdecl Locale::Locale(class IRequestContext *__ptr64)__ptr64 
??0Locale@@QEAA@PEAVIRequestContext@@@Z
; public: __cdecl Locale::Locale(void)__ptr64 
??0Locale@@QEAA@XZ
; public: __cdecl PacketParser::MessageId::MessageId(void)__ptr64 
??0MessageId@PacketParser@@QEAA@XZ
; public: __cdecl PacketParser::NotUnderstandSoapHeader::NotUnderstandSoapHeader(void)__ptr64 
??0NotUnderstandSoapHeader@PacketParser@@QEAA@XZ
; public: __cdecl OnHTTPInitialize::OnHTTPInitialize(void)__ptr64 
??0OnHTTPInitialize@@QEAA@XZ
; public: __cdecl PacketParser::OperationId::OperationId(void)__ptr64 
??0OperationId@PacketParser@@QEAA@XZ
; public: __cdecl OwnLock::OwnLock(class FastLock &__ptr64 )__ptr64 
??0OwnLock@@QEAA@AEAVFastLock@@@Z
; public: __cdecl PacketFormatter::PacketFormatter(void)__ptr64 
??0PacketFormatter@@QEAA@XZ
; public: __cdecl PacketParser::PacketParser(void)__ptr64 
??0PacketParser@@QEAA@XZ
; public: __cdecl RBUFFER::RBUFFER(unsigned int)__ptr64 
??0RBUFFER@@QEAA@I@Z
; public: __cdecl RBUFFER::RBUFFER(unsigned char *__ptr64,unsigned int)__ptr64 
??0RBUFFER@@QEAA@PEAEI@Z
; public: __cdecl PacketParser::ReferenceParameters::ReferenceParameters(void)__ptr64 
??0ReferenceParameters@PacketParser@@QEAA@XZ
; public: __cdecl SBUFFER::SBUFFER(void)__ptr64 
??0SBUFFER@@QEAA@XZ
; public: __cdecl PacketParser::SessionId::SessionId(void)__ptr64 
??0SessionId@PacketParser@@QEAA@XZ
; public: __cdecl ShareLock::ShareLock(class FastLock &__ptr64 )__ptr64 
??0ShareLock@@QEAA@AEAVFastLock@@@Z
; public: __cdecl SoapSemanticConverter::SoapSemanticConverter(void)__ptr64 
??0SoapSemanticConverter@@QEAA@XZ
; public: __cdecl TSTRBUFFER::TSTRBUFFER(void)__ptr64 
??0TSTRBUFFER@@QEAA@XZ
; public: __cdecl UserAuthzRecord::UserAuthzRecord(class UserAuthzRecord const &__ptr64 )__ptr64 
??0UserAuthzRecord@@QEAA@AEBV0@@Z
; public: __cdecl UserAuthzRecord::UserAuthzRecord(void)__ptr64 
??0UserAuthzRecord@@QEAA@XZ
; public: __cdecl UserRecord::UserRecord(void)__ptr64 
??0UserRecord@@QEAA@XZ
; public: __cdecl XmlReader::XmlReader(void)__ptr64 
??0XmlReader@@QEAA@XZ
; public: __cdecl <class <char>,char *__ptr64>::~<class <char>,char *__ptr64>(void)__ptr64 
??1?$AutoCleanup@V?$AutoDelete@D@@PEAD@@QEAA@XZ
; public: __cdecl <class <unsigned short>,unsigned short *__ptr64>::~<class <unsigned short>,unsigned short *__ptr64>(void)__ptr64 
??1?$AutoCleanup@V?$AutoDelete@G@@PEAG@@QEAA@XZ
; public: __cdecl <class <struct CWSManIPFilter::IPRange>,struct CWSManIPFilter::IPRange *__ptr64>::~<class <struct CWSManIPFilter::IPRange>,struct CWSManIPFilter::IPRange *__ptr64>(void)__ptr64 
??1?$AutoCleanup@V?$AutoDelete@UIPRange@CWSManIPFilter@@@@PEAUIPRange@CWSManIPFilter@@@@QEAA@XZ
; public: __cdecl <class <struct _SID>,struct _SID *__ptr64>::~<class <struct _SID>,struct _SID *__ptr64>(void)__ptr64 
??1?$AutoCleanup@V?$AutoDelete@U_SID@@@@PEAU_SID@@@@QEAA@XZ
; public: __cdecl <class <struct _WSMAN_STREAM_ID_SET>,struct _WSMAN_STREAM_ID_SET *__ptr64>::~<class <struct _WSMAN_STREAM_ID_SET>,struct _WSMAN_STREAM_ID_SET *__ptr64>(void)__ptr64 
??1?$AutoCleanup@V?$AutoDelete@U_WSMAN_STREAM_ID_SET@@@@PEAU_WSMAN_STREAM_ID_SET@@@@QEAA@XZ
; public: __cdecl <class <class <class ISubscription>>,class <class ISubscription> *__ptr64>::~<class <class <class ISubscription>>,class <class ISubscription> *__ptr64>(void)__ptr64 
??1?$AutoCleanup@V?$AutoDelete@V?$Handle@VISubscription@@@@@@PEAV?$Handle@VISubscription@@@@@@QEAA@XZ
; public: __cdecl <class <class <class CListenerConnect *__ptr64,class CListenerConnect *__ptr64>>,class <class CListenerConnect *__ptr64,class CListenerConnect *__ptr64> *__ptr64>::~<class <class <class CListenerConnect *__ptr64,class CListenerConnect *__ptr64>>,class <class CListenerConnect *__ptr64,class CListenerConnect *__ptr64> *__ptr64>(void)__ptr64 
??1?$AutoCleanup@V?$AutoDelete@V?$SafeMap_Iterator@PEAVCListenerConnect@@PEAV1@@@@@PEAV?$SafeMap_Iterator@PEAVCListenerConnect@@PEAV1@@@@@QEAA@XZ
; public: __cdecl <class <class <class CListenerReceive *__ptr64,class CListenerReceive *__ptr64>>,class <class CListenerReceive *__ptr64,class CListenerReceive *__ptr64> *__ptr64>::~<class <class <class CListenerReceive *__ptr64,class CListenerReceive *__ptr64>>,class <class CListenerReceive *__ptr64,class CListenerReceive *__ptr64> *__ptr64>(void)__ptr64 
??1?$AutoCleanup@V?$AutoDelete@V?$SafeMap_Iterator@PEAVCListenerReceive@@PEAV1@@@@@PEAV?$SafeMap_Iterator@PEAVCListenerReceive@@PEAV1@@@@@QEAA@XZ
; public: __cdecl <class <class <class CListenerSend *__ptr64,class CListenerSend *__ptr64>>,class <class CListenerSend *__ptr64,class CListenerSend *__ptr64> *__ptr64>::~<class <class <class CListenerSend *__ptr64,class CListenerSend *__ptr64>>,class <class CListenerSend *__ptr64,class CListenerSend *__ptr64> *__ptr64>(void)__ptr64 
??1?$AutoCleanup@V?$AutoDelete@V?$SafeMap_Iterator@PEAVCListenerSend@@PEAV1@@@@@PEAV?$SafeMap_Iterator@PEAVCListenerSend@@PEAV1@@@@@QEAA@XZ
; public: __cdecl <class <class <class CListenerSignal *__ptr64,class CListenerSignal *__ptr64>>,class <class CListenerSignal *__ptr64,class CListenerSignal *__ptr64> *__ptr64>::~<class <class <class CListenerSignal *__ptr64,class CListenerSignal *__ptr64>>,class <class CListenerSignal *__ptr64,class CListenerSignal *__ptr64> *__ptr64>(void)__ptr64 
??1?$AutoCleanup@V?$AutoDelete@V?$SafeMap_Iterator@PEAVCListenerSignal@@PEAV1@@@@@PEAV?$SafeMap_Iterator@PEAVCListenerSignal@@PEAV1@@@@@QEAA@XZ
; public: __cdecl <class <class <class GuidKey,class CListenerCommand *__ptr64>>,class <class GuidKey,class CListenerCommand *__ptr64> *__ptr64>::~<class <class <class GuidKey,class CListenerCommand *__ptr64>>,class <class GuidKey,class CListenerCommand *__ptr64> *__ptr64>(void)__ptr64 
??1?$AutoCleanup@V?$AutoDelete@V?$SafeMap_Iterator@VGuidKey@@PEAVCListenerCommand@@@@@@PEAV?$SafeMap_Iterator@VGuidKey@@PEAVCListenerCommand@@@@@@QEAA@XZ
; public: __cdecl <class <class <class StringKeyCI,unsigned long>>,class <class StringKeyCI,unsigned long> *__ptr64>::~<class <class <class StringKeyCI,unsigned long>>,class <class StringKeyCI,unsigned long> *__ptr64>(void)__ptr64 
??1?$AutoCleanup@V?$AutoDelete@V?$SafeMap_Iterator@VStringKeyCI@@K@@@@PEAV?$SafeMap_Iterator@VStringKeyCI@@K@@@@QEAA@XZ
; public: __cdecl <class <class <enum WSManSessionOption,class WSMan::Client::SessionOptions::OptionValue *__ptr64>>,class <enum WSManSessionOption,class WSMan::Client::SessionOptions::OptionValue *__ptr64> *__ptr64>::~<class <class <enum WSManSessionOption,class WSMan::Client::SessionOptions::OptionValue *__ptr64>>,class <enum WSManSessionOption,class WSMan::Client::SessionOptions::OptionValue *__ptr64> *__ptr64>(void)__ptr64 
??1?$AutoCleanup@V?$AutoDelete@V?$SafeMap_Iterator@W4WSManSessionOption@@PEAVOptionValue@SessionOptions@Client@WSMan@@@@@@PEAV?$SafeMap_Iterator@W4WSManSessionOption@@PEAVOptionValue@SessionOptions@Client@WSMan@@@@@@QEAA@XZ
; public: __cdecl <class <class <class CCertMapping *__ptr64>>,class <class CCertMapping *__ptr64> *__ptr64>::~<class <class <class CCertMapping *__ptr64>>,class <class CCertMapping *__ptr64> *__ptr64>(void)__ptr64 
??1?$AutoCleanup@V?$AutoDelete@V?$SafeSet@PEAVCCertMapping@@@@@@PEAV?$SafeSet@PEAVCCertMapping@@@@@@QEAA@XZ
; public: __cdecl <class <class <class CShellUriSettings *__ptr64>>,class <class CShellUriSettings *__ptr64> *__ptr64>::~<class <class <class CShellUriSettings *__ptr64>>,class <class CShellUriSettings *__ptr64> *__ptr64>(void)__ptr64 
??1?$AutoCleanup@V?$AutoDelete@V?$SafeSet@PEAVCShellUriSettings@@@@@@PEAV?$SafeSet@PEAVCShellUriSettings@@@@@@QEAA@XZ
; public: __cdecl <class <class <class CListenerOperation *__ptr64>>,class <class CListenerOperation *__ptr64> *__ptr64>::~<class <class <class CListenerOperation *__ptr64>>,class <class CListenerOperation *__ptr64> *__ptr64>(void)__ptr64 
??1?$AutoCleanup@V?$AutoDelete@V?$SafeSet_Iterator@PEAVCListenerOperation@@@@@@PEAV?$SafeSet_Iterator@PEAVCListenerOperation@@@@@@QEAA@XZ
; public: __cdecl <class <class <class Collector *__ptr64>>,class <class Collector *__ptr64> *__ptr64>::~<class <class <class Collector *__ptr64>>,class <class Collector *__ptr64> *__ptr64>(void)__ptr64 
??1?$AutoCleanup@V?$AutoDelete@V?$SafeSet_Iterator@PEAVCollector@@@@@@PEAV?$SafeSet_Iterator@PEAVCollector@@@@@@QEAA@XZ
; public: __cdecl <class <class <class HostOperation *__ptr64>>,class <class HostOperation *__ptr64> *__ptr64>::~<class <class <class HostOperation *__ptr64>>,class <class HostOperation *__ptr64> *__ptr64>(void)__ptr64 
??1?$AutoCleanup@V?$AutoDelete@V?$SafeSet_Iterator@PEAVHostOperation@@@@@@PEAV?$SafeSet_Iterator@PEAVHostOperation@@@@@@QEAA@XZ
; public: __cdecl <class <class <class ListenerSourceSubscription *__ptr64>>,class <class ListenerSourceSubscription *__ptr64> *__ptr64>::~<class <class <class ListenerSourceSubscription *__ptr64>>,class <class ListenerSourceSubscription *__ptr64> *__ptr64>(void)__ptr64 
??1?$AutoCleanup@V?$AutoDelete@V?$SafeSet_Iterator@PEAVListenerSourceSubscription@@@@@@PEAV?$SafeSet_Iterator@PEAVListenerSourceSubscription@@@@@@QEAA@XZ
; public: __cdecl <class <class <class CListenerOperation>>,class <class CListenerOperation> *__ptr64>::~<class <class <class CListenerOperation>>,class <class CListenerOperation> *__ptr64>(void)__ptr64 
??1?$AutoCleanup@V?$AutoDelete@V?$SimpleStack@VCListenerOperation@@@@@@PEAV?$SimpleStack@VCListenerOperation@@@@@@QEAA@XZ
; public: __cdecl <class <class <class ShellHostEntry>>,class <class ShellHostEntry> *__ptr64>::~<class <class <class ShellHostEntry>>,class <class ShellHostEntry> *__ptr64>(void)__ptr64 
??1?$AutoCleanup@V?$AutoDelete@V?$SimpleStack@VShellHostEntry@@@@@@PEAV?$SimpleStack@VShellHostEntry@@@@@@QEAA@XZ
; public: __cdecl <class <class std::<struct _WSMAN_PUBLISHER_EVENT_STRUCT *__ptr64,class std::<struct _WSMAN_PUBLISHER_EVENT_STRUCT *__ptr64,class <struct _WSMAN_PUBLISHER_EVENT_STRUCT *__ptr64>>>>,class std::<struct _WSMAN_PUBLISHER_EVENT_STRUCT *__ptr64,class std::<struct _WSMAN_PUBLISHER_EVENT_STRUCT *__ptr64,class <struct _WSMAN_PUBLISHER_EVENT_STRUCT *__ptr64>>> *__ptr64>::~<class <class std::<struct _WSMAN_PUBLISHER_EVENT_STRUCT *__ptr64,class std::<struct _WSMAN_PUBLISHER_EVENT_STRUCT *__ptr64,class <struct _WSMAN_PUBLISHER_EVENT_STRUCT *__ptr64>>>>,class std::<struct _WSMAN_PUBLISHER_EVENT_STRUCT *__ptr64,class std::<struct _WSMAN_PUBLISHER_EVENT_STRUCT *__ptr64,class <struct _WSMAN_PUBLISHER_EVENT_STRUCT *__ptr64>>> *__ptr64>(void)__ptr64 
??1?$AutoCleanup@V?$AutoDelete@V?$queue@PEAU_WSMAN_PUBLISHER_EVENT_STRUCT@@V?$deque@PEAU_WSMAN_PUBLISHER_EVENT_STRUCT@@V?$transport_allocator@PEAU_WSMAN_PUBLISHER_EVENT_STRUCT@@@@@std@@@std@@@@PEAV?$queue@PEAU_WSMAN_PUBLISHER_EVENT_STRUCT@@V?$deque@PEAU_WSMAN_PUBLISHER_EVENT_STRUCT@@V?$transport_allocator@PEAU_WSMAN_PUBLISHER_EVENT_STRUCT@@@@@std@@@std@@@@QEAA@XZ
; public: __cdecl <class <class std::<class CListenerSettings *__ptr64,class CServiceConfigSettings::CListenerSettingsLessFunctor,class <class CListenerSettings *__ptr64>>>,class std::<class CListenerSettings *__ptr64,class CServiceConfigSettings::CListenerSettingsLessFunctor,class <class CListenerSettings *__ptr64>> *__ptr64>::~<class <class std::<class CListenerSettings *__ptr64,class CServiceConfigSettings::CListenerSettingsLessFunctor,class <class CListenerSettings *__ptr64>>>,class std::<class CListenerSettings *__ptr64,class CServiceConfigSettings::CListenerSettingsLessFunctor,class <class CListenerSettings *__ptr64>> *__ptr64>(void)__ptr64 
??1?$AutoCleanup@V?$AutoDelete@V?$set@PEAVCListenerSettings@@VCListenerSettingsLessFunctor@CServiceConfigSettings@@V?$transport_allocator@PEAVCListenerSettings@@@@@std@@@@PEAV?$set@PEAVCListenerSettings@@VCListenerSettingsLessFunctor@CServiceConfigSettings@@V?$transport_allocator@PEAVCListenerSettings@@@@@std@@@@QEAA@XZ
; public: __cdecl <class <class std::<struct sockaddr_storage,class CListenerSettings::SockAddrLessFunctor,class <struct sockaddr_storage>>>,class std::<struct sockaddr_storage,class CListenerSettings::SockAddrLessFunctor,class <struct sockaddr_storage>> *__ptr64>::~<class <class std::<struct sockaddr_storage,class CListenerSettings::SockAddrLessFunctor,class <struct sockaddr_storage>>>,class std::<struct sockaddr_storage,class CListenerSettings::SockAddrLessFunctor,class <struct sockaddr_storage>> *__ptr64>(void)__ptr64 
??1?$AutoCleanup@V?$AutoDelete@V?$set@Usockaddr_storage@@VSockAddrLessFunctor@CListenerSettings@@V?$transport_allocator@Usockaddr_storage@@@@@std@@@@PEAV?$set@Usockaddr_storage@@VSockAddrLessFunctor@CListenerSettings@@V?$transport_allocator@Usockaddr_storage@@@@@std@@@@QEAA@XZ
; public: __cdecl <class <class std::<class CWSManRequest *__ptr64,class <class CWSManRequest *__ptr64>>>,class std::<class CWSManRequest *__ptr64,class <class CWSManRequest *__ptr64>> *__ptr64>::~<class <class std::<class CWSManRequest *__ptr64,class <class CWSManRequest *__ptr64>>>,class std::<class CWSManRequest *__ptr64,class <class CWSManRequest *__ptr64>> *__ptr64>(void)__ptr64 
??1?$AutoCleanup@V?$AutoDelete@V?$vector@PEAVCWSManRequest@@V?$transport_allocator@PEAVCWSManRequest@@@@@std@@@@PEAV?$vector@PEAVCWSManRequest@@V?$transport_allocator@PEAVCWSManRequest@@@@@std@@@@QEAA@XZ
; public: __cdecl <class <class std::<class WSMan::Client::HandleImpl *__ptr64,class <class WSMan::Client::HandleImpl *__ptr64>>>,class std::<class WSMan::Client::HandleImpl *__ptr64,class <class WSMan::Client::HandleImpl *__ptr64>> *__ptr64>::~<class <class std::<class WSMan::Client::HandleImpl *__ptr64,class <class WSMan::Client::HandleImpl *__ptr64>>>,class std::<class WSMan::Client::HandleImpl *__ptr64,class <class WSMan::Client::HandleImpl *__ptr64>> *__ptr64>(void)__ptr64 
??1?$AutoCleanup@V?$AutoDelete@V?$vector@PEAVHandleImpl@Client@WSMan@@V?$transport_allocator@PEAVHandleImpl@Client@WSMan@@@@@std@@@@PEAV?$vector@PEAVHandleImpl@Client@WSMan@@V?$transport_allocator@PEAVHandleImpl@Client@WSMan@@@@@std@@@@QEAA@XZ
; public: __cdecl <class <class std::<class IServiceConfigObserver *__ptr64,class <class IServiceConfigObserver *__ptr64>>>,class std::<class IServiceConfigObserver *__ptr64,class <class IServiceConfigObserver *__ptr64>> *__ptr64>::~<class <class std::<class IServiceConfigObserver *__ptr64,class <class IServiceConfigObserver *__ptr64>>>,class std::<class IServiceConfigObserver *__ptr64,class <class IServiceConfigObserver *__ptr64>> *__ptr64>(void)__ptr64 
??1?$AutoCleanup@V?$AutoDelete@V?$vector@PEAVIServiceConfigObserver@@V?$transport_allocator@PEAVIServiceConfigObserver@@@@@std@@@@PEAV?$vector@PEAVIServiceConfigObserver@@V?$transport_allocator@PEAVIServiceConfigObserver@@@@@std@@@@QEAA@XZ
; public: __cdecl <class <class std::<class WSManHttpSenderConnection *__ptr64,class <class WSManHttpSenderConnection *__ptr64>>>,class std::<class WSManHttpSenderConnection *__ptr64,class <class WSManHttpSenderConnection *__ptr64>> *__ptr64>::~<class <class std::<class WSManHttpSenderConnection *__ptr64,class <class WSManHttpSenderConnection *__ptr64>>>,class std::<class WSManHttpSenderConnection *__ptr64,class <class WSManHttpSenderConnection *__ptr64>> *__ptr64>(void)__ptr64 
??1?$AutoCleanup@V?$AutoDelete@V?$vector@PEAVWSManHttpSenderConnection@@V?$transport_allocator@PEAVWSManHttpSenderConnection@@@@@std@@@@PEAV?$vector@PEAVWSManHttpSenderConnection@@V?$transport_allocator@PEAVWSManHttpSenderConnection@@@@@std@@@@QEAA@XZ
; public: __cdecl <class <class CSecurity::AdminSid>,class CSecurity::AdminSid *__ptr64>::~<class <class CSecurity::AdminSid>,class CSecurity::AdminSid *__ptr64>(void)__ptr64 
??1?$AutoCleanup@V?$AutoDelete@VAdminSid@CSecurity@@@@PEAVAdminSid@CSecurity@@@@QEAA@XZ
; public: __cdecl <class <class BlockedRecord>,class BlockedRecord *__ptr64>::~<class <class BlockedRecord>,class BlockedRecord *__ptr64>(void)__ptr64 
??1?$AutoCleanup@V?$AutoDelete@VBlockedRecord@@@@PEAVBlockedRecord@@@@QEAA@XZ
; public: __cdecl <class <class CBaseConfigCache>,class CBaseConfigCache *__ptr64>::~<class <class CBaseConfigCache>,class CBaseConfigCache *__ptr64>(void)__ptr64 
??1?$AutoCleanup@V?$AutoDelete@VCBaseConfigCache@@@@PEAVCBaseConfigCache@@@@QEAA@XZ
; public: __cdecl <class <class CCertMapping>,class CCertMapping *__ptr64>::~<class <class CCertMapping>,class CCertMapping *__ptr64>(void)__ptr64 
??1?$AutoCleanup@V?$AutoDelete@VCCertMapping@@@@PEAVCCertMapping@@@@QEAA@XZ
; public: __cdecl <class <class CConfigChangeSource>,class CConfigChangeSource *__ptr64>::~<class <class CConfigChangeSource>,class CConfigChangeSource *__ptr64>(void)__ptr64 
??1?$AutoCleanup@V?$AutoDelete@VCConfigChangeSource@@@@PEAVCConfigChangeSource@@@@QEAA@XZ
; public: __cdecl <class <class CListenerSettings>,class CListenerSettings *__ptr64>::~<class <class CListenerSettings>,class CListenerSettings *__ptr64>(void)__ptr64 
??1?$AutoCleanup@V?$AutoDelete@VCListenerSettings@@@@PEAVCListenerSettings@@@@QEAA@XZ
; public: __cdecl <class <class CObserverConfigChangeErrors>,class CObserverConfigChangeErrors *__ptr64>::~<class <class CObserverConfigChangeErrors>,class CObserverConfigChangeErrors *__ptr64>(void)__ptr64 
??1?$AutoCleanup@V?$AutoDelete@VCObserverConfigChangeErrors@@@@PEAVCObserverConfigChangeErrors@@@@QEAA@XZ
; public: __cdecl <class <class CServiceConfigCache::CServiceWatcher>,class CServiceConfigCache::CServiceWatcher *__ptr64>::~<class <class CServiceConfigCache::CServiceWatcher>,class CServiceConfigCache::CServiceWatcher *__ptr64>(void)__ptr64 
??1?$AutoCleanup@V?$AutoDelete@VCServiceWatcher@CServiceConfigCache@@@@PEAVCServiceWatcher@CServiceConfigCache@@@@QEAA@XZ
; public: __cdecl <class <class CShellUriSettings>,class CShellUriSettings *__ptr64>::~<class <class CShellUriSettings>,class CShellUriSettings *__ptr64>(void)__ptr64 
??1?$AutoCleanup@V?$AutoDelete@VCShellUriSettings@@@@PEAVCShellUriSettings@@@@QEAA@XZ
; public: __cdecl <class <class CWSManEPR>,class CWSManEPR *__ptr64>::~<class <class CWSManEPR>,class CWSManEPR *__ptr64>(void)__ptr64 
??1?$AutoCleanup@V?$AutoDelete@VCWSManEPR@@@@PEAVCWSManEPR@@@@QEAA@XZ
; public: __cdecl <class <class CWSManResource>,class CWSManResource *__ptr64>::~<class <class CWSManResource>,class CWSManResource *__ptr64>(void)__ptr64 
??1?$AutoCleanup@V?$AutoDelete@VCWSManResource@@@@PEAVCWSManResource@@@@QEAA@XZ
; public: __cdecl <class <class CertHash>,class CertHash *__ptr64>::~<class <class CertHash>,class CertHash *__ptr64>(void)__ptr64 
??1?$AutoCleanup@V?$AutoDelete@VCertHash@@@@PEAVCertHash@@@@QEAA@XZ
; public: __cdecl <class <class ConfigUpdate>,class ConfigUpdate *__ptr64>::~<class <class ConfigUpdate>,class ConfigUpdate *__ptr64>(void)__ptr64 
??1?$AutoCleanup@V?$AutoDelete@VConfigUpdate@@@@PEAVConfigUpdate@@@@QEAA@XZ
; public: __cdecl <class <class CredUIDllLoader>,class CredUIDllLoader *__ptr64>::~<class <class CredUIDllLoader>,class CredUIDllLoader *__ptr64>(void)__ptr64 
??1?$AutoCleanup@V?$AutoDelete@VCredUIDllLoader@@@@PEAVCredUIDllLoader@@@@QEAA@XZ
; public: __cdecl <class <class EnumSinkEx>,class EnumSinkEx *__ptr64>::~<class <class EnumSinkEx>,class EnumSinkEx *__ptr64>(void)__ptr64 
??1?$AutoCleanup@V?$AutoDelete@VEnumSinkEx@@@@PEAVEnumSinkEx@@@@QEAA@XZ
; public: __cdecl <class <class WSMan::EventHandler>,class WSMan::EventHandler *__ptr64>::~<class <class WSMan::EventHandler>,class WSMan::EventHandler *__ptr64>(void)__ptr64 
??1?$AutoCleanup@V?$AutoDelete@VEventHandler@WSMan@@@@PEAVEventHandler@WSMan@@@@QEAA@XZ
; public: __cdecl <class <class ExpiredOperationIdRecord>,class ExpiredOperationIdRecord *__ptr64>::~<class <class ExpiredOperationIdRecord>,class ExpiredOperationIdRecord *__ptr64>(void)__ptr64 
??1?$AutoCleanup@V?$AutoDelete@VExpiredOperationIdRecord@@@@PEAVExpiredOperationIdRecord@@@@QEAA@XZ
; public: __cdecl <class <class GPApiManager>,class GPApiManager *__ptr64>::~<class <class GPApiManager>,class GPApiManager *__ptr64>(void)__ptr64 
??1?$AutoCleanup@V?$AutoDelete@VGPApiManager@@@@PEAVGPApiManager@@@@QEAA@XZ
; public: __cdecl <class <class GeneralSinkEx>,class GeneralSinkEx *__ptr64>::~<class <class GeneralSinkEx>,class GeneralSinkEx *__ptr64>(void)__ptr64 
??1?$AutoCleanup@V?$AutoDelete@VGeneralSinkEx@@@@PEAVGeneralSinkEx@@@@QEAA@XZ
; public: __cdecl <class <class IChannelObserverFactory>,class IChannelObserverFactory *__ptr64>::~<class <class IChannelObserverFactory>,class IChannelObserverFactory *__ptr64>(void)__ptr64 
??1?$AutoCleanup@V?$AutoDelete@VIChannelObserverFactory@@@@PEAVIChannelObserverFactory@@@@QEAA@XZ
; public: __cdecl <class <class IQueryDASHSMASHInterface>,class IQueryDASHSMASHInterface *__ptr64>::~<class <class IQueryDASHSMASHInterface>,class IQueryDASHSMASHInterface *__ptr64>(void)__ptr64 
??1?$AutoCleanup@V?$AutoDelete@VIQueryDASHSMASHInterface@@@@PEAVIQueryDASHSMASHInterface@@@@QEAA@XZ
; public: __cdecl <class <class ISpecification>,class ISpecification *__ptr64>::~<class <class ISpecification>,class ISpecification *__ptr64>(void)__ptr64 
??1?$AutoCleanup@V?$AutoDelete@VISpecification@@@@PEAVISpecification@@@@QEAA@XZ
; public: __cdecl <class <class CSecurity::InteractiveSid>,class CSecurity::InteractiveSid *__ptr64>::~<class <class CSecurity::InteractiveSid>,class CSecurity::InteractiveSid *__ptr64>(void)__ptr64 
??1?$AutoCleanup@V?$AutoDelete@VInteractiveSid@CSecurity@@@@PEAVInteractiveSid@CSecurity@@@@QEAA@XZ
; public: __cdecl <class <class IpHlpApiDllLoader>,class IpHlpApiDllLoader *__ptr64>::~<class <class IpHlpApiDllLoader>,class IpHlpApiDllLoader *__ptr64>(void)__ptr64 
??1?$AutoCleanup@V?$AutoDelete@VIpHlpApiDllLoader@@@@PEAVIpHlpApiDllLoader@@@@QEAA@XZ
; public: __cdecl <class <class MachineName>,class MachineName *__ptr64>::~<class <class MachineName>,class MachineName *__ptr64>(void)__ptr64 
??1?$AutoCleanup@V?$AutoDelete@VMachineName@@@@PEAVMachineName@@@@QEAA@XZ
; public: __cdecl <class <class CListenerReceive::MasterReceiveData>,class CListenerReceive::MasterReceiveData *__ptr64>::~<class <class CListenerReceive::MasterReceiveData>,class CListenerReceive::MasterReceiveData *__ptr64>(void)__ptr64 
??1?$AutoCleanup@V?$AutoDelete@VMasterReceiveData@CListenerReceive@@@@PEAVMasterReceiveData@CListenerReceive@@@@QEAA@XZ
; public: __cdecl <class <class CSecurity::NetworkServiceSid>,class CSecurity::NetworkServiceSid *__ptr64>::~<class <class CSecurity::NetworkServiceSid>,class CSecurity::NetworkServiceSid *__ptr64>(void)__ptr64 
??1?$AutoCleanup@V?$AutoDelete@VNetworkServiceSid@CSecurity@@@@PEAVNetworkServiceSid@CSecurity@@@@QEAA@XZ
; public: __cdecl <class <class NtDsApiDllLoader>,class NtDsApiDllLoader *__ptr64>::~<class <class NtDsApiDllLoader>,class NtDsApiDllLoader *__ptr64>(void)__ptr64 
??1?$AutoCleanup@V?$AutoDelete@VNtDsApiDllLoader@@@@PEAVNtDsApiDllLoader@@@@QEAA@XZ
; public: __cdecl <class <class WSMan::Client::SessionOptions::OptionValue>,class WSMan::Client::SessionOptions::OptionValue *__ptr64>::~<class <class WSMan::Client::SessionOptions::OptionValue>,class WSMan::Client::SessionOptions::OptionValue *__ptr64>(void)__ptr64 
??1?$AutoCleanup@V?$AutoDelete@VOptionValue@SessionOptions@Client@WSMan@@@@PEAVOptionValue@SessionOptions@Client@WSMan@@@@QEAA@XZ
; public: __cdecl <class <class PacketCreator>,class PacketCreator *__ptr64>::~<class <class PacketCreator>,class PacketCreator *__ptr64>(void)__ptr64 
??1?$AutoCleanup@V?$AutoDelete@VPacketCreator@@@@PEAVPacketCreator@@@@QEAA@XZ
; public: __cdecl <class <class PacketParser>,class PacketParser *__ptr64>::~<class <class PacketParser>,class PacketParser *__ptr64>(void)__ptr64 
??1?$AutoCleanup@V?$AutoDelete@VPacketParser@@@@PEAVPacketParser@@@@QEAA@XZ
; public: __cdecl <class <class Locale::Resources>,class Locale::Resources *__ptr64>::~<class <class Locale::Resources>,class Locale::Resources *__ptr64>(void)__ptr64 
??1?$AutoCleanup@V?$AutoDelete@VResources@Locale@@@@PEAVResources@Locale@@@@QEAA@XZ
; public: __cdecl <class <class RunAsConfiguration>,class RunAsConfiguration *__ptr64>::~<class <class RunAsConfiguration>,class RunAsConfiguration *__ptr64>(void)__ptr64 
??1?$AutoCleanup@V?$AutoDelete@VRunAsConfiguration@@@@PEAVRunAsConfiguration@@@@QEAA@XZ
; public: __cdecl <class <class Catalog::SecurityEntry>,class Catalog::SecurityEntry *__ptr64>::~<class <class Catalog::SecurityEntry>,class Catalog::SecurityEntry *__ptr64>(void)__ptr64 
??1?$AutoCleanup@V?$AutoDelete@VSecurityEntry@Catalog@@@@PEAVSecurityEntry@Catalog@@@@QEAA@XZ
; public: __cdecl <class <class RobustConnectionBuffer::SendPacketArgs>,class RobustConnectionBuffer::SendPacketArgs *__ptr64>::~<class <class RobustConnectionBuffer::SendPacketArgs>,class RobustConnectionBuffer::SendPacketArgs *__ptr64>(void)__ptr64 
??1?$AutoCleanup@V?$AutoDelete@VSendPacketArgs@RobustConnectionBuffer@@@@PEAVSendPacketArgs@RobustConnectionBuffer@@@@QEAA@XZ
; public: __cdecl <class <class ServiceSoapProcessor>,class ServiceSoapProcessor *__ptr64>::~<class <class ServiceSoapProcessor>,class ServiceSoapProcessor *__ptr64>(void)__ptr64 
??1?$AutoCleanup@V?$AutoDelete@VServiceSoapProcessor@@@@PEAVServiceSoapProcessor@@@@QEAA@XZ
; public: __cdecl <class <class Shell32DllLoader>,class Shell32DllLoader *__ptr64>::~<class <class Shell32DllLoader>,class Shell32DllLoader *__ptr64>(void)__ptr64 
??1?$AutoCleanup@V?$AutoDelete@VShell32DllLoader@@@@PEAVShell32DllLoader@@@@QEAA@XZ
; public: __cdecl <class <class ShlWApiDllLoader>,class ShlWApiDllLoader *__ptr64>::~<class <class ShlWApiDllLoader>,class ShlWApiDllLoader *__ptr64>(void)__ptr64 
??1?$AutoCleanup@V?$AutoDelete@VShlWApiDllLoader@@@@PEAVShlWApiDllLoader@@@@QEAA@XZ
; public: __cdecl <class <class SubscriptionEnumerator>,class SubscriptionEnumerator *__ptr64>::~<class <class SubscriptionEnumerator>,class SubscriptionEnumerator *__ptr64>(void)__ptr64 
??1?$AutoCleanup@V?$AutoDelete@VSubscriptionEnumerator@@@@PEAVSubscriptionEnumerator@@@@QEAA@XZ
; public: __cdecl <class <class SubscriptionManager>,class SubscriptionManager *__ptr64>::~<class <class SubscriptionManager>,class SubscriptionManager *__ptr64>(void)__ptr64 
??1?$AutoCleanup@V?$AutoDelete@VSubscriptionManager@@@@PEAVSubscriptionManager@@@@QEAA@XZ
; public: __cdecl <class <class TSTRBUFFER>,class TSTRBUFFER *__ptr64>::~<class <class TSTRBUFFER>,class TSTRBUFFER *__ptr64>(void)__ptr64 
??1?$AutoCleanup@V?$AutoDelete@VTSTRBUFFER@@@@PEAVTSTRBUFFER@@@@QEAA@XZ
; public: __cdecl <class <class UniqueStringOverflow>,class UniqueStringOverflow *__ptr64>::~<class <class UniqueStringOverflow>,class UniqueStringOverflow *__ptr64>(void)__ptr64 
??1?$AutoCleanup@V?$AutoDelete@VUniqueStringOverflow@@@@PEAVUniqueStringOverflow@@@@QEAA@XZ
; public: __cdecl <class <class User32DllLoader>,class User32DllLoader *__ptr64>::~<class <class User32DllLoader>,class User32DllLoader *__ptr64>(void)__ptr64 
??1?$AutoCleanup@V?$AutoDelete@VUser32DllLoader@@@@PEAVUser32DllLoader@@@@QEAA@XZ
; public: __cdecl <class <class WSMANCONFIGTABLE_IDENTITY>,class WSMANCONFIGTABLE_IDENTITY *__ptr64>::~<class <class WSMANCONFIGTABLE_IDENTITY>,class WSMANCONFIGTABLE_IDENTITY *__ptr64>(void)__ptr64 
??1?$AutoCleanup@V?$AutoDelete@VWSMANCONFIGTABLE_IDENTITY@@@@PEAVWSMANCONFIGTABLE_IDENTITY@@@@QEAA@XZ
; public: __cdecl <class <class WSManMemCryptManager>,class WSManMemCryptManager *__ptr64>::~<class <class WSManMemCryptManager>,class WSManMemCryptManager *__ptr64>(void)__ptr64 
??1?$AutoCleanup@V?$AutoDelete@VWSManMemCryptManager@@@@PEAVWSManMemCryptManager@@@@QEAA@XZ
; public: __cdecl <class <class WmiEnumContext>,class WmiEnumContext *__ptr64>::~<class <class WmiEnumContext>,class WmiEnumContext *__ptr64>(void)__ptr64 
??1?$AutoCleanup@V?$AutoDelete@VWmiEnumContext@@@@PEAVWmiEnumContext@@@@QEAA@XZ
; public: __cdecl <class <class XmlReader>,class XmlReader *__ptr64>::~<class <class XmlReader>,class XmlReader *__ptr64>(void)__ptr64 
??1?$AutoCleanup@V?$AutoDelete@VXmlReader@@@@PEAVXmlReader@@@@QEAA@XZ
; public: __cdecl <class <unsigned short const>,unsigned short const *__ptr64>::~<class <unsigned short const>,unsigned short const *__ptr64>(void)__ptr64 
??1?$AutoCleanup@V?$AutoDeleteVector@$$CBG@@PEBG@@QEAA@XZ
; public: __cdecl <class <char>,char *__ptr64>::~<class <char>,char *__ptr64>(void)__ptr64 
??1?$AutoCleanup@V?$AutoDeleteVector@D@@PEAD@@QEAA@XZ
; public: __cdecl <class <unsigned char>,unsigned char *__ptr64>::~<class <unsigned char>,unsigned char *__ptr64>(void)__ptr64 
??1?$AutoCleanup@V?$AutoDeleteVector@E@@PEAE@@QEAA@XZ
; public: __cdecl <class <unsigned short>,unsigned short *__ptr64>::~<class <unsigned short>,unsigned short *__ptr64>(void)__ptr64 
??1?$AutoCleanup@V?$AutoDeleteVector@G@@PEAG@@QEAA@XZ
; public: __cdecl <class <int>,int *__ptr64>::~<class <int>,int *__ptr64>(void)__ptr64 
??1?$AutoCleanup@V?$AutoDeleteVector@H@@PEAH@@QEAA@XZ
; public: __cdecl <class <unsigned short *__ptr64>,unsigned short *__ptr64 *__ptr64>::~<class <unsigned short *__ptr64>,unsigned short *__ptr64 *__ptr64>(void)__ptr64 
??1?$AutoCleanup@V?$AutoDeleteVector@PEAG@@PEAPEAG@@QEAA@XZ
; public: __cdecl <class <unsigned short const *__ptr64>,unsigned short const *__ptr64 *__ptr64>::~<class <unsigned short const *__ptr64>,unsigned short const *__ptr64 *__ptr64>(void)__ptr64 
??1?$AutoCleanup@V?$AutoDeleteVector@PEBG@@PEAPEBG@@QEAA@XZ
; public: __cdecl <class <struct _CONFIG_UPDATE>,struct _CONFIG_UPDATE *__ptr64>::~<class <struct _CONFIG_UPDATE>,struct _CONFIG_UPDATE *__ptr64>(void)__ptr64 
??1?$AutoCleanup@V?$AutoDeleteVector@U_CONFIG_UPDATE@@@@PEAU_CONFIG_UPDATE@@@@QEAA@XZ
; public: __cdecl <class <struct _WINRS_CREATE_SHELL_ENVIRONMENT_VARIABLE>,struct _WINRS_CREATE_SHELL_ENVIRONMENT_VARIABLE *__ptr64>::~<class <struct _WINRS_CREATE_SHELL_ENVIRONMENT_VARIABLE>,struct _WINRS_CREATE_SHELL_ENVIRONMENT_VARIABLE *__ptr64>(void)__ptr64 
??1?$AutoCleanup@V?$AutoDeleteVector@U_WINRS_CREATE_SHELL_ENVIRONMENT_VARIABLE@@@@PEAU_WINRS_CREATE_SHELL_ENVIRONMENT_VARIABLE@@@@QEAA@XZ
; public: __cdecl <class <struct _WINRS_RUN_COMMAND_ARG>,struct _WINRS_RUN_COMMAND_ARG *__ptr64>::~<class <struct _WINRS_RUN_COMMAND_ARG>,struct _WINRS_RUN_COMMAND_ARG *__ptr64>(void)__ptr64 
??1?$AutoCleanup@V?$AutoDeleteVector@U_WINRS_RUN_COMMAND_ARG@@@@PEAU_WINRS_RUN_COMMAND_ARG@@@@QEAA@XZ
; public: __cdecl <class <struct _WSMAN_OPTION>,struct _WSMAN_OPTION *__ptr64>::~<class <struct _WSMAN_OPTION>,struct _WSMAN_OPTION *__ptr64>(void)__ptr64 
??1?$AutoCleanup@V?$AutoDeleteVector@U_WSMAN_OPTION@@@@PEAU_WSMAN_OPTION@@@@QEAA@XZ
; public: __cdecl <class <void>,void *__ptr64>::~<class <void>,void *__ptr64>(void)__ptr64 
??1?$AutoCleanup@V?$AutoDeleteVector@X@@PEAX@@QEAA@XZ
; public: __cdecl <class <unsigned char>,unsigned char *__ptr64>::~<class <unsigned char>,unsigned char *__ptr64>(void)__ptr64 
??1?$AutoCleanup@V?$AutoFree@E@@PEAE@@QEAA@XZ
; public: __cdecl <class <class Packet>,class Packet *__ptr64>::~<class <class Packet>,class Packet *__ptr64>(void)__ptr64 
??1?$AutoCleanup@V?$AutoLocklessItemRecycle@VPacket@@@@PEAVPacket@@@@QEAA@XZ
; public: __cdecl <class <struct IAppHostAdminManager>,struct IAppHostAdminManager *__ptr64>::~<class <struct IAppHostAdminManager>,struct IAppHostAdminManager *__ptr64>(void)__ptr64 
??1?$AutoCleanup@V?$AutoRelease@UIAppHostAdminManager@@@@PEAUIAppHostAdminManager@@@@QEAA@XZ
; public: __cdecl <class <struct IAppHostChildElementCollection>,struct IAppHostChildElementCollection *__ptr64>::~<class <struct IAppHostChildElementCollection>,struct IAppHostChildElementCollection *__ptr64>(void)__ptr64 
??1?$AutoCleanup@V?$AutoRelease@UIAppHostChildElementCollection@@@@PEAUIAppHostChildElementCollection@@@@QEAA@XZ
; public: __cdecl <class <struct IAppHostConfigException>,struct IAppHostConfigException *__ptr64>::~<class <struct IAppHostConfigException>,struct IAppHostConfigException *__ptr64>(void)__ptr64 
??1?$AutoCleanup@V?$AutoRelease@UIAppHostConfigException@@@@PEAUIAppHostConfigException@@@@QEAA@XZ
; public: __cdecl <class <struct IAppHostElement>,struct IAppHostElement *__ptr64>::~<class <struct IAppHostElement>,struct IAppHostElement *__ptr64>(void)__ptr64 
??1?$AutoCleanup@V?$AutoRelease@UIAppHostElement@@@@PEAUIAppHostElement@@@@QEAA@XZ
; public: __cdecl <class <struct IAppHostElementCollection>,struct IAppHostElementCollection *__ptr64>::~<class <struct IAppHostElementCollection>,struct IAppHostElementCollection *__ptr64>(void)__ptr64 
??1?$AutoCleanup@V?$AutoRelease@UIAppHostElementCollection@@@@PEAUIAppHostElementCollection@@@@QEAA@XZ
; public: __cdecl <class <struct IAppHostProperty>,struct IAppHostProperty *__ptr64>::~<class <struct IAppHostProperty>,struct IAppHostProperty *__ptr64>(void)__ptr64 
??1?$AutoCleanup@V?$AutoRelease@UIAppHostProperty@@@@PEAUIAppHostProperty@@@@QEAA@XZ
; public: __cdecl <class <struct IAppHostPropertyCollection>,struct IAppHostPropertyCollection *__ptr64>::~<class <struct IAppHostPropertyCollection>,struct IAppHostPropertyCollection *__ptr64>(void)__ptr64 
??1?$AutoCleanup@V?$AutoRelease@UIAppHostPropertyCollection@@@@PEAUIAppHostPropertyCollection@@@@QEAA@XZ
; public: __cdecl <class <struct IClientSecurity>,struct IClientSecurity *__ptr64>::~<class <struct IClientSecurity>,struct IClientSecurity *__ptr64>(void)__ptr64 
??1?$AutoCleanup@V?$AutoRelease@UIClientSecurity@@@@PEAUIClientSecurity@@@@QEAA@XZ
; public: __cdecl <class <struct IEnumWbemClassObject>,struct IEnumWbemClassObject *__ptr64>::~<class <struct IEnumWbemClassObject>,struct IEnumWbemClassObject *__ptr64>(void)__ptr64 
??1?$AutoCleanup@V?$AutoRelease@UIEnumWbemClassObject@@@@PEAUIEnumWbemClassObject@@@@QEAA@XZ
; public: __cdecl <class <struct IErrorInfo>,struct IErrorInfo *__ptr64>::~<class <struct IErrorInfo>,struct IErrorInfo *__ptr64>(void)__ptr64 
??1?$AutoCleanup@V?$AutoRelease@UIErrorInfo@@@@PEAUIErrorInfo@@@@QEAA@XZ
; public: __cdecl <class <struct IUnknown>,struct IUnknown *__ptr64>::~<class <struct IUnknown>,struct IUnknown *__ptr64>(void)__ptr64 
??1?$AutoCleanup@V?$AutoRelease@UIUnknown@@@@PEAUIUnknown@@@@QEAA@XZ
; public: __cdecl <class <struct IWbemClassObject>,struct IWbemClassObject *__ptr64>::~<class <struct IWbemClassObject>,struct IWbemClassObject *__ptr64>(void)__ptr64 
??1?$AutoCleanup@V?$AutoRelease@UIWbemClassObject@@@@PEAUIWbemClassObject@@@@QEAA@XZ
; public: __cdecl <class <struct IWbemContext>,struct IWbemContext *__ptr64>::~<class <struct IWbemContext>,struct IWbemContext *__ptr64>(void)__ptr64 
??1?$AutoCleanup@V?$AutoRelease@UIWbemContext@@@@PEAUIWbemContext@@@@QEAA@XZ
; public: __cdecl <class <struct IWbemLocator>,struct IWbemLocator *__ptr64>::~<class <struct IWbemLocator>,struct IWbemLocator *__ptr64>(void)__ptr64 
??1?$AutoCleanup@V?$AutoRelease@UIWbemLocator@@@@PEAUIWbemLocator@@@@QEAA@XZ
; public: __cdecl <class <struct IWbemObjectTextSrc>,struct IWbemObjectTextSrc *__ptr64>::~<class <struct IWbemObjectTextSrc>,struct IWbemObjectTextSrc *__ptr64>(void)__ptr64 
??1?$AutoCleanup@V?$AutoRelease@UIWbemObjectTextSrc@@@@PEAUIWbemObjectTextSrc@@@@QEAA@XZ
; public: __cdecl <class <struct IWbemPath>,struct IWbemPath *__ptr64>::~<class <struct IWbemPath>,struct IWbemPath *__ptr64>(void)__ptr64 
??1?$AutoCleanup@V?$AutoRelease@UIWbemPath@@@@PEAUIWbemPath@@@@QEAA@XZ
; public: __cdecl <class <struct IWbemPathKeyList>,struct IWbemPathKeyList *__ptr64>::~<class <struct IWbemPathKeyList>,struct IWbemPathKeyList *__ptr64>(void)__ptr64 
??1?$AutoCleanup@V?$AutoRelease@UIWbemPathKeyList@@@@PEAUIWbemPathKeyList@@@@QEAA@XZ
; public: __cdecl <class <struct IWbemQualifierSet>,struct IWbemQualifierSet *__ptr64>::~<class <struct IWbemQualifierSet>,struct IWbemQualifierSet *__ptr64>(void)__ptr64 
??1?$AutoCleanup@V?$AutoRelease@UIWbemQualifierSet@@@@PEAUIWbemQualifierSet@@@@QEAA@XZ
; public: __cdecl <class <struct IWbemQuery>,struct IWbemQuery *__ptr64>::~<class <struct IWbemQuery>,struct IWbemQuery *__ptr64>(void)__ptr64 
??1?$AutoCleanup@V?$AutoRelease@UIWbemQuery@@@@PEAUIWbemQuery@@@@QEAA@XZ
; public: __cdecl <class <struct IWbemServices>,struct IWbemServices *__ptr64>::~<class <struct IWbemServices>,struct IWbemServices *__ptr64>(void)__ptr64 
??1?$AutoCleanup@V?$AutoRelease@UIWbemServices@@@@PEAUIWbemServices@@@@QEAA@XZ
; public: __cdecl <class <class WSMan::Client::Application>,class WSMan::Client::Application *__ptr64>::~<class <class WSMan::Client::Application>,class WSMan::Client::Application *__ptr64>(void)__ptr64 
??1?$AutoCleanup@V?$AutoRelease@VApplication@Client@WSMan@@@@PEAVApplication@Client@WSMan@@@@QEAA@XZ
; public: __cdecl <class <class CBaseConfigCache>,class CBaseConfigCache *__ptr64>::~<class <class CBaseConfigCache>,class CBaseConfigCache *__ptr64>(void)__ptr64 
??1?$AutoCleanup@V?$AutoRelease@VCBaseConfigCache@@@@PEAVCBaseConfigCache@@@@QEAA@XZ
; public: __cdecl <class <class CClientConfigCache>,class CClientConfigCache *__ptr64>::~<class <class CClientConfigCache>,class CClientConfigCache *__ptr64>(void)__ptr64 
??1?$AutoCleanup@V?$AutoRelease@VCClientConfigCache@@@@PEAVCClientConfigCache@@@@QEAA@XZ
; public: __cdecl <class <class CClientConfigSettings>,class CClientConfigSettings *__ptr64>::~<class <class CClientConfigSettings>,class CClientConfigSettings *__ptr64>(void)__ptr64 
??1?$AutoCleanup@V?$AutoRelease@VCClientConfigSettings@@@@PEAVCClientConfigSettings@@@@QEAA@XZ
; public: __cdecl <class <class CCommonConfigSettings>,class CCommonConfigSettings *__ptr64>::~<class <class CCommonConfigSettings>,class CCommonConfigSettings *__ptr64>(void)__ptr64 
??1?$AutoCleanup@V?$AutoRelease@VCCommonConfigSettings@@@@PEAVCCommonConfigSettings@@@@QEAA@XZ
; public: __cdecl <class <class CBaseConfigCache::CConfigCacheMap>,class CBaseConfigCache::CConfigCacheMap *__ptr64>::~<class <class CBaseConfigCache::CConfigCacheMap>,class CBaseConfigCache::CConfigCacheMap *__ptr64>(void)__ptr64 
??1?$AutoCleanup@V?$AutoRelease@VCConfigCacheMap@CBaseConfigCache@@@@PEAVCConfigCacheMap@CBaseConfigCache@@@@QEAA@XZ
; public: __cdecl <class <class CConfigManager>,class CConfigManager *__ptr64>::~<class <class CConfigManager>,class CConfigManager *__ptr64>(void)__ptr64 
??1?$AutoCleanup@V?$AutoRelease@VCConfigManager@@@@PEAVCConfigManager@@@@QEAA@XZ
; public: __cdecl <class <class CListenerCommand>,class CListenerCommand *__ptr64>::~<class <class CListenerCommand>,class CListenerCommand *__ptr64>(void)__ptr64 
??1?$AutoCleanup@V?$AutoRelease@VCListenerCommand@@@@PEAVCListenerCommand@@@@QEAA@XZ
; public: __cdecl <class <class CListenerMasterOperation>,class CListenerMasterOperation *__ptr64>::~<class <class CListenerMasterOperation>,class CListenerMasterOperation *__ptr64>(void)__ptr64 
??1?$AutoCleanup@V?$AutoRelease@VCListenerMasterOperation@@@@PEAVCListenerMasterOperation@@@@QEAA@XZ
; public: __cdecl <class <class CListenerReceive>,class CListenerReceive *__ptr64>::~<class <class CListenerReceive>,class CListenerReceive *__ptr64>(void)__ptr64 
??1?$AutoCleanup@V?$AutoRelease@VCListenerReceive@@@@PEAVCListenerReceive@@@@QEAA@XZ
; public: __cdecl <class <class CListenerShell>,class CListenerShell *__ptr64>::~<class <class CListenerShell>,class CListenerShell *__ptr64>(void)__ptr64 
??1?$AutoCleanup@V?$AutoRelease@VCListenerShell@@@@PEAVCListenerShell@@@@QEAA@XZ
; public: __cdecl <class <class CRemoteOperation>,class CRemoteOperation *__ptr64>::~<class <class CRemoteOperation>,class CRemoteOperation *__ptr64>(void)__ptr64 
??1?$AutoCleanup@V?$AutoRelease@VCRemoteOperation@@@@PEAVCRemoteOperation@@@@QEAA@XZ
; public: __cdecl <class <class CRemoteSession>,class CRemoteSession *__ptr64>::~<class <class CRemoteSession>,class CRemoteSession *__ptr64>(void)__ptr64 
??1?$AutoCleanup@V?$AutoRelease@VCRemoteSession@@@@PEAVCRemoteSession@@@@QEAA@XZ
; public: __cdecl <class <class CRequestContext>,class CRequestContext *__ptr64>::~<class <class CRequestContext>,class CRequestContext *__ptr64>(void)__ptr64 
??1?$AutoCleanup@V?$AutoRelease@VCRequestContext@@@@PEAVCRequestContext@@@@QEAA@XZ
; public: __cdecl <class <class CServiceCommonConfigSettings>,class CServiceCommonConfigSettings *__ptr64>::~<class <class CServiceCommonConfigSettings>,class CServiceCommonConfigSettings *__ptr64>(void)__ptr64 
??1?$AutoCleanup@V?$AutoRelease@VCServiceCommonConfigSettings@@@@PEAVCServiceCommonConfigSettings@@@@QEAA@XZ
; public: __cdecl <class <class CServiceConfigCache>,class CServiceConfigCache *__ptr64>::~<class <class CServiceConfigCache>,class CServiceConfigCache *__ptr64>(void)__ptr64 
??1?$AutoCleanup@V?$AutoRelease@VCServiceConfigCache@@@@PEAVCServiceConfigCache@@@@QEAA@XZ
; public: __cdecl <class <class CServiceConfigSettings>,class CServiceConfigSettings *__ptr64>::~<class <class CServiceConfigSettings>,class CServiceConfigSettings *__ptr64>(void)__ptr64 
??1?$AutoCleanup@V?$AutoRelease@VCServiceConfigSettings@@@@PEAVCServiceConfigSettings@@@@QEAA@XZ
; public: __cdecl <class <class CWSManEPR>,class CWSManEPR *__ptr64>::~<class <class CWSManEPR>,class CWSManEPR *__ptr64>(void)__ptr64 
??1?$AutoCleanup@V?$AutoRelease@VCWSManEPR@@@@PEAVCWSManEPR@@@@QEAA@XZ
; public: __cdecl <class <class CWSManGroupPolicyCache>,class CWSManGroupPolicyCache *__ptr64>::~<class <class CWSManGroupPolicyCache>,class CWSManGroupPolicyCache *__ptr64>(void)__ptr64 
??1?$AutoCleanup@V?$AutoRelease@VCWSManGroupPolicyCache@@@@PEAVCWSManGroupPolicyCache@@@@QEAA@XZ
; public: __cdecl <class <class CWSManGroupPolicyManager>,class CWSManGroupPolicyManager *__ptr64>::~<class <class CWSManGroupPolicyManager>,class CWSManGroupPolicyManager *__ptr64>(void)__ptr64 
??1?$AutoCleanup@V?$AutoRelease@VCWSManGroupPolicyManager@@@@PEAVCWSManGroupPolicyManager@@@@QEAA@XZ
; public: __cdecl <class <class CWSManObject>,class CWSManObject *__ptr64>::~<class <class CWSManObject>,class CWSManObject *__ptr64>(void)__ptr64 
??1?$AutoCleanup@V?$AutoRelease@VCWSManObject@@@@PEAVCWSManObject@@@@QEAA@XZ
; public: __cdecl <class <class CWSManResource>,class CWSManResource *__ptr64>::~<class <class CWSManResource>,class CWSManResource *__ptr64>(void)__ptr64 
??1?$AutoCleanup@V?$AutoRelease@VCWSManResource@@@@PEAVCWSManResource@@@@QEAA@XZ
; public: __cdecl <class <class CWSManSession>,class CWSManSession *__ptr64>::~<class <class CWSManSession>,class CWSManSession *__ptr64>(void)__ptr64 
??1?$AutoCleanup@V?$AutoRelease@VCWSManSession@@@@PEAVCWSManSession@@@@QEAA@XZ
; public: __cdecl <class <class CWinRSPluginConfigCache>,class CWinRSPluginConfigCache *__ptr64>::~<class <class CWinRSPluginConfigCache>,class CWinRSPluginConfigCache *__ptr64>(void)__ptr64 
??1?$AutoCleanup@V?$AutoRelease@VCWinRSPluginConfigCache@@@@PEAVCWinRSPluginConfigCache@@@@QEAA@XZ
; public: __cdecl <class <class CWinRSPluginConfigSettings>,class CWinRSPluginConfigSettings *__ptr64>::~<class <class CWinRSPluginConfigSettings>,class CWinRSPluginConfigSettings *__ptr64>(void)__ptr64 
??1?$AutoCleanup@V?$AutoRelease@VCWinRSPluginConfigSettings@@@@PEAVCWinRSPluginConfigSettings@@@@QEAA@XZ
; public: __cdecl <class <class WSMan::Client::Command>,class WSMan::Client::Command *__ptr64>::~<class <class WSMan::Client::Command>,class WSMan::Client::Command *__ptr64>(void)__ptr64 
??1?$AutoCleanup@V?$AutoRelease@VCommand@Client@WSMan@@@@PEAVCommand@Client@WSMan@@@@QEAA@XZ
; public: __cdecl <class <class ConfigNotification>,class ConfigNotification *__ptr64>::~<class <class ConfigNotification>,class ConfigNotification *__ptr64>(void)__ptr64 
??1?$AutoCleanup@V?$AutoRelease@VConfigNotification@@@@PEAVConfigNotification@@@@QEAA@XZ
; public: __cdecl <class <class WSMan::Client::ConnectShellOperation>,class WSMan::Client::ConnectShellOperation *__ptr64>::~<class <class WSMan::Client::ConnectShellOperation>,class WSMan::Client::ConnectShellOperation *__ptr64>(void)__ptr64 
??1?$AutoCleanup@V?$AutoRelease@VConnectShellOperation@Client@WSMan@@@@PEAVConnectShellOperation@Client@WSMan@@@@QEAA@XZ
; public: __cdecl <class <class WSMan::Client::CreateShellOperation>,class WSMan::Client::CreateShellOperation *__ptr64>::~<class <class WSMan::Client::CreateShellOperation>,class WSMan::Client::CreateShellOperation *__ptr64>(void)__ptr64 
??1?$AutoCleanup@V?$AutoRelease@VCreateShellOperation@Client@WSMan@@@@PEAVCreateShellOperation@Client@WSMan@@@@QEAA@XZ
; public: __cdecl <class <class WSMan::Client::DeleteShellOperation>,class WSMan::Client::DeleteShellOperation *__ptr64>::~<class <class WSMan::Client::DeleteShellOperation>,class WSMan::Client::DeleteShellOperation *__ptr64>(void)__ptr64 
??1?$AutoCleanup@V?$AutoRelease@VDeleteShellOperation@Client@WSMan@@@@PEAVDeleteShellOperation@Client@WSMan@@@@QEAA@XZ
; public: __cdecl <class <class WSMan::Client::DisconnectOperation>,class WSMan::Client::DisconnectOperation *__ptr64>::~<class <class WSMan::Client::DisconnectOperation>,class WSMan::Client::DisconnectOperation *__ptr64>(void)__ptr64 
??1?$AutoCleanup@V?$AutoRelease@VDisconnectOperation@Client@WSMan@@@@PEAVDisconnectOperation@Client@WSMan@@@@QEAA@XZ
; public: __cdecl <class <class EnumSinkEx>,class EnumSinkEx *__ptr64>::~<class <class EnumSinkEx>,class EnumSinkEx *__ptr64>(void)__ptr64 
??1?$AutoCleanup@V?$AutoRelease@VEnumSinkEx@@@@PEAVEnumSinkEx@@@@QEAA@XZ
; public: __cdecl <class <class GeneralSinkEx>,class GeneralSinkEx *__ptr64>::~<class <class GeneralSinkEx>,class GeneralSinkEx *__ptr64>(void)__ptr64 
??1?$AutoCleanup@V?$AutoRelease@VGeneralSinkEx@@@@PEAVGeneralSinkEx@@@@QEAA@XZ
; public: __cdecl <class <class HostMappingTable>,class HostMappingTable *__ptr64>::~<class <class HostMappingTable>,class HostMappingTable *__ptr64>(void)__ptr64 
??1?$AutoCleanup@V?$AutoRelease@VHostMappingTable@@@@PEAVHostMappingTable@@@@QEAA@XZ
; public: __cdecl <class <class IISConfigSettings>,class IISConfigSettings *__ptr64>::~<class <class IISConfigSettings>,class IISConfigSettings *__ptr64>(void)__ptr64 
??1?$AutoCleanup@V?$AutoRelease@VIISConfigSettings@@@@PEAVIISConfigSettings@@@@QEAA@XZ
; public: __cdecl <class <class IPCSoapProcessor>,class IPCSoapProcessor *__ptr64>::~<class <class IPCSoapProcessor>,class IPCSoapProcessor *__ptr64>(void)__ptr64 
??1?$AutoCleanup@V?$AutoRelease@VIPCSoapProcessor@@@@PEAVIPCSoapProcessor@@@@QEAA@XZ
; public: __cdecl <class <class IRequestContext>,class IRequestContext *__ptr64>::~<class <class IRequestContext>,class IRequestContext *__ptr64>(void)__ptr64 
??1?$AutoCleanup@V?$AutoRelease@VIRequestContext@@@@PEAVIRequestContext@@@@QEAA@XZ
; public: __cdecl <class <class ISubscription>,class ISubscription *__ptr64>::~<class <class ISubscription>,class ISubscription *__ptr64>(void)__ptr64 
??1?$AutoCleanup@V?$AutoRelease@VISubscription@@@@PEAVISubscription@@@@QEAA@XZ
; public: __cdecl <class <class InboundRequestDetails>,class InboundRequestDetails *__ptr64>::~<class <class InboundRequestDetails>,class InboundRequestDetails *__ptr64>(void)__ptr64 
??1?$AutoCleanup@V?$AutoRelease@VInboundRequestDetails@@@@PEAVInboundRequestDetails@@@@QEAA@XZ
; public: __cdecl <class <class WSMan::Client::ProxyManager>,class WSMan::Client::ProxyManager *__ptr64>::~<class <class WSMan::Client::ProxyManager>,class WSMan::Client::ProxyManager *__ptr64>(void)__ptr64 
??1?$AutoCleanup@V?$AutoRelease@VProxyManager@Client@WSMan@@@@PEAVProxyManager@Client@WSMan@@@@QEAA@XZ
; public: __cdecl <class <class WSMan::Client::ProxySelection>,class WSMan::Client::ProxySelection *__ptr64>::~<class <class WSMan::Client::ProxySelection>,class WSMan::Client::ProxySelection *__ptr64>(void)__ptr64 
??1?$AutoCleanup@V?$AutoRelease@VProxySelection@Client@WSMan@@@@PEAVProxySelection@Client@WSMan@@@@QEAA@XZ
; public: __cdecl <class <class PushSubscribeOperation>,class PushSubscribeOperation *__ptr64>::~<class <class PushSubscribeOperation>,class PushSubscribeOperation *__ptr64>(void)__ptr64 
??1?$AutoCleanup@V?$AutoRelease@VPushSubscribeOperation@@@@PEAVPushSubscribeOperation@@@@QEAA@XZ
; public: __cdecl <class <class PushSubscription>,class PushSubscription *__ptr64>::~<class <class PushSubscription>,class PushSubscription *__ptr64>(void)__ptr64 
??1?$AutoCleanup@V?$AutoRelease@VPushSubscription@@@@PEAVPushSubscription@@@@QEAA@XZ
; public: __cdecl <class <class WSMan::Client::ReceiveOperation>,class WSMan::Client::ReceiveOperation *__ptr64>::~<class <class WSMan::Client::ReceiveOperation>,class WSMan::Client::ReceiveOperation *__ptr64>(void)__ptr64 
??1?$AutoCleanup@V?$AutoRelease@VReceiveOperation@Client@WSMan@@@@PEAVReceiveOperation@Client@WSMan@@@@QEAA@XZ
; public: __cdecl <class <class WSMan::Client::ReconnectOperation>,class WSMan::Client::ReconnectOperation *__ptr64>::~<class <class WSMan::Client::ReconnectOperation>,class WSMan::Client::ReconnectOperation *__ptr64>(void)__ptr64 
??1?$AutoCleanup@V?$AutoRelease@VReconnectOperation@Client@WSMan@@@@PEAVReconnectOperation@Client@WSMan@@@@QEAA@XZ
; public: __cdecl <class <class WSMan::Client::SendOperation>,class WSMan::Client::SendOperation *__ptr64>::~<class <class WSMan::Client::SendOperation>,class WSMan::Client::SendOperation *__ptr64>(void)__ptr64 
??1?$AutoCleanup@V?$AutoRelease@VSendOperation@Client@WSMan@@@@PEAVSendOperation@Client@WSMan@@@@QEAA@XZ
; public: __cdecl <class <class WSMan::Client::Shell>,class WSMan::Client::Shell *__ptr64>::~<class <class WSMan::Client::Shell>,class WSMan::Client::Shell *__ptr64>(void)__ptr64 
??1?$AutoCleanup@V?$AutoRelease@VShell@Client@WSMan@@@@PEAVShell@Client@WSMan@@@@QEAA@XZ
; public: __cdecl <class <class ShellInfo>,class ShellInfo *__ptr64>::~<class <class ShellInfo>,class ShellInfo *__ptr64>(void)__ptr64 
??1?$AutoCleanup@V?$AutoRelease@VShellInfo@@@@PEAVShellInfo@@@@QEAA@XZ
; public: __cdecl <class <class WSMan::Client::SignalOperation>,class WSMan::Client::SignalOperation *__ptr64>::~<class <class WSMan::Client::SignalOperation>,class WSMan::Client::SignalOperation *__ptr64>(void)__ptr64 
??1?$AutoCleanup@V?$AutoRelease@VSignalOperation@Client@WSMan@@@@PEAVSignalOperation@Client@WSMan@@@@QEAA@XZ
; public: __cdecl <class <class UserRecord>,class UserRecord *__ptr64>::~<class <class UserRecord>,class UserRecord *__ptr64>(void)__ptr64 
??1?$AutoCleanup@V?$AutoRelease@VUserRecord@@@@PEAVUserRecord@@@@QEAA@XZ
; public: __cdecl <class <class WSManHttpListener>,class WSManHttpListener *__ptr64>::~<class <class WSManHttpListener>,class WSManHttpListener *__ptr64>(void)__ptr64 
??1?$AutoCleanup@V?$AutoRelease@VWSManHttpListener@@@@PEAVWSManHttpListener@@@@QEAA@XZ
; public: __cdecl <class <class HostMappingTableEntry>,class HostMappingTableEntry *__ptr64>::~<class <class HostMappingTableEntry>,class HostMappingTableEntry *__ptr64>(void)__ptr64 
??1?$AutoCleanup@V?$AutoReleaseEx@VHostMappingTableEntry@@@@PEAVHostMappingTableEntry@@@@QEAA@XZ
; public: __cdecl <class <class WSMan::Client::Shell>,class WSMan::Client::Shell *__ptr64>::~<class <class WSMan::Client::Shell>,class WSMan::Client::Shell *__ptr64>(void)__ptr64 
??1?$AutoCleanup@V?$AutoReleaseEx@VShell@Client@WSMan@@@@PEAVShell@Client@WSMan@@@@QEAA@XZ
; public: __cdecl <class AutoBstr,unsigned short *__ptr64>::~<class AutoBstr,unsigned short *__ptr64>(void)__ptr64 
??1?$AutoCleanup@VAutoBstr@@PEAG@@QEAA@XZ
; public: __cdecl <class AutoBstrNoAlloc,unsigned short *__ptr64>::~<class AutoBstrNoAlloc,unsigned short *__ptr64>(void)__ptr64 
??1?$AutoCleanup@VAutoBstrNoAlloc@@PEAG@@QEAA@XZ
; public: __cdecl <class AutoCertContext,struct _CERT_CONTEXT const *__ptr64>::~<class AutoCertContext,struct _CERT_CONTEXT const *__ptr64>(void)__ptr64 
??1?$AutoCleanup@VAutoCertContext@@PEBU_CERT_CONTEXT@@@@QEAA@XZ
; public: __cdecl <class AutoChainContext,struct _CERT_CHAIN_CONTEXT const *__ptr64>::~<class AutoChainContext,struct _CERT_CHAIN_CONTEXT const *__ptr64>(void)__ptr64 
??1?$AutoCleanup@VAutoChainContext@@PEBU_CERT_CHAIN_CONTEXT@@@@QEAA@XZ
; public: __cdecl <class AutoCoTaskMemFree,void *__ptr64>::~<class AutoCoTaskMemFree,void *__ptr64>(void)__ptr64 
??1?$AutoCleanup@VAutoCoTaskMemFree@@PEAX@@QEAA@XZ
; public: __cdecl <class AutoEnvironmentBlock,void *__ptr64>::~<class AutoEnvironmentBlock,void *__ptr64>(void)__ptr64 
??1?$AutoCleanup@VAutoEnvironmentBlock@@PEAX@@QEAA@XZ
; public: __cdecl <class AutoFwXmlCloseParser,void *__ptr64>::~<class AutoFwXmlCloseParser,void *__ptr64>(void)__ptr64 
??1?$AutoCleanup@VAutoFwXmlCloseParser@@PEAX@@QEAA@XZ
; public: __cdecl <class AutoHandle,void *__ptr64>::~<class AutoHandle,void *__ptr64>(void)__ptr64 
??1?$AutoCleanup@VAutoHandle@@PEAX@@QEAA@XZ
; public: __cdecl <class AutoImpersonateUser,void *__ptr64>::~<class AutoImpersonateUser,void *__ptr64>(void)__ptr64 
??1?$AutoCleanup@VAutoImpersonateUser@@PEAX@@QEAA@XZ
; public: __cdecl <class AutoLibrary,struct HINSTANCE__ *__ptr64>::~<class AutoLibrary,struct HINSTANCE__ *__ptr64>(void)__ptr64 
??1?$AutoCleanup@VAutoLibrary@@PEAUHINSTANCE__@@@@QEAA@XZ
; public: __cdecl <class AutoLocalFree,void *__ptr64>::~<class AutoLocalFree,void *__ptr64>(void)__ptr64 
??1?$AutoCleanup@VAutoLocalFree@@PEAX@@QEAA@XZ
; public: __cdecl <class AutoMIClass,struct _MI_Class *__ptr64>::~<class AutoMIClass,struct _MI_Class *__ptr64>(void)__ptr64 
??1?$AutoCleanup@VAutoMIClass@@PEAU_MI_Class@@@@QEAA@XZ
; public: __cdecl <class AutoMIInstance,struct _MI_Instance *__ptr64>::~<class AutoMIInstance,struct _MI_Instance *__ptr64>(void)__ptr64 
??1?$AutoCleanup@VAutoMIInstance@@PEAU_MI_Instance@@@@QEAA@XZ
; public: __cdecl <class AutoObject,struct WSMAN_OBJECT *__ptr64>::~<class AutoObject,struct WSMAN_OBJECT *__ptr64>(void)__ptr64 
??1?$AutoCleanup@VAutoObject@@PEAUWSMAN_OBJECT@@@@QEAA@XZ
; public: __cdecl <class AutoRegKey,struct HKEY__ *__ptr64>::~<class AutoRegKey,struct HKEY__ *__ptr64>(void)__ptr64 
??1?$AutoCleanup@VAutoRegKey@@PEAUHKEY__@@@@QEAA@XZ
; public: __cdecl <class AutoSecurityDescriptor,void *__ptr64>::~<class AutoSecurityDescriptor,void *__ptr64>(void)__ptr64 
??1?$AutoCleanup@VAutoSecurityDescriptor@@PEAX@@QEAA@XZ
; public: __cdecl <class AutoWaitHandle,void *__ptr64>::~<class AutoWaitHandle,void *__ptr64>(void)__ptr64 
??1?$AutoCleanup@VAutoWaitHandle@@PEAX@@QEAA@XZ
; public: __cdecl <char>::~<char>(void)__ptr64 
??1?$AutoDelete@D@@QEAA@XZ
; public: __cdecl <unsigned short>::~<unsigned short>(void)__ptr64 
??1?$AutoDelete@G@@QEAA@XZ
; public: __cdecl <struct CWSManIPFilter::IPRange>::~<struct CWSManIPFilter::IPRange>(void)__ptr64 
??1?$AutoDelete@UIPRange@CWSManIPFilter@@@@QEAA@XZ
; public: __cdecl <struct _SID>::~<struct _SID>(void)__ptr64 
??1?$AutoDelete@U_SID@@@@QEAA@XZ
; public: __cdecl <struct _WSMAN_STREAM_ID_SET>::~<struct _WSMAN_STREAM_ID_SET>(void)__ptr64 
??1?$AutoDelete@U_WSMAN_STREAM_ID_SET@@@@QEAA@XZ
; public: __cdecl <class <class ISubscription>>::~<class <class ISubscription>>(void)__ptr64 
??1?$AutoDelete@V?$Handle@VISubscription@@@@@@QEAA@XZ
; public: __cdecl <class <class CListenerConnect *__ptr64,class CListenerConnect *__ptr64>>::~<class <class CListenerConnect *__ptr64,class CListenerConnect *__ptr64>>(void)__ptr64 
??1?$AutoDelete@V?$SafeMap_Iterator@PEAVCListenerConnect@@PEAV1@@@@@QEAA@XZ
; public: __cdecl <class <class CListenerReceive *__ptr64,class CListenerReceive *__ptr64>>::~<class <class CListenerReceive *__ptr64,class CListenerReceive *__ptr64>>(void)__ptr64 
??1?$AutoDelete@V?$SafeMap_Iterator@PEAVCListenerReceive@@PEAV1@@@@@QEAA@XZ
; public: __cdecl <class <class CListenerSend *__ptr64,class CListenerSend *__ptr64>>::~<class <class CListenerSend *__ptr64,class CListenerSend *__ptr64>>(void)__ptr64 
??1?$AutoDelete@V?$SafeMap_Iterator@PEAVCListenerSend@@PEAV1@@@@@QEAA@XZ
; public: __cdecl <class <class CListenerSignal *__ptr64,class CListenerSignal *__ptr64>>::~<class <class CListenerSignal *__ptr64,class CListenerSignal *__ptr64>>(void)__ptr64 
??1?$AutoDelete@V?$SafeMap_Iterator@PEAVCListenerSignal@@PEAV1@@@@@QEAA@XZ
; public: __cdecl <class <class GuidKey,class CListenerCommand *__ptr64>>::~<class <class GuidKey,class CListenerCommand *__ptr64>>(void)__ptr64 
??1?$AutoDelete@V?$SafeMap_Iterator@VGuidKey@@PEAVCListenerCommand@@@@@@QEAA@XZ
; public: __cdecl <class <class StringKeyCI,unsigned long>>::~<class <class StringKeyCI,unsigned long>>(void)__ptr64 
??1?$AutoDelete@V?$SafeMap_Iterator@VStringKeyCI@@K@@@@QEAA@XZ
; public: __cdecl <class <enum WSManSessionOption,class WSMan::Client::SessionOptions::OptionValue *__ptr64>>::~<class <enum WSManSessionOption,class WSMan::Client::SessionOptions::OptionValue *__ptr64>>(void)__ptr64 
??1?$AutoDelete@V?$SafeMap_Iterator@W4WSManSessionOption@@PEAVOptionValue@SessionOptions@Client@WSMan@@@@@@QEAA@XZ
; public: __cdecl <class <class CCertMapping *__ptr64>>::~<class <class CCertMapping *__ptr64>>(void)__ptr64 
??1?$AutoDelete@V?$SafeSet@PEAVCCertMapping@@@@@@QEAA@XZ
; public: __cdecl <class <class CShellUriSettings *__ptr64>>::~<class <class CShellUriSettings *__ptr64>>(void)__ptr64 
??1?$AutoDelete@V?$SafeSet@PEAVCShellUriSettings@@@@@@QEAA@XZ
; public: __cdecl <class <class CListenerOperation *__ptr64>>::~<class <class CListenerOperation *__ptr64>>(void)__ptr64 
??1?$AutoDelete@V?$SafeSet_Iterator@PEAVCListenerOperation@@@@@@QEAA@XZ
; public: __cdecl <class <class Collector *__ptr64>>::~<class <class Collector *__ptr64>>(void)__ptr64 
??1?$AutoDelete@V?$SafeSet_Iterator@PEAVCollector@@@@@@QEAA@XZ
; public: __cdecl <class <class HostOperation *__ptr64>>::~<class <class HostOperation *__ptr64>>(void)__ptr64 
??1?$AutoDelete@V?$SafeSet_Iterator@PEAVHostOperation@@@@@@QEAA@XZ
; public: __cdecl <class <class ListenerSourceSubscription *__ptr64>>::~<class <class ListenerSourceSubscription *__ptr64>>(void)__ptr64 
??1?$AutoDelete@V?$SafeSet_Iterator@PEAVListenerSourceSubscription@@@@@@QEAA@XZ
; public: __cdecl <class <class CListenerOperation>>::~<class <class CListenerOperation>>(void)__ptr64 
??1?$AutoDelete@V?$SimpleStack@VCListenerOperation@@@@@@QEAA@XZ
; public: __cdecl <class <class ShellHostEntry>>::~<class <class ShellHostEntry>>(void)__ptr64 
??1?$AutoDelete@V?$SimpleStack@VShellHostEntry@@@@@@QEAA@XZ
; public: __cdecl <class std::<struct _WSMAN_PUBLISHER_EVENT_STRUCT *__ptr64,class std::<struct _WSMAN_PUBLISHER_EVENT_STRUCT *__ptr64,class <struct _WSMAN_PUBLISHER_EVENT_STRUCT *__ptr64>>>>::~<class std::<struct _WSMAN_PUBLISHER_EVENT_STRUCT *__ptr64,class std::<struct _WSMAN_PUBLISHER_EVENT_STRUCT *__ptr64,class <struct _WSMAN_PUBLISHER_EVENT_STRUCT *__ptr64>>>>(void)__ptr64 
??1?$AutoDelete@V?$queue@PEAU_WSMAN_PUBLISHER_EVENT_STRUCT@@V?$deque@PEAU_WSMAN_PUBLISHER_EVENT_STRUCT@@V?$transport_allocator@PEAU_WSMAN_PUBLISHER_EVENT_STRUCT@@@@@std@@@std@@@@QEAA@XZ
; public: __cdecl <class std::<class CListenerSettings *__ptr64,class CServiceConfigSettings::CListenerSettingsLessFunctor,class <class CListenerSettings *__ptr64>>>::~<class std::<class CListenerSettings *__ptr64,class CServiceConfigSettings::CListenerSettingsLessFunctor,class <class CListenerSettings *__ptr64>>>(void)__ptr64 
??1?$AutoDelete@V?$set@PEAVCListenerSettings@@VCListenerSettingsLessFunctor@CServiceConfigSettings@@V?$transport_allocator@PEAVCListenerSettings@@@@@std@@@@QEAA@XZ
; public: __cdecl <class std::<struct sockaddr_storage,class CListenerSettings::SockAddrLessFunctor,class <struct sockaddr_storage>>>::~<class std::<struct sockaddr_storage,class CListenerSettings::SockAddrLessFunctor,class <struct sockaddr_storage>>>(void)__ptr64 
??1?$AutoDelete@V?$set@Usockaddr_storage@@VSockAddrLessFunctor@CListenerSettings@@V?$transport_allocator@Usockaddr_storage@@@@@std@@@@QEAA@XZ
; public: __cdecl <class std::<class CWSManRequest *__ptr64,class <class CWSManRequest *__ptr64>>>::~<class std::<class CWSManRequest *__ptr64,class <class CWSManRequest *__ptr64>>>(void)__ptr64 
??1?$AutoDelete@V?$vector@PEAVCWSManRequest@@V?$transport_allocator@PEAVCWSManRequest@@@@@std@@@@QEAA@XZ
; public: __cdecl <class std::<class WSMan::Client::HandleImpl *__ptr64,class <class WSMan::Client::HandleImpl *__ptr64>>>::~<class std::<class WSMan::Client::HandleImpl *__ptr64,class <class WSMan::Client::HandleImpl *__ptr64>>>(void)__ptr64 
??1?$AutoDelete@V?$vector@PEAVHandleImpl@Client@WSMan@@V?$transport_allocator@PEAVHandleImpl@Client@WSMan@@@@@std@@@@QEAA@XZ
; public: __cdecl <class std::<class IServiceConfigObserver *__ptr64,class <class IServiceConfigObserver *__ptr64>>>::~<class std::<class IServiceConfigObserver *__ptr64,class <class IServiceConfigObserver *__ptr64>>>(void)__ptr64 
??1?$AutoDelete@V?$vector@PEAVIServiceConfigObserver@@V?$transport_allocator@PEAVIServiceConfigObserver@@@@@std@@@@QEAA@XZ
; public: __cdecl <class std::<class WSManHttpSenderConnection *__ptr64,class <class WSManHttpSenderConnection *__ptr64>>>::~<class std::<class WSManHttpSenderConnection *__ptr64,class <class WSManHttpSenderConnection *__ptr64>>>(void)__ptr64 
??1?$AutoDelete@V?$vector@PEAVWSManHttpSenderConnection@@V?$transport_allocator@PEAVWSManHttpSenderConnection@@@@@std@@@@QEAA@XZ
; public: __cdecl <class CSecurity::AdminSid>::~<class CSecurity::AdminSid>(void)__ptr64 
??1?$AutoDelete@VAdminSid@CSecurity@@@@QEAA@XZ
; public: __cdecl <class BlockedRecord>::~<class BlockedRecord>(void)__ptr64 
??1?$AutoDelete@VBlockedRecord@@@@QEAA@XZ
; public: __cdecl <class CBaseConfigCache>::~<class CBaseConfigCache>(void)__ptr64 
??1?$AutoDelete@VCBaseConfigCache@@@@QEAA@XZ
; public: __cdecl <class CCertMapping>::~<class CCertMapping>(void)__ptr64 
??1?$AutoDelete@VCCertMapping@@@@QEAA@XZ
; public: __cdecl <class CConfigChangeSource>::~<class CConfigChangeSource>(void)__ptr64 
??1?$AutoDelete@VCConfigChangeSource@@@@QEAA@XZ
; public: __cdecl <class CListenerSettings>::~<class CListenerSettings>(void)__ptr64 
??1?$AutoDelete@VCListenerSettings@@@@QEAA@XZ
; public: __cdecl <class CObserverConfigChangeErrors>::~<class CObserverConfigChangeErrors>(void)__ptr64 
??1?$AutoDelete@VCObserverConfigChangeErrors@@@@QEAA@XZ
; public: __cdecl <class CServiceConfigCache::CServiceWatcher>::~<class CServiceConfigCache::CServiceWatcher>(void)__ptr64 
??1?$AutoDelete@VCServiceWatcher@CServiceConfigCache@@@@QEAA@XZ
; public: __cdecl <class CShellUriSettings>::~<class CShellUriSettings>(void)__ptr64 
??1?$AutoDelete@VCShellUriSettings@@@@QEAA@XZ
; public: __cdecl <class CWSManEPR>::~<class CWSManEPR>(void)__ptr64 
??1?$AutoDelete@VCWSManEPR@@@@QEAA@XZ
; public: __cdecl <class CWSManResource>::~<class CWSManResource>(void)__ptr64 
??1?$AutoDelete@VCWSManResource@@@@QEAA@XZ
; public: __cdecl <class CertHash>::~<class CertHash>(void)__ptr64 
??1?$AutoDelete@VCertHash@@@@QEAA@XZ
; public: __cdecl <class ConfigUpdate>::~<class ConfigUpdate>(void)__ptr64 
??1?$AutoDelete@VConfigUpdate@@@@QEAA@XZ
; public: __cdecl <class CredUIDllLoader>::~<class CredUIDllLoader>(void)__ptr64 
??1?$AutoDelete@VCredUIDllLoader@@@@QEAA@XZ
; public: __cdecl <class EnumSinkEx>::~<class EnumSinkEx>(void)__ptr64 
??1?$AutoDelete@VEnumSinkEx@@@@QEAA@XZ
; public: __cdecl <class WSMan::EventHandler>::~<class WSMan::EventHandler>(void)__ptr64 
??1?$AutoDelete@VEventHandler@WSMan@@@@QEAA@XZ
; public: __cdecl <class ExpiredOperationIdRecord>::~<class ExpiredOperationIdRecord>(void)__ptr64 
??1?$AutoDelete@VExpiredOperationIdRecord@@@@QEAA@XZ
; public: __cdecl <class GPApiManager>::~<class GPApiManager>(void)__ptr64 
??1?$AutoDelete@VGPApiManager@@@@QEAA@XZ
; public: __cdecl <class GeneralSinkEx>::~<class GeneralSinkEx>(void)__ptr64 
??1?$AutoDelete@VGeneralSinkEx@@@@QEAA@XZ
; public: __cdecl <class IChannelObserverFactory>::~<class IChannelObserverFactory>(void)__ptr64 
??1?$AutoDelete@VIChannelObserverFactory@@@@QEAA@XZ
; public: __cdecl <class IQueryDASHSMASHInterface>::~<class IQueryDASHSMASHInterface>(void)__ptr64 
??1?$AutoDelete@VIQueryDASHSMASHInterface@@@@QEAA@XZ
; public: __cdecl <class ISpecification>::~<class ISpecification>(void)__ptr64 
??1?$AutoDelete@VISpecification@@@@QEAA@XZ
; public: __cdecl <class CSecurity::InteractiveSid>::~<class CSecurity::InteractiveSid>(void)__ptr64 
??1?$AutoDelete@VInteractiveSid@CSecurity@@@@QEAA@XZ
; public: __cdecl <class IpHlpApiDllLoader>::~<class IpHlpApiDllLoader>(void)__ptr64 
??1?$AutoDelete@VIpHlpApiDllLoader@@@@QEAA@XZ
; public: __cdecl <class MachineName>::~<class MachineName>(void)__ptr64 
??1?$AutoDelete@VMachineName@@@@QEAA@XZ
; public: __cdecl <class CListenerReceive::MasterReceiveData>::~<class CListenerReceive::MasterReceiveData>(void)__ptr64 
??1?$AutoDelete@VMasterReceiveData@CListenerReceive@@@@QEAA@XZ
; public: __cdecl <class CSecurity::NetworkServiceSid>::~<class CSecurity::NetworkServiceSid>(void)__ptr64 
??1?$AutoDelete@VNetworkServiceSid@CSecurity@@@@QEAA@XZ
; public: __cdecl <class NtDsApiDllLoader>::~<class NtDsApiDllLoader>(void)__ptr64 
??1?$AutoDelete@VNtDsApiDllLoader@@@@QEAA@XZ
; public: __cdecl <class WSMan::Client::SessionOptions::OptionValue>::~<class WSMan::Client::SessionOptions::OptionValue>(void)__ptr64 
??1?$AutoDelete@VOptionValue@SessionOptions@Client@WSMan@@@@QEAA@XZ
; public: __cdecl <class PacketCreator>::~<class PacketCreator>(void)__ptr64 
??1?$AutoDelete@VPacketCreator@@@@QEAA@XZ
; public: __cdecl <class PacketParser>::~<class PacketParser>(void)__ptr64 
??1?$AutoDelete@VPacketParser@@@@QEAA@XZ
; public: __cdecl <class Locale::Resources>::~<class Locale::Resources>(void)__ptr64 
??1?$AutoDelete@VResources@Locale@@@@QEAA@XZ
; public: __cdecl <class RunAsConfiguration>::~<class RunAsConfiguration>(void)__ptr64 
??1?$AutoDelete@VRunAsConfiguration@@@@QEAA@XZ
; public: __cdecl <class Catalog::SecurityEntry>::~<class Catalog::SecurityEntry>(void)__ptr64 
??1?$AutoDelete@VSecurityEntry@Catalog@@@@QEAA@XZ
; public: __cdecl <class RobustConnectionBuffer::SendPacketArgs>::~<class RobustConnectionBuffer::SendPacketArgs>(void)__ptr64 
??1?$AutoDelete@VSendPacketArgs@RobustConnectionBuffer@@@@QEAA@XZ
; public: __cdecl <class ServiceSoapProcessor>::~<class ServiceSoapProcessor>(void)__ptr64 
??1?$AutoDelete@VServiceSoapProcessor@@@@QEAA@XZ
; public: __cdecl <class Shell32DllLoader>::~<class Shell32DllLoader>(void)__ptr64 
??1?$AutoDelete@VShell32DllLoader@@@@QEAA@XZ
; public: __cdecl <class ShlWApiDllLoader>::~<class ShlWApiDllLoader>(void)__ptr64 
??1?$AutoDelete@VShlWApiDllLoader@@@@QEAA@XZ
; public: __cdecl <class SubscriptionEnumerator>::~<class SubscriptionEnumerator>(void)__ptr64 
??1?$AutoDelete@VSubscriptionEnumerator@@@@QEAA@XZ
; public: __cdecl <class SubscriptionManager>::~<class SubscriptionManager>(void)__ptr64 
??1?$AutoDelete@VSubscriptionManager@@@@QEAA@XZ
; public: __cdecl <class TSTRBUFFER>::~<class TSTRBUFFER>(void)__ptr64 
??1?$AutoDelete@VTSTRBUFFER@@@@QEAA@XZ
; public: __cdecl <class UniqueStringOverflow>::~<class UniqueStringOverflow>(void)__ptr64 
??1?$AutoDelete@VUniqueStringOverflow@@@@QEAA@XZ
; public: __cdecl <class User32DllLoader>::~<class User32DllLoader>(void)__ptr64 
??1?$AutoDelete@VUser32DllLoader@@@@QEAA@XZ
; public: __cdecl <class WSMANCONFIGTABLE_IDENTITY>::~<class WSMANCONFIGTABLE_IDENTITY>(void)__ptr64 
??1?$AutoDelete@VWSMANCONFIGTABLE_IDENTITY@@@@QEAA@XZ
; public: __cdecl <class WSManMemCryptManager>::~<class WSManMemCryptManager>(void)__ptr64 
??1?$AutoDelete@VWSManMemCryptManager@@@@QEAA@XZ
; public: __cdecl <class WmiEnumContext>::~<class WmiEnumContext>(void)__ptr64 
??1?$AutoDelete@VWmiEnumContext@@@@QEAA@XZ
; public: __cdecl <class XmlReader>::~<class XmlReader>(void)__ptr64 
??1?$AutoDelete@VXmlReader@@@@QEAA@XZ
; public: __cdecl <unsigned short const>::~<unsigned short const>(void)__ptr64 
??1?$AutoDeleteVector@$$CBG@@QEAA@XZ
; public: __cdecl <char>::~<char>(void)__ptr64 
??1?$AutoDeleteVector@D@@QEAA@XZ
; public: __cdecl <unsigned char>::~<unsigned char>(void)__ptr64 
??1?$AutoDeleteVector@E@@QEAA@XZ
; public: __cdecl <unsigned short>::~<unsigned short>(void)__ptr64 
??1?$AutoDeleteVector@G@@QEAA@XZ
; public: __cdecl <int>::~<int>(void)__ptr64 
??1?$AutoDeleteVector@H@@QEAA@XZ
; public: __cdecl <unsigned short *__ptr64>::~<unsigned short *__ptr64>(void)__ptr64 
??1?$AutoDeleteVector@PEAG@@QEAA@XZ
; public: __cdecl <unsigned short const *__ptr64>::~<unsigned short const *__ptr64>(void)__ptr64 
??1?$AutoDeleteVector@PEBG@@QEAA@XZ
; public: __cdecl <struct _CONFIG_UPDATE>::~<struct _CONFIG_UPDATE>(void)__ptr64 
??1?$AutoDeleteVector@U_CONFIG_UPDATE@@@@QEAA@XZ
; public: __cdecl <struct _WINRS_CREATE_SHELL_ENVIRONMENT_VARIABLE>::~<struct _WINRS_CREATE_SHELL_ENVIRONMENT_VARIABLE>(void)__ptr64 
??1?$AutoDeleteVector@U_WINRS_CREATE_SHELL_ENVIRONMENT_VARIABLE@@@@QEAA@XZ
; public: __cdecl <struct _WINRS_RUN_COMMAND_ARG>::~<struct _WINRS_RUN_COMMAND_ARG>(void)__ptr64 
??1?$AutoDeleteVector@U_WINRS_RUN_COMMAND_ARG@@@@QEAA@XZ
; public: __cdecl <struct _WSMAN_OPTION>::~<struct _WSMAN_OPTION>(void)__ptr64 
??1?$AutoDeleteVector@U_WSMAN_OPTION@@@@QEAA@XZ
; public: __cdecl <void>::~<void>(void)__ptr64 
??1?$AutoDeleteVector@X@@QEAA@XZ
; public: __cdecl <unsigned char>::~<unsigned char>(void)__ptr64 
??1?$AutoFree@E@@QEAA@XZ
; public: __cdecl <class Packet>::~<class Packet>(void)__ptr64 
??1?$AutoLocklessItemRecycle@VPacket@@@@QEAA@XZ
; public: __cdecl <struct IAppHostAdminManager>::~<struct IAppHostAdminManager>(void)__ptr64 
??1?$AutoRelease@UIAppHostAdminManager@@@@QEAA@XZ
; public: __cdecl <struct IAppHostChildElementCollection>::~<struct IAppHostChildElementCollection>(void)__ptr64 
??1?$AutoRelease@UIAppHostChildElementCollection@@@@QEAA@XZ
; public: __cdecl <struct IAppHostConfigException>::~<struct IAppHostConfigException>(void)__ptr64 
??1?$AutoRelease@UIAppHostConfigException@@@@QEAA@XZ
; public: __cdecl <struct IAppHostElement>::~<struct IAppHostElement>(void)__ptr64 
??1?$AutoRelease@UIAppHostElement@@@@QEAA@XZ
; public: __cdecl <struct IAppHostElementCollection>::~<struct IAppHostElementCollection>(void)__ptr64 
??1?$AutoRelease@UIAppHostElementCollection@@@@QEAA@XZ
; public: __cdecl <struct IAppHostProperty>::~<struct IAppHostProperty>(void)__ptr64 
??1?$AutoRelease@UIAppHostProperty@@@@QEAA@XZ
; public: __cdecl <struct IAppHostPropertyCollection>::~<struct IAppHostPropertyCollection>(void)__ptr64 
??1?$AutoRelease@UIAppHostPropertyCollection@@@@QEAA@XZ
; public: __cdecl <struct IClientSecurity>::~<struct IClientSecurity>(void)__ptr64 
??1?$AutoRelease@UIClientSecurity@@@@QEAA@XZ
; public: __cdecl <struct IEnumWbemClassObject>::~<struct IEnumWbemClassObject>(void)__ptr64 
??1?$AutoRelease@UIEnumWbemClassObject@@@@QEAA@XZ
; public: __cdecl <struct IErrorInfo>::~<struct IErrorInfo>(void)__ptr64 
??1?$AutoRelease@UIErrorInfo@@@@QEAA@XZ
; public: __cdecl <struct IUnknown>::~<struct IUnknown>(void)__ptr64 
??1?$AutoRelease@UIUnknown@@@@QEAA@XZ
; public: __cdecl <struct IWbemClassObject>::~<struct IWbemClassObject>(void)__ptr64 
??1?$AutoRelease@UIWbemClassObject@@@@QEAA@XZ
; public: __cdecl <struct IWbemContext>::~<struct IWbemContext>(void)__ptr64 
??1?$AutoRelease@UIWbemContext@@@@QEAA@XZ
; public: __cdecl <struct IWbemLocator>::~<struct IWbemLocator>(void)__ptr64 
??1?$AutoRelease@UIWbemLocator@@@@QEAA@XZ
; public: __cdecl <struct IWbemObjectTextSrc>::~<struct IWbemObjectTextSrc>(void)__ptr64 
??1?$AutoRelease@UIWbemObjectTextSrc@@@@QEAA@XZ
; public: __cdecl <struct IWbemPath>::~<struct IWbemPath>(void)__ptr64 
??1?$AutoRelease@UIWbemPath@@@@QEAA@XZ
; public: __cdecl <struct IWbemPathKeyList>::~<struct IWbemPathKeyList>(void)__ptr64 
??1?$AutoRelease@UIWbemPathKeyList@@@@QEAA@XZ
; public: __cdecl <struct IWbemQualifierSet>::~<struct IWbemQualifierSet>(void)__ptr64 
??1?$AutoRelease@UIWbemQualifierSet@@@@QEAA@XZ
; public: __cdecl <struct IWbemQuery>::~<struct IWbemQuery>(void)__ptr64 
??1?$AutoRelease@UIWbemQuery@@@@QEAA@XZ
; public: __cdecl <struct IWbemServices>::~<struct IWbemServices>(void)__ptr64 
??1?$AutoRelease@UIWbemServices@@@@QEAA@XZ
; public: __cdecl <class WSMan::Client::Application>::~<class WSMan::Client::Application>(void)__ptr64 
??1?$AutoRelease@VApplication@Client@WSMan@@@@QEAA@XZ
; public: __cdecl <class CBaseConfigCache>::~<class CBaseConfigCache>(void)__ptr64 
??1?$AutoRelease@VCBaseConfigCache@@@@QEAA@XZ
; public: __cdecl <class CClientConfigCache>::~<class CClientConfigCache>(void)__ptr64 
??1?$AutoRelease@VCClientConfigCache@@@@QEAA@XZ
; public: __cdecl <class CClientConfigSettings>::~<class CClientConfigSettings>(void)__ptr64 
??1?$AutoRelease@VCClientConfigSettings@@@@QEAA@XZ
; public: __cdecl <class CCommonConfigSettings>::~<class CCommonConfigSettings>(void)__ptr64 
??1?$AutoRelease@VCCommonConfigSettings@@@@QEAA@XZ
; public: __cdecl <class CBaseConfigCache::CConfigCacheMap>::~<class CBaseConfigCache::CConfigCacheMap>(void)__ptr64 
??1?$AutoRelease@VCConfigCacheMap@CBaseConfigCache@@@@QEAA@XZ
; public: __cdecl <class CConfigManager>::~<class CConfigManager>(void)__ptr64 
??1?$AutoRelease@VCConfigManager@@@@QEAA@XZ
; public: __cdecl <class CListenerCommand>::~<class CListenerCommand>(void)__ptr64 
??1?$AutoRelease@VCListenerCommand@@@@QEAA@XZ
; public: __cdecl <class CListenerMasterOperation>::~<class CListenerMasterOperation>(void)__ptr64 
??1?$AutoRelease@VCListenerMasterOperation@@@@QEAA@XZ
; public: __cdecl <class CListenerReceive>::~<class CListenerReceive>(void)__ptr64 
??1?$AutoRelease@VCListenerReceive@@@@QEAA@XZ
; public: __cdecl <class CListenerShell>::~<class CListenerShell>(void)__ptr64 
??1?$AutoRelease@VCListenerShell@@@@QEAA@XZ
; public: __cdecl <class CRemoteOperation>::~<class CRemoteOperation>(void)__ptr64 
??1?$AutoRelease@VCRemoteOperation@@@@QEAA@XZ
; public: __cdecl <class CRemoteSession>::~<class CRemoteSession>(void)__ptr64 
??1?$AutoRelease@VCRemoteSession@@@@QEAA@XZ
; public: __cdecl <class CRequestContext>::~<class CRequestContext>(void)__ptr64 
??1?$AutoRelease@VCRequestContext@@@@QEAA@XZ
; public: __cdecl <class CServiceCommonConfigSettings>::~<class CServiceCommonConfigSettings>(void)__ptr64 
??1?$AutoRelease@VCServiceCommonConfigSettings@@@@QEAA@XZ
; public: __cdecl <class CServiceConfigCache>::~<class CServiceConfigCache>(void)__ptr64 
??1?$AutoRelease@VCServiceConfigCache@@@@QEAA@XZ
; public: __cdecl <class CServiceConfigSettings>::~<class CServiceConfigSettings>(void)__ptr64 
??1?$AutoRelease@VCServiceConfigSettings@@@@QEAA@XZ
; public: __cdecl <class CWSManEPR>::~<class CWSManEPR>(void)__ptr64 
??1?$AutoRelease@VCWSManEPR@@@@QEAA@XZ
; public: __cdecl <class CWSManGroupPolicyCache>::~<class CWSManGroupPolicyCache>(void)__ptr64 
??1?$AutoRelease@VCWSManGroupPolicyCache@@@@QEAA@XZ
; public: __cdecl <class CWSManGroupPolicyManager>::~<class CWSManGroupPolicyManager>(void)__ptr64 
??1?$AutoRelease@VCWSManGroupPolicyManager@@@@QEAA@XZ
; public: __cdecl <class CWSManObject>::~<class CWSManObject>(void)__ptr64 
??1?$AutoRelease@VCWSManObject@@@@QEAA@XZ
; public: __cdecl <class CWSManResource>::~<class CWSManResource>(void)__ptr64 
??1?$AutoRelease@VCWSManResource@@@@QEAA@XZ
; public: __cdecl <class CWSManSession>::~<class CWSManSession>(void)__ptr64 
??1?$AutoRelease@VCWSManSession@@@@QEAA@XZ
; public: __cdecl <class CWinRSPluginConfigCache>::~<class CWinRSPluginConfigCache>(void)__ptr64 
??1?$AutoRelease@VCWinRSPluginConfigCache@@@@QEAA@XZ
; public: __cdecl <class CWinRSPluginConfigSettings>::~<class CWinRSPluginConfigSettings>(void)__ptr64 
??1?$AutoRelease@VCWinRSPluginConfigSettings@@@@QEAA@XZ
; public: __cdecl <class WSMan::Client::Command>::~<class WSMan::Client::Command>(void)__ptr64 
??1?$AutoRelease@VCommand@Client@WSMan@@@@QEAA@XZ
; public: __cdecl <class ConfigNotification>::~<class ConfigNotification>(void)__ptr64 
??1?$AutoRelease@VConfigNotification@@@@QEAA@XZ
; public: __cdecl <class WSMan::Client::ConnectShellOperation>::~<class WSMan::Client::ConnectShellOperation>(void)__ptr64 
??1?$AutoRelease@VConnectShellOperation@Client@WSMan@@@@QEAA@XZ
; public: __cdecl <class WSMan::Client::CreateShellOperation>::~<class WSMan::Client::CreateShellOperation>(void)__ptr64 
??1?$AutoRelease@VCreateShellOperation@Client@WSMan@@@@QEAA@XZ
; public: __cdecl <class WSMan::Client::DeleteShellOperation>::~<class WSMan::Client::DeleteShellOperation>(void)__ptr64 
??1?$AutoRelease@VDeleteShellOperation@Client@WSMan@@@@QEAA@XZ
; public: __cdecl <class WSMan::Client::DisconnectOperation>::~<class WSMan::Client::DisconnectOperation>(void)__ptr64 
??1?$AutoRelease@VDisconnectOperation@Client@WSMan@@@@QEAA@XZ
; public: __cdecl <class EnumSinkEx>::~<class EnumSinkEx>(void)__ptr64 
??1?$AutoRelease@VEnumSinkEx@@@@QEAA@XZ
; public: __cdecl <class GeneralSinkEx>::~<class GeneralSinkEx>(void)__ptr64 
??1?$AutoRelease@VGeneralSinkEx@@@@QEAA@XZ
; public: __cdecl <class HostMappingTable>::~<class HostMappingTable>(void)__ptr64 
??1?$AutoRelease@VHostMappingTable@@@@QEAA@XZ
; public: __cdecl <class IISConfigSettings>::~<class IISConfigSettings>(void)__ptr64 
??1?$AutoRelease@VIISConfigSettings@@@@QEAA@XZ
; public: __cdecl <class IPCSoapProcessor>::~<class IPCSoapProcessor>(void)__ptr64 
??1?$AutoRelease@VIPCSoapProcessor@@@@QEAA@XZ
; public: __cdecl <class IRequestContext>::~<class IRequestContext>(void)__ptr64 
??1?$AutoRelease@VIRequestContext@@@@QEAA@XZ
; public: __cdecl <class ISubscription>::~<class ISubscription>(void)__ptr64 
??1?$AutoRelease@VISubscription@@@@QEAA@XZ
; public: __cdecl <class InboundRequestDetails>::~<class InboundRequestDetails>(void)__ptr64 
??1?$AutoRelease@VInboundRequestDetails@@@@QEAA@XZ
; public: __cdecl <class WSMan::Client::ProxyManager>::~<class WSMan::Client::ProxyManager>(void)__ptr64 
??1?$AutoRelease@VProxyManager@Client@WSMan@@@@QEAA@XZ
; public: __cdecl <class WSMan::Client::ProxySelection>::~<class WSMan::Client::ProxySelection>(void)__ptr64 
??1?$AutoRelease@VProxySelection@Client@WSMan@@@@QEAA@XZ
; public: __cdecl <class PushSubscribeOperation>::~<class PushSubscribeOperation>(void)__ptr64 
??1?$AutoRelease@VPushSubscribeOperation@@@@QEAA@XZ
; public: __cdecl <class PushSubscription>::~<class PushSubscription>(void)__ptr64 
??1?$AutoRelease@VPushSubscription@@@@QEAA@XZ
; public: __cdecl <class WSMan::Client::ReceiveOperation>::~<class WSMan::Client::ReceiveOperation>(void)__ptr64 
??1?$AutoRelease@VReceiveOperation@Client@WSMan@@@@QEAA@XZ
; public: __cdecl <class WSMan::Client::ReconnectOperation>::~<class WSMan::Client::ReconnectOperation>(void)__ptr64 
??1?$AutoRelease@VReconnectOperation@Client@WSMan@@@@QEAA@XZ
; public: __cdecl <class WSMan::Client::SendOperation>::~<class WSMan::Client::SendOperation>(void)__ptr64 
??1?$AutoRelease@VSendOperation@Client@WSMan@@@@QEAA@XZ
; public: __cdecl <class WSMan::Client::Shell>::~<class WSMan::Client::Shell>(void)__ptr64 
??1?$AutoRelease@VShell@Client@WSMan@@@@QEAA@XZ
; public: __cdecl <class ShellInfo>::~<class ShellInfo>(void)__ptr64 
??1?$AutoRelease@VShellInfo@@@@QEAA@XZ
; public: __cdecl <class WSMan::Client::SignalOperation>::~<class WSMan::Client::SignalOperation>(void)__ptr64 
??1?$AutoRelease@VSignalOperation@Client@WSMan@@@@QEAA@XZ
; public: __cdecl <class UserRecord>::~<class UserRecord>(void)__ptr64 
??1?$AutoRelease@VUserRecord@@@@QEAA@XZ
; public: __cdecl <class WSManHttpListener>::~<class WSManHttpListener>(void)__ptr64 
??1?$AutoRelease@VWSManHttpListener@@@@QEAA@XZ
; public: __cdecl <class HostMappingTableEntry>::~<class HostMappingTableEntry>(void)__ptr64 
??1?$AutoReleaseEx@VHostMappingTableEntry@@@@QEAA@XZ
; public: __cdecl <class WSMan::Client::Shell>::~<class WSMan::Client::Shell>(void)__ptr64 
??1?$AutoReleaseEx@VShell@Client@WSMan@@@@QEAA@XZ
; public: __cdecl <class CSecurity::AdminSid>::~<class CSecurity::AdminSid>(void)__ptr64 
??1?$ILoader@VAdminSid@CSecurity@@@@QEAA@XZ
; public: __cdecl <class CredUIDllLoader>::~<class CredUIDllLoader>(void)__ptr64 
??1?$ILoader@VCredUIDllLoader@@@@QEAA@XZ
; public: __cdecl <class WSMan::EventHandler>::~<class WSMan::EventHandler>(void)__ptr64 
??1?$ILoader@VEventHandler@WSMan@@@@QEAA@XZ
; public: __cdecl <class CSecurity::InteractiveSid>::~<class CSecurity::InteractiveSid>(void)__ptr64 
??1?$ILoader@VInteractiveSid@CSecurity@@@@QEAA@XZ
; public: __cdecl <class IpHlpApiDllLoader>::~<class IpHlpApiDllLoader>(void)__ptr64 
??1?$ILoader@VIpHlpApiDllLoader@@@@QEAA@XZ
; public: __cdecl <class MachineName>::~<class MachineName>(void)__ptr64 
??1?$ILoader@VMachineName@@@@QEAA@XZ
; public: __cdecl <class CSecurity::NetworkServiceSid>::~<class CSecurity::NetworkServiceSid>(void)__ptr64 
??1?$ILoader@VNetworkServiceSid@CSecurity@@@@QEAA@XZ
; public: __cdecl <class NtDsApiDllLoader>::~<class NtDsApiDllLoader>(void)__ptr64 
??1?$ILoader@VNtDsApiDllLoader@@@@QEAA@XZ
; public: __cdecl <class Locale::Resources>::~<class Locale::Resources>(void)__ptr64 
??1?$ILoader@VResources@Locale@@@@QEAA@XZ
; public: __cdecl <class Shell32DllLoader>::~<class Shell32DllLoader>(void)__ptr64 
??1?$ILoader@VShell32DllLoader@@@@QEAA@XZ
; public: __cdecl <class ShlWApiDllLoader>::~<class ShlWApiDllLoader>(void)__ptr64 
??1?$ILoader@VShlWApiDllLoader@@@@QEAA@XZ
; public: __cdecl <class SubscriptionManager>::~<class SubscriptionManager>(void)__ptr64 
??1?$ILoader@VSubscriptionManager@@@@QEAA@XZ
; public: __cdecl <class User32DllLoader>::~<class User32DllLoader>(void)__ptr64 
??1?$ILoader@VUser32DllLoader@@@@QEAA@XZ
; public: __cdecl <class WSManMemCryptManager>::~<class WSManMemCryptManager>(void)__ptr64 
??1?$ILoader@VWSManMemCryptManager@@@@QEAA@XZ
; public: __cdecl <class CSecurity::AdminSid,0x1ULL>::~<class CSecurity::AdminSid,0x1ULL>(void)__ptr64 
??1?$Loader@VAdminSid@CSecurity@@$00@@QEAA@XZ
; public: __cdecl <class CredUIDllLoader,0x1ULL>::~<class CredUIDllLoader,0x1ULL>(void)__ptr64 
??1?$Loader@VCredUIDllLoader@@$00@@QEAA@XZ
; public: __cdecl <class WSMan::EventHandler,0x1ULL>::~<class WSMan::EventHandler,0x1ULL>(void)__ptr64 
??1?$Loader@VEventHandler@WSMan@@$00@@QEAA@XZ
; public: __cdecl <class CSecurity::InteractiveSid,0x1ULL>::~<class CSecurity::InteractiveSid,0x1ULL>(void)__ptr64 
??1?$Loader@VInteractiveSid@CSecurity@@$00@@QEAA@XZ
; public: __cdecl <class IpHlpApiDllLoader,0x1ULL>::~<class IpHlpApiDllLoader,0x1ULL>(void)__ptr64 
??1?$Loader@VIpHlpApiDllLoader@@$00@@QEAA@XZ
; public: __cdecl <class MachineName,0x1ULL>::~<class MachineName,0x1ULL>(void)__ptr64 
??1?$Loader@VMachineName@@$00@@QEAA@XZ
; public: __cdecl <class CSecurity::NetworkServiceSid,0x1ULL>::~<class CSecurity::NetworkServiceSid,0x1ULL>(void)__ptr64 
??1?$Loader@VNetworkServiceSid@CSecurity@@$00@@QEAA@XZ
; public: __cdecl <class NtDsApiDllLoader,0x1ULL>::~<class NtDsApiDllLoader,0x1ULL>(void)__ptr64 
??1?$Loader@VNtDsApiDllLoader@@$00@@QEAA@XZ
; public: __cdecl <class Locale::Resources,0x0ULL>::~<class Locale::Resources,0x0ULL>(void)__ptr64 
??1?$Loader@VResources@Locale@@$0A@@@QEAA@XZ
; public: __cdecl <class Shell32DllLoader,0x1ULL>::~<class Shell32DllLoader,0x1ULL>(void)__ptr64 
??1?$Loader@VShell32DllLoader@@$00@@QEAA@XZ
; public: __cdecl <class ShlWApiDllLoader,0x1ULL>::~<class ShlWApiDllLoader,0x1ULL>(void)__ptr64 
??1?$Loader@VShlWApiDllLoader@@$00@@QEAA@XZ
; public: __cdecl <class SubscriptionManager,0x2ULL>::~<class SubscriptionManager,0x2ULL>(void)__ptr64 
??1?$Loader@VSubscriptionManager@@$01@@QEAA@XZ
; public: __cdecl <class User32DllLoader,0x1ULL>::~<class User32DllLoader,0x1ULL>(void)__ptr64 
??1?$Loader@VUser32DllLoader@@$00@@QEAA@XZ
; public: __cdecl <class WSManMemCryptManager,0x1ULL>::~<class WSManMemCryptManager,0x1ULL>(void)__ptr64 
??1?$Loader@VWSManMemCryptManager@@$00@@QEAA@XZ
; public: __cdecl <class CSecurity::AdminSid,0x1ULL>::~<class CSecurity::AdminSid,0x1ULL>(void)__ptr64 
??1?$LoaderSerializer@VAdminSid@CSecurity@@$00@@QEAA@XZ
; public: __cdecl <class CredUIDllLoader,0x1ULL>::~<class CredUIDllLoader,0x1ULL>(void)__ptr64 
??1?$LoaderSerializer@VCredUIDllLoader@@$00@@QEAA@XZ
; public: __cdecl <class WSMan::EventHandler,0x1ULL>::~<class WSMan::EventHandler,0x1ULL>(void)__ptr64 
??1?$LoaderSerializer@VEventHandler@WSMan@@$00@@QEAA@XZ
; public: __cdecl <class CSecurity::InteractiveSid,0x1ULL>::~<class CSecurity::InteractiveSid,0x1ULL>(void)__ptr64 
??1?$LoaderSerializer@VInteractiveSid@CSecurity@@$00@@QEAA@XZ
; public: __cdecl <class IpHlpApiDllLoader,0x1ULL>::~<class IpHlpApiDllLoader,0x1ULL>(void)__ptr64 
??1?$LoaderSerializer@VIpHlpApiDllLoader@@$00@@QEAA@XZ
; public: __cdecl <class MachineName,0x1ULL>::~<class MachineName,0x1ULL>(void)__ptr64 
??1?$LoaderSerializer@VMachineName@@$00@@QEAA@XZ
; public: __cdecl <class CSecurity::NetworkServiceSid,0x1ULL>::~<class CSecurity::NetworkServiceSid,0x1ULL>(void)__ptr64 
??1?$LoaderSerializer@VNetworkServiceSid@CSecurity@@$00@@QEAA@XZ
; public: __cdecl <class NtDsApiDllLoader,0x1ULL>::~<class NtDsApiDllLoader,0x1ULL>(void)__ptr64 
??1?$LoaderSerializer@VNtDsApiDllLoader@@$00@@QEAA@XZ
; public: __cdecl <class Locale::Resources,0x0ULL>::~<class Locale::Resources,0x0ULL>(void)__ptr64 
??1?$LoaderSerializer@VResources@Locale@@$0A@@@QEAA@XZ
; public: __cdecl <class Shell32DllLoader,0x1ULL>::~<class Shell32DllLoader,0x1ULL>(void)__ptr64 
??1?$LoaderSerializer@VShell32DllLoader@@$00@@QEAA@XZ
; public: __cdecl <class ShlWApiDllLoader,0x1ULL>::~<class ShlWApiDllLoader,0x1ULL>(void)__ptr64 
??1?$LoaderSerializer@VShlWApiDllLoader@@$00@@QEAA@XZ
; public: __cdecl <class SubscriptionManager,0x2ULL>::~<class SubscriptionManager,0x2ULL>(void)__ptr64 
??1?$LoaderSerializer@VSubscriptionManager@@$01@@QEAA@XZ
; public: __cdecl <class User32DllLoader,0x1ULL>::~<class User32DllLoader,0x1ULL>(void)__ptr64 
??1?$LoaderSerializer@VUser32DllLoader@@$00@@QEAA@XZ
; public: __cdecl <class WSManMemCryptManager,0x1ULL>::~<class WSManMemCryptManager,0x1ULL>(void)__ptr64 
??1?$LoaderSerializer@VWSManMemCryptManager@@$00@@QEAA@XZ
; public: __cdecl <class CCertMapping *__ptr64,struct Empty,class <class CCertMapping *__ptr64>>::~<class CCertMapping *__ptr64,struct Empty,class <class CCertMapping *__ptr64>>(void)__ptr64 
??1?$SafeMap@PEAVCCertMapping@@UEmpty@@V?$SafeSet_Iterator@PEAVCCertMapping@@@@@@QEAA@XZ
; public: __cdecl <class CListenerOperation *__ptr64,struct Empty,class <class CListenerOperation *__ptr64>>::~<class CListenerOperation *__ptr64,struct Empty,class <class CListenerOperation *__ptr64>>(void)__ptr64 
??1?$SafeMap@PEAVCListenerOperation@@UEmpty@@V?$SafeSet_Iterator@PEAVCListenerOperation@@@@@@QEAA@XZ
; public: __cdecl <class CShellUriSettings *__ptr64,struct Empty,class <class CShellUriSettings *__ptr64>>::~<class CShellUriSettings *__ptr64,struct Empty,class <class CShellUriSettings *__ptr64>>(void)__ptr64 
??1?$SafeMap@PEAVCShellUriSettings@@UEmpty@@V?$SafeSet_Iterator@PEAVCShellUriSettings@@@@@@QEAA@XZ
; public: __cdecl <class Collector *__ptr64,struct Empty,class <class Collector *__ptr64>>::~<class Collector *__ptr64,struct Empty,class <class Collector *__ptr64>>(void)__ptr64 
??1?$SafeMap@PEAVCollector@@UEmpty@@V?$SafeSet_Iterator@PEAVCollector@@@@@@QEAA@XZ
; public: __cdecl <class HostOperation *__ptr64,struct Empty,class <class HostOperation *__ptr64>>::~<class HostOperation *__ptr64,struct Empty,class <class HostOperation *__ptr64>>(void)__ptr64 
??1?$SafeMap@PEAVHostOperation@@UEmpty@@V?$SafeSet_Iterator@PEAVHostOperation@@@@@@QEAA@XZ
; public: __cdecl <class IOperation *__ptr64,struct Empty,class <class IOperation *__ptr64>>::~<class IOperation *__ptr64,struct Empty,class <class IOperation *__ptr64>>(void)__ptr64 
??1?$SafeMap@PEAVIOperation@@UEmpty@@V?$SafeSet_Iterator@PEAVIOperation@@@@@@QEAA@XZ
; public: __cdecl <class ListenerSourceSubscription *__ptr64,struct Empty,class <class ListenerSourceSubscription *__ptr64>>::~<class ListenerSourceSubscription *__ptr64,struct Empty,class <class ListenerSourceSubscription *__ptr64>>(void)__ptr64 
??1?$SafeMap@PEAVListenerSourceSubscription@@UEmpty@@V?$SafeSet_Iterator@PEAVListenerSourceSubscription@@@@@@QEAA@XZ
; public: __cdecl <class PushSubscription *__ptr64,struct Empty,class <class PushSubscription *__ptr64>>::~<class PushSubscription *__ptr64,struct Empty,class <class PushSubscription *__ptr64>>(void)__ptr64 
??1?$SafeMap@PEAVPushSubscription@@UEmpty@@V?$SafeSet_Iterator@PEAVPushSubscription@@@@@@QEAA@XZ
; public: __cdecl <void *__ptr64,struct Empty,class <void *__ptr64>>::~<void *__ptr64,struct Empty,class <void *__ptr64>>(void)__ptr64 
??1?$SafeMap@PEAXUEmpty@@V?$SafeSet_Iterator@PEAX@@@@QEAA@XZ
; public: __cdecl <struct PluginKey,unsigned long,class <struct PluginKey,unsigned long>>::~<struct PluginKey,unsigned long,class <struct PluginKey,unsigned long>>(void)__ptr64 
??1?$SafeMap@UPluginKey@@KV?$SafeMap_Iterator@UPluginKey@@K@@@@QEAA@XZ
; public: __cdecl <struct UserKey,class BlockedRecord *__ptr64,class <struct UserKey,class BlockedRecord *__ptr64>>::~<struct UserKey,class BlockedRecord *__ptr64,class <struct UserKey,class BlockedRecord *__ptr64>>(void)__ptr64 
??1?$SafeMap@UUserKey@@PEAVBlockedRecord@@V?$SafeMap_Iterator@UUserKey@@PEAVBlockedRecord@@@@@@QEAA@XZ
; public: __cdecl <class CertThumbprintKey,class CServiceConfigSettings::CertThumbprintMappedSet,class <class CertThumbprintKey,class CServiceConfigSettings::CertThumbprintMappedSet>>::~<class CertThumbprintKey,class CServiceConfigSettings::CertThumbprintMappedSet,class <class CertThumbprintKey,class CServiceConfigSettings::CertThumbprintMappedSet>>(void)__ptr64 
??1?$SafeMap@VCertThumbprintKey@@VCertThumbprintMappedSet@CServiceConfigSettings@@V?$SafeMap_Iterator@VCertThumbprintKey@@VCertThumbprintMappedSet@CServiceConfigSettings@@@@@@QEAA@XZ
; public: __cdecl <class Locale::Key,unsigned long,class <class Locale::Key,unsigned long>>::~<class Locale::Key,unsigned long,class <class Locale::Key,unsigned long>>(void)__ptr64 
??1?$SafeMap@VKey@Locale@@KV?$SafeMap_Iterator@VKey@Locale@@K@@@@QEAA@XZ
; public: __cdecl <class StringKeyCI,unsigned long,class <class StringKeyCI,unsigned long>>::~<class StringKeyCI,unsigned long,class <class StringKeyCI,unsigned long>>(void)__ptr64 
??1?$SafeMap@VStringKeyCI@@KV?$SafeMap_Iterator@VStringKeyCI@@K@@@@QEAA@XZ
; public: __cdecl <class StringKeyCI,struct Empty,class <class StringKeyCI>>::~<class StringKeyCI,struct Empty,class <class StringKeyCI>>(void)__ptr64 
??1?$SafeMap@VStringKeyCI@@UEmpty@@V?$SafeSet_Iterator@VStringKeyCI@@@@@@QEAA@XZ
; public: __cdecl <class StringKeyCI,struct WSManHttpListener::USER_CONTEXT_INFO,class <class StringKeyCI,struct WSManHttpListener::USER_CONTEXT_INFO>>::~<class StringKeyCI,struct WSManHttpListener::USER_CONTEXT_INFO,class <class StringKeyCI,struct WSManHttpListener::USER_CONTEXT_INFO>>(void)__ptr64 
??1?$SafeMap@VStringKeyCI@@UUSER_CONTEXT_INFO@WSManHttpListener@@V?$SafeMap_Iterator@VStringKeyCI@@UUSER_CONTEXT_INFO@WSManHttpListener@@@@@@QEAA@XZ
; public: __cdecl <class StringKeyStore,class ExpiredOperationIdRecord *__ptr64,class <class StringKeyStore,class ExpiredOperationIdRecord *__ptr64>>::~<class StringKeyStore,class ExpiredOperationIdRecord *__ptr64,class <class StringKeyStore,class ExpiredOperationIdRecord *__ptr64>>(void)__ptr64 
??1?$SafeMap@VStringKeyStore@@PEAVExpiredOperationIdRecord@@V?$SafeMap_Iterator@VStringKeyStore@@PEAVExpiredOperationIdRecord@@@@@@QEAA@XZ
; public: __cdecl <class StringKeyStore,class ServerFullDuplexChannel *__ptr64,class <class StringKeyStore,class ServerFullDuplexChannel *__ptr64>>::~<class StringKeyStore,class ServerFullDuplexChannel *__ptr64,class <class StringKeyStore,class ServerFullDuplexChannel *__ptr64>>(void)__ptr64 
??1?$SafeMap@VStringKeyStore@@PEAVServerFullDuplexChannel@@V?$SafeMap_Iterator@VStringKeyStore@@PEAVServerFullDuplexChannel@@@@@@QEAA@XZ
; public: __cdecl <enum WSManSessionOption,class WSMan::Client::SessionOptions::OptionValue *__ptr64,class <enum WSManSessionOption,class WSMan::Client::SessionOptions::OptionValue *__ptr64>>::~<enum WSManSessionOption,class WSMan::Client::SessionOptions::OptionValue *__ptr64,class <enum WSManSessionOption,class WSMan::Client::SessionOptions::OptionValue *__ptr64>>(void)__ptr64 
??1?$SafeMap@W4WSManSessionOption@@PEAVOptionValue@SessionOptions@Client@WSMan@@V?$SafeMap_Iterator@W4WSManSessionOption@@PEAVOptionValue@SessionOptions@Client@WSMan@@@@@@QEAA@XZ
; public: __cdecl <unsigned __int64,class RobustConnectionBuffer::SendPacketArgs *__ptr64,class <unsigned __int64,class RobustConnectionBuffer::SendPacketArgs *__ptr64>>::~<unsigned __int64,class RobustConnectionBuffer::SendPacketArgs *__ptr64,class <unsigned __int64,class RobustConnectionBuffer::SendPacketArgs *__ptr64>>(void)__ptr64 
??1?$SafeMap@_KPEAVSendPacketArgs@RobustConnectionBuffer@@V?$SafeMap_Iterator@_KPEAVSendPacketArgs@RobustConnectionBuffer@@@@@@QEAA@XZ
; public: __cdecl <class CCertMapping *__ptr64,struct Empty>::~<class CCertMapping *__ptr64,struct Empty>(void)__ptr64 
??1?$SafeMap_Iterator@PEAVCCertMapping@@UEmpty@@@@QEAA@XZ
; public: __cdecl <class CListenerConnect *__ptr64,class CListenerConnect *__ptr64>::~<class CListenerConnect *__ptr64,class CListenerConnect *__ptr64>(void)__ptr64 
??1?$SafeMap_Iterator@PEAVCListenerConnect@@PEAV1@@@QEAA@XZ
; public: __cdecl <class CListenerOperation *__ptr64,struct Empty>::~<class CListenerOperation *__ptr64,struct Empty>(void)__ptr64 
??1?$SafeMap_Iterator@PEAVCListenerOperation@@UEmpty@@@@QEAA@XZ
; public: __cdecl <class CListenerReceive *__ptr64,class CListenerReceive *__ptr64>::~<class CListenerReceive *__ptr64,class CListenerReceive *__ptr64>(void)__ptr64 
??1?$SafeMap_Iterator@PEAVCListenerReceive@@PEAV1@@@QEAA@XZ
; public: __cdecl <class CListenerSend *__ptr64,class CListenerSend *__ptr64>::~<class CListenerSend *__ptr64,class CListenerSend *__ptr64>(void)__ptr64 
??1?$SafeMap_Iterator@PEAVCListenerSend@@PEAV1@@@QEAA@XZ
; public: __cdecl <class CListenerSignal *__ptr64,class CListenerSignal *__ptr64>::~<class CListenerSignal *__ptr64,class CListenerSignal *__ptr64>(void)__ptr64 
??1?$SafeMap_Iterator@PEAVCListenerSignal@@PEAV1@@@QEAA@XZ
; public: __cdecl <class CShellUriSettings *__ptr64,struct Empty>::~<class CShellUriSettings *__ptr64,struct Empty>(void)__ptr64 
??1?$SafeMap_Iterator@PEAVCShellUriSettings@@UEmpty@@@@QEAA@XZ
; public: __cdecl <class Collector *__ptr64,struct Empty>::~<class Collector *__ptr64,struct Empty>(void)__ptr64 
??1?$SafeMap_Iterator@PEAVCollector@@UEmpty@@@@QEAA@XZ
; public: __cdecl <class HostOperation *__ptr64,struct Empty>::~<class HostOperation *__ptr64,struct Empty>(void)__ptr64 
??1?$SafeMap_Iterator@PEAVHostOperation@@UEmpty@@@@QEAA@XZ
; public: __cdecl <class IOperation *__ptr64,struct Empty>::~<class IOperation *__ptr64,struct Empty>(void)__ptr64 
??1?$SafeMap_Iterator@PEAVIOperation@@UEmpty@@@@QEAA@XZ
; public: __cdecl <class ListenerSourceSubscription *__ptr64,struct Empty>::~<class ListenerSourceSubscription *__ptr64,struct Empty>(void)__ptr64 
??1?$SafeMap_Iterator@PEAVListenerSourceSubscription@@UEmpty@@@@QEAA@XZ
; public: __cdecl <class PushSubscription *__ptr64,struct Empty>::~<class PushSubscription *__ptr64,struct Empty>(void)__ptr64 
??1?$SafeMap_Iterator@PEAVPushSubscription@@UEmpty@@@@QEAA@XZ
; public: __cdecl <void *__ptr64,struct Empty>::~<void *__ptr64,struct Empty>(void)__ptr64 
??1?$SafeMap_Iterator@PEAXUEmpty@@@@QEAA@XZ
; public: __cdecl <struct PluginKey,unsigned long>::~<struct PluginKey,unsigned long>(void)__ptr64 
??1?$SafeMap_Iterator@UPluginKey@@K@@QEAA@XZ
; public: __cdecl <struct UserKey,class BlockedRecord *__ptr64>::~<struct UserKey,class BlockedRecord *__ptr64>(void)__ptr64 
??1?$SafeMap_Iterator@UUserKey@@PEAVBlockedRecord@@@@QEAA@XZ
; public: __cdecl <class CertThumbprintKey,class CServiceConfigSettings::CertThumbprintMappedSet>::~<class CertThumbprintKey,class CServiceConfigSettings::CertThumbprintMappedSet>(void)__ptr64 
??1?$SafeMap_Iterator@VCertThumbprintKey@@VCertThumbprintMappedSet@CServiceConfigSettings@@@@QEAA@XZ
; public: __cdecl <class GuidKey,class CListenerCommand *__ptr64>::~<class GuidKey,class CListenerCommand *__ptr64>(void)__ptr64 
??1?$SafeMap_Iterator@VGuidKey@@PEAVCListenerCommand@@@@QEAA@XZ
; public: __cdecl <class Locale::Key,unsigned long>::~<class Locale::Key,unsigned long>(void)__ptr64 
??1?$SafeMap_Iterator@VKey@Locale@@K@@QEAA@XZ
; public: __cdecl <class StringKeyCI,unsigned long>::~<class StringKeyCI,unsigned long>(void)__ptr64 
??1?$SafeMap_Iterator@VStringKeyCI@@K@@QEAA@XZ
; public: __cdecl <class StringKeyCI,struct Empty>::~<class StringKeyCI,struct Empty>(void)__ptr64 
??1?$SafeMap_Iterator@VStringKeyCI@@UEmpty@@@@QEAA@XZ
; public: __cdecl <class StringKeyCI,struct WSManHttpListener::USER_CONTEXT_INFO>::~<class StringKeyCI,struct WSManHttpListener::USER_CONTEXT_INFO>(void)__ptr64 
??1?$SafeMap_Iterator@VStringKeyCI@@UUSER_CONTEXT_INFO@WSManHttpListener@@@@QEAA@XZ
; public: __cdecl <class StringKeyStore,class ExpiredOperationIdRecord *__ptr64>::~<class StringKeyStore,class ExpiredOperationIdRecord *__ptr64>(void)__ptr64 
??1?$SafeMap_Iterator@VStringKeyStore@@PEAVExpiredOperationIdRecord@@@@QEAA@XZ
; public: __cdecl <class StringKeyStore,class ServerFullDuplexChannel *__ptr64>::~<class StringKeyStore,class ServerFullDuplexChannel *__ptr64>(void)__ptr64 
??1?$SafeMap_Iterator@VStringKeyStore@@PEAVServerFullDuplexChannel@@@@QEAA@XZ
; public: __cdecl <enum WSManSessionOption,class WSMan::Client::SessionOptions::OptionValue *__ptr64>::~<enum WSManSessionOption,class WSMan::Client::SessionOptions::OptionValue *__ptr64>(void)__ptr64 
??1?$SafeMap_Iterator@W4WSManSessionOption@@PEAVOptionValue@SessionOptions@Client@WSMan@@@@QEAA@XZ
; public: __cdecl <unsigned __int64,class RobustConnectionBuffer::SendPacketArgs *__ptr64>::~<unsigned __int64,class RobustConnectionBuffer::SendPacketArgs *__ptr64>(void)__ptr64 
??1?$SafeMap_Iterator@_KPEAVSendPacketArgs@RobustConnectionBuffer@@@@QEAA@XZ
; public: __cdecl <class CCertMapping *__ptr64,struct Empty,class <class CCertMapping *__ptr64,struct Empty>>::~<class CCertMapping *__ptr64,struct Empty,class <class CCertMapping *__ptr64,struct Empty>>(void)__ptr64 
??1?$SafeMap_Lock@PEAVCCertMapping@@UEmpty@@V?$SafeMap_Iterator@PEAVCCertMapping@@UEmpty@@@@@@QEAA@XZ
; public: __cdecl <class CCertMapping *__ptr64,struct Empty,class <class CCertMapping *__ptr64>>::~<class CCertMapping *__ptr64,struct Empty,class <class CCertMapping *__ptr64>>(void)__ptr64 
??1?$SafeMap_Lock@PEAVCCertMapping@@UEmpty@@V?$SafeSet_Iterator@PEAVCCertMapping@@@@@@QEAA@XZ
; public: __cdecl <class CListenerConnect *__ptr64,class CListenerConnect *__ptr64,class <class CListenerConnect *__ptr64,class CListenerConnect *__ptr64>>::~<class CListenerConnect *__ptr64,class CListenerConnect *__ptr64,class <class CListenerConnect *__ptr64,class CListenerConnect *__ptr64>>(void)__ptr64 
??1?$SafeMap_Lock@PEAVCListenerConnect@@PEAV1@V?$SafeMap_Iterator@PEAVCListenerConnect@@PEAV1@@@@@QEAA@XZ
; public: __cdecl <class CListenerOperation *__ptr64,struct Empty,class <class CListenerOperation *__ptr64,struct Empty>>::~<class CListenerOperation *__ptr64,struct Empty,class <class CListenerOperation *__ptr64,struct Empty>>(void)__ptr64 
??1?$SafeMap_Lock@PEAVCListenerOperation@@UEmpty@@V?$SafeMap_Iterator@PEAVCListenerOperation@@UEmpty@@@@@@QEAA@XZ
; public: __cdecl <class CListenerOperation *__ptr64,struct Empty,class <class CListenerOperation *__ptr64>>::~<class CListenerOperation *__ptr64,struct Empty,class <class CListenerOperation *__ptr64>>(void)__ptr64 
??1?$SafeMap_Lock@PEAVCListenerOperation@@UEmpty@@V?$SafeSet_Iterator@PEAVCListenerOperation@@@@@@QEAA@XZ
; public: __cdecl <class CListenerReceive *__ptr64,class CListenerReceive *__ptr64,class <class CListenerReceive *__ptr64,class CListenerReceive *__ptr64>>::~<class CListenerReceive *__ptr64,class CListenerReceive *__ptr64,class <class CListenerReceive *__ptr64,class CListenerReceive *__ptr64>>(void)__ptr64 
??1?$SafeMap_Lock@PEAVCListenerReceive@@PEAV1@V?$SafeMap_Iterator@PEAVCListenerReceive@@PEAV1@@@@@QEAA@XZ
; public: __cdecl <class CListenerSend *__ptr64,class CListenerSend *__ptr64,class <class CListenerSend *__ptr64,class CListenerSend *__ptr64>>::~<class CListenerSend *__ptr64,class CListenerSend *__ptr64,class <class CListenerSend *__ptr64,class CListenerSend *__ptr64>>(void)__ptr64 
??1?$SafeMap_Lock@PEAVCListenerSend@@PEAV1@V?$SafeMap_Iterator@PEAVCListenerSend@@PEAV1@@@@@QEAA@XZ
; public: __cdecl <class CListenerSignal *__ptr64,class CListenerSignal *__ptr64,class <class CListenerSignal *__ptr64,class CListenerSignal *__ptr64>>::~<class CListenerSignal *__ptr64,class CListenerSignal *__ptr64,class <class CListenerSignal *__ptr64,class CListenerSignal *__ptr64>>(void)__ptr64 
??1?$SafeMap_Lock@PEAVCListenerSignal@@PEAV1@V?$SafeMap_Iterator@PEAVCListenerSignal@@PEAV1@@@@@QEAA@XZ
; public: __cdecl <class CShellUriSettings *__ptr64,struct Empty,class <class CShellUriSettings *__ptr64,struct Empty>>::~<class CShellUriSettings *__ptr64,struct Empty,class <class CShellUriSettings *__ptr64,struct Empty>>(void)__ptr64 
??1?$SafeMap_Lock@PEAVCShellUriSettings@@UEmpty@@V?$SafeMap_Iterator@PEAVCShellUriSettings@@UEmpty@@@@@@QEAA@XZ
; public: __cdecl <class CShellUriSettings *__ptr64,struct Empty,class <class CShellUriSettings *__ptr64>>::~<class CShellUriSettings *__ptr64,struct Empty,class <class CShellUriSettings *__ptr64>>(void)__ptr64 
??1?$SafeMap_Lock@PEAVCShellUriSettings@@UEmpty@@V?$SafeSet_Iterator@PEAVCShellUriSettings@@@@@@QEAA@XZ
; public: __cdecl <class Collector *__ptr64,struct Empty,class <class Collector *__ptr64,struct Empty>>::~<class Collector *__ptr64,struct Empty,class <class Collector *__ptr64,struct Empty>>(void)__ptr64 
??1?$SafeMap_Lock@PEAVCollector@@UEmpty@@V?$SafeMap_Iterator@PEAVCollector@@UEmpty@@@@@@QEAA@XZ
; public: __cdecl <class HostOperation *__ptr64,struct Empty,class <class HostOperation *__ptr64,struct Empty>>::~<class HostOperation *__ptr64,struct Empty,class <class HostOperation *__ptr64,struct Empty>>(void)__ptr64 
??1?$SafeMap_Lock@PEAVHostOperation@@UEmpty@@V?$SafeMap_Iterator@PEAVHostOperation@@UEmpty@@@@@@QEAA@XZ
; public: __cdecl <class IOperation *__ptr64,struct Empty,class <class IOperation *__ptr64,struct Empty>>::~<class IOperation *__ptr64,struct Empty,class <class IOperation *__ptr64,struct Empty>>(void)__ptr64 
??1?$SafeMap_Lock@PEAVIOperation@@UEmpty@@V?$SafeMap_Iterator@PEAVIOperation@@UEmpty@@@@@@QEAA@XZ
; public: __cdecl <class ListenerSourceSubscription *__ptr64,struct Empty,class <class ListenerSourceSubscription *__ptr64,struct Empty>>::~<class ListenerSourceSubscription *__ptr64,struct Empty,class <class ListenerSourceSubscription *__ptr64,struct Empty>>(void)__ptr64 
??1?$SafeMap_Lock@PEAVListenerSourceSubscription@@UEmpty@@V?$SafeMap_Iterator@PEAVListenerSourceSubscription@@UEmpty@@@@@@QEAA@XZ
; public: __cdecl <class PushSubscription *__ptr64,struct Empty,class <class PushSubscription *__ptr64,struct Empty>>::~<class PushSubscription *__ptr64,struct Empty,class <class PushSubscription *__ptr64,struct Empty>>(void)__ptr64 
??1?$SafeMap_Lock@PEAVPushSubscription@@UEmpty@@V?$SafeMap_Iterator@PEAVPushSubscription@@UEmpty@@@@@@QEAA@XZ
; public: __cdecl <void *__ptr64,struct Empty,class <void *__ptr64,struct Empty>>::~<void *__ptr64,struct Empty,class <void *__ptr64,struct Empty>>(void)__ptr64 
??1?$SafeMap_Lock@PEAXUEmpty@@V?$SafeMap_Iterator@PEAXUEmpty@@@@@@QEAA@XZ
; public: __cdecl <void *__ptr64,struct Empty,class <void *__ptr64>>::~<void *__ptr64,struct Empty,class <void *__ptr64>>(void)__ptr64 
??1?$SafeMap_Lock@PEAXUEmpty@@V?$SafeSet_Iterator@PEAX@@@@QEAA@XZ
; public: __cdecl <struct PluginKey,unsigned long,class <struct PluginKey,unsigned long>>::~<struct PluginKey,unsigned long,class <struct PluginKey,unsigned long>>(void)__ptr64 
??1?$SafeMap_Lock@UPluginKey@@KV?$SafeMap_Iterator@UPluginKey@@K@@@@QEAA@XZ
; public: __cdecl <struct UserKey,class BlockedRecord *__ptr64,class <struct UserKey,class BlockedRecord *__ptr64>>::~<struct UserKey,class BlockedRecord *__ptr64,class <struct UserKey,class BlockedRecord *__ptr64>>(void)__ptr64 
??1?$SafeMap_Lock@UUserKey@@PEAVBlockedRecord@@V?$SafeMap_Iterator@UUserKey@@PEAVBlockedRecord@@@@@@QEAA@XZ
; public: __cdecl <class CertThumbprintKey,class CServiceConfigSettings::CertThumbprintMappedSet,class <class CertThumbprintKey,class CServiceConfigSettings::CertThumbprintMappedSet>>::~<class CertThumbprintKey,class CServiceConfigSettings::CertThumbprintMappedSet,class <class CertThumbprintKey,class CServiceConfigSettings::CertThumbprintMappedSet>>(void)__ptr64 
??1?$SafeMap_Lock@VCertThumbprintKey@@VCertThumbprintMappedSet@CServiceConfigSettings@@V?$SafeMap_Iterator@VCertThumbprintKey@@VCertThumbprintMappedSet@CServiceConfigSettings@@@@@@QEAA@XZ
; public: __cdecl <class GuidKey,class CListenerCommand *__ptr64,class <class GuidKey,class CListenerCommand *__ptr64>>::~<class GuidKey,class CListenerCommand *__ptr64,class <class GuidKey,class CListenerCommand *__ptr64>>(void)__ptr64 
??1?$SafeMap_Lock@VGuidKey@@PEAVCListenerCommand@@V?$SafeMap_Iterator@VGuidKey@@PEAVCListenerCommand@@@@@@QEAA@XZ
; public: __cdecl <class Locale::Key,unsigned long,class <class Locale::Key,unsigned long>>::~<class Locale::Key,unsigned long,class <class Locale::Key,unsigned long>>(void)__ptr64 
??1?$SafeMap_Lock@VKey@Locale@@KV?$SafeMap_Iterator@VKey@Locale@@K@@@@QEAA@XZ
; public: __cdecl <class StringKeyCI,unsigned long,class <class StringKeyCI,unsigned long>>::~<class StringKeyCI,unsigned long,class <class StringKeyCI,unsigned long>>(void)__ptr64 
??1?$SafeMap_Lock@VStringKeyCI@@KV?$SafeMap_Iterator@VStringKeyCI@@K@@@@QEAA@XZ
; public: __cdecl <class StringKeyCI,struct Empty,class <class StringKeyCI,struct Empty>>::~<class StringKeyCI,struct Empty,class <class StringKeyCI,struct Empty>>(void)__ptr64 
??1?$SafeMap_Lock@VStringKeyCI@@UEmpty@@V?$SafeMap_Iterator@VStringKeyCI@@UEmpty@@@@@@QEAA@XZ
; public: __cdecl <class StringKeyCI,struct Empty,class <class StringKeyCI>>::~<class StringKeyCI,struct Empty,class <class StringKeyCI>>(void)__ptr64 
??1?$SafeMap_Lock@VStringKeyCI@@UEmpty@@V?$SafeSet_Iterator@VStringKeyCI@@@@@@QEAA@XZ
; public: __cdecl <class StringKeyCI,struct WSManHttpListener::USER_CONTEXT_INFO,class <class StringKeyCI,struct WSManHttpListener::USER_CONTEXT_INFO>>::~<class StringKeyCI,struct WSManHttpListener::USER_CONTEXT_INFO,class <class StringKeyCI,struct WSManHttpListener::USER_CONTEXT_INFO>>(void)__ptr64 
??1?$SafeMap_Lock@VStringKeyCI@@UUSER_CONTEXT_INFO@WSManHttpListener@@V?$SafeMap_Iterator@VStringKeyCI@@UUSER_CONTEXT_INFO@WSManHttpListener@@@@@@QEAA@XZ
; public: __cdecl <class StringKeyStore,class ExpiredOperationIdRecord *__ptr64,class <class StringKeyStore,class ExpiredOperationIdRecord *__ptr64>>::~<class StringKeyStore,class ExpiredOperationIdRecord *__ptr64,class <class StringKeyStore,class ExpiredOperationIdRecord *__ptr64>>(void)__ptr64 
??1?$SafeMap_Lock@VStringKeyStore@@PEAVExpiredOperationIdRecord@@V?$SafeMap_Iterator@VStringKeyStore@@PEAVExpiredOperationIdRecord@@@@@@QEAA@XZ
; public: __cdecl <class StringKeyStore,class ServerFullDuplexChannel *__ptr64,class <class StringKeyStore,class ServerFullDuplexChannel *__ptr64>>::~<class StringKeyStore,class ServerFullDuplexChannel *__ptr64,class <class StringKeyStore,class ServerFullDuplexChannel *__ptr64>>(void)__ptr64 
??1?$SafeMap_Lock@VStringKeyStore@@PEAVServerFullDuplexChannel@@V?$SafeMap_Iterator@VStringKeyStore@@PEAVServerFullDuplexChannel@@@@@@QEAA@XZ
; public: __cdecl <enum WSManSessionOption,class WSMan::Client::SessionOptions::OptionValue *__ptr64,class <enum WSManSessionOption,class WSMan::Client::SessionOptions::OptionValue *__ptr64>>::~<enum WSManSessionOption,class WSMan::Client::SessionOptions::OptionValue *__ptr64,class <enum WSManSessionOption,class WSMan::Client::SessionOptions::OptionValue *__ptr64>>(void)__ptr64 
??1?$SafeMap_Lock@W4WSManSessionOption@@PEAVOptionValue@SessionOptions@Client@WSMan@@V?$SafeMap_Iterator@W4WSManSessionOption@@PEAVOptionValue@SessionOptions@Client@WSMan@@@@@@QEAA@XZ
; public: __cdecl <unsigned __int64,class RobustConnectionBuffer::SendPacketArgs *__ptr64,class <unsigned __int64,class RobustConnectionBuffer::SendPacketArgs *__ptr64>>::~<unsigned __int64,class RobustConnectionBuffer::SendPacketArgs *__ptr64,class <unsigned __int64,class RobustConnectionBuffer::SendPacketArgs *__ptr64>>(void)__ptr64 
??1?$SafeMap_Lock@_KPEAVSendPacketArgs@RobustConnectionBuffer@@V?$SafeMap_Iterator@_KPEAVSendPacketArgs@RobustConnectionBuffer@@@@@@QEAA@XZ
; public: __cdecl <class CCertMapping *__ptr64>::~<class CCertMapping *__ptr64>(void)__ptr64 
??1?$SafeSet@PEAVCCertMapping@@@@QEAA@XZ
; public: __cdecl <class CListenerOperation *__ptr64>::~<class CListenerOperation *__ptr64>(void)__ptr64 
??1?$SafeSet@PEAVCListenerOperation@@@@QEAA@XZ
; public: __cdecl <class CShellUriSettings *__ptr64>::~<class CShellUriSettings *__ptr64>(void)__ptr64 
??1?$SafeSet@PEAVCShellUriSettings@@@@QEAA@XZ
; public: __cdecl <class Collector *__ptr64>::~<class Collector *__ptr64>(void)__ptr64 
??1?$SafeSet@PEAVCollector@@@@QEAA@XZ
; public: __cdecl <class HostOperation *__ptr64>::~<class HostOperation *__ptr64>(void)__ptr64 
??1?$SafeSet@PEAVHostOperation@@@@QEAA@XZ
; public: __cdecl <class IOperation *__ptr64>::~<class IOperation *__ptr64>(void)__ptr64 
??1?$SafeSet@PEAVIOperation@@@@QEAA@XZ
; public: __cdecl <class ListenerSourceSubscription *__ptr64>::~<class ListenerSourceSubscription *__ptr64>(void)__ptr64 
??1?$SafeSet@PEAVListenerSourceSubscription@@@@QEAA@XZ
; public: __cdecl <class PushSubscription *__ptr64>::~<class PushSubscription *__ptr64>(void)__ptr64 
??1?$SafeSet@PEAVPushSubscription@@@@QEAA@XZ
; public: __cdecl <void *__ptr64>::~<void *__ptr64>(void)__ptr64 
??1?$SafeSet@PEAX@@QEAA@XZ
; public: __cdecl <class StringKeyCI>::~<class StringKeyCI>(void)__ptr64 
??1?$SafeSet@VStringKeyCI@@@@QEAA@XZ
; public: __cdecl <class CCertMapping *__ptr64>::~<class CCertMapping *__ptr64>(void)__ptr64 
??1?$SafeSet_Iterator@PEAVCCertMapping@@@@QEAA@XZ
; public: __cdecl <class CListenerOperation *__ptr64>::~<class CListenerOperation *__ptr64>(void)__ptr64 
??1?$SafeSet_Iterator@PEAVCListenerOperation@@@@QEAA@XZ
; public: __cdecl <class CShellUriSettings *__ptr64>::~<class CShellUriSettings *__ptr64>(void)__ptr64 
??1?$SafeSet_Iterator@PEAVCShellUriSettings@@@@QEAA@XZ
; public: __cdecl <class Collector *__ptr64>::~<class Collector *__ptr64>(void)__ptr64 
??1?$SafeSet_Iterator@PEAVCollector@@@@QEAA@XZ
; public: __cdecl <class HostOperation *__ptr64>::~<class HostOperation *__ptr64>(void)__ptr64 
??1?$SafeSet_Iterator@PEAVHostOperation@@@@QEAA@XZ
; public: __cdecl <class IOperation *__ptr64>::~<class IOperation *__ptr64>(void)__ptr64 
??1?$SafeSet_Iterator@PEAVIOperation@@@@QEAA@XZ
; public: __cdecl <class ListenerSourceSubscription *__ptr64>::~<class ListenerSourceSubscription *__ptr64>(void)__ptr64 
??1?$SafeSet_Iterator@PEAVListenerSourceSubscription@@@@QEAA@XZ
; public: __cdecl <class PushSubscription *__ptr64>::~<class PushSubscription *__ptr64>(void)__ptr64 
??1?$SafeSet_Iterator@PEAVPushSubscription@@@@QEAA@XZ
; public: __cdecl <void *__ptr64>::~<void *__ptr64>(void)__ptr64 
??1?$SafeSet_Iterator@PEAX@@QEAA@XZ
; public: __cdecl <class StringKeyCI>::~<class StringKeyCI>(void)__ptr64 
??1?$SafeSet_Iterator@VStringKeyCI@@@@QEAA@XZ
; public: __cdecl <union _LARGE_INTEGER>::~<union _LARGE_INTEGER>(void)__ptr64 
??1?$SimpleQueue@T_LARGE_INTEGER@@@@QEAA@XZ
; public: __cdecl AutoBstr::~AutoBstr(void)__ptr64 
??1AutoBstr@@QEAA@XZ
; public: __cdecl AutoBstrNoAlloc::~AutoBstrNoAlloc(void)__ptr64 
??1AutoBstrNoAlloc@@QEAA@XZ
; public: __cdecl AutoCertContext::~AutoCertContext(void)__ptr64 
??1AutoCertContext@@QEAA@XZ
; public: __cdecl AutoChainContext::~AutoChainContext(void)__ptr64 
??1AutoChainContext@@QEAA@XZ
; public: __cdecl AutoCoTaskMemFree::~AutoCoTaskMemFree(void)__ptr64 
??1AutoCoTaskMemFree@@QEAA@XZ
; public: __cdecl AutoEnvironmentBlock::~AutoEnvironmentBlock(void)__ptr64 
??1AutoEnvironmentBlock@@QEAA@XZ
; public: __cdecl AutoFwXmlCloseParser::~AutoFwXmlCloseParser(void)__ptr64 
??1AutoFwXmlCloseParser@@QEAA@XZ
; public: __cdecl AutoHandle::~AutoHandle(void)__ptr64 
??1AutoHandle@@QEAA@XZ
; public: __cdecl AutoImpersonateUser::~AutoImpersonateUser(void)__ptr64 
??1AutoImpersonateUser@@QEAA@XZ
; public: __cdecl AutoLibrary::~AutoLibrary(void)__ptr64 
??1AutoLibrary@@QEAA@XZ
; public: __cdecl AutoLocalFree::~AutoLocalFree(void)__ptr64 
??1AutoLocalFree@@QEAA@XZ
; public: __cdecl AutoMIClass::~AutoMIClass(void)__ptr64 
??1AutoMIClass@@QEAA@XZ
; public: __cdecl AutoMIInstance::~AutoMIInstance(void)__ptr64 
??1AutoMIInstance@@QEAA@XZ
; public: __cdecl AutoObject::~AutoObject(void)__ptr64 
??1AutoObject@@QEAA@XZ
; public: __cdecl AutoRegKey::~AutoRegKey(void)__ptr64 
??1AutoRegKey@@QEAA@XZ
; public: __cdecl AutoSecurityDescriptor::~AutoSecurityDescriptor(void)__ptr64 
??1AutoSecurityDescriptor@@QEAA@XZ
; public: __cdecl AutoWaitHandle::~AutoWaitHandle(void)__ptr64 
??1AutoWaitHandle@@QEAA@XZ
; public: virtual __cdecl BufferFormatter::~BufferFormatter(void)__ptr64 
??1BufferFormatter@@UEAA@XZ
; public: virtual __cdecl CBaseConfigCache::~CBaseConfigCache(void)__ptr64 
??1CBaseConfigCache@@UEAA@XZ
; public: virtual __cdecl CClientConfigCache::~CClientConfigCache(void)__ptr64 
??1CClientConfigCache@@UEAA@XZ
; public: virtual __cdecl CCommonConfigSettings::~CCommonConfigSettings(void)__ptr64 
??1CCommonConfigSettings@@UEAA@XZ
; public: virtual __cdecl CConfigManager::~CConfigManager(void)__ptr64 
??1CConfigManager@@UEAA@XZ
; public: virtual __cdecl CErrorContext::~CErrorContext(void)__ptr64 
??1CErrorContext@@UEAA@XZ
; public: virtual __cdecl CRequestContext::~CRequestContext(void)__ptr64 
??1CRequestContext@@UEAA@XZ
; public: __cdecl CResourceAlias::~CResourceAlias(void)__ptr64 
??1CResourceAlias@@QEAA@XZ
; private: virtual __cdecl CServiceConfigCache::~CServiceConfigCache(void)__ptr64 
??1CServiceConfigCache@@EEAA@XZ
; public: __cdecl CServiceConfigCache::CServiceWatcher::~CServiceWatcher(void)__ptr64 
??1CServiceWatcher@CServiceConfigCache@@QEAA@XZ
; public: __cdecl CWSManCriticalSection::~CWSManCriticalSection(void)__ptr64 
??1CWSManCriticalSection@@QEAA@XZ
; public: __cdecl CWSManCriticalSectionWithConditionVar::~CWSManCriticalSectionWithConditionVar(void)__ptr64 
??1CWSManCriticalSectionWithConditionVar@@QEAA@XZ
; public: virtual __cdecl CWSManEPR::~CWSManEPR(void)__ptr64 
??1CWSManEPR@@UEAA@XZ
; private: virtual __cdecl CWSManGroupPolicyManager::~CWSManGroupPolicyManager(void)__ptr64 
??1CWSManGroupPolicyManager@@EEAA@XZ
; public: virtual __cdecl CWSManResource::~CWSManResource(void)__ptr64 
??1CWSManResource@@UEAA@XZ
; public: virtual __cdecl CWSManResourceNoResourceUri::~CWSManResourceNoResourceUri(void)__ptr64 
??1CWSManResourceNoResourceUri@@UEAA@XZ
; public: __cdecl CWSManSecurityUI::~CWSManSecurityUI(void)__ptr64 
??1CWSManSecurityUI@@QEAA@XZ
; private: virtual __cdecl CWinRSPluginConfigCache::~CWinRSPluginConfigCache(void)__ptr64 
??1CWinRSPluginConfigCache@@EEAA@XZ
; public: __cdecl ChildLifeTimeManager::~ChildLifeTimeManager(void)__ptr64 
??1ChildLifeTimeManager@@QEAA@XZ
; public: virtual __cdecl CircularBufferFormatter::~CircularBufferFormatter(void)__ptr64 
??1CircularBufferFormatter@@UEAA@XZ
; protected: __cdecl ConfigRegistry::~ConfigRegistry(void)__ptr64 
??1ConfigRegistry@@IEAA@XZ
; public: virtual __cdecl EtwCorrelationHelper::~EtwCorrelationHelper(void)__ptr64 
??1EtwCorrelationHelper@@UEAA@XZ
; public: __cdecl WSMan::EventHandler::~EventHandler(void)__ptr64 
??1EventHandler@WSMan@@QEAA@XZ
; public: virtual __cdecl IConfigChangeObserver::~IConfigChangeObserver(void)__ptr64 
??1IConfigChangeObserver@@UEAA@XZ
; public: virtual __cdecl ILifeTimeMgmt::~ILifeTimeMgmt(void)__ptr64 
??1ILifeTimeMgmt@@UEAA@XZ
; public: virtual __cdecl IRequestContext::~IRequestContext(void)__ptr64 
??1IRequestContext@@UEAA@XZ
; public: virtual __cdecl IWSManGroupPolicyObserver::~IWSManGroupPolicyObserver(void)__ptr64 
??1IWSManGroupPolicyObserver@@UEAA@XZ
; public: virtual __cdecl IWSManGroupPolicyPublisher::~IWSManGroupPolicyPublisher(void)__ptr64 
??1IWSManGroupPolicyPublisher@@UEAA@XZ
; public: __cdecl PacketParser::MessageId::~MessageId(void)__ptr64 
??1MessageId@PacketParser@@QEAA@XZ
; public: __cdecl OnHTTPInitialize::~OnHTTPInitialize(void)__ptr64 
??1OnHTTPInitialize@@QEAA@XZ
; public: __cdecl PacketParser::OperationId::~OperationId(void)__ptr64 
??1OperationId@PacketParser@@QEAA@XZ
; public: __cdecl OwnLock::~OwnLock(void)__ptr64 
??1OwnLock@@QEAA@XZ
; public: __cdecl PacketParser::~PacketParser(void)__ptr64 
??1PacketParser@@QEAA@XZ
; public: __cdecl RBUFFER::~RBUFFER(void)__ptr64 
??1RBUFFER@@QEAA@XZ
; public: __cdecl PacketParser::ReferenceParameters::~ReferenceParameters(void)__ptr64 
??1ReferenceParameters@PacketParser@@QEAA@XZ
; public: __cdecl SBUFFER::~SBUFFER(void)__ptr64 
??1SBUFFER@@QEAA@XZ
; public: __cdecl ShareLock::~ShareLock(void)__ptr64 
??1ShareLock@@QEAA@XZ
; public: __cdecl SoapSemanticConverter::~SoapSemanticConverter(void)__ptr64 
??1SoapSemanticConverter@@QEAA@XZ
; public: __cdecl TSTRBUFFER::~TSTRBUFFER(void)__ptr64 
??1TSTRBUFFER@@QEAA@XZ
; public: __cdecl UserRecord::~UserRecord(void)__ptr64 
??1UserRecord@@QEAA@XZ
; public: __cdecl XmlReader::~XmlReader(void)__ptr64 
??1XmlReader@@QEAA@XZ
; public: class <char> &__ptr64 __cdecl <class <char>,char *__ptr64>::operator =(char *__ptr64)__ptr64 
??4?$AutoCleanup@V?$AutoDelete@D@@PEAD@@QEAAAEAV?$AutoDelete@D@@PEAD@Z
; public: class <unsigned short> &__ptr64 __cdecl <class <unsigned short>,unsigned short *__ptr64>::operator =(unsigned short *__ptr64)__ptr64 
??4?$AutoCleanup@V?$AutoDelete@G@@PEAG@@QEAAAEAV?$AutoDelete@G@@PEAG@Z
; public: class <class <class StringKeyCI,unsigned long>> &__ptr64 __cdecl <class <class <class StringKeyCI,unsigned long>>,class <class StringKeyCI,unsigned long> *__ptr64>::operator =(class <class StringKeyCI,unsigned long> *__ptr64)__ptr64 
??4?$AutoCleanup@V?$AutoDelete@V?$SafeMap_Iterator@VStringKeyCI@@K@@@@PEAV?$SafeMap_Iterator@VStringKeyCI@@K@@@@QEAAAEAV?$AutoDelete@V?$SafeMap_Iterator@VStringKeyCI@@K@@@@PEAV?$SafeMap_Iterator@VStringKeyCI@@K@@@Z
; public: class <class <enum WSManSessionOption,class WSMan::Client::SessionOptions::OptionValue *__ptr64>> &__ptr64 __cdecl <class <class <enum WSManSessionOption,class WSMan::Client::SessionOptions::OptionValue *__ptr64>>,class <enum WSManSessionOption,class WSMan::Client::SessionOptions::OptionValue *__ptr64> *__ptr64>::operator =(class <enum WSManSessionOption,class WSMan::Client::SessionOptions::OptionValue *__ptr64> *__ptr64)__ptr64 
??4?$AutoCleanup@V?$AutoDelete@V?$SafeMap_Iterator@W4WSManSessionOption@@PEAVOptionValue@SessionOptions@Client@WSMan@@@@@@PEAV?$SafeMap_Iterator@W4WSManSessionOption@@PEAVOptionValue@SessionOptions@Client@WSMan@@@@@@QEAAAEAV?$AutoDelete@V?$SafeMap_Iterator@W4WSManSessionOption@@PEAVOptionValue@SessionOptions@Client@WSMan@@@@@@PEAV?$SafeMap_Iterator@W4WSManSessionOption@@PEAVOptionValue@SessionOptions@Client@WSMan@@@@@Z
; public: class <class <class CCertMapping *__ptr64>> &__ptr64 __cdecl <class <class <class CCertMapping *__ptr64>>,class <class CCertMapping *__ptr64> *__ptr64>::operator =(class <class CCertMapping *__ptr64> *__ptr64)__ptr64 
??4?$AutoCleanup@V?$AutoDelete@V?$SafeSet@PEAVCCertMapping@@@@@@PEAV?$SafeSet@PEAVCCertMapping@@@@@@QEAAAEAV?$AutoDelete@V?$SafeSet@PEAVCCertMapping@@@@@@PEAV?$SafeSet@PEAVCCertMapping@@@@@Z
; public: class <class <class CShellUriSettings *__ptr64>> &__ptr64 __cdecl <class <class <class CShellUriSettings *__ptr64>>,class <class CShellUriSettings *__ptr64> *__ptr64>::operator =(class <class CShellUriSettings *__ptr64> *__ptr64)__ptr64 
??4?$AutoCleanup@V?$AutoDelete@V?$SafeSet@PEAVCShellUriSettings@@@@@@PEAV?$SafeSet@PEAVCShellUriSettings@@@@@@QEAAAEAV?$AutoDelete@V?$SafeSet@PEAVCShellUriSettings@@@@@@PEAV?$SafeSet@PEAVCShellUriSettings@@@@@Z
; public: class <class <class CListenerOperation *__ptr64>> &__ptr64 __cdecl <class <class <class CListenerOperation *__ptr64>>,class <class CListenerOperation *__ptr64> *__ptr64>::operator =(class <class CListenerOperation *__ptr64> *__ptr64)__ptr64 
??4?$AutoCleanup@V?$AutoDelete@V?$SafeSet_Iterator@PEAVCListenerOperation@@@@@@PEAV?$SafeSet_Iterator@PEAVCListenerOperation@@@@@@QEAAAEAV?$AutoDelete@V?$SafeSet_Iterator@PEAVCListenerOperation@@@@@@PEAV?$SafeSet_Iterator@PEAVCListenerOperation@@@@@Z
; public: class <class std::<class CListenerSettings *__ptr64,class CServiceConfigSettings::CListenerSettingsLessFunctor,class <class CListenerSettings *__ptr64>>> &__ptr64 __cdecl <class <class std::<class CListenerSettings *__ptr64,class CServiceConfigSettings::CListenerSettingsLessFunctor,class <class CListenerSettings *__ptr64>>>,class std::<class CListenerSettings *__ptr64,class CServiceConfigSettings::CListenerSettingsLessFunctor,class <class CListenerSettings *__ptr64>> *__ptr64>::operator =(class std::<class CListenerSettings *__ptr64,class CServiceConfigSettings::CListenerSettingsLessFunctor,class <class CListenerSettings *__ptr64>> *__ptr64)__ptr64 
??4?$AutoCleanup@V?$AutoDelete@V?$set@PEAVCListenerSettings@@VCListenerSettingsLessFunctor@CServiceConfigSettings@@V?$transport_allocator@PEAVCListenerSettings@@@@@std@@@@PEAV?$set@PEAVCListenerSettings@@VCListenerSettingsLessFunctor@CServiceConfigSettings@@V?$transport_allocator@PEAVCListenerSettings@@@@@std@@@@QEAAAEAV?$AutoDelete@V?$set@PEAVCListenerSettings@@VCListenerSettingsLessFunctor@CServiceConfigSettings@@V?$transport_allocator@PEAVCListenerSettings@@@@@std@@@@PEAV?$set@PEAVCListenerSettings@@VCListenerSettingsLessFunctor@CServiceConfigSettings@@V?$transport_allocator@PEAVCListenerSettings@@@@@std@@@Z
; public: class <class std::<struct sockaddr_storage,class CListenerSettings::SockAddrLessFunctor,class <struct sockaddr_storage>>> &__ptr64 __cdecl <class <class std::<struct sockaddr_storage,class CListenerSettings::SockAddrLessFunctor,class <struct sockaddr_storage>>>,class std::<struct sockaddr_storage,class CListenerSettings::SockAddrLessFunctor,class <struct sockaddr_storage>> *__ptr64>::operator =(class std::<struct sockaddr_storage,class CListenerSettings::SockAddrLessFunctor,class <struct sockaddr_storage>> *__ptr64)__ptr64 
??4?$AutoCleanup@V?$AutoDelete@V?$set@Usockaddr_storage@@VSockAddrLessFunctor@CListenerSettings@@V?$transport_allocator@Usockaddr_storage@@@@@std@@@@PEAV?$set@Usockaddr_storage@@VSockAddrLessFunctor@CListenerSettings@@V?$transport_allocator@Usockaddr_storage@@@@@std@@@@QEAAAEAV?$AutoDelete@V?$set@Usockaddr_storage@@VSockAddrLessFunctor@CListenerSettings@@V?$transport_allocator@Usockaddr_storage@@@@@std@@@@PEAV?$set@Usockaddr_storage@@VSockAddrLessFunctor@CListenerSettings@@V?$transport_allocator@Usockaddr_storage@@@@@std@@@Z
; public: class <class std::<class WSMan::Client::HandleImpl *__ptr64,class <class WSMan::Client::HandleImpl *__ptr64>>> &__ptr64 __cdecl <class <class std::<class WSMan::Client::HandleImpl *__ptr64,class <class WSMan::Client::HandleImpl *__ptr64>>>,class std::<class WSMan::Client::HandleImpl *__ptr64,class <class WSMan::Client::HandleImpl *__ptr64>> *__ptr64>::operator =(class std::<class WSMan::Client::HandleImpl *__ptr64,class <class WSMan::Client::HandleImpl *__ptr64>> *__ptr64)__ptr64 
??4?$AutoCleanup@V?$AutoDelete@V?$vector@PEAVHandleImpl@Client@WSMan@@V?$transport_allocator@PEAVHandleImpl@Client@WSMan@@@@@std@@@@PEAV?$vector@PEAVHandleImpl@Client@WSMan@@V?$transport_allocator@PEAVHandleImpl@Client@WSMan@@@@@std@@@@QEAAAEAV?$AutoDelete@V?$vector@PEAVHandleImpl@Client@WSMan@@V?$transport_allocator@PEAVHandleImpl@Client@WSMan@@@@@std@@@@PEAV?$vector@PEAVHandleImpl@Client@WSMan@@V?$transport_allocator@PEAVHandleImpl@Client@WSMan@@@@@std@@@Z
; public: class <class std::<class IServiceConfigObserver *__ptr64,class <class IServiceConfigObserver *__ptr64>>> &__ptr64 __cdecl <class <class std::<class IServiceConfigObserver *__ptr64,class <class IServiceConfigObserver *__ptr64>>>,class std::<class IServiceConfigObserver *__ptr64,class <class IServiceConfigObserver *__ptr64>> *__ptr64>::operator =(class std::<class IServiceConfigObserver *__ptr64,class <class IServiceConfigObserver *__ptr64>> *__ptr64)__ptr64 
??4?$AutoCleanup@V?$AutoDelete@V?$vector@PEAVIServiceConfigObserver@@V?$transport_allocator@PEAVIServiceConfigObserver@@@@@std@@@@PEAV?$vector@PEAVIServiceConfigObserver@@V?$transport_allocator@PEAVIServiceConfigObserver@@@@@std@@@@QEAAAEAV?$AutoDelete@V?$vector@PEAVIServiceConfigObserver@@V?$transport_allocator@PEAVIServiceConfigObserver@@@@@std@@@@PEAV?$vector@PEAVIServiceConfigObserver@@V?$transport_allocator@PEAVIServiceConfigObserver@@@@@std@@@Z
; public: class <class BlockedRecord> &__ptr64 __cdecl <class <class BlockedRecord>,class BlockedRecord *__ptr64>::operator =(class BlockedRecord *__ptr64)__ptr64 
??4?$AutoCleanup@V?$AutoDelete@VBlockedRecord@@@@PEAVBlockedRecord@@@@QEAAAEAV?$AutoDelete@VBlockedRecord@@@@PEAVBlockedRecord@@@Z
; public: class <class CConfigChangeSource> &__ptr64 __cdecl <class <class CConfigChangeSource>,class CConfigChangeSource *__ptr64>::operator =(class CConfigChangeSource *__ptr64)__ptr64 
??4?$AutoCleanup@V?$AutoDelete@VCConfigChangeSource@@@@PEAVCConfigChangeSource@@@@QEAAAEAV?$AutoDelete@VCConfigChangeSource@@@@PEAVCConfigChangeSource@@@Z
; public: class <class CObserverConfigChangeErrors> &__ptr64 __cdecl <class <class CObserverConfigChangeErrors>,class CObserverConfigChangeErrors *__ptr64>::operator =(class CObserverConfigChangeErrors *__ptr64)__ptr64 
??4?$AutoCleanup@V?$AutoDelete@VCObserverConfigChangeErrors@@@@PEAVCObserverConfigChangeErrors@@@@QEAAAEAV?$AutoDelete@VCObserverConfigChangeErrors@@@@PEAVCObserverConfigChangeErrors@@@Z
; public: class <class CServiceConfigCache::CServiceWatcher> &__ptr64 __cdecl <class <class CServiceConfigCache::CServiceWatcher>,class CServiceConfigCache::CServiceWatcher *__ptr64>::operator =(class CServiceConfigCache::CServiceWatcher *__ptr64)__ptr64 
??4?$AutoCleanup@V?$AutoDelete@VCServiceWatcher@CServiceConfigCache@@@@PEAVCServiceWatcher@CServiceConfigCache@@@@QEAAAEAV?$AutoDelete@VCServiceWatcher@CServiceConfigCache@@@@PEAVCServiceWatcher@CServiceConfigCache@@@Z
; public: class <class CWSManResource> &__ptr64 __cdecl <class <class CWSManResource>,class CWSManResource *__ptr64>::operator =(class CWSManResource *__ptr64)__ptr64 
??4?$AutoCleanup@V?$AutoDelete@VCWSManResource@@@@PEAVCWSManResource@@@@QEAAAEAV?$AutoDelete@VCWSManResource@@@@PEAVCWSManResource@@@Z
; public: class <class CertHash> &__ptr64 __cdecl <class <class CertHash>,class CertHash *__ptr64>::operator =(class CertHash *__ptr64)__ptr64 
??4?$AutoCleanup@V?$AutoDelete@VCertHash@@@@PEAVCertHash@@@@QEAAAEAV?$AutoDelete@VCertHash@@@@PEAVCertHash@@@Z
; public: class <class ConfigUpdate> &__ptr64 __cdecl <class <class ConfigUpdate>,class ConfigUpdate *__ptr64>::operator =(class ConfigUpdate *__ptr64)__ptr64 
??4?$AutoCleanup@V?$AutoDelete@VConfigUpdate@@@@PEAVConfigUpdate@@@@QEAAAEAV?$AutoDelete@VConfigUpdate@@@@PEAVConfigUpdate@@@Z
; public: class <class EnumSinkEx> &__ptr64 __cdecl <class <class EnumSinkEx>,class EnumSinkEx *__ptr64>::operator =(class EnumSinkEx *__ptr64)__ptr64 
??4?$AutoCleanup@V?$AutoDelete@VEnumSinkEx@@@@PEAVEnumSinkEx@@@@QEAAAEAV?$AutoDelete@VEnumSinkEx@@@@PEAVEnumSinkEx@@@Z
; public: class <class GPApiManager> &__ptr64 __cdecl <class <class GPApiManager>,class GPApiManager *__ptr64>::operator =(class GPApiManager *__ptr64)__ptr64 
??4?$AutoCleanup@V?$AutoDelete@VGPApiManager@@@@PEAVGPApiManager@@@@QEAAAEAV?$AutoDelete@VGPApiManager@@@@PEAVGPApiManager@@@Z
; public: class <class GeneralSinkEx> &__ptr64 __cdecl <class <class GeneralSinkEx>,class GeneralSinkEx *__ptr64>::operator =(class GeneralSinkEx *__ptr64)__ptr64 
??4?$AutoCleanup@V?$AutoDelete@VGeneralSinkEx@@@@PEAVGeneralSinkEx@@@@QEAAAEAV?$AutoDelete@VGeneralSinkEx@@@@PEAVGeneralSinkEx@@@Z
; public: class <class IChannelObserverFactory> &__ptr64 __cdecl <class <class IChannelObserverFactory>,class IChannelObserverFactory *__ptr64>::operator =(class IChannelObserverFactory *__ptr64)__ptr64 
??4?$AutoCleanup@V?$AutoDelete@VIChannelObserverFactory@@@@PEAVIChannelObserverFactory@@@@QEAAAEAV?$AutoDelete@VIChannelObserverFactory@@@@PEAVIChannelObserverFactory@@@Z
; public: class <class IQueryDASHSMASHInterface> &__ptr64 __cdecl <class <class IQueryDASHSMASHInterface>,class IQueryDASHSMASHInterface *__ptr64>::operator =(class IQueryDASHSMASHInterface *__ptr64)__ptr64 
??4?$AutoCleanup@V?$AutoDelete@VIQueryDASHSMASHInterface@@@@PEAVIQueryDASHSMASHInterface@@@@QEAAAEAV?$AutoDelete@VIQueryDASHSMASHInterface@@@@PEAVIQueryDASHSMASHInterface@@@Z
; public: class <class ISpecification> &__ptr64 __cdecl <class <class ISpecification>,class ISpecification *__ptr64>::operator =(class ISpecification *__ptr64)__ptr64 
??4?$AutoCleanup@V?$AutoDelete@VISpecification@@@@PEAVISpecification@@@@QEAAAEAV?$AutoDelete@VISpecification@@@@PEAVISpecification@@@Z
; public: class <class PacketCreator> &__ptr64 __cdecl <class <class PacketCreator>,class PacketCreator *__ptr64>::operator =(class PacketCreator *__ptr64)__ptr64 
??4?$AutoCleanup@V?$AutoDelete@VPacketCreator@@@@PEAVPacketCreator@@@@QEAAAEAV?$AutoDelete@VPacketCreator@@@@PEAVPacketCreator@@@Z
; public: class <class PacketParser> &__ptr64 __cdecl <class <class PacketParser>,class PacketParser *__ptr64>::operator =(class PacketParser *__ptr64)__ptr64 
??4?$AutoCleanup@V?$AutoDelete@VPacketParser@@@@PEAVPacketParser@@@@QEAAAEAV?$AutoDelete@VPacketParser@@@@PEAVPacketParser@@@Z
; public: class <class RunAsConfiguration> &__ptr64 __cdecl <class <class RunAsConfiguration>,class RunAsConfiguration *__ptr64>::operator =(class RunAsConfiguration *__ptr64)__ptr64 
??4?$AutoCleanup@V?$AutoDelete@VRunAsConfiguration@@@@PEAVRunAsConfiguration@@@@QEAAAEAV?$AutoDelete@VRunAsConfiguration@@@@PEAVRunAsConfiguration@@@Z
; public: class <class Catalog::SecurityEntry> &__ptr64 __cdecl <class <class Catalog::SecurityEntry>,class Catalog::SecurityEntry *__ptr64>::operator =(class Catalog::SecurityEntry *__ptr64)__ptr64 
??4?$AutoCleanup@V?$AutoDelete@VSecurityEntry@Catalog@@@@PEAVSecurityEntry@Catalog@@@@QEAAAEAV?$AutoDelete@VSecurityEntry@Catalog@@@@PEAVSecurityEntry@Catalog@@@Z
; public: class <class ServiceSoapProcessor> &__ptr64 __cdecl <class <class ServiceSoapProcessor>,class ServiceSoapProcessor *__ptr64>::operator =(class ServiceSoapProcessor *__ptr64)__ptr64 
??4?$AutoCleanup@V?$AutoDelete@VServiceSoapProcessor@@@@PEAVServiceSoapProcessor@@@@QEAAAEAV?$AutoDelete@VServiceSoapProcessor@@@@PEAVServiceSoapProcessor@@@Z
; public: class <class SubscriptionEnumerator> &__ptr64 __cdecl <class <class SubscriptionEnumerator>,class SubscriptionEnumerator *__ptr64>::operator =(class SubscriptionEnumerator *__ptr64)__ptr64 
??4?$AutoCleanup@V?$AutoDelete@VSubscriptionEnumerator@@@@PEAVSubscriptionEnumerator@@@@QEAAAEAV?$AutoDelete@VSubscriptionEnumerator@@@@PEAVSubscriptionEnumerator@@@Z
; public: class <class TSTRBUFFER> &__ptr64 __cdecl <class <class TSTRBUFFER>,class TSTRBUFFER *__ptr64>::operator =(class TSTRBUFFER *__ptr64)__ptr64 
??4?$AutoCleanup@V?$AutoDelete@VTSTRBUFFER@@@@PEAVTSTRBUFFER@@@@QEAAAEAV?$AutoDelete@VTSTRBUFFER@@@@PEAVTSTRBUFFER@@@Z
; public: class <class UniqueStringOverflow> &__ptr64 __cdecl <class <class UniqueStringOverflow>,class UniqueStringOverflow *__ptr64>::operator =(class UniqueStringOverflow *__ptr64)__ptr64 
??4?$AutoCleanup@V?$AutoDelete@VUniqueStringOverflow@@@@PEAVUniqueStringOverflow@@@@QEAAAEAV?$AutoDelete@VUniqueStringOverflow@@@@PEAVUniqueStringOverflow@@@Z
; public: class <class WSMANCONFIGTABLE_IDENTITY> &__ptr64 __cdecl <class <class WSMANCONFIGTABLE_IDENTITY>,class WSMANCONFIGTABLE_IDENTITY *__ptr64>::operator =(class WSMANCONFIGTABLE_IDENTITY *__ptr64)__ptr64 
??4?$AutoCleanup@V?$AutoDelete@VWSMANCONFIGTABLE_IDENTITY@@@@PEAVWSMANCONFIGTABLE_IDENTITY@@@@QEAAAEAV?$AutoDelete@VWSMANCONFIGTABLE_IDENTITY@@@@PEAVWSMANCONFIGTABLE_IDENTITY@@@Z
; public: class <class WmiEnumContext> &__ptr64 __cdecl <class <class WmiEnumContext>,class WmiEnumContext *__ptr64>::operator =(class WmiEnumContext *__ptr64)__ptr64 
??4?$AutoCleanup@V?$AutoDelete@VWmiEnumContext@@@@PEAVWmiEnumContext@@@@QEAAAEAV?$AutoDelete@VWmiEnumContext@@@@PEAVWmiEnumContext@@@Z
; public: class <class XmlReader> &__ptr64 __cdecl <class <class XmlReader>,class XmlReader *__ptr64>::operator =(class XmlReader *__ptr64)__ptr64 
??4?$AutoCleanup@V?$AutoDelete@VXmlReader@@@@PEAVXmlReader@@@@QEAAAEAV?$AutoDelete@VXmlReader@@@@PEAVXmlReader@@@Z
; public: class <unsigned short const> &__ptr64 __cdecl <class <unsigned short const>,unsigned short const *__ptr64>::operator =(unsigned short const *__ptr64)__ptr64 
??4?$AutoCleanup@V?$AutoDeleteVector@$$CBG@@PEBG@@QEAAAEAV?$AutoDeleteVector@$$CBG@@PEBG@Z
; public: class <char> &__ptr64 __cdecl <class <char>,char *__ptr64>::operator =(char *__ptr64)__ptr64 
??4?$AutoCleanup@V?$AutoDeleteVector@D@@PEAD@@QEAAAEAV?$AutoDeleteVector@D@@PEAD@Z
; public: class <unsigned char> &__ptr64 __cdecl <class <unsigned char>,unsigned char *__ptr64>::operator =(unsigned char *__ptr64)__ptr64 
??4?$AutoCleanup@V?$AutoDeleteVector@E@@PEAE@@QEAAAEAV?$AutoDeleteVector@E@@PEAE@Z
; public: class <unsigned short> &__ptr64 __cdecl <class <unsigned short>,unsigned short *__ptr64>::operator =(unsigned short *__ptr64)__ptr64 
??4?$AutoCleanup@V?$AutoDeleteVector@G@@PEAG@@QEAAAEAV?$AutoDeleteVector@G@@PEAG@Z
; public: class <unsigned short *__ptr64> &__ptr64 __cdecl <class <unsigned short *__ptr64>,unsigned short *__ptr64 *__ptr64>::operator =(unsigned short *__ptr64 *__ptr64)__ptr64 
??4?$AutoCleanup@V?$AutoDeleteVector@PEAG@@PEAPEAG@@QEAAAEAV?$AutoDeleteVector@PEAG@@PEAPEAG@Z
; public: class <unsigned short const *__ptr64> &__ptr64 __cdecl <class <unsigned short const *__ptr64>,unsigned short const *__ptr64 *__ptr64>::operator =(unsigned short const *__ptr64 *__ptr64)__ptr64 
??4?$AutoCleanup@V?$AutoDeleteVector@PEBG@@PEAPEBG@@QEAAAEAV?$AutoDeleteVector@PEBG@@PEAPEBG@Z
; public: class <struct _CONFIG_UPDATE> &__ptr64 __cdecl <class <struct _CONFIG_UPDATE>,struct _CONFIG_UPDATE *__ptr64>::operator =(struct _CONFIG_UPDATE *__ptr64)__ptr64 
??4?$AutoCleanup@V?$AutoDeleteVector@U_CONFIG_UPDATE@@@@PEAU_CONFIG_UPDATE@@@@QEAAAEAV?$AutoDeleteVector@U_CONFIG_UPDATE@@@@PEAU_CONFIG_UPDATE@@@Z
; public: class <struct _WINRS_CREATE_SHELL_ENVIRONMENT_VARIABLE> &__ptr64 __cdecl <class <struct _WINRS_CREATE_SHELL_ENVIRONMENT_VARIABLE>,struct _WINRS_CREATE_SHELL_ENVIRONMENT_VARIABLE *__ptr64>::operator =(struct _WINRS_CREATE_SHELL_ENVIRONMENT_VARIABLE *__ptr64)__ptr64 
??4?$AutoCleanup@V?$AutoDeleteVector@U_WINRS_CREATE_SHELL_ENVIRONMENT_VARIABLE@@@@PEAU_WINRS_CREATE_SHELL_ENVIRONMENT_VARIABLE@@@@QEAAAEAV?$AutoDeleteVector@U_WINRS_CREATE_SHELL_ENVIRONMENT_VARIABLE@@@@PEAU_WINRS_CREATE_SHELL_ENVIRONMENT_VARIABLE@@@Z
; public: class <struct _WINRS_RUN_COMMAND_ARG> &__ptr64 __cdecl <class <struct _WINRS_RUN_COMMAND_ARG>,struct _WINRS_RUN_COMMAND_ARG *__ptr64>::operator =(struct _WINRS_RUN_COMMAND_ARG *__ptr64)__ptr64 
??4?$AutoCleanup@V?$AutoDeleteVector@U_WINRS_RUN_COMMAND_ARG@@@@PEAU_WINRS_RUN_COMMAND_ARG@@@@QEAAAEAV?$AutoDeleteVector@U_WINRS_RUN_COMMAND_ARG@@@@PEAU_WINRS_RUN_COMMAND_ARG@@@Z
; public: class <struct _WSMAN_OPTION> &__ptr64 __cdecl <class <struct _WSMAN_OPTION>,struct _WSMAN_OPTION *__ptr64>::operator =(struct _WSMAN_OPTION *__ptr64)__ptr64 
??4?$AutoCleanup@V?$AutoDeleteVector@U_WSMAN_OPTION@@@@PEAU_WSMAN_OPTION@@@@QEAAAEAV?$AutoDeleteVector@U_WSMAN_OPTION@@@@PEAU_WSMAN_OPTION@@@Z
; public: class <void> &__ptr64 __cdecl <class <void>,void *__ptr64>::operator =(void *__ptr64)__ptr64 
??4?$AutoCleanup@V?$AutoDeleteVector@X@@PEAX@@QEAAAEAV?$AutoDeleteVector@X@@PEAX@Z
; public: class <unsigned char> &__ptr64 __cdecl <class <unsigned char>,unsigned char *__ptr64>::operator =(unsigned char *__ptr64)__ptr64 
??4?$AutoCleanup@V?$AutoFree@E@@PEAE@@QEAAAEAV?$AutoFree@E@@PEAE@Z
; public: class <class Packet> &__ptr64 __cdecl <class <class Packet>,class Packet *__ptr64>::operator =(class Packet *__ptr64)__ptr64 
??4?$AutoCleanup@V?$AutoLocklessItemRecycle@VPacket@@@@PEAVPacket@@@@QEAAAEAV?$AutoLocklessItemRecycle@VPacket@@@@PEAVPacket@@@Z
; public: class <struct IClientSecurity> &__ptr64 __cdecl <class <struct IClientSecurity>,struct IClientSecurity *__ptr64>::operator =(struct IClientSecurity *__ptr64)__ptr64 
??4?$AutoCleanup@V?$AutoRelease@UIClientSecurity@@@@PEAUIClientSecurity@@@@QEAAAEAV?$AutoRelease@UIClientSecurity@@@@PEAUIClientSecurity@@@Z
; public: class <struct IEnumWbemClassObject> &__ptr64 __cdecl <class <struct IEnumWbemClassObject>,struct IEnumWbemClassObject *__ptr64>::operator =(struct IEnumWbemClassObject *__ptr64)__ptr64 
??4?$AutoCleanup@V?$AutoRelease@UIEnumWbemClassObject@@@@PEAUIEnumWbemClassObject@@@@QEAAAEAV?$AutoRelease@UIEnumWbemClassObject@@@@PEAUIEnumWbemClassObject@@@Z
; public: class <struct IErrorInfo> &__ptr64 __cdecl <class <struct IErrorInfo>,struct IErrorInfo *__ptr64>::operator =(struct IErrorInfo *__ptr64)__ptr64 
??4?$AutoCleanup@V?$AutoRelease@UIErrorInfo@@@@PEAUIErrorInfo@@@@QEAAAEAV?$AutoRelease@UIErrorInfo@@@@PEAUIErrorInfo@@@Z
; public: class <struct IUnknown> &__ptr64 __cdecl <class <struct IUnknown>,struct IUnknown *__ptr64>::operator =(struct IUnknown *__ptr64)__ptr64 
??4?$AutoCleanup@V?$AutoRelease@UIUnknown@@@@PEAUIUnknown@@@@QEAAAEAV?$AutoRelease@UIUnknown@@@@PEAUIUnknown@@@Z
; public: class <struct IWbemClassObject> &__ptr64 __cdecl <class <struct IWbemClassObject>,struct IWbemClassObject *__ptr64>::operator =(struct IWbemClassObject *__ptr64)__ptr64 
??4?$AutoCleanup@V?$AutoRelease@UIWbemClassObject@@@@PEAUIWbemClassObject@@@@QEAAAEAV?$AutoRelease@UIWbemClassObject@@@@PEAUIWbemClassObject@@@Z
; public: class <struct IWbemContext> &__ptr64 __cdecl <class <struct IWbemContext>,struct IWbemContext *__ptr64>::operator =(struct IWbemContext *__ptr64)__ptr64 
??4?$AutoCleanup@V?$AutoRelease@UIWbemContext@@@@PEAUIWbemContext@@@@QEAAAEAV?$AutoRelease@UIWbemContext@@@@PEAUIWbemContext@@@Z
; public: class <struct IWbemLocator> &__ptr64 __cdecl <class <struct IWbemLocator>,struct IWbemLocator *__ptr64>::operator =(struct IWbemLocator *__ptr64)__ptr64 
??4?$AutoCleanup@V?$AutoRelease@UIWbemLocator@@@@PEAUIWbemLocator@@@@QEAAAEAV?$AutoRelease@UIWbemLocator@@@@PEAUIWbemLocator@@@Z
; public: class <struct IWbemObjectTextSrc> &__ptr64 __cdecl <class <struct IWbemObjectTextSrc>,struct IWbemObjectTextSrc *__ptr64>::operator =(struct IWbemObjectTextSrc *__ptr64)__ptr64 
??4?$AutoCleanup@V?$AutoRelease@UIWbemObjectTextSrc@@@@PEAUIWbemObjectTextSrc@@@@QEAAAEAV?$AutoRelease@UIWbemObjectTextSrc@@@@PEAUIWbemObjectTextSrc@@@Z
; public: class <struct IWbemPath> &__ptr64 __cdecl <class <struct IWbemPath>,struct IWbemPath *__ptr64>::operator =(struct IWbemPath *__ptr64)__ptr64 
??4?$AutoCleanup@V?$AutoRelease@UIWbemPath@@@@PEAUIWbemPath@@@@QEAAAEAV?$AutoRelease@UIWbemPath@@@@PEAUIWbemPath@@@Z
; public: class <struct IWbemPathKeyList> &__ptr64 __cdecl <class <struct IWbemPathKeyList>,struct IWbemPathKeyList *__ptr64>::operator =(struct IWbemPathKeyList *__ptr64)__ptr64 
??4?$AutoCleanup@V?$AutoRelease@UIWbemPathKeyList@@@@PEAUIWbemPathKeyList@@@@QEAAAEAV?$AutoRelease@UIWbemPathKeyList@@@@PEAUIWbemPathKeyList@@@Z
; public: class <struct IWbemQualifierSet> &__ptr64 __cdecl <class <struct IWbemQualifierSet>,struct IWbemQualifierSet *__ptr64>::operator =(struct IWbemQualifierSet *__ptr64)__ptr64 
??4?$AutoCleanup@V?$AutoRelease@UIWbemQualifierSet@@@@PEAUIWbemQualifierSet@@@@QEAAAEAV?$AutoRelease@UIWbemQualifierSet@@@@PEAUIWbemQualifierSet@@@Z
; public: class <struct IWbemQuery> &__ptr64 __cdecl <class <struct IWbemQuery>,struct IWbemQuery *__ptr64>::operator =(struct IWbemQuery *__ptr64)__ptr64 
??4?$AutoCleanup@V?$AutoRelease@UIWbemQuery@@@@PEAUIWbemQuery@@@@QEAAAEAV?$AutoRelease@UIWbemQuery@@@@PEAUIWbemQuery@@@Z
; public: class <struct IWbemServices> &__ptr64 __cdecl <class <struct IWbemServices>,struct IWbemServices *__ptr64>::operator =(struct IWbemServices *__ptr64)__ptr64 
??4?$AutoCleanup@V?$AutoRelease@UIWbemServices@@@@PEAUIWbemServices@@@@QEAAAEAV?$AutoRelease@UIWbemServices@@@@PEAUIWbemServices@@@Z
; public: class <class WSMan::Client::Application> &__ptr64 __cdecl <class <class WSMan::Client::Application>,class WSMan::Client::Application *__ptr64>::operator =(class WSMan::Client::Application *__ptr64)__ptr64 
??4?$AutoCleanup@V?$AutoRelease@VApplication@Client@WSMan@@@@PEAVApplication@Client@WSMan@@@@QEAAAEAV?$AutoRelease@VApplication@Client@WSMan@@@@PEAVApplication@Client@WSMan@@@Z
; public: class <class CBaseConfigCache> &__ptr64 __cdecl <class <class CBaseConfigCache>,class CBaseConfigCache *__ptr64>::operator =(class CBaseConfigCache *__ptr64)__ptr64 
??4?$AutoCleanup@V?$AutoRelease@VCBaseConfigCache@@@@PEAVCBaseConfigCache@@@@QEAAAEAV?$AutoRelease@VCBaseConfigCache@@@@PEAVCBaseConfigCache@@@Z
; public: class <class CClientConfigSettings> &__ptr64 __cdecl <class <class CClientConfigSettings>,class CClientConfigSettings *__ptr64>::operator =(class CClientConfigSettings *__ptr64)__ptr64 
??4?$AutoCleanup@V?$AutoRelease@VCClientConfigSettings@@@@PEAVCClientConfigSettings@@@@QEAAAEAV?$AutoRelease@VCClientConfigSettings@@@@PEAVCClientConfigSettings@@@Z
; public: class <class CCommonConfigSettings> &__ptr64 __cdecl <class <class CCommonConfigSettings>,class CCommonConfigSettings *__ptr64>::operator =(class CCommonConfigSettings *__ptr64)__ptr64 
??4?$AutoCleanup@V?$AutoRelease@VCCommonConfigSettings@@@@PEAVCCommonConfigSettings@@@@QEAAAEAV?$AutoRelease@VCCommonConfigSettings@@@@PEAVCCommonConfigSettings@@@Z
; public: class <class CBaseConfigCache::CConfigCacheMap> &__ptr64 __cdecl <class <class CBaseConfigCache::CConfigCacheMap>,class CBaseConfigCache::CConfigCacheMap *__ptr64>::operator =(class CBaseConfigCache::CConfigCacheMap *__ptr64)__ptr64 
??4?$AutoCleanup@V?$AutoRelease@VCConfigCacheMap@CBaseConfigCache@@@@PEAVCConfigCacheMap@CBaseConfigCache@@@@QEAAAEAV?$AutoRelease@VCConfigCacheMap@CBaseConfigCache@@@@PEAVCConfigCacheMap@CBaseConfigCache@@@Z
; public: class <class CConfigManager> &__ptr64 __cdecl <class <class CConfigManager>,class CConfigManager *__ptr64>::operator =(class CConfigManager *__ptr64)__ptr64 
??4?$AutoCleanup@V?$AutoRelease@VCConfigManager@@@@PEAVCConfigManager@@@@QEAAAEAV?$AutoRelease@VCConfigManager@@@@PEAVCConfigManager@@@Z
; public: class <class CRemoteOperation> &__ptr64 __cdecl <class <class CRemoteOperation>,class CRemoteOperation *__ptr64>::operator =(class CRemoteOperation *__ptr64)__ptr64 
??4?$AutoCleanup@V?$AutoRelease@VCRemoteOperation@@@@PEAVCRemoteOperation@@@@QEAAAEAV?$AutoRelease@VCRemoteOperation@@@@PEAVCRemoteOperation@@@Z
; public: class <class CRemoteSession> &__ptr64 __cdecl <class <class CRemoteSession>,class CRemoteSession *__ptr64>::operator =(class CRemoteSession *__ptr64)__ptr64 
??4?$AutoCleanup@V?$AutoRelease@VCRemoteSession@@@@PEAVCRemoteSession@@@@QEAAAEAV?$AutoRelease@VCRemoteSession@@@@PEAVCRemoteSession@@@Z
; public: class <class CRequestContext> &__ptr64 __cdecl <class <class CRequestContext>,class CRequestContext *__ptr64>::operator =(class CRequestContext *__ptr64)__ptr64 
??4?$AutoCleanup@V?$AutoRelease@VCRequestContext@@@@PEAVCRequestContext@@@@QEAAAEAV?$AutoRelease@VCRequestContext@@@@PEAVCRequestContext@@@Z
; public: class <class CServiceCommonConfigSettings> &__ptr64 __cdecl <class <class CServiceCommonConfigSettings>,class CServiceCommonConfigSettings *__ptr64>::operator =(class CServiceCommonConfigSettings *__ptr64)__ptr64 
??4?$AutoCleanup@V?$AutoRelease@VCServiceCommonConfigSettings@@@@PEAVCServiceCommonConfigSettings@@@@QEAAAEAV?$AutoRelease@VCServiceCommonConfigSettings@@@@PEAVCServiceCommonConfigSettings@@@Z
; public: class <class CServiceConfigCache> &__ptr64 __cdecl <class <class CServiceConfigCache>,class CServiceConfigCache *__ptr64>::operator =(class CServiceConfigCache *__ptr64)__ptr64 
??4?$AutoCleanup@V?$AutoRelease@VCServiceConfigCache@@@@PEAVCServiceConfigCache@@@@QEAAAEAV?$AutoRelease@VCServiceConfigCache@@@@PEAVCServiceConfigCache@@@Z
; public: class <class CServiceConfigSettings> &__ptr64 __cdecl <class <class CServiceConfigSettings>,class CServiceConfigSettings *__ptr64>::operator =(class CServiceConfigSettings *__ptr64)__ptr64 
??4?$AutoCleanup@V?$AutoRelease@VCServiceConfigSettings@@@@PEAVCServiceConfigSettings@@@@QEAAAEAV?$AutoRelease@VCServiceConfigSettings@@@@PEAVCServiceConfigSettings@@@Z
; public: class <class CWSManEPR> &__ptr64 __cdecl <class <class CWSManEPR>,class CWSManEPR *__ptr64>::operator =(class CWSManEPR *__ptr64)__ptr64 
??4?$AutoCleanup@V?$AutoRelease@VCWSManEPR@@@@PEAVCWSManEPR@@@@QEAAAEAV?$AutoRelease@VCWSManEPR@@@@PEAVCWSManEPR@@@Z
; public: class <class CWSManGroupPolicyManager> &__ptr64 __cdecl <class <class CWSManGroupPolicyManager>,class CWSManGroupPolicyManager *__ptr64>::operator =(class CWSManGroupPolicyManager *__ptr64)__ptr64 
??4?$AutoCleanup@V?$AutoRelease@VCWSManGroupPolicyManager@@@@PEAVCWSManGroupPolicyManager@@@@QEAAAEAV?$AutoRelease@VCWSManGroupPolicyManager@@@@PEAVCWSManGroupPolicyManager@@@Z
; public: class <class CWSManResource> &__ptr64 __cdecl <class <class CWSManResource>,class CWSManResource *__ptr64>::operator =(class CWSManResource *__ptr64)__ptr64 
??4?$AutoCleanup@V?$AutoRelease@VCWSManResource@@@@PEAVCWSManResource@@@@QEAAAEAV?$AutoRelease@VCWSManResource@@@@PEAVCWSManResource@@@Z
; public: class <class CWinRSPluginConfigCache> &__ptr64 __cdecl <class <class CWinRSPluginConfigCache>,class CWinRSPluginConfigCache *__ptr64>::operator =(class CWinRSPluginConfigCache *__ptr64)__ptr64 
??4?$AutoCleanup@V?$AutoRelease@VCWinRSPluginConfigCache@@@@PEAVCWinRSPluginConfigCache@@@@QEAAAEAV?$AutoRelease@VCWinRSPluginConfigCache@@@@PEAVCWinRSPluginConfigCache@@@Z
; public: class <class CWinRSPluginConfigSettings> &__ptr64 __cdecl <class <class CWinRSPluginConfigSettings>,class CWinRSPluginConfigSettings *__ptr64>::operator =(class CWinRSPluginConfigSettings *__ptr64)__ptr64 
??4?$AutoCleanup@V?$AutoRelease@VCWinRSPluginConfigSettings@@@@PEAVCWinRSPluginConfigSettings@@@@QEAAAEAV?$AutoRelease@VCWinRSPluginConfigSettings@@@@PEAVCWinRSPluginConfigSettings@@@Z
; public: class <class EnumSinkEx> &__ptr64 __cdecl <class <class EnumSinkEx>,class EnumSinkEx *__ptr64>::operator =(class EnumSinkEx *__ptr64)__ptr64 
??4?$AutoCleanup@V?$AutoRelease@VEnumSinkEx@@@@PEAVEnumSinkEx@@@@QEAAAEAV?$AutoRelease@VEnumSinkEx@@@@PEAVEnumSinkEx@@@Z
; public: class <class GeneralSinkEx> &__ptr64 __cdecl <class <class GeneralSinkEx>,class GeneralSinkEx *__ptr64>::operator =(class GeneralSinkEx *__ptr64)__ptr64 
??4?$AutoCleanup@V?$AutoRelease@VGeneralSinkEx@@@@PEAVGeneralSinkEx@@@@QEAAAEAV?$AutoRelease@VGeneralSinkEx@@@@PEAVGeneralSinkEx@@@Z
; public: class <class IRequestContext> &__ptr64 __cdecl <class <class IRequestContext>,class IRequestContext *__ptr64>::operator =(class IRequestContext *__ptr64)__ptr64 
??4?$AutoCleanup@V?$AutoRelease@VIRequestContext@@@@PEAVIRequestContext@@@@QEAAAEAV?$AutoRelease@VIRequestContext@@@@PEAVIRequestContext@@@Z
; public: class <class ISubscription> &__ptr64 __cdecl <class <class ISubscription>,class ISubscription *__ptr64>::operator =(class ISubscription *__ptr64)__ptr64 
??4?$AutoCleanup@V?$AutoRelease@VISubscription@@@@PEAVISubscription@@@@QEAAAEAV?$AutoRelease@VISubscription@@@@PEAVISubscription@@@Z
; public: class <class InboundRequestDetails> &__ptr64 __cdecl <class <class InboundRequestDetails>,class InboundRequestDetails *__ptr64>::operator =(class InboundRequestDetails *__ptr64)__ptr64 
??4?$AutoCleanup@V?$AutoRelease@VInboundRequestDetails@@@@PEAVInboundRequestDetails@@@@QEAAAEAV?$AutoRelease@VInboundRequestDetails@@@@PEAVInboundRequestDetails@@@Z
; public: class <class UserRecord> &__ptr64 __cdecl <class <class UserRecord>,class UserRecord *__ptr64>::operator =(class UserRecord *__ptr64)__ptr64 
??4?$AutoCleanup@V?$AutoRelease@VUserRecord@@@@PEAVUserRecord@@@@QEAAAEAV?$AutoRelease@VUserRecord@@@@PEAVUserRecord@@@Z
; public: class <class WSManHttpListener> &__ptr64 __cdecl <class <class WSManHttpListener>,class WSManHttpListener *__ptr64>::operator =(class WSManHttpListener *__ptr64)__ptr64 
??4?$AutoCleanup@V?$AutoRelease@VWSManHttpListener@@@@PEAVWSManHttpListener@@@@QEAAAEAV?$AutoRelease@VWSManHttpListener@@@@PEAVWSManHttpListener@@@Z
; public: class <class WSMan::Client::Shell> &__ptr64 __cdecl <class <class WSMan::Client::Shell>,class WSMan::Client::Shell *__ptr64>::operator =(class WSMan::Client::Shell *__ptr64)__ptr64 
??4?$AutoCleanup@V?$AutoReleaseEx@VShell@Client@WSMan@@@@PEAVShell@Client@WSMan@@@@QEAAAEAV?$AutoReleaseEx@VShell@Client@WSMan@@@@PEAVShell@Client@WSMan@@@Z
; public: class AutoBstr &__ptr64 __cdecl <class AutoBstr,unsigned short *__ptr64>::operator =(unsigned short *__ptr64)__ptr64 
??4?$AutoCleanup@VAutoBstr@@PEAG@@QEAAAEAVAutoBstr@@PEAG@Z
; public: class AutoBstrNoAlloc &__ptr64 __cdecl <class AutoBstrNoAlloc,unsigned short *__ptr64>::operator =(unsigned short *__ptr64)__ptr64 
??4?$AutoCleanup@VAutoBstrNoAlloc@@PEAG@@QEAAAEAVAutoBstrNoAlloc@@PEAG@Z
; public: class AutoCertContext &__ptr64 __cdecl <class AutoCertContext,struct _CERT_CONTEXT const *__ptr64>::operator =(struct _CERT_CONTEXT const *__ptr64)__ptr64 
??4?$AutoCleanup@VAutoCertContext@@PEBU_CERT_CONTEXT@@@@QEAAAEAVAutoCertContext@@PEBU_CERT_CONTEXT@@@Z
; public: class AutoChainContext &__ptr64 __cdecl <class AutoChainContext,struct _CERT_CHAIN_CONTEXT const *__ptr64>::operator =(struct _CERT_CHAIN_CONTEXT const *__ptr64)__ptr64 
??4?$AutoCleanup@VAutoChainContext@@PEBU_CERT_CHAIN_CONTEXT@@@@QEAAAEAVAutoChainContext@@PEBU_CERT_CHAIN_CONTEXT@@@Z
; public: class AutoCoTaskMemFree &__ptr64 __cdecl <class AutoCoTaskMemFree,void *__ptr64>::operator =(void *__ptr64)__ptr64 
??4?$AutoCleanup@VAutoCoTaskMemFree@@PEAX@@QEAAAEAVAutoCoTaskMemFree@@PEAX@Z
; public: class AutoEnvironmentBlock &__ptr64 __cdecl <class AutoEnvironmentBlock,void *__ptr64>::operator =(void *__ptr64)__ptr64 
??4?$AutoCleanup@VAutoEnvironmentBlock@@PEAX@@QEAAAEAVAutoEnvironmentBlock@@PEAX@Z
; public: class AutoFwXmlCloseParser &__ptr64 __cdecl <class AutoFwXmlCloseParser,void *__ptr64>::operator =(void *__ptr64)__ptr64 
??4?$AutoCleanup@VAutoFwXmlCloseParser@@PEAX@@QEAAAEAVAutoFwXmlCloseParser@@PEAX@Z
; public: class AutoHandle &__ptr64 __cdecl <class AutoHandle,void *__ptr64>::operator =(void *__ptr64)__ptr64 
??4?$AutoCleanup@VAutoHandle@@PEAX@@QEAAAEAVAutoHandle@@PEAX@Z
; public: class AutoImpersonateUser &__ptr64 __cdecl <class AutoImpersonateUser,void *__ptr64>::operator =(void *__ptr64)__ptr64 
??4?$AutoCleanup@VAutoImpersonateUser@@PEAX@@QEAAAEAVAutoImpersonateUser@@PEAX@Z
; public: class AutoLibrary &__ptr64 __cdecl <class AutoLibrary,struct HINSTANCE__ *__ptr64>::operator =(struct HINSTANCE__ *__ptr64)__ptr64 
??4?$AutoCleanup@VAutoLibrary@@PEAUHINSTANCE__@@@@QEAAAEAVAutoLibrary@@PEAUHINSTANCE__@@@Z
; public: class AutoLocalFree &__ptr64 __cdecl <class AutoLocalFree,void *__ptr64>::operator =(void *__ptr64)__ptr64 
??4?$AutoCleanup@VAutoLocalFree@@PEAX@@QEAAAEAVAutoLocalFree@@PEAX@Z
; public: class AutoMIClass &__ptr64 __cdecl <class AutoMIClass,struct _MI_Class *__ptr64>::operator =(struct _MI_Class *__ptr64)__ptr64 
??4?$AutoCleanup@VAutoMIClass@@PEAU_MI_Class@@@@QEAAAEAVAutoMIClass@@PEAU_MI_Class@@@Z
; public: class AutoMIInstance &__ptr64 __cdecl <class AutoMIInstance,struct _MI_Instance *__ptr64>::operator =(struct _MI_Instance *__ptr64)__ptr64 
??4?$AutoCleanup@VAutoMIInstance@@PEAU_MI_Instance@@@@QEAAAEAVAutoMIInstance@@PEAU_MI_Instance@@@Z
; public: class AutoObject &__ptr64 __cdecl <class AutoObject,struct WSMAN_OBJECT *__ptr64>::operator =(struct WSMAN_OBJECT *__ptr64)__ptr64 
??4?$AutoCleanup@VAutoObject@@PEAUWSMAN_OBJECT@@@@QEAAAEAVAutoObject@@PEAUWSMAN_OBJECT@@@Z
; public: class AutoRegKey &__ptr64 __cdecl <class AutoRegKey,struct HKEY__ *__ptr64>::operator =(struct HKEY__ *__ptr64)__ptr64 
??4?$AutoCleanup@VAutoRegKey@@PEAUHKEY__@@@@QEAAAEAVAutoRegKey@@PEAUHKEY__@@@Z
; public: class AutoSecurityDescriptor &__ptr64 __cdecl <class AutoSecurityDescriptor,void *__ptr64>::operator =(void *__ptr64)__ptr64 
??4?$AutoCleanup@VAutoSecurityDescriptor@@PEAX@@QEAAAEAVAutoSecurityDescriptor@@PEAX@Z
; public: class AutoWaitHandle &__ptr64 __cdecl <class AutoWaitHandle,void *__ptr64>::operator =(void *__ptr64)__ptr64 
??4?$AutoCleanup@VAutoWaitHandle@@PEAX@@QEAAAEAVAutoWaitHandle@@PEAX@Z
; public: class <char> &__ptr64 __cdecl <char>::operator =(char *__ptr64)__ptr64 
??4?$AutoDelete@D@@QEAAAEAV0@PEAD@Z
; public: class <unsigned short> &__ptr64 __cdecl <unsigned short>::operator =(unsigned short *__ptr64)__ptr64 
??4?$AutoDelete@G@@QEAAAEAV0@PEAG@Z
; public: class <class <class StringKeyCI,unsigned long>> &__ptr64 __cdecl <class <class StringKeyCI,unsigned long>>::operator =(class <class StringKeyCI,unsigned long> *__ptr64)__ptr64 
??4?$AutoDelete@V?$SafeMap_Iterator@VStringKeyCI@@K@@@@QEAAAEAV0@PEAV?$SafeMap_Iterator@VStringKeyCI@@K@@@Z
; public: class <class <enum WSManSessionOption,class WSMan::Client::SessionOptions::OptionValue *__ptr64>> &__ptr64 __cdecl <class <enum WSManSessionOption,class WSMan::Client::SessionOptions::OptionValue *__ptr64>>::operator =(class <enum WSManSessionOption,class WSMan::Client::SessionOptions::OptionValue *__ptr64> *__ptr64)__ptr64 
??4?$AutoDelete@V?$SafeMap_Iterator@W4WSManSessionOption@@PEAVOptionValue@SessionOptions@Client@WSMan@@@@@@QEAAAEAV0@PEAV?$SafeMap_Iterator@W4WSManSessionOption@@PEAVOptionValue@SessionOptions@Client@WSMan@@@@@Z
; public: class <class <class CCertMapping *__ptr64>> &__ptr64 __cdecl <class <class CCertMapping *__ptr64>>::operator =(class <class CCertMapping *__ptr64> *__ptr64)__ptr64 
??4?$AutoDelete@V?$SafeSet@PEAVCCertMapping@@@@@@QEAAAEAV0@PEAV?$SafeSet@PEAVCCertMapping@@@@@Z
; public: class <class <class CShellUriSettings *__ptr64>> &__ptr64 __cdecl <class <class CShellUriSettings *__ptr64>>::operator =(class <class CShellUriSettings *__ptr64> *__ptr64)__ptr64 
??4?$AutoDelete@V?$SafeSet@PEAVCShellUriSettings@@@@@@QEAAAEAV0@PEAV?$SafeSet@PEAVCShellUriSettings@@@@@Z
; public: class <class <class CListenerOperation *__ptr64>> &__ptr64 __cdecl <class <class CListenerOperation *__ptr64>>::operator =(class <class CListenerOperation *__ptr64> *__ptr64)__ptr64 
??4?$AutoDelete@V?$SafeSet_Iterator@PEAVCListenerOperation@@@@@@QEAAAEAV0@PEAV?$SafeSet_Iterator@PEAVCListenerOperation@@@@@Z
; public: class <class std::<class CListenerSettings *__ptr64,class CServiceConfigSettings::CListenerSettingsLessFunctor,class <class CListenerSettings *__ptr64>>> &__ptr64 __cdecl <class std::<class CListenerSettings *__ptr64,class CServiceConfigSettings::CListenerSettingsLessFunctor,class <class CListenerSettings *__ptr64>>>::operator =(class std::<class CListenerSettings *__ptr64,class CServiceConfigSettings::CListenerSettingsLessFunctor,class <class CListenerSettings *__ptr64>> *__ptr64)__ptr64 
??4?$AutoDelete@V?$set@PEAVCListenerSettings@@VCListenerSettingsLessFunctor@CServiceConfigSettings@@V?$transport_allocator@PEAVCListenerSettings@@@@@std@@@@QEAAAEAV0@PEAV?$set@PEAVCListenerSettings@@VCListenerSettingsLessFunctor@CServiceConfigSettings@@V?$transport_allocator@PEAVCListenerSettings@@@@@std@@@Z
; public: class <class std::<struct sockaddr_storage,class CListenerSettings::SockAddrLessFunctor,class <struct sockaddr_storage>>> &__ptr64 __cdecl <class std::<struct sockaddr_storage,class CListenerSettings::SockAddrLessFunctor,class <struct sockaddr_storage>>>::operator =(class std::<struct sockaddr_storage,class CListenerSettings::SockAddrLessFunctor,class <struct sockaddr_storage>> *__ptr64)__ptr64 
??4?$AutoDelete@V?$set@Usockaddr_storage@@VSockAddrLessFunctor@CListenerSettings@@V?$transport_allocator@Usockaddr_storage@@@@@std@@@@QEAAAEAV0@PEAV?$set@Usockaddr_storage@@VSockAddrLessFunctor@CListenerSettings@@V?$transport_allocator@Usockaddr_storage@@@@@std@@@Z
; public: class <class std::<class WSMan::Client::HandleImpl *__ptr64,class <class WSMan::Client::HandleImpl *__ptr64>>> &__ptr64 __cdecl <class std::<class WSMan::Client::HandleImpl *__ptr64,class <class WSMan::Client::HandleImpl *__ptr64>>>::operator =(class std::<class WSMan::Client::HandleImpl *__ptr64,class <class WSMan::Client::HandleImpl *__ptr64>> *__ptr64)__ptr64 
??4?$AutoDelete@V?$vector@PEAVHandleImpl@Client@WSMan@@V?$transport_allocator@PEAVHandleImpl@Client@WSMan@@@@@std@@@@QEAAAEAV0@PEAV?$vector@PEAVHandleImpl@Client@WSMan@@V?$transport_allocator@PEAVHandleImpl@Client@WSMan@@@@@std@@@Z
; public: class <class std::<class IServiceConfigObserver *__ptr64,class <class IServiceConfigObserver *__ptr64>>> &__ptr64 __cdecl <class std::<class IServiceConfigObserver *__ptr64,class <class IServiceConfigObserver *__ptr64>>>::operator =(class std::<class IServiceConfigObserver *__ptr64,class <class IServiceConfigObserver *__ptr64>> *__ptr64)__ptr64 
??4?$AutoDelete@V?$vector@PEAVIServiceConfigObserver@@V?$transport_allocator@PEAVIServiceConfigObserver@@@@@std@@@@QEAAAEAV0@PEAV?$vector@PEAVIServiceConfigObserver@@V?$transport_allocator@PEAVIServiceConfigObserver@@@@@std@@@Z
; public: class <class BlockedRecord> &__ptr64 __cdecl <class BlockedRecord>::operator =(class BlockedRecord *__ptr64)__ptr64 
??4?$AutoDelete@VBlockedRecord@@@@QEAAAEAV0@PEAVBlockedRecord@@@Z
; public: class <class CConfigChangeSource> &__ptr64 __cdecl <class CConfigChangeSource>::operator =(class CConfigChangeSource *__ptr64)__ptr64 
??4?$AutoDelete@VCConfigChangeSource@@@@QEAAAEAV0@PEAVCConfigChangeSource@@@Z
; public: class <class CObserverConfigChangeErrors> &__ptr64 __cdecl <class CObserverConfigChangeErrors>::operator =(class CObserverConfigChangeErrors *__ptr64)__ptr64 
??4?$AutoDelete@VCObserverConfigChangeErrors@@@@QEAAAEAV0@PEAVCObserverConfigChangeErrors@@@Z
; public: class <class CServiceConfigCache::CServiceWatcher> &__ptr64 __cdecl <class CServiceConfigCache::CServiceWatcher>::operator =(class CServiceConfigCache::CServiceWatcher *__ptr64)__ptr64 
??4?$AutoDelete@VCServiceWatcher@CServiceConfigCache@@@@QEAAAEAV0@PEAVCServiceWatcher@CServiceConfigCache@@@Z
; public: class <class CWSManResource> &__ptr64 __cdecl <class CWSManResource>::operator =(class CWSManResource *__ptr64)__ptr64 
??4?$AutoDelete@VCWSManResource@@@@QEAAAEAV0@PEAVCWSManResource@@@Z
; public: class <class CertHash> &__ptr64 __cdecl <class CertHash>::operator =(class CertHash *__ptr64)__ptr64 
??4?$AutoDelete@VCertHash@@@@QEAAAEAV0@PEAVCertHash@@@Z
; public: class <class ConfigUpdate> &__ptr64 __cdecl <class ConfigUpdate>::operator =(class ConfigUpdate *__ptr64)__ptr64 
??4?$AutoDelete@VConfigUpdate@@@@QEAAAEAV0@PEAVConfigUpdate@@@Z
; public: class <class EnumSinkEx> &__ptr64 __cdecl <class EnumSinkEx>::operator =(class EnumSinkEx *__ptr64)__ptr64 
??4?$AutoDelete@VEnumSinkEx@@@@QEAAAEAV0@PEAVEnumSinkEx@@@Z
; public: class <class GPApiManager> &__ptr64 __cdecl <class GPApiManager>::operator =(class GPApiManager *__ptr64)__ptr64 
??4?$AutoDelete@VGPApiManager@@@@QEAAAEAV0@PEAVGPApiManager@@@Z
; public: class <class GeneralSinkEx> &__ptr64 __cdecl <class GeneralSinkEx>::operator =(class GeneralSinkEx *__ptr64)__ptr64 
??4?$AutoDelete@VGeneralSinkEx@@@@QEAAAEAV0@PEAVGeneralSinkEx@@@Z
; public: class <class IChannelObserverFactory> &__ptr64 __cdecl <class IChannelObserverFactory>::operator =(class IChannelObserverFactory *__ptr64)__ptr64 
??4?$AutoDelete@VIChannelObserverFactory@@@@QEAAAEAV0@PEAVIChannelObserverFactory@@@Z
; public: class <class IQueryDASHSMASHInterface> &__ptr64 __cdecl <class IQueryDASHSMASHInterface>::operator =(class IQueryDASHSMASHInterface *__ptr64)__ptr64 
??4?$AutoDelete@VIQueryDASHSMASHInterface@@@@QEAAAEAV0@PEAVIQueryDASHSMASHInterface@@@Z
; public: class <class ISpecification> &__ptr64 __cdecl <class ISpecification>::operator =(class ISpecification *__ptr64)__ptr64 
??4?$AutoDelete@VISpecification@@@@QEAAAEAV0@PEAVISpecification@@@Z
; public: class <class PacketCreator> &__ptr64 __cdecl <class PacketCreator>::operator =(class PacketCreator *__ptr64)__ptr64 
??4?$AutoDelete@VPacketCreator@@@@QEAAAEAV0@PEAVPacketCreator@@@Z
; public: class <class PacketParser> &__ptr64 __cdecl <class PacketParser>::operator =(class PacketParser *__ptr64)__ptr64 
??4?$AutoDelete@VPacketParser@@@@QEAAAEAV0@PEAVPacketParser@@@Z
; public: class <class RunAsConfiguration> &__ptr64 __cdecl <class RunAsConfiguration>::operator =(class RunAsConfiguration *__ptr64)__ptr64 
??4?$AutoDelete@VRunAsConfiguration@@@@QEAAAEAV0@PEAVRunAsConfiguration@@@Z
; public: class <class Catalog::SecurityEntry> &__ptr64 __cdecl <class Catalog::SecurityEntry>::operator =(class Catalog::SecurityEntry *__ptr64)__ptr64 
??4?$AutoDelete@VSecurityEntry@Catalog@@@@QEAAAEAV0@PEAVSecurityEntry@Catalog@@@Z
; public: class <class ServiceSoapProcessor> &__ptr64 __cdecl <class ServiceSoapProcessor>::operator =(class ServiceSoapProcessor *__ptr64)__ptr64 
??4?$AutoDelete@VServiceSoapProcessor@@@@QEAAAEAV0@PEAVServiceSoapProcessor@@@Z
; public: class <class SubscriptionEnumerator> &__ptr64 __cdecl <class SubscriptionEnumerator>::operator =(class SubscriptionEnumerator *__ptr64)__ptr64 
??4?$AutoDelete@VSubscriptionEnumerator@@@@QEAAAEAV0@PEAVSubscriptionEnumerator@@@Z
; public: class <class TSTRBUFFER> &__ptr64 __cdecl <class TSTRBUFFER>::operator =(class TSTRBUFFER *__ptr64)__ptr64 
??4?$AutoDelete@VTSTRBUFFER@@@@QEAAAEAV0@PEAVTSTRBUFFER@@@Z
; public: class <class UniqueStringOverflow> &__ptr64 __cdecl <class UniqueStringOverflow>::operator =(class UniqueStringOverflow *__ptr64)__ptr64 
??4?$AutoDelete@VUniqueStringOverflow@@@@QEAAAEAV0@PEAVUniqueStringOverflow@@@Z
; public: class <class WSMANCONFIGTABLE_IDENTITY> &__ptr64 __cdecl <class WSMANCONFIGTABLE_IDENTITY>::operator =(class WSMANCONFIGTABLE_IDENTITY *__ptr64)__ptr64 
??4?$AutoDelete@VWSMANCONFIGTABLE_IDENTITY@@@@QEAAAEAV0@PEAVWSMANCONFIGTABLE_IDENTITY@@@Z
; public: class <class WmiEnumContext> &__ptr64 __cdecl <class WmiEnumContext>::operator =(class WmiEnumContext *__ptr64)__ptr64 
??4?$AutoDelete@VWmiEnumContext@@@@QEAAAEAV0@PEAVWmiEnumContext@@@Z
; public: class <class XmlReader> &__ptr64 __cdecl <class XmlReader>::operator =(class XmlReader *__ptr64)__ptr64 
??4?$AutoDelete@VXmlReader@@@@QEAAAEAV0@PEAVXmlReader@@@Z
; public: class <unsigned short const> &__ptr64 __cdecl <unsigned short const>::operator =(unsigned short const *__ptr64)__ptr64 
??4?$AutoDeleteVector@$$CBG@@QEAAAEAV0@PEBG@Z
; public: class <char> &__ptr64 __cdecl <char>::operator =(char *__ptr64)__ptr64 
??4?$AutoDeleteVector@D@@QEAAAEAV0@PEAD@Z
; public: class <unsigned char> &__ptr64 __cdecl <unsigned char>::operator =(unsigned char *__ptr64)__ptr64 
??4?$AutoDeleteVector@E@@QEAAAEAV0@PEAE@Z
; public: class <unsigned short> &__ptr64 __cdecl <unsigned short>::operator =(unsigned short *__ptr64)__ptr64 
??4?$AutoDeleteVector@G@@QEAAAEAV0@PEAG@Z
; public: class <unsigned short *__ptr64> &__ptr64 __cdecl <unsigned short *__ptr64>::operator =(unsigned short *__ptr64 *__ptr64)__ptr64 
??4?$AutoDeleteVector@PEAG@@QEAAAEAV0@PEAPEAG@Z
; public: class <unsigned short const *__ptr64> &__ptr64 __cdecl <unsigned short const *__ptr64>::operator =(unsigned short const *__ptr64 *__ptr64)__ptr64 
??4?$AutoDeleteVector@PEBG@@QEAAAEAV0@PEAPEBG@Z
; public: class <struct _CONFIG_UPDATE> &__ptr64 __cdecl <struct _CONFIG_UPDATE>::operator =(struct _CONFIG_UPDATE *__ptr64)__ptr64 
??4?$AutoDeleteVector@U_CONFIG_UPDATE@@@@QEAAAEAV0@PEAU_CONFIG_UPDATE@@@Z
; public: class <struct _WINRS_CREATE_SHELL_ENVIRONMENT_VARIABLE> &__ptr64 __cdecl <struct _WINRS_CREATE_SHELL_ENVIRONMENT_VARIABLE>::operator =(struct _WINRS_CREATE_SHELL_ENVIRONMENT_VARIABLE *__ptr64)__ptr64 
??4?$AutoDeleteVector@U_WINRS_CREATE_SHELL_ENVIRONMENT_VARIABLE@@@@QEAAAEAV0@PEAU_WINRS_CREATE_SHELL_ENVIRONMENT_VARIABLE@@@Z
; public: class <struct _WINRS_RUN_COMMAND_ARG> &__ptr64 __cdecl <struct _WINRS_RUN_COMMAND_ARG>::operator =(struct _WINRS_RUN_COMMAND_ARG *__ptr64)__ptr64 
??4?$AutoDeleteVector@U_WINRS_RUN_COMMAND_ARG@@@@QEAAAEAV0@PEAU_WINRS_RUN_COMMAND_ARG@@@Z
; public: class <struct _WSMAN_OPTION> &__ptr64 __cdecl <struct _WSMAN_OPTION>::operator =(struct _WSMAN_OPTION *__ptr64)__ptr64 
??4?$AutoDeleteVector@U_WSMAN_OPTION@@@@QEAAAEAV0@PEAU_WSMAN_OPTION@@@Z
; public: class <void> &__ptr64 __cdecl <void>::operator =(void *__ptr64)__ptr64 
??4?$AutoDeleteVector@X@@QEAAAEAV0@PEAX@Z
; public: class <unsigned char> &__ptr64 __cdecl <unsigned char>::operator =(unsigned char *__ptr64)__ptr64 
??4?$AutoFree@E@@QEAAAEAV0@PEAE@Z
; public: class <class Packet> &__ptr64 __cdecl <class Packet>::operator =(class Packet *__ptr64)__ptr64 
??4?$AutoLocklessItemRecycle@VPacket@@@@QEAAAEAV0@PEAVPacket@@@Z
; public: class <struct IClientSecurity> &__ptr64 __cdecl <struct IClientSecurity>::operator =(struct IClientSecurity *__ptr64)__ptr64 
??4?$AutoRelease@UIClientSecurity@@@@QEAAAEAV0@PEAUIClientSecurity@@@Z
; public: class <struct IEnumWbemClassObject> &__ptr64 __cdecl <struct IEnumWbemClassObject>::operator =(struct IEnumWbemClassObject *__ptr64)__ptr64 
??4?$AutoRelease@UIEnumWbemClassObject@@@@QEAAAEAV0@PEAUIEnumWbemClassObject@@@Z
; public: class <struct IErrorInfo> &__ptr64 __cdecl <struct IErrorInfo>::operator =(struct IErrorInfo *__ptr64)__ptr64 
??4?$AutoRelease@UIErrorInfo@@@@QEAAAEAV0@PEAUIErrorInfo@@@Z
; public: class <struct IUnknown> &__ptr64 __cdecl <struct IUnknown>::operator =(struct IUnknown *__ptr64)__ptr64 
??4?$AutoRelease@UIUnknown@@@@QEAAAEAV0@PEAUIUnknown@@@Z
; public: class <struct IWbemClassObject> &__ptr64 __cdecl <struct IWbemClassObject>::operator =(struct IWbemClassObject *__ptr64)__ptr64 
??4?$AutoRelease@UIWbemClassObject@@@@QEAAAEAV0@PEAUIWbemClassObject@@@Z
; public: class <struct IWbemContext> &__ptr64 __cdecl <struct IWbemContext>::operator =(struct IWbemContext *__ptr64)__ptr64 
??4?$AutoRelease@UIWbemContext@@@@QEAAAEAV0@PEAUIWbemContext@@@Z
; public: class <struct IWbemLocator> &__ptr64 __cdecl <struct IWbemLocator>::operator =(struct IWbemLocator *__ptr64)__ptr64 
??4?$AutoRelease@UIWbemLocator@@@@QEAAAEAV0@PEAUIWbemLocator@@@Z
; public: class <struct IWbemObjectTextSrc> &__ptr64 __cdecl <struct IWbemObjectTextSrc>::operator =(struct IWbemObjectTextSrc *__ptr64)__ptr64 
??4?$AutoRelease@UIWbemObjectTextSrc@@@@QEAAAEAV0@PEAUIWbemObjectTextSrc@@@Z
; public: class <struct IWbemPath> &__ptr64 __cdecl <struct IWbemPath>::operator =(struct IWbemPath *__ptr64)__ptr64 
??4?$AutoRelease@UIWbemPath@@@@QEAAAEAV0@PEAUIWbemPath@@@Z
; public: class <struct IWbemPathKeyList> &__ptr64 __cdecl <struct IWbemPathKeyList>::operator =(struct IWbemPathKeyList *__ptr64)__ptr64 
??4?$AutoRelease@UIWbemPathKeyList@@@@QEAAAEAV0@PEAUIWbemPathKeyList@@@Z
; public: class <struct IWbemQualifierSet> &__ptr64 __cdecl <struct IWbemQualifierSet>::operator =(struct IWbemQualifierSet *__ptr64)__ptr64 
??4?$AutoRelease@UIWbemQualifierSet@@@@QEAAAEAV0@PEAUIWbemQualifierSet@@@Z
; public: class <struct IWbemQuery> &__ptr64 __cdecl <struct IWbemQuery>::operator =(struct IWbemQuery *__ptr64)__ptr64 
??4?$AutoRelease@UIWbemQuery@@@@QEAAAEAV0@PEAUIWbemQuery@@@Z
; public: class <struct IWbemServices> &__ptr64 __cdecl <struct IWbemServices>::operator =(struct IWbemServices *__ptr64)__ptr64 
??4?$AutoRelease@UIWbemServices@@@@QEAAAEAV0@PEAUIWbemServices@@@Z
; public: class <class WSMan::Client::Application> &__ptr64 __cdecl <class WSMan::Client::Application>::operator =(class WSMan::Client::Application *__ptr64)__ptr64 
??4?$AutoRelease@VApplication@Client@WSMan@@@@QEAAAEAV0@PEAVApplication@Client@WSMan@@@Z
; public: class <class CBaseConfigCache> &__ptr64 __cdecl <class CBaseConfigCache>::operator =(class CBaseConfigCache *__ptr64)__ptr64 
??4?$AutoRelease@VCBaseConfigCache@@@@QEAAAEAV0@PEAVCBaseConfigCache@@@Z
; public: class <class CClientConfigSettings> &__ptr64 __cdecl <class CClientConfigSettings>::operator =(class CClientConfigSettings *__ptr64)__ptr64 
??4?$AutoRelease@VCClientConfigSettings@@@@QEAAAEAV0@PEAVCClientConfigSettings@@@Z
; public: class <class CCommonConfigSettings> &__ptr64 __cdecl <class CCommonConfigSettings>::operator =(class CCommonConfigSettings *__ptr64)__ptr64 
??4?$AutoRelease@VCCommonConfigSettings@@@@QEAAAEAV0@PEAVCCommonConfigSettings@@@Z
; public: class <class CBaseConfigCache::CConfigCacheMap> &__ptr64 __cdecl <class CBaseConfigCache::CConfigCacheMap>::operator =(class CBaseConfigCache::CConfigCacheMap *__ptr64)__ptr64 
??4?$AutoRelease@VCConfigCacheMap@CBaseConfigCache@@@@QEAAAEAV0@PEAVCConfigCacheMap@CBaseConfigCache@@@Z
; public: class <class CConfigManager> &__ptr64 __cdecl <class CConfigManager>::operator =(class CConfigManager *__ptr64)__ptr64 
??4?$AutoRelease@VCConfigManager@@@@QEAAAEAV0@PEAVCConfigManager@@@Z
; public: class <class CRemoteOperation> &__ptr64 __cdecl <class CRemoteOperation>::operator =(class CRemoteOperation *__ptr64)__ptr64 
??4?$AutoRelease@VCRemoteOperation@@@@QEAAAEAV0@PEAVCRemoteOperation@@@Z
; public: class <class CRemoteSession> &__ptr64 __cdecl <class CRemoteSession>::operator =(class CRemoteSession *__ptr64)__ptr64 
??4?$AutoRelease@VCRemoteSession@@@@QEAAAEAV0@PEAVCRemoteSession@@@Z
; public: class <class CRequestContext> &__ptr64 __cdecl <class CRequestContext>::operator =(class CRequestContext *__ptr64)__ptr64 
??4?$AutoRelease@VCRequestContext@@@@QEAAAEAV0@PEAVCRequestContext@@@Z
; public: class <class CServiceCommonConfigSettings> &__ptr64 __cdecl <class CServiceCommonConfigSettings>::operator =(class CServiceCommonConfigSettings *__ptr64)__ptr64 
??4?$AutoRelease@VCServiceCommonConfigSettings@@@@QEAAAEAV0@PEAVCServiceCommonConfigSettings@@@Z
; public: class <class CServiceConfigCache> &__ptr64 __cdecl <class CServiceConfigCache>::operator =(class CServiceConfigCache *__ptr64)__ptr64 
??4?$AutoRelease@VCServiceConfigCache@@@@QEAAAEAV0@PEAVCServiceConfigCache@@@Z
; public: class <class CServiceConfigSettings> &__ptr64 __cdecl <class CServiceConfigSettings>::operator =(class CServiceConfigSettings *__ptr64)__ptr64 
??4?$AutoRelease@VCServiceConfigSettings@@@@QEAAAEAV0@PEAVCServiceConfigSettings@@@Z
; public: class <class CWSManEPR> &__ptr64 __cdecl <class CWSManEPR>::operator =(class CWSManEPR *__ptr64)__ptr64 
??4?$AutoRelease@VCWSManEPR@@@@QEAAAEAV0@PEAVCWSManEPR@@@Z
; public: class <class CWSManGroupPolicyManager> &__ptr64 __cdecl <class CWSManGroupPolicyManager>::operator =(class CWSManGroupPolicyManager *__ptr64)__ptr64 
??4?$AutoRelease@VCWSManGroupPolicyManager@@@@QEAAAEAV0@PEAVCWSManGroupPolicyManager@@@Z
; public: class <class CWSManResource> &__ptr64 __cdecl <class CWSManResource>::operator =(class CWSManResource *__ptr64)__ptr64 
??4?$AutoRelease@VCWSManResource@@@@QEAAAEAV0@PEAVCWSManResource@@@Z
; public: class <class CWinRSPluginConfigCache> &__ptr64 __cdecl <class CWinRSPluginConfigCache>::operator =(class CWinRSPluginConfigCache *__ptr64)__ptr64 
??4?$AutoRelease@VCWinRSPluginConfigCache@@@@QEAAAEAV0@PEAVCWinRSPluginConfigCache@@@Z
; public: class <class CWinRSPluginConfigSettings> &__ptr64 __cdecl <class CWinRSPluginConfigSettings>::operator =(class CWinRSPluginConfigSettings *__ptr64)__ptr64 
??4?$AutoRelease@VCWinRSPluginConfigSettings@@@@QEAAAEAV0@PEAVCWinRSPluginConfigSettings@@@Z
; public: class <class EnumSinkEx> &__ptr64 __cdecl <class EnumSinkEx>::operator =(class EnumSinkEx *__ptr64)__ptr64 
??4?$AutoRelease@VEnumSinkEx@@@@QEAAAEAV0@PEAVEnumSinkEx@@@Z
; public: class <class GeneralSinkEx> &__ptr64 __cdecl <class GeneralSinkEx>::operator =(class GeneralSinkEx *__ptr64)__ptr64 
??4?$AutoRelease@VGeneralSinkEx@@@@QEAAAEAV0@PEAVGeneralSinkEx@@@Z
; public: class <class IRequestContext> &__ptr64 __cdecl <class IRequestContext>::operator =(class IRequestContext *__ptr64)__ptr64 
??4?$AutoRelease@VIRequestContext@@@@QEAAAEAV0@PEAVIRequestContext@@@Z
; public: class <class ISubscription> &__ptr64 __cdecl <class ISubscription>::operator =(class ISubscription *__ptr64)__ptr64 
??4?$AutoRelease@VISubscription@@@@QEAAAEAV0@PEAVISubscription@@@Z
; public: class <class InboundRequestDetails> &__ptr64 __cdecl <class InboundRequestDetails>::operator =(class InboundRequestDetails *__ptr64)__ptr64 
??4?$AutoRelease@VInboundRequestDetails@@@@QEAAAEAV0@PEAVInboundRequestDetails@@@Z
; public: class <class UserRecord> &__ptr64 __cdecl <class UserRecord>::operator =(class UserRecord *__ptr64)__ptr64 
??4?$AutoRelease@VUserRecord@@@@QEAAAEAV0@PEAVUserRecord@@@Z
; public: class <class WSManHttpListener> &__ptr64 __cdecl <class WSManHttpListener>::operator =(class WSManHttpListener *__ptr64)__ptr64 
??4?$AutoRelease@VWSManHttpListener@@@@QEAAAEAV0@PEAVWSManHttpListener@@@Z
; public: class <class WSMan::Client::Shell> &__ptr64 __cdecl <class WSMan::Client::Shell>::operator =(class WSMan::Client::Shell *__ptr64)__ptr64 
??4?$AutoReleaseEx@VShell@Client@WSMan@@@@QEAAAEAV0@PEAVShell@Client@WSMan@@@Z
; public: class PacketParser::<unsigned long> &__ptr64 __cdecl PacketParser::<unsigned long>::operator =(class PacketParser::<unsigned long> const &__ptr64 )__ptr64 
??4?$PacketElement@K@PacketParser@@QEAAAEAV01@AEBV01@@Z
; public: class PacketParser::<struct _FWXML_ELEMENT *__ptr64> &__ptr64 __cdecl PacketParser::<struct _FWXML_ELEMENT *__ptr64>::operator =(class PacketParser::<struct _FWXML_ELEMENT *__ptr64> const &__ptr64 )__ptr64 
??4?$PacketElement@PEAU_FWXML_ELEMENT@@@PacketParser@@QEAAAEAV01@AEBV01@@Z
; public: class PacketParser::<unsigned short const *__ptr64> &__ptr64 __cdecl PacketParser::<unsigned short const *__ptr64>::operator =(class PacketParser::<unsigned short const *__ptr64> const &__ptr64 )__ptr64 
??4?$PacketElement@PEBG@PacketParser@@QEAAAEAV01@AEBV01@@Z
; public: class PacketParser::<unsigned __int64> &__ptr64 __cdecl PacketParser::<unsigned __int64>::operator =(class PacketParser::<unsigned __int64> const &__ptr64 )__ptr64 
??4?$PacketElement@_K@PacketParser@@QEAAAEAV01@AEBV01@@Z
; public: class <union _LARGE_INTEGER> &__ptr64 __cdecl <union _LARGE_INTEGER>::operator =(class <union _LARGE_INTEGER> const &__ptr64 )__ptr64 
??4?$SimpleQueue@T_LARGE_INTEGER@@@@QEAAAEAV0@AEBV0@@Z
; public: class AutoBstr &__ptr64 __cdecl AutoBstr::operator =(unsigned short *__ptr64)__ptr64 
??4AutoBstr@@QEAAAEAV0@PEAG@Z
; public: class AutoBstrNoAlloc &__ptr64 __cdecl AutoBstrNoAlloc::operator =(unsigned short *__ptr64)__ptr64 
??4AutoBstrNoAlloc@@QEAAAEAV0@PEAG@Z
; public: class AutoCertContext &__ptr64 __cdecl AutoCertContext::operator =(struct _CERT_CONTEXT const *__ptr64)__ptr64 
??4AutoCertContext@@QEAAAEAV0@PEBU_CERT_CONTEXT@@@Z
; public: class AutoChainContext &__ptr64 __cdecl AutoChainContext::operator =(struct _CERT_CHAIN_CONTEXT const *__ptr64)__ptr64 
??4AutoChainContext@@QEAAAEAV0@PEBU_CERT_CHAIN_CONTEXT@@@Z
; public: class AutoCoTaskMemFree &__ptr64 __cdecl AutoCoTaskMemFree::operator =(void *__ptr64)__ptr64 
??4AutoCoTaskMemFree@@QEAAAEAV0@PEAX@Z
; public: class AutoEnvironmentBlock &__ptr64 __cdecl AutoEnvironmentBlock::operator =(void *__ptr64)__ptr64 
??4AutoEnvironmentBlock@@QEAAAEAV0@PEAX@Z
; public: class AutoFwXmlCloseParser &__ptr64 __cdecl AutoFwXmlCloseParser::operator =(void *__ptr64)__ptr64 
??4AutoFwXmlCloseParser@@QEAAAEAV0@PEAX@Z
; public: class AutoHandle &__ptr64 __cdecl AutoHandle::operator =(void *__ptr64)__ptr64 
??4AutoHandle@@QEAAAEAV0@PEAX@Z
; public: class AutoImpersonateUser &__ptr64 __cdecl AutoImpersonateUser::operator =(void *__ptr64)__ptr64 
??4AutoImpersonateUser@@QEAAAEAV0@PEAX@Z
; public: class AutoLibrary &__ptr64 __cdecl AutoLibrary::operator =(struct HINSTANCE__ *__ptr64)__ptr64 
??4AutoLibrary@@QEAAAEAV0@PEAUHINSTANCE__@@@Z
; public: class AutoLocalFree &__ptr64 __cdecl AutoLocalFree::operator =(void *__ptr64)__ptr64 
??4AutoLocalFree@@QEAAAEAV0@PEAX@Z
; public: class AutoMIClass &__ptr64 __cdecl AutoMIClass::operator =(struct _MI_Class *__ptr64)__ptr64 
??4AutoMIClass@@QEAAAEAV0@PEAU_MI_Class@@@Z
; public: class AutoMIInstance &__ptr64 __cdecl AutoMIInstance::operator =(struct _MI_Instance *__ptr64)__ptr64 
??4AutoMIInstance@@QEAAAEAV0@PEAU_MI_Instance@@@Z
; public: class AutoObject &__ptr64 __cdecl AutoObject::operator =(struct WSMAN_OBJECT *__ptr64)__ptr64 
??4AutoObject@@QEAAAEAV0@PEAUWSMAN_OBJECT@@@Z
; public: class AutoRegKey &__ptr64 __cdecl AutoRegKey::operator =(struct HKEY__ *__ptr64)__ptr64 
??4AutoRegKey@@QEAAAEAV0@PEAUHKEY__@@@Z
; public: class AutoSecurityDescriptor &__ptr64 __cdecl AutoSecurityDescriptor::operator =(void *__ptr64)__ptr64 
??4AutoSecurityDescriptor@@QEAAAEAV0@PEAX@Z
; public: class AutoWaitHandle &__ptr64 __cdecl AutoWaitHandle::operator =(void *__ptr64)__ptr64 
??4AutoWaitHandle@@QEAAAEAV0@PEAX@Z
; public: class ChildLifeTimeManager &__ptr64 __cdecl ChildLifeTimeManager::operator =(class ChildLifeTimeManager const &__ptr64 )__ptr64 
??4ChildLifeTimeManager@@QEAAAEAV0@AEBV0@@Z
; public: class ConfigRegistry &__ptr64 __cdecl ConfigRegistry::operator =(class ConfigRegistry const &__ptr64 )__ptr64 
??4ConfigRegistry@@QEAAAEAV0@AEBV0@@Z
; public: class EtwCorrelationHelper &__ptr64 __cdecl EtwCorrelationHelper::operator =(class EtwCorrelationHelper const &__ptr64 )__ptr64 
??4EtwCorrelationHelper@@QEAAAEAV0@AEBV0@@Z
; public: class EventLog &__ptr64 __cdecl EventLog::operator =(class EventLog const &__ptr64 )__ptr64 
??4EventLog@@QEAAAEAV0@AEBV0@@Z
; public: class ExtendedSemantic &__ptr64 __cdecl ExtendedSemantic::operator =(class ExtendedSemantic const &__ptr64 )__ptr64 
??4ExtendedSemantic@@QEAAAEAV0@AEBV0@@Z
; public: class FastLock &__ptr64 __cdecl FastLock::operator =(class FastLock const &__ptr64 )__ptr64 
??4FastLock@@QEAAAEAV0@AEBV0@@Z
; public: class PacketParser::Fragment &__ptr64 __cdecl PacketParser::Fragment::operator =(class PacketParser::Fragment const &__ptr64 )__ptr64 
??4Fragment@PacketParser@@QEAAAEAV01@AEBV01@@Z
; public: class IConfigChangeObserver &__ptr64 __cdecl IConfigChangeObserver::operator =(class IConfigChangeObserver const &__ptr64 )__ptr64 
??4IConfigChangeObserver@@QEAAAEAV0@AEBV0@@Z
; public: class ILifeTimeMgmt &__ptr64 __cdecl ILifeTimeMgmt::operator =(class ILifeTimeMgmt const &__ptr64 )__ptr64 
??4ILifeTimeMgmt@@QEAAAEAV0@AEBV0@@Z
; public: class IWSManGroupPolicyObserver &__ptr64 __cdecl IWSManGroupPolicyObserver::operator =(class IWSManGroupPolicyObserver const &__ptr64 )__ptr64 
??4IWSManGroupPolicyObserver@@QEAAAEAV0@AEBV0@@Z
; public: class IWSManGroupPolicyPublisher &__ptr64 __cdecl IWSManGroupPolicyPublisher::operator =(class IWSManGroupPolicyPublisher const &__ptr64 )__ptr64 
??4IWSManGroupPolicyPublisher@@QEAAAEAV0@AEBV0@@Z
; public: class Locale &__ptr64 __cdecl Locale::operator =(class Locale const &__ptr64 )__ptr64 
??4Locale@@QEAAAEAV0@AEBV0@@Z
; public: class PacketParser::NotUnderstandSoapHeader &__ptr64 __cdecl PacketParser::NotUnderstandSoapHeader::operator =(class PacketParser::NotUnderstandSoapHeader const &__ptr64 )__ptr64 
??4NotUnderstandSoapHeader@PacketParser@@QEAAAEAV01@AEBV01@@Z
; public: class PacketFormatter &__ptr64 __cdecl PacketFormatter::operator =(class PacketFormatter const &__ptr64 )__ptr64 
??4PacketFormatter@@QEAAAEAV0@AEBV0@@Z
; public: class RBUFFER &__ptr64 __cdecl RBUFFER::operator =(class RBUFFER const &__ptr64 )__ptr64 
??4RBUFFER@@QEAAAEAV0@AEBV0@@Z
; public: class SBUFFER &__ptr64 __cdecl SBUFFER::operator =(class SBUFFER const &__ptr64 )__ptr64 
??4SBUFFER@@QEAAAEAV0@AEBV0@@Z
; public: class PacketParser::SessionId &__ptr64 __cdecl PacketParser::SessionId::operator =(class PacketParser::SessionId const &__ptr64 )__ptr64 
??4SessionId@PacketParser@@QEAAAEAV01@AEBV01@@Z
; public: class SoapSemanticConverter &__ptr64 __cdecl SoapSemanticConverter::operator =(class SoapSemanticConverter const &__ptr64 )__ptr64 
??4SoapSemanticConverter@@QEAAAEAV0@AEBV0@@Z
; public: class UserAuthzRecord &__ptr64 __cdecl UserAuthzRecord::operator =(class UserAuthzRecord const &__ptr64 )__ptr64 
??4UserAuthzRecord@@QEAAAEAV0@AEBV0@@Z
; public: virtual class BufferFormatter &__ptr64 __cdecl BufferFormatter::operator <<(class BufferFormatterDataFormatDWORD &__ptr64 )__ptr64 
??6BufferFormatter@@UEAAAEAV0@AEAVBufferFormatterDataFormatDWORD@@@Z
; public: virtual class BufferFormatter &__ptr64 __cdecl BufferFormatter::operator <<(class BufferFormatterDataFormatULONGLONG &__ptr64 )__ptr64 
??6BufferFormatter@@UEAAAEAV0@AEAVBufferFormatterDataFormatULONGLONG@@@Z
; public: virtual class BufferFormatter &__ptr64 __cdecl BufferFormatter::operator <<(class BufferFormatterDataPCWSTR &__ptr64 )__ptr64 
??6BufferFormatter@@UEAAAEAV0@AEAVBufferFormatterDataPCWSTR@@@Z
; public: virtual class BufferFormatter &__ptr64 __cdecl BufferFormatter::operator <<(class BufferFormatterDataPUCHAR &__ptr64 )__ptr64 
??6BufferFormatter@@UEAAAEAV0@AEAVBufferFormatterDataPUCHAR@@@Z
; public: virtual class BufferFormatter &__ptr64 __cdecl BufferFormatter::operator <<(class BufferFormatterDataXmlEscape &__ptr64 )__ptr64 
??6BufferFormatter@@UEAAAEAV0@AEAVBufferFormatterDataXmlEscape@@@Z
; public: virtual class BufferFormatter &__ptr64 __cdecl BufferFormatter::operator <<(unsigned long)__ptr64 
??6BufferFormatter@@UEAAAEAV0@K@Z
; public: virtual class BufferFormatter &__ptr64 __cdecl BufferFormatter::operator <<(struct _FWXML_ELEMENT *__ptr64)__ptr64 
??6BufferFormatter@@UEAAAEAV0@PEAU_FWXML_ELEMENT@@@Z
; public: bool __cdecl <class <unsigned short>,unsigned short *__ptr64>::operator !(void)const __ptr64 
??7?$AutoCleanup@V?$AutoDelete@G@@PEAG@@QEBA_NXZ
; public: bool __cdecl <class <class <class CCertMapping *__ptr64>>,class <class CCertMapping *__ptr64> *__ptr64>::operator !(void)const __ptr64 
??7?$AutoCleanup@V?$AutoDelete@V?$SafeSet@PEAVCCertMapping@@@@@@PEAV?$SafeSet@PEAVCCertMapping@@@@@@QEBA_NXZ
; public: bool __cdecl <class <class <class CShellUriSettings *__ptr64>>,class <class CShellUriSettings *__ptr64> *__ptr64>::operator !(void)const __ptr64 
??7?$AutoCleanup@V?$AutoDelete@V?$SafeSet@PEAVCShellUriSettings@@@@@@PEAV?$SafeSet@PEAVCShellUriSettings@@@@@@QEBA_NXZ
; public: bool __cdecl <class <class std::<class CListenerSettings *__ptr64,class CServiceConfigSettings::CListenerSettingsLessFunctor,class <class CListenerSettings *__ptr64>>>,class std::<class CListenerSettings *__ptr64,class CServiceConfigSettings::CListenerSettingsLessFunctor,class <class CListenerSettings *__ptr64>> *__ptr64>::operator !(void)const __ptr64 
??7?$AutoCleanup@V?$AutoDelete@V?$set@PEAVCListenerSettings@@VCListenerSettingsLessFunctor@CServiceConfigSettings@@V?$transport_allocator@PEAVCListenerSettings@@@@@std@@@@PEAV?$set@PEAVCListenerSettings@@VCListenerSettingsLessFunctor@CServiceConfigSettings@@V?$transport_allocator@PEAVCListenerSettings@@@@@std@@@@QEBA_NXZ
; public: bool __cdecl <class <class ConfigUpdate>,class ConfigUpdate *__ptr64>::operator !(void)const __ptr64 
??7?$AutoCleanup@V?$AutoDelete@VConfigUpdate@@@@PEAVConfigUpdate@@@@QEBA_NXZ
; public: bool __cdecl <class <class EnumSinkEx>,class EnumSinkEx *__ptr64>::operator !(void)const __ptr64 
??7?$AutoCleanup@V?$AutoDelete@VEnumSinkEx@@@@PEAVEnumSinkEx@@@@QEBA_NXZ
; public: bool __cdecl <class <class GeneralSinkEx>,class GeneralSinkEx *__ptr64>::operator !(void)const __ptr64 
??7?$AutoCleanup@V?$AutoDelete@VGeneralSinkEx@@@@PEAVGeneralSinkEx@@@@QEBA_NXZ
; public: bool __cdecl <class <class IQueryDASHSMASHInterface>,class IQueryDASHSMASHInterface *__ptr64>::operator !(void)const __ptr64 
??7?$AutoCleanup@V?$AutoDelete@VIQueryDASHSMASHInterface@@@@PEAVIQueryDASHSMASHInterface@@@@QEBA_NXZ
; public: bool __cdecl <class <class ISpecification>,class ISpecification *__ptr64>::operator !(void)const __ptr64 
??7?$AutoCleanup@V?$AutoDelete@VISpecification@@@@PEAVISpecification@@@@QEBA_NXZ
; public: bool __cdecl <class <class RunAsConfiguration>,class RunAsConfiguration *__ptr64>::operator !(void)const __ptr64 
??7?$AutoCleanup@V?$AutoDelete@VRunAsConfiguration@@@@PEAVRunAsConfiguration@@@@QEBA_NXZ
; public: bool __cdecl <class <class SubscriptionEnumerator>,class SubscriptionEnumerator *__ptr64>::operator !(void)const __ptr64 
??7?$AutoCleanup@V?$AutoDelete@VSubscriptionEnumerator@@@@PEAVSubscriptionEnumerator@@@@QEBA_NXZ
; public: bool __cdecl <class <class TSTRBUFFER>,class TSTRBUFFER *__ptr64>::operator !(void)const __ptr64 
??7?$AutoCleanup@V?$AutoDelete@VTSTRBUFFER@@@@PEAVTSTRBUFFER@@@@QEBA_NXZ
; public: bool __cdecl <class <class WmiEnumContext>,class WmiEnumContext *__ptr64>::operator !(void)const __ptr64 
??7?$AutoCleanup@V?$AutoDelete@VWmiEnumContext@@@@PEAVWmiEnumContext@@@@QEBA_NXZ
; public: bool __cdecl <class <char>,char *__ptr64>::operator !(void)const __ptr64 
??7?$AutoCleanup@V?$AutoDeleteVector@D@@PEAD@@QEBA_NXZ
; public: bool __cdecl <class <unsigned char>,unsigned char *__ptr64>::operator !(void)const __ptr64 
??7?$AutoCleanup@V?$AutoDeleteVector@E@@PEAE@@QEBA_NXZ
; public: bool __cdecl <class <unsigned short>,unsigned short *__ptr64>::operator !(void)const __ptr64 
??7?$AutoCleanup@V?$AutoDeleteVector@G@@PEAG@@QEBA_NXZ
; public: bool __cdecl <class <unsigned short *__ptr64>,unsigned short *__ptr64 *__ptr64>::operator !(void)const __ptr64 
??7?$AutoCleanup@V?$AutoDeleteVector@PEAG@@PEAPEAG@@QEBA_NXZ
; public: bool __cdecl <class <unsigned short const *__ptr64>,unsigned short const *__ptr64 *__ptr64>::operator !(void)const __ptr64 
??7?$AutoCleanup@V?$AutoDeleteVector@PEBG@@PEAPEBG@@QEBA_NXZ
; public: bool __cdecl <class <struct _WINRS_CREATE_SHELL_ENVIRONMENT_VARIABLE>,struct _WINRS_CREATE_SHELL_ENVIRONMENT_VARIABLE *__ptr64>::operator !(void)const __ptr64 
??7?$AutoCleanup@V?$AutoDeleteVector@U_WINRS_CREATE_SHELL_ENVIRONMENT_VARIABLE@@@@PEAU_WINRS_CREATE_SHELL_ENVIRONMENT_VARIABLE@@@@QEBA_NXZ
; public: bool __cdecl <class <struct _WINRS_RUN_COMMAND_ARG>,struct _WINRS_RUN_COMMAND_ARG *__ptr64>::operator !(void)const __ptr64 
??7?$AutoCleanup@V?$AutoDeleteVector@U_WINRS_RUN_COMMAND_ARG@@@@PEAU_WINRS_RUN_COMMAND_ARG@@@@QEBA_NXZ
; public: bool __cdecl <class <void>,void *__ptr64>::operator !(void)const __ptr64 
??7?$AutoCleanup@V?$AutoDeleteVector@X@@PEAX@@QEBA_NXZ
; public: bool __cdecl <class <struct IClientSecurity>,struct IClientSecurity *__ptr64>::operator !(void)const __ptr64 
??7?$AutoCleanup@V?$AutoRelease@UIClientSecurity@@@@PEAUIClientSecurity@@@@QEBA_NXZ
; public: bool __cdecl <class <struct IEnumWbemClassObject>,struct IEnumWbemClassObject *__ptr64>::operator !(void)const __ptr64 
??7?$AutoCleanup@V?$AutoRelease@UIEnumWbemClassObject@@@@PEAUIEnumWbemClassObject@@@@QEBA_NXZ
; public: bool __cdecl <class <struct IErrorInfo>,struct IErrorInfo *__ptr64>::operator !(void)const __ptr64 
??7?$AutoCleanup@V?$AutoRelease@UIErrorInfo@@@@PEAUIErrorInfo@@@@QEBA_NXZ
; public: bool __cdecl <class <struct IUnknown>,struct IUnknown *__ptr64>::operator !(void)const __ptr64 
??7?$AutoCleanup@V?$AutoRelease@UIUnknown@@@@PEAUIUnknown@@@@QEBA_NXZ
; public: bool __cdecl <class <struct IWbemClassObject>,struct IWbemClassObject *__ptr64>::operator !(void)const __ptr64 
??7?$AutoCleanup@V?$AutoRelease@UIWbemClassObject@@@@PEAUIWbemClassObject@@@@QEBA_NXZ
; public: bool __cdecl <class <struct IWbemContext>,struct IWbemContext *__ptr64>::operator !(void)const __ptr64 
??7?$AutoCleanup@V?$AutoRelease@UIWbemContext@@@@PEAUIWbemContext@@@@QEBA_NXZ
; public: bool __cdecl <class <struct IWbemLocator>,struct IWbemLocator *__ptr64>::operator !(void)const __ptr64 
??7?$AutoCleanup@V?$AutoRelease@UIWbemLocator@@@@PEAUIWbemLocator@@@@QEBA_NXZ
; public: bool __cdecl <class <struct IWbemObjectTextSrc>,struct IWbemObjectTextSrc *__ptr64>::operator !(void)const __ptr64 
??7?$AutoCleanup@V?$AutoRelease@UIWbemObjectTextSrc@@@@PEAUIWbemObjectTextSrc@@@@QEBA_NXZ
; public: bool __cdecl <class <struct IWbemPath>,struct IWbemPath *__ptr64>::operator !(void)const __ptr64 
??7?$AutoCleanup@V?$AutoRelease@UIWbemPath@@@@PEAUIWbemPath@@@@QEBA_NXZ
; public: bool __cdecl <class <struct IWbemPathKeyList>,struct IWbemPathKeyList *__ptr64>::operator !(void)const __ptr64 
??7?$AutoCleanup@V?$AutoRelease@UIWbemPathKeyList@@@@PEAUIWbemPathKeyList@@@@QEBA_NXZ
; public: bool __cdecl <class <struct IWbemQualifierSet>,struct IWbemQualifierSet *__ptr64>::operator !(void)const __ptr64 
??7?$AutoCleanup@V?$AutoRelease@UIWbemQualifierSet@@@@PEAUIWbemQualifierSet@@@@QEBA_NXZ
; public: bool __cdecl <class <struct IWbemQuery>,struct IWbemQuery *__ptr64>::operator !(void)const __ptr64 
??7?$AutoCleanup@V?$AutoRelease@UIWbemQuery@@@@PEAUIWbemQuery@@@@QEBA_NXZ
; public: bool __cdecl <class <struct IWbemServices>,struct IWbemServices *__ptr64>::operator !(void)const __ptr64 
??7?$AutoCleanup@V?$AutoRelease@UIWbemServices@@@@PEAUIWbemServices@@@@QEBA_NXZ
; public: bool __cdecl <class <class CClientConfigSettings>,class CClientConfigSettings *__ptr64>::operator !(void)const __ptr64 
??7?$AutoCleanup@V?$AutoRelease@VCClientConfigSettings@@@@PEAVCClientConfigSettings@@@@QEBA_NXZ
; public: bool __cdecl <class <class CConfigManager>,class CConfigManager *__ptr64>::operator !(void)const __ptr64 
??7?$AutoCleanup@V?$AutoRelease@VCConfigManager@@@@PEAVCConfigManager@@@@QEBA_NXZ
; public: bool __cdecl <class <class CRemoteSession>,class CRemoteSession *__ptr64>::operator !(void)const __ptr64 
??7?$AutoCleanup@V?$AutoRelease@VCRemoteSession@@@@PEAVCRemoteSession@@@@QEBA_NXZ
; public: bool __cdecl <class <class CRequestContext>,class CRequestContext *__ptr64>::operator !(void)const __ptr64 
??7?$AutoCleanup@V?$AutoRelease@VCRequestContext@@@@PEAVCRequestContext@@@@QEBA_NXZ
; public: bool __cdecl <class <class CWSManEPR>,class CWSManEPR *__ptr64>::operator !(void)const __ptr64 
??7?$AutoCleanup@V?$AutoRelease@VCWSManEPR@@@@PEAVCWSManEPR@@@@QEBA_NXZ
; public: bool __cdecl <class <class CWSManResource>,class CWSManResource *__ptr64>::operator !(void)const __ptr64 
??7?$AutoCleanup@V?$AutoRelease@VCWSManResource@@@@PEAVCWSManResource@@@@QEBA_NXZ
; public: bool __cdecl <class <class CWinRSPluginConfigCache>,class CWinRSPluginConfigCache *__ptr64>::operator !(void)const __ptr64 
??7?$AutoCleanup@V?$AutoRelease@VCWinRSPluginConfigCache@@@@PEAVCWinRSPluginConfigCache@@@@QEBA_NXZ
; public: bool __cdecl <class <class EnumSinkEx>,class EnumSinkEx *__ptr64>::operator !(void)const __ptr64 
??7?$AutoCleanup@V?$AutoRelease@VEnumSinkEx@@@@PEAVEnumSinkEx@@@@QEBA_NXZ
; public: bool __cdecl <class <class GeneralSinkEx>,class GeneralSinkEx *__ptr64>::operator !(void)const __ptr64 
??7?$AutoCleanup@V?$AutoRelease@VGeneralSinkEx@@@@PEAVGeneralSinkEx@@@@QEBA_NXZ
; public: bool __cdecl <class <class IRequestContext>,class IRequestContext *__ptr64>::operator !(void)const __ptr64 
??7?$AutoCleanup@V?$AutoRelease@VIRequestContext@@@@PEAVIRequestContext@@@@QEBA_NXZ
; public: bool __cdecl <class <class InboundRequestDetails>,class InboundRequestDetails *__ptr64>::operator !(void)const __ptr64 
??7?$AutoCleanup@V?$AutoRelease@VInboundRequestDetails@@@@PEAVInboundRequestDetails@@@@QEBA_NXZ
; public: bool __cdecl <class AutoBstrNoAlloc,unsigned short *__ptr64>::operator !(void)const __ptr64 
??7?$AutoCleanup@VAutoBstrNoAlloc@@PEAG@@QEBA_NXZ
; public: bool __cdecl <class AutoCertContext,struct _CERT_CONTEXT const *__ptr64>::operator !(void)const __ptr64 
??7?$AutoCleanup@VAutoCertContext@@PEBU_CERT_CONTEXT@@@@QEBA_NXZ
; public: bool __cdecl <class AutoHandle,void *__ptr64>::operator !(void)const __ptr64 
??7?$AutoCleanup@VAutoHandle@@PEAX@@QEBA_NXZ
; public: bool __cdecl <class AutoImpersonateUser,void *__ptr64>::operator !(void)const __ptr64 
??7?$AutoCleanup@VAutoImpersonateUser@@PEAX@@QEBA_NXZ
; public: bool __cdecl <class AutoMIClass,struct _MI_Class *__ptr64>::operator !(void)const __ptr64 
??7?$AutoCleanup@VAutoMIClass@@PEAU_MI_Class@@@@QEBA_NXZ
; public: bool __cdecl <class AutoRegKey,struct HKEY__ *__ptr64>::operator !(void)const __ptr64 
??7?$AutoCleanup@VAutoRegKey@@PEAUHKEY__@@@@QEBA_NXZ
; public: bool __cdecl <class AutoSecurityDescriptor,void *__ptr64>::operator !(void)const __ptr64 
??7?$AutoCleanup@VAutoSecurityDescriptor@@PEAX@@QEBA_NXZ
; public: unsigned long *__ptr64 __cdecl <struct PluginKey,unsigned long,class <struct PluginKey,unsigned long>>::operator[](struct PluginKey const &__ptr64 )__ptr64 
??A?$SafeMap@UPluginKey@@KV?$SafeMap_Iterator@UPluginKey@@K@@@@QEAAPEAKAEBUPluginKey@@@Z
; public: class BlockedRecord *__ptr64 *__ptr64 __cdecl <struct UserKey,class BlockedRecord *__ptr64,class <struct UserKey,class BlockedRecord *__ptr64>>::operator[](struct UserKey const &__ptr64 )__ptr64 
??A?$SafeMap@UUserKey@@PEAVBlockedRecord@@V?$SafeMap_Iterator@UUserKey@@PEAVBlockedRecord@@@@@@QEAAPEAPEAVBlockedRecord@@AEBUUserKey@@@Z
; public: class CServiceConfigSettings::CertThumbprintMappedSet *__ptr64 __cdecl <class CertThumbprintKey,class CServiceConfigSettings::CertThumbprintMappedSet,class <class CertThumbprintKey,class CServiceConfigSettings::CertThumbprintMappedSet>>::operator[](class CertThumbprintKey const &__ptr64 )__ptr64 
??A?$SafeMap@VCertThumbprintKey@@VCertThumbprintMappedSet@CServiceConfigSettings@@V?$SafeMap_Iterator@VCertThumbprintKey@@VCertThumbprintMappedSet@CServiceConfigSettings@@@@@@QEAAPEAVCertThumbprintMappedSet@CServiceConfigSettings@@AEBVCertThumbprintKey@@@Z
; public: unsigned long *__ptr64 __cdecl <class StringKeyCI,unsigned long,class <class StringKeyCI,unsigned long>>::operator[](class StringKeyCI const &__ptr64 )__ptr64 
??A?$SafeMap@VStringKeyCI@@KV?$SafeMap_Iterator@VStringKeyCI@@K@@@@QEAAPEAKAEBVStringKeyCI@@@Z
; public: struct WSManHttpListener::USER_CONTEXT_INFO *__ptr64 __cdecl <class StringKeyCI,struct WSManHttpListener::USER_CONTEXT_INFO,class <class StringKeyCI,struct WSManHttpListener::USER_CONTEXT_INFO>>::operator[](class StringKeyCI const &__ptr64 )__ptr64 
??A?$SafeMap@VStringKeyCI@@UUSER_CONTEXT_INFO@WSManHttpListener@@V?$SafeMap_Iterator@VStringKeyCI@@UUSER_CONTEXT_INFO@WSManHttpListener@@@@@@QEAAPEAUUSER_CONTEXT_INFO@WSManHttpListener@@AEBVStringKeyCI@@@Z
; public: class ExpiredOperationIdRecord *__ptr64 *__ptr64 __cdecl <class StringKeyStore,class ExpiredOperationIdRecord *__ptr64,class <class StringKeyStore,class ExpiredOperationIdRecord *__ptr64>>::operator[](class StringKeyStore const &__ptr64 )__ptr64 
??A?$SafeMap@VStringKeyStore@@PEAVExpiredOperationIdRecord@@V?$SafeMap_Iterator@VStringKeyStore@@PEAVExpiredOperationIdRecord@@@@@@QEAAPEAPEAVExpiredOperationIdRecord@@AEBVStringKeyStore@@@Z
; public: class ServerFullDuplexChannel *__ptr64 *__ptr64 __cdecl <class StringKeyStore,class ServerFullDuplexChannel *__ptr64,class <class StringKeyStore,class ServerFullDuplexChannel *__ptr64>>::operator[](class StringKeyStore const &__ptr64 )__ptr64 
??A?$SafeMap@VStringKeyStore@@PEAVServerFullDuplexChannel@@V?$SafeMap_Iterator@VStringKeyStore@@PEAVServerFullDuplexChannel@@@@@@QEAAPEAPEAVServerFullDuplexChannel@@AEBVStringKeyStore@@@Z
; public: class WSMan::Client::SessionOptions::OptionValue *__ptr64 *__ptr64 __cdecl <enum WSManSessionOption,class WSMan::Client::SessionOptions::OptionValue *__ptr64,class <enum WSManSessionOption,class WSMan::Client::SessionOptions::OptionValue *__ptr64>>::operator[](enum WSManSessionOption const &__ptr64 )__ptr64 
??A?$SafeMap@W4WSManSessionOption@@PEAVOptionValue@SessionOptions@Client@WSMan@@V?$SafeMap_Iterator@W4WSManSessionOption@@PEAVOptionValue@SessionOptions@Client@WSMan@@@@@@QEAAPEAPEAVOptionValue@SessionOptions@Client@WSMan@@AEBW4WSManSessionOption@@@Z
; public: class RobustConnectionBuffer::SendPacketArgs *__ptr64 *__ptr64 __cdecl <unsigned __int64,class RobustConnectionBuffer::SendPacketArgs *__ptr64,class <unsigned __int64,class RobustConnectionBuffer::SendPacketArgs *__ptr64>>::operator[](unsigned __int64 const &__ptr64 )__ptr64 
??A?$SafeMap@_KPEAVSendPacketArgs@RobustConnectionBuffer@@V?$SafeMap_Iterator@_KPEAVSendPacketArgs@RobustConnectionBuffer@@@@@@QEAAPEAPEAVSendPacketArgs@RobustConnectionBuffer@@AEB_K@Z
; public: void *__ptr64 const *__ptr64 __cdecl <void *__ptr64>::operator[](void *__ptr64 const &__ptr64 )const __ptr64 
??A?$SafeSet@PEAX@@QEBAPEBQEAXAEBQEAX@Z
; public: void __cdecl <class <char>,char *__ptr64>::operator char *__ptr64(...)__ptr64 throw()
??B?$AutoCleanup@V?$AutoDelete@D@@PEAD@@QEAAPEADXZ
; public: void __cdecl <class <unsigned short>,unsigned short *__ptr64>::operator unsigned short *__ptr64(...)__ptr64 throw()
??B?$AutoCleanup@V?$AutoDelete@G@@PEAG@@QEAAPEAGXZ
; public: void __cdecl <class <unsigned short>,unsigned short *__ptr64>::operator unsigned short *__ptr64 const(...)const __ptr64 throw()
??B?$AutoCleanup@V?$AutoDelete@G@@PEAG@@QEBAQEAGXZ
; public: void __cdecl <class <struct CWSManIPFilter::IPRange>,struct CWSManIPFilter::IPRange *__ptr64>::operator struct CWSManIPFilter::IPRange *__ptr64(...)__ptr64 throw()
??B?$AutoCleanup@V?$AutoDelete@UIPRange@CWSManIPFilter@@@@PEAUIPRange@CWSManIPFilter@@@@QEAAPEAUIPRange@CWSManIPFilter@@XZ
; public: void __cdecl <class <struct _SID>,struct _SID *__ptr64>::operator struct _SID *__ptr64(...)__ptr64 throw()
??B?$AutoCleanup@V?$AutoDelete@U_SID@@@@PEAU_SID@@@@QEAAPEAU_SID@@XZ
; public: void __cdecl <class <struct _WSMAN_STREAM_ID_SET>,struct _WSMAN_STREAM_ID_SET *__ptr64>::operator struct _WSMAN_STREAM_ID_SET *__ptr64(...)__ptr64 throw()
??B?$AutoCleanup@V?$AutoDelete@U_WSMAN_STREAM_ID_SET@@@@PEAU_WSMAN_STREAM_ID_SET@@@@QEAAPEAU_WSMAN_STREAM_ID_SET@@XZ
; public: void __cdecl <class <class <class ISubscription>>,class <class ISubscription> *__ptr64>::operator class <class ISubscription> *__ptr64(...)__ptr64 throw()
??B?$AutoCleanup@V?$AutoDelete@V?$Handle@VISubscription@@@@@@PEAV?$Handle@VISubscription@@@@@@QEAAPEAV?$Handle@VISubscription@@@@XZ
; public: void __cdecl <class <class <class StringKeyCI,unsigned long>>,class <class StringKeyCI,unsigned long> *__ptr64>::operator class <class StringKeyCI,unsigned long> *__ptr64(...)__ptr64 throw()
??B?$AutoCleanup@V?$AutoDelete@V?$SafeMap_Iterator@VStringKeyCI@@K@@@@PEAV?$SafeMap_Iterator@VStringKeyCI@@K@@@@QEAAPEAV?$SafeMap_Iterator@VStringKeyCI@@K@@XZ
; public: void __cdecl <class <class <enum WSManSessionOption,class WSMan::Client::SessionOptions::OptionValue *__ptr64>>,class <enum WSManSessionOption,class WSMan::Client::SessionOptions::OptionValue *__ptr64> *__ptr64>::operator class <enum WSManSessionOption,class WSMan::Client::SessionOptions::OptionValue *__ptr64> *__ptr64(...)__ptr64 throw()
??B?$AutoCleanup@V?$AutoDelete@V?$SafeMap_Iterator@W4WSManSessionOption@@PEAVOptionValue@SessionOptions@Client@WSMan@@@@@@PEAV?$SafeMap_Iterator@W4WSManSessionOption@@PEAVOptionValue@SessionOptions@Client@WSMan@@@@@@QEAAPEAV?$SafeMap_Iterator@W4WSManSessionOption@@PEAVOptionValue@SessionOptions@Client@WSMan@@@@XZ
; public: void __cdecl <class <class <class CCertMapping *__ptr64>>,class <class CCertMapping *__ptr64> *__ptr64>::operator class <class CCertMapping *__ptr64> *__ptr64(...)__ptr64 throw()
??B?$AutoCleanup@V?$AutoDelete@V?$SafeSet@PEAVCCertMapping@@@@@@PEAV?$SafeSet@PEAVCCertMapping@@@@@@QEAAPEAV?$SafeSet@PEAVCCertMapping@@@@XZ
; public: void __cdecl <class <class <class CShellUriSettings *__ptr64>>,class <class CShellUriSettings *__ptr64> *__ptr64>::operator class <class CShellUriSettings *__ptr64> *__ptr64(...)__ptr64 throw()
??B?$AutoCleanup@V?$AutoDelete@V?$SafeSet@PEAVCShellUriSettings@@@@@@PEAV?$SafeSet@PEAVCShellUriSettings@@@@@@QEAAPEAV?$SafeSet@PEAVCShellUriSettings@@@@XZ
; public: void __cdecl <class <class <class CListenerOperation *__ptr64>>,class <class CListenerOperation *__ptr64> *__ptr64>::operator class <class CListenerOperation *__ptr64> *__ptr64(...)__ptr64 throw()
??B?$AutoCleanup@V?$AutoDelete@V?$SafeSet_Iterator@PEAVCListenerOperation@@@@@@PEAV?$SafeSet_Iterator@PEAVCListenerOperation@@@@@@QEAAPEAV?$SafeSet_Iterator@PEAVCListenerOperation@@@@XZ
; public: void __cdecl <class <class std::<class CListenerSettings *__ptr64,class CServiceConfigSettings::CListenerSettingsLessFunctor,class <class CListenerSettings *__ptr64>>>,class std::<class CListenerSettings *__ptr64,class CServiceConfigSettings::CListenerSettingsLessFunctor,class <class CListenerSettings *__ptr64>> *__ptr64>::operator class std::<class CListenerSettings *__ptr64,class CServiceConfigSettings::CListenerSettingsLessFunctor,class <class CListenerSettings *__ptr64>> *__ptr64(...)__ptr64 throw()
??B?$AutoCleanup@V?$AutoDelete@V?$set@PEAVCListenerSettings@@VCListenerSettingsLessFunctor@CServiceConfigSettings@@V?$transport_allocator@PEAVCListenerSettings@@@@@std@@@@PEAV?$set@PEAVCListenerSettings@@VCListenerSettingsLessFunctor@CServiceConfigSettings@@V?$transport_allocator@PEAVCListenerSettings@@@@@std@@@@QEAAPEAV?$set@PEAVCListenerSettings@@VCListenerSettingsLessFunctor@CServiceConfigSettings@@V?$transport_allocator@PEAVCListenerSettings@@@@@std@@XZ
; public: void __cdecl <class <class std::<struct sockaddr_storage,class CListenerSettings::SockAddrLessFunctor,class <struct sockaddr_storage>>>,class std::<struct sockaddr_storage,class CListenerSettings::SockAddrLessFunctor,class <struct sockaddr_storage>> *__ptr64>::operator class std::<struct sockaddr_storage,class CListenerSettings::SockAddrLessFunctor,class <struct sockaddr_storage>> *__ptr64(...)__ptr64 throw()
??B?$AutoCleanup@V?$AutoDelete@V?$set@Usockaddr_storage@@VSockAddrLessFunctor@CListenerSettings@@V?$transport_allocator@Usockaddr_storage@@@@@std@@@@PEAV?$set@Usockaddr_storage@@VSockAddrLessFunctor@CListenerSettings@@V?$transport_allocator@Usockaddr_storage@@@@@std@@@@QEAAPEAV?$set@Usockaddr_storage@@VSockAddrLessFunctor@CListenerSettings@@V?$transport_allocator@Usockaddr_storage@@@@@std@@XZ
; public: void __cdecl <class <class std::<class WSMan::Client::HandleImpl *__ptr64,class <class WSMan::Client::HandleImpl *__ptr64>>>,class std::<class WSMan::Client::HandleImpl *__ptr64,class <class WSMan::Client::HandleImpl *__ptr64>> *__ptr64>::operator class std::<class WSMan::Client::HandleImpl *__ptr64,class <class WSMan::Client::HandleImpl *__ptr64>> *__ptr64(...)__ptr64 throw()
??B?$AutoCleanup@V?$AutoDelete@V?$vector@PEAVHandleImpl@Client@WSMan@@V?$transport_allocator@PEAVHandleImpl@Client@WSMan@@@@@std@@@@PEAV?$vector@PEAVHandleImpl@Client@WSMan@@V?$transport_allocator@PEAVHandleImpl@Client@WSMan@@@@@std@@@@QEAAPEAV?$vector@PEAVHandleImpl@Client@WSMan@@V?$transport_allocator@PEAVHandleImpl@Client@WSMan@@@@@std@@XZ
; public: void __cdecl <class <class std::<class WSMan::Client::HandleImpl *__ptr64,class <class WSMan::Client::HandleImpl *__ptr64>>>,class std::<class WSMan::Client::HandleImpl *__ptr64,class <class WSMan::Client::HandleImpl *__ptr64>> *__ptr64>::operator class std::<class WSMan::Client::HandleImpl *__ptr64,class <class WSMan::Client::HandleImpl *__ptr64>> *__ptr64 const(...)const __ptr64 throw()
??B?$AutoCleanup@V?$AutoDelete@V?$vector@PEAVHandleImpl@Client@WSMan@@V?$transport_allocator@PEAVHandleImpl@Client@WSMan@@@@@std@@@@PEAV?$vector@PEAVHandleImpl@Client@WSMan@@V?$transport_allocator@PEAVHandleImpl@Client@WSMan@@@@@std@@@@QEBAQEAV?$vector@PEAVHandleImpl@Client@WSMan@@V?$transport_allocator@PEAVHandleImpl@Client@WSMan@@@@@std@@XZ
; public: void __cdecl <class <class std::<class IServiceConfigObserver *__ptr64,class <class IServiceConfigObserver *__ptr64>>>,class std::<class IServiceConfigObserver *__ptr64,class <class IServiceConfigObserver *__ptr64>> *__ptr64>::operator class std::<class IServiceConfigObserver *__ptr64,class <class IServiceConfigObserver *__ptr64>> *__ptr64(...)__ptr64 throw()
??B?$AutoCleanup@V?$AutoDelete@V?$vector@PEAVIServiceConfigObserver@@V?$transport_allocator@PEAVIServiceConfigObserver@@@@@std@@@@PEAV?$vector@PEAVIServiceConfigObserver@@V?$transport_allocator@PEAVIServiceConfigObserver@@@@@std@@@@QEAAPEAV?$vector@PEAVIServiceConfigObserver@@V?$transport_allocator@PEAVIServiceConfigObserver@@@@@std@@XZ
; public: void __cdecl <class <class CSecurity::AdminSid>,class CSecurity::AdminSid *__ptr64>::operator class CSecurity::AdminSid *__ptr64(...)__ptr64 throw()
??B?$AutoCleanup@V?$AutoDelete@VAdminSid@CSecurity@@@@PEAVAdminSid@CSecurity@@@@QEAAPEAVAdminSid@CSecurity@@XZ
; public: void __cdecl <class <class BlockedRecord>,class BlockedRecord *__ptr64>::operator class BlockedRecord *__ptr64(...)__ptr64 throw()
??B?$AutoCleanup@V?$AutoDelete@VBlockedRecord@@@@PEAVBlockedRecord@@@@QEAAPEAVBlockedRecord@@XZ
; public: void __cdecl <class <class CBaseConfigCache>,class CBaseConfigCache *__ptr64>::operator class CBaseConfigCache *__ptr64(...)__ptr64 throw()
??B?$AutoCleanup@V?$AutoDelete@VCBaseConfigCache@@@@PEAVCBaseConfigCache@@@@QEAAPEAVCBaseConfigCache@@XZ
; public: void __cdecl <class <class CCertMapping>,class CCertMapping *__ptr64>::operator class CCertMapping *__ptr64(...)__ptr64 throw()
??B?$AutoCleanup@V?$AutoDelete@VCCertMapping@@@@PEAVCCertMapping@@@@QEAAPEAVCCertMapping@@XZ
; public: void __cdecl <class <class CConfigChangeSource>,class CConfigChangeSource *__ptr64>::operator class CConfigChangeSource *__ptr64(...)__ptr64 throw()
??B?$AutoCleanup@V?$AutoDelete@VCConfigChangeSource@@@@PEAVCConfigChangeSource@@@@QEAAPEAVCConfigChangeSource@@XZ
; public: void __cdecl <class <class CListenerSettings>,class CListenerSettings *__ptr64>::operator class CListenerSettings *__ptr64(...)__ptr64 throw()
??B?$AutoCleanup@V?$AutoDelete@VCListenerSettings@@@@PEAVCListenerSettings@@@@QEAAPEAVCListenerSettings@@XZ
; public: void __cdecl <class <class CObserverConfigChangeErrors>,class CObserverConfigChangeErrors *__ptr64>::operator class CObserverConfigChangeErrors *__ptr64(...)__ptr64 throw()
??B?$AutoCleanup@V?$AutoDelete@VCObserverConfigChangeErrors@@@@PEAVCObserverConfigChangeErrors@@@@QEAAPEAVCObserverConfigChangeErrors@@XZ
; public: void __cdecl <class <class CServiceConfigCache::CServiceWatcher>,class CServiceConfigCache::CServiceWatcher *__ptr64>::operator class CServiceConfigCache::CServiceWatcher *__ptr64(...)__ptr64 throw()
??B?$AutoCleanup@V?$AutoDelete@VCServiceWatcher@CServiceConfigCache@@@@PEAVCServiceWatcher@CServiceConfigCache@@@@QEAAPEAVCServiceWatcher@CServiceConfigCache@@XZ
; public: void __cdecl <class <class CShellUriSettings>,class CShellUriSettings *__ptr64>::operator class CShellUriSettings *__ptr64(...)__ptr64 throw()
??B?$AutoCleanup@V?$AutoDelete@VCShellUriSettings@@@@PEAVCShellUriSettings@@@@QEAAPEAVCShellUriSettings@@XZ
; public: void __cdecl <class <class CWSManEPR>,class CWSManEPR *__ptr64>::operator class CWSManEPR *__ptr64(...)__ptr64 throw()
??B?$AutoCleanup@V?$AutoDelete@VCWSManEPR@@@@PEAVCWSManEPR@@@@QEAAPEAVCWSManEPR@@XZ
; public: void __cdecl <class <class CWSManResource>,class CWSManResource *__ptr64>::operator class CWSManResource *__ptr64(...)__ptr64 throw()
??B?$AutoCleanup@V?$AutoDelete@VCWSManResource@@@@PEAVCWSManResource@@@@QEAAPEAVCWSManResource@@XZ
; public: void __cdecl <class <class CertHash>,class CertHash *__ptr64>::operator class CertHash *__ptr64(...)__ptr64 throw()
??B?$AutoCleanup@V?$AutoDelete@VCertHash@@@@PEAVCertHash@@@@QEAAPEAVCertHash@@XZ
; public: void __cdecl <class <class ConfigUpdate>,class ConfigUpdate *__ptr64>::operator class ConfigUpdate *__ptr64(...)__ptr64 throw()
??B?$AutoCleanup@V?$AutoDelete@VConfigUpdate@@@@PEAVConfigUpdate@@@@QEAAPEAVConfigUpdate@@XZ
; public: void __cdecl <class <class CredUIDllLoader>,class CredUIDllLoader *__ptr64>::operator class CredUIDllLoader *__ptr64(...)__ptr64 throw()
??B?$AutoCleanup@V?$AutoDelete@VCredUIDllLoader@@@@PEAVCredUIDllLoader@@@@QEAAPEAVCredUIDllLoader@@XZ
; public: void __cdecl <class <class EnumSinkEx>,class EnumSinkEx *__ptr64>::operator class EnumSinkEx *__ptr64(...)__ptr64 throw()
??B?$AutoCleanup@V?$AutoDelete@VEnumSinkEx@@@@PEAVEnumSinkEx@@@@QEAAPEAVEnumSinkEx@@XZ
; public: void __cdecl <class <class EnumSinkEx>,class EnumSinkEx *__ptr64>::operator class EnumSinkEx *__ptr64 const(...)const __ptr64 throw()
??B?$AutoCleanup@V?$AutoDelete@VEnumSinkEx@@@@PEAVEnumSinkEx@@@@QEBAQEAVEnumSinkEx@@XZ
; public: void __cdecl <class <class WSMan::EventHandler>,class WSMan::EventHandler *__ptr64>::operator class WSMan::EventHandler *__ptr64(...)__ptr64 throw()
??B?$AutoCleanup@V?$AutoDelete@VEventHandler@WSMan@@@@PEAVEventHandler@WSMan@@@@QEAAPEAVEventHandler@WSMan@@XZ
; public: void __cdecl <class <class ExpiredOperationIdRecord>,class ExpiredOperationIdRecord *__ptr64>::operator class ExpiredOperationIdRecord *__ptr64(...)__ptr64 throw()
??B?$AutoCleanup@V?$AutoDelete@VExpiredOperationIdRecord@@@@PEAVExpiredOperationIdRecord@@@@QEAAPEAVExpiredOperationIdRecord@@XZ
; public: void __cdecl <class <class GPApiManager>,class GPApiManager *__ptr64>::operator class GPApiManager *__ptr64(...)__ptr64 throw()
??B?$AutoCleanup@V?$AutoDelete@VGPApiManager@@@@PEAVGPApiManager@@@@QEAAPEAVGPApiManager@@XZ
; public: void __cdecl <class <class GeneralSinkEx>,class GeneralSinkEx *__ptr64>::operator class GeneralSinkEx *__ptr64(...)__ptr64 throw()
??B?$AutoCleanup@V?$AutoDelete@VGeneralSinkEx@@@@PEAVGeneralSinkEx@@@@QEAAPEAVGeneralSinkEx@@XZ
; public: void __cdecl <class <class GeneralSinkEx>,class GeneralSinkEx *__ptr64>::operator class GeneralSinkEx *__ptr64 const(...)const __ptr64 throw()
??B?$AutoCleanup@V?$AutoDelete@VGeneralSinkEx@@@@PEAVGeneralSinkEx@@@@QEBAQEAVGeneralSinkEx@@XZ
; public: void __cdecl <class <class IChannelObserverFactory>,class IChannelObserverFactory *__ptr64>::operator class IChannelObserverFactory *__ptr64(...)__ptr64 throw()
??B?$AutoCleanup@V?$AutoDelete@VIChannelObserverFactory@@@@PEAVIChannelObserverFactory@@@@QEAAPEAVIChannelObserverFactory@@XZ
; public: void __cdecl <class <class IQueryDASHSMASHInterface>,class IQueryDASHSMASHInterface *__ptr64>::operator class IQueryDASHSMASHInterface *__ptr64(...)__ptr64 throw()
??B?$AutoCleanup@V?$AutoDelete@VIQueryDASHSMASHInterface@@@@PEAVIQueryDASHSMASHInterface@@@@QEAAPEAVIQueryDASHSMASHInterface@@XZ
; public: void __cdecl <class <class IQueryDASHSMASHInterface>,class IQueryDASHSMASHInterface *__ptr64>::operator class IQueryDASHSMASHInterface *__ptr64 const(...)const __ptr64 throw()
??B?$AutoCleanup@V?$AutoDelete@VIQueryDASHSMASHInterface@@@@PEAVIQueryDASHSMASHInterface@@@@QEBAQEAVIQueryDASHSMASHInterface@@XZ
; public: void __cdecl <class <class ISpecification>,class ISpecification *__ptr64>::operator class ISpecification *__ptr64(...)__ptr64 throw()
??B?$AutoCleanup@V?$AutoDelete@VISpecification@@@@PEAVISpecification@@@@QEAAPEAVISpecification@@XZ
; public: void __cdecl <class <class ISpecification>,class ISpecification *__ptr64>::operator class ISpecification *__ptr64 const(...)const __ptr64 throw()
??B?$AutoCleanup@V?$AutoDelete@VISpecification@@@@PEAVISpecification@@@@QEBAQEAVISpecification@@XZ
; public: void __cdecl <class <class CSecurity::InteractiveSid>,class CSecurity::InteractiveSid *__ptr64>::operator class CSecurity::InteractiveSid *__ptr64(...)__ptr64 throw()
??B?$AutoCleanup@V?$AutoDelete@VInteractiveSid@CSecurity@@@@PEAVInteractiveSid@CSecurity@@@@QEAAPEAVInteractiveSid@CSecurity@@XZ
; public: void __cdecl <class <class IpHlpApiDllLoader>,class IpHlpApiDllLoader *__ptr64>::operator class IpHlpApiDllLoader *__ptr64(...)__ptr64 throw()
??B?$AutoCleanup@V?$AutoDelete@VIpHlpApiDllLoader@@@@PEAVIpHlpApiDllLoader@@@@QEAAPEAVIpHlpApiDllLoader@@XZ
; public: void __cdecl <class <class MachineName>,class MachineName *__ptr64>::operator class MachineName *__ptr64(...)__ptr64 throw()
??B?$AutoCleanup@V?$AutoDelete@VMachineName@@@@PEAVMachineName@@@@QEAAPEAVMachineName@@XZ
; public: void __cdecl <class <class CSecurity::NetworkServiceSid>,class CSecurity::NetworkServiceSid *__ptr64>::operator class CSecurity::NetworkServiceSid *__ptr64(...)__ptr64 throw()
??B?$AutoCleanup@V?$AutoDelete@VNetworkServiceSid@CSecurity@@@@PEAVNetworkServiceSid@CSecurity@@@@QEAAPEAVNetworkServiceSid@CSecurity@@XZ
; public: void __cdecl <class <class NtDsApiDllLoader>,class NtDsApiDllLoader *__ptr64>::operator class NtDsApiDllLoader *__ptr64(...)__ptr64 throw()
??B?$AutoCleanup@V?$AutoDelete@VNtDsApiDllLoader@@@@PEAVNtDsApiDllLoader@@@@QEAAPEAVNtDsApiDllLoader@@XZ
; public: void __cdecl <class <class WSMan::Client::SessionOptions::OptionValue>,class WSMan::Client::SessionOptions::OptionValue *__ptr64>::operator class WSMan::Client::SessionOptions::OptionValue *__ptr64(...)__ptr64 throw()
??B?$AutoCleanup@V?$AutoDelete@VOptionValue@SessionOptions@Client@WSMan@@@@PEAVOptionValue@SessionOptions@Client@WSMan@@@@QEAAPEAVOptionValue@SessionOptions@Client@WSMan@@XZ
; public: void __cdecl <class <class PacketCreator>,class PacketCreator *__ptr64>::operator class PacketCreator *__ptr64(...)__ptr64 throw()
??B?$AutoCleanup@V?$AutoDelete@VPacketCreator@@@@PEAVPacketCreator@@@@QEAAPEAVPacketCreator@@XZ
; public: void __cdecl <class <class PacketParser>,class PacketParser *__ptr64>::operator class PacketParser *__ptr64(...)__ptr64 throw()
??B?$AutoCleanup@V?$AutoDelete@VPacketParser@@@@PEAVPacketParser@@@@QEAAPEAVPacketParser@@XZ
; public: void __cdecl <class <class Locale::Resources>,class Locale::Resources *__ptr64>::operator class Locale::Resources *__ptr64(...)__ptr64 throw()
??B?$AutoCleanup@V?$AutoDelete@VResources@Locale@@@@PEAVResources@Locale@@@@QEAAPEAVResources@Locale@@XZ
; public: void __cdecl <class <class Catalog::SecurityEntry>,class Catalog::SecurityEntry *__ptr64>::operator class Catalog::SecurityEntry *__ptr64(...)__ptr64 throw()
??B?$AutoCleanup@V?$AutoDelete@VSecurityEntry@Catalog@@@@PEAVSecurityEntry@Catalog@@@@QEAAPEAVSecurityEntry@Catalog@@XZ
; public: void __cdecl <class <class ServiceSoapProcessor>,class ServiceSoapProcessor *__ptr64>::operator class ServiceSoapProcessor *__ptr64(...)__ptr64 throw()
??B?$AutoCleanup@V?$AutoDelete@VServiceSoapProcessor@@@@PEAVServiceSoapProcessor@@@@QEAAPEAVServiceSoapProcessor@@XZ
; public: void __cdecl <class <class Shell32DllLoader>,class Shell32DllLoader *__ptr64>::operator class Shell32DllLoader *__ptr64(...)__ptr64 throw()
??B?$AutoCleanup@V?$AutoDelete@VShell32DllLoader@@@@PEAVShell32DllLoader@@@@QEAAPEAVShell32DllLoader@@XZ
; public: void __cdecl <class <class ShlWApiDllLoader>,class ShlWApiDllLoader *__ptr64>::operator class ShlWApiDllLoader *__ptr64(...)__ptr64 throw()
??B?$AutoCleanup@V?$AutoDelete@VShlWApiDllLoader@@@@PEAVShlWApiDllLoader@@@@QEAAPEAVShlWApiDllLoader@@XZ
; public: void __cdecl <class <class SubscriptionManager>,class SubscriptionManager *__ptr64>::operator class SubscriptionManager *__ptr64(...)__ptr64 throw()
??B?$AutoCleanup@V?$AutoDelete@VSubscriptionManager@@@@PEAVSubscriptionManager@@@@QEAAPEAVSubscriptionManager@@XZ
; public: void __cdecl <class <class TSTRBUFFER>,class TSTRBUFFER *__ptr64>::operator class TSTRBUFFER *__ptr64(...)__ptr64 throw()
??B?$AutoCleanup@V?$AutoDelete@VTSTRBUFFER@@@@PEAVTSTRBUFFER@@@@QEAAPEAVTSTRBUFFER@@XZ
; public: void __cdecl <class <class TSTRBUFFER>,class TSTRBUFFER *__ptr64>::operator class TSTRBUFFER *__ptr64 const(...)const __ptr64 throw()
??B?$AutoCleanup@V?$AutoDelete@VTSTRBUFFER@@@@PEAVTSTRBUFFER@@@@QEBAQEAVTSTRBUFFER@@XZ
; public: void __cdecl <class <class UniqueStringOverflow>,class UniqueStringOverflow *__ptr64>::operator class UniqueStringOverflow *__ptr64(...)__ptr64 throw()
??B?$AutoCleanup@V?$AutoDelete@VUniqueStringOverflow@@@@PEAVUniqueStringOverflow@@@@QEAAPEAVUniqueStringOverflow@@XZ
; public: void __cdecl <class <class User32DllLoader>,class User32DllLoader *__ptr64>::operator class User32DllLoader *__ptr64(...)__ptr64 throw()
??B?$AutoCleanup@V?$AutoDelete@VUser32DllLoader@@@@PEAVUser32DllLoader@@@@QEAAPEAVUser32DllLoader@@XZ
; public: void __cdecl <class <class WSMANCONFIGTABLE_IDENTITY>,class WSMANCONFIGTABLE_IDENTITY *__ptr64>::operator class WSMANCONFIGTABLE_IDENTITY *__ptr64(...)__ptr64 throw()
??B?$AutoCleanup@V?$AutoDelete@VWSMANCONFIGTABLE_IDENTITY@@@@PEAVWSMANCONFIGTABLE_IDENTITY@@@@QEAAPEAVWSMANCONFIGTABLE_IDENTITY@@XZ
; public: void __cdecl <class <class WSManMemCryptManager>,class WSManMemCryptManager *__ptr64>::operator class WSManMemCryptManager *__ptr64(...)__ptr64 throw()
??B?$AutoCleanup@V?$AutoDelete@VWSManMemCryptManager@@@@PEAVWSManMemCryptManager@@@@QEAAPEAVWSManMemCryptManager@@XZ
; public: void __cdecl <class <class WmiEnumContext>,class WmiEnumContext *__ptr64>::operator class WmiEnumContext *__ptr64(...)__ptr64 throw()
??B?$AutoCleanup@V?$AutoDelete@VWmiEnumContext@@@@PEAVWmiEnumContext@@@@QEAAPEAVWmiEnumContext@@XZ
; public: void __cdecl <class <class WmiEnumContext>,class WmiEnumContext *__ptr64>::operator class WmiEnumContext *__ptr64 const(...)const __ptr64 throw()
??B?$AutoCleanup@V?$AutoDelete@VWmiEnumContext@@@@PEAVWmiEnumContext@@@@QEBAQEAVWmiEnumContext@@XZ
; public: void __cdecl <class <class XmlReader>,class XmlReader *__ptr64>::operator class XmlReader *__ptr64(...)__ptr64 throw()
??B?$AutoCleanup@V?$AutoDelete@VXmlReader@@@@PEAVXmlReader@@@@QEAAPEAVXmlReader@@XZ
; public: void __cdecl <class <unsigned short const>,unsigned short const *__ptr64>::operator unsigned short const *__ptr64(...)__ptr64 throw()
??B?$AutoCleanup@V?$AutoDeleteVector@$$CBG@@PEBG@@QEAAPEBGXZ
; public: void __cdecl <class <char>,char *__ptr64>::operator char *__ptr64(...)__ptr64 throw()
??B?$AutoCleanup@V?$AutoDeleteVector@D@@PEAD@@QEAAPEADXZ
; public: void __cdecl <class <unsigned char>,unsigned char *__ptr64>::operator unsigned char *__ptr64(...)__ptr64 throw()
??B?$AutoCleanup@V?$AutoDeleteVector@E@@PEAE@@QEAAPEAEXZ
; public: void __cdecl <class <unsigned char>,unsigned char *__ptr64>::operator unsigned char *__ptr64 const(...)const __ptr64 throw()
??B?$AutoCleanup@V?$AutoDeleteVector@E@@PEAE@@QEBAQEAEXZ
; public: void __cdecl <class <unsigned short>,unsigned short *__ptr64>::operator unsigned short *__ptr64(...)__ptr64 throw()
??B?$AutoCleanup@V?$AutoDeleteVector@G@@PEAG@@QEAAPEAGXZ
; public: void __cdecl <class <unsigned short>,unsigned short *__ptr64>::operator unsigned short *__ptr64 const(...)const __ptr64 throw()
??B?$AutoCleanup@V?$AutoDeleteVector@G@@PEAG@@QEBAQEAGXZ
; public: void __cdecl <class <int>,int *__ptr64>::operator int *__ptr64(...)__ptr64 throw()
??B?$AutoCleanup@V?$AutoDeleteVector@H@@PEAH@@QEAAPEAHXZ
; public: void __cdecl <class <unsigned short *__ptr64>,unsigned short *__ptr64 *__ptr64>::operator unsigned short *__ptr64 *__ptr64(...)__ptr64 throw()
??B?$AutoCleanup@V?$AutoDeleteVector@PEAG@@PEAPEAG@@QEAAPEAPEAGXZ
; public: void __cdecl <class <unsigned short *__ptr64>,unsigned short *__ptr64 *__ptr64>::operator unsigned short *__ptr64 *__ptr64 const(...)const __ptr64 throw()
??B?$AutoCleanup@V?$AutoDeleteVector@PEAG@@PEAPEAG@@QEBAQEAPEAGXZ
; public: void __cdecl <class <unsigned short const *__ptr64>,unsigned short const *__ptr64 *__ptr64>::operator unsigned short const *__ptr64 *__ptr64(...)__ptr64 throw()
??B?$AutoCleanup@V?$AutoDeleteVector@PEBG@@PEAPEBG@@QEAAPEAPEBGXZ
; public: void __cdecl <class <unsigned short const *__ptr64>,unsigned short const *__ptr64 *__ptr64>::operator unsigned short const *__ptr64 *__ptr64 const(...)const __ptr64 throw()
??B?$AutoCleanup@V?$AutoDeleteVector@PEBG@@PEAPEBG@@QEBAQEAPEBGXZ
; public: void __cdecl <class <struct _CONFIG_UPDATE>,struct _CONFIG_UPDATE *__ptr64>::operator struct _CONFIG_UPDATE *__ptr64(...)__ptr64 throw()
??B?$AutoCleanup@V?$AutoDeleteVector@U_CONFIG_UPDATE@@@@PEAU_CONFIG_UPDATE@@@@QEAAPEAU_CONFIG_UPDATE@@XZ
; public: void __cdecl <class <struct _WINRS_CREATE_SHELL_ENVIRONMENT_VARIABLE>,struct _WINRS_CREATE_SHELL_ENVIRONMENT_VARIABLE *__ptr64>::operator struct _WINRS_CREATE_SHELL_ENVIRONMENT_VARIABLE *__ptr64(...)__ptr64 throw()
??B?$AutoCleanup@V?$AutoDeleteVector@U_WINRS_CREATE_SHELL_ENVIRONMENT_VARIABLE@@@@PEAU_WINRS_CREATE_SHELL_ENVIRONMENT_VARIABLE@@@@QEAAPEAU_WINRS_CREATE_SHELL_ENVIRONMENT_VARIABLE@@XZ
; public: void __cdecl <class <struct _WINRS_CREATE_SHELL_ENVIRONMENT_VARIABLE>,struct _WINRS_CREATE_SHELL_ENVIRONMENT_VARIABLE *__ptr64>::operator struct _WINRS_CREATE_SHELL_ENVIRONMENT_VARIABLE *__ptr64 const(...)const __ptr64 throw()
??B?$AutoCleanup@V?$AutoDeleteVector@U_WINRS_CREATE_SHELL_ENVIRONMENT_VARIABLE@@@@PEAU_WINRS_CREATE_SHELL_ENVIRONMENT_VARIABLE@@@@QEBAQEAU_WINRS_CREATE_SHELL_ENVIRONMENT_VARIABLE@@XZ
; public: void __cdecl <class <struct _WINRS_RUN_COMMAND_ARG>,struct _WINRS_RUN_COMMAND_ARG *__ptr64>::operator struct _WINRS_RUN_COMMAND_ARG *__ptr64(...)__ptr64 throw()
??B?$AutoCleanup@V?$AutoDeleteVector@U_WINRS_RUN_COMMAND_ARG@@@@PEAU_WINRS_RUN_COMMAND_ARG@@@@QEAAPEAU_WINRS_RUN_COMMAND_ARG@@XZ
; public: void __cdecl <class <struct _WINRS_RUN_COMMAND_ARG>,struct _WINRS_RUN_COMMAND_ARG *__ptr64>::operator struct _WINRS_RUN_COMMAND_ARG *__ptr64 const(...)const __ptr64 throw()
??B?$AutoCleanup@V?$AutoDeleteVector@U_WINRS_RUN_COMMAND_ARG@@@@PEAU_WINRS_RUN_COMMAND_ARG@@@@QEBAQEAU_WINRS_RUN_COMMAND_ARG@@XZ
; public: void __cdecl <class <struct _WSMAN_OPTION>,struct _WSMAN_OPTION *__ptr64>::operator struct _WSMAN_OPTION *__ptr64(...)__ptr64 throw()
??B?$AutoCleanup@V?$AutoDeleteVector@U_WSMAN_OPTION@@@@PEAU_WSMAN_OPTION@@@@QEAAPEAU_WSMAN_OPTION@@XZ
; public: void __cdecl <class <void>,void *__ptr64>::operator void *__ptr64(...)__ptr64 throw()
??B?$AutoCleanup@V?$AutoDeleteVector@X@@PEAX@@QEAAPEAXXZ
; public: void __cdecl <class <unsigned char>,unsigned char *__ptr64>::operator unsigned char *__ptr64(...)__ptr64 throw()
??B?$AutoCleanup@V?$AutoFree@E@@PEAE@@QEAAPEAEXZ
; public: void __cdecl <class <unsigned char>,unsigned char *__ptr64>::operator unsigned char *__ptr64 const(...)const __ptr64 throw()
??B?$AutoCleanup@V?$AutoFree@E@@PEAE@@QEBAQEAEXZ
; public: void __cdecl <class <class Packet>,class Packet *__ptr64>::operator class Packet *__ptr64(...)__ptr64 throw()
??B?$AutoCleanup@V?$AutoLocklessItemRecycle@VPacket@@@@PEAVPacket@@@@QEAAPEAVPacket@@XZ
; public: void __cdecl <class <struct IAppHostChildElementCollection>,struct IAppHostChildElementCollection *__ptr64>::operator struct IAppHostChildElementCollection *__ptr64(...)__ptr64 throw()
??B?$AutoCleanup@V?$AutoRelease@UIAppHostChildElementCollection@@@@PEAUIAppHostChildElementCollection@@@@QEAAPEAUIAppHostChildElementCollection@@XZ
; public: void __cdecl <class <struct IAppHostElement>,struct IAppHostElement *__ptr64>::operator struct IAppHostElement *__ptr64(...)__ptr64 throw()
??B?$AutoCleanup@V?$AutoRelease@UIAppHostElement@@@@PEAUIAppHostElement@@@@QEAAPEAUIAppHostElement@@XZ
; public: void __cdecl <class <struct IAppHostElementCollection>,struct IAppHostElementCollection *__ptr64>::operator struct IAppHostElementCollection *__ptr64(...)__ptr64 throw()
??B?$AutoCleanup@V?$AutoRelease@UIAppHostElementCollection@@@@PEAUIAppHostElementCollection@@@@QEAAPEAUIAppHostElementCollection@@XZ
; public: void __cdecl <class <struct IClientSecurity>,struct IClientSecurity *__ptr64>::operator struct IClientSecurity *__ptr64(...)__ptr64 throw()
??B?$AutoCleanup@V?$AutoRelease@UIClientSecurity@@@@PEAUIClientSecurity@@@@QEAAPEAUIClientSecurity@@XZ
; public: void __cdecl <class <struct IClientSecurity>,struct IClientSecurity *__ptr64>::operator struct IClientSecurity *__ptr64 const(...)const __ptr64 throw()
??B?$AutoCleanup@V?$AutoRelease@UIClientSecurity@@@@PEAUIClientSecurity@@@@QEBAQEAUIClientSecurity@@XZ
; public: void __cdecl <class <struct IEnumWbemClassObject>,struct IEnumWbemClassObject *__ptr64>::operator struct IEnumWbemClassObject *__ptr64(...)__ptr64 throw()
??B?$AutoCleanup@V?$AutoRelease@UIEnumWbemClassObject@@@@PEAUIEnumWbemClassObject@@@@QEAAPEAUIEnumWbemClassObject@@XZ
; public: void __cdecl <class <struct IEnumWbemClassObject>,struct IEnumWbemClassObject *__ptr64>::operator struct IEnumWbemClassObject *__ptr64 const(...)const __ptr64 throw()
??B?$AutoCleanup@V?$AutoRelease@UIEnumWbemClassObject@@@@PEAUIEnumWbemClassObject@@@@QEBAQEAUIEnumWbemClassObject@@XZ
; public: void __cdecl <class <struct IErrorInfo>,struct IErrorInfo *__ptr64>::operator struct IErrorInfo *__ptr64(...)__ptr64 throw()
??B?$AutoCleanup@V?$AutoRelease@UIErrorInfo@@@@PEAUIErrorInfo@@@@QEAAPEAUIErrorInfo@@XZ
; public: void __cdecl <class <struct IErrorInfo>,struct IErrorInfo *__ptr64>::operator struct IErrorInfo *__ptr64 const(...)const __ptr64 throw()
??B?$AutoCleanup@V?$AutoRelease@UIErrorInfo@@@@PEAUIErrorInfo@@@@QEBAQEAUIErrorInfo@@XZ
; public: void __cdecl <class <struct IUnknown>,struct IUnknown *__ptr64>::operator struct IUnknown *__ptr64(...)__ptr64 throw()
??B?$AutoCleanup@V?$AutoRelease@UIUnknown@@@@PEAUIUnknown@@@@QEAAPEAUIUnknown@@XZ
; public: void __cdecl <class <struct IUnknown>,struct IUnknown *__ptr64>::operator struct IUnknown *__ptr64 const(...)const __ptr64 throw()
??B?$AutoCleanup@V?$AutoRelease@UIUnknown@@@@PEAUIUnknown@@@@QEBAQEAUIUnknown@@XZ
; public: void __cdecl <class <struct IWbemClassObject>,struct IWbemClassObject *__ptr64>::operator struct IWbemClassObject *__ptr64(...)__ptr64 throw()
??B?$AutoCleanup@V?$AutoRelease@UIWbemClassObject@@@@PEAUIWbemClassObject@@@@QEAAPEAUIWbemClassObject@@XZ
; public: void __cdecl <class <struct IWbemClassObject>,struct IWbemClassObject *__ptr64>::operator struct IWbemClassObject *__ptr64 const(...)const __ptr64 throw()
??B?$AutoCleanup@V?$AutoRelease@UIWbemClassObject@@@@PEAUIWbemClassObject@@@@QEBAQEAUIWbemClassObject@@XZ
; public: void __cdecl <class <struct IWbemContext>,struct IWbemContext *__ptr64>::operator struct IWbemContext *__ptr64(...)__ptr64 throw()
??B?$AutoCleanup@V?$AutoRelease@UIWbemContext@@@@PEAUIWbemContext@@@@QEAAPEAUIWbemContext@@XZ
; public: void __cdecl <class <struct IWbemContext>,struct IWbemContext *__ptr64>::operator struct IWbemContext *__ptr64 const(...)const __ptr64 throw()
??B?$AutoCleanup@V?$AutoRelease@UIWbemContext@@@@PEAUIWbemContext@@@@QEBAQEAUIWbemContext@@XZ
; public: void __cdecl <class <struct IWbemLocator>,struct IWbemLocator *__ptr64>::operator struct IWbemLocator *__ptr64(...)__ptr64 throw()
??B?$AutoCleanup@V?$AutoRelease@UIWbemLocator@@@@PEAUIWbemLocator@@@@QEAAPEAUIWbemLocator@@XZ
; public: void __cdecl <class <struct IWbemLocator>,struct IWbemLocator *__ptr64>::operator struct IWbemLocator *__ptr64 const(...)const __ptr64 throw()
??B?$AutoCleanup@V?$AutoRelease@UIWbemLocator@@@@PEAUIWbemLocator@@@@QEBAQEAUIWbemLocator@@XZ
; public: void __cdecl <class <struct IWbemObjectTextSrc>,struct IWbemObjectTextSrc *__ptr64>::operator struct IWbemObjectTextSrc *__ptr64(...)__ptr64 throw()
??B?$AutoCleanup@V?$AutoRelease@UIWbemObjectTextSrc@@@@PEAUIWbemObjectTextSrc@@@@QEAAPEAUIWbemObjectTextSrc@@XZ
; public: void __cdecl <class <struct IWbemObjectTextSrc>,struct IWbemObjectTextSrc *__ptr64>::operator struct IWbemObjectTextSrc *__ptr64 const(...)const __ptr64 throw()
??B?$AutoCleanup@V?$AutoRelease@UIWbemObjectTextSrc@@@@PEAUIWbemObjectTextSrc@@@@QEBAQEAUIWbemObjectTextSrc@@XZ
; public: void __cdecl <class <struct IWbemPath>,struct IWbemPath *__ptr64>::operator struct IWbemPath *__ptr64(...)__ptr64 throw()
??B?$AutoCleanup@V?$AutoRelease@UIWbemPath@@@@PEAUIWbemPath@@@@QEAAPEAUIWbemPath@@XZ
; public: void __cdecl <class <struct IWbemPath>,struct IWbemPath *__ptr64>::operator struct IWbemPath *__ptr64 const(...)const __ptr64 throw()
??B?$AutoCleanup@V?$AutoRelease@UIWbemPath@@@@PEAUIWbemPath@@@@QEBAQEAUIWbemPath@@XZ
; public: void __cdecl <class <struct IWbemPathKeyList>,struct IWbemPathKeyList *__ptr64>::operator struct IWbemPathKeyList *__ptr64(...)__ptr64 throw()
??B?$AutoCleanup@V?$AutoRelease@UIWbemPathKeyList@@@@PEAUIWbemPathKeyList@@@@QEAAPEAUIWbemPathKeyList@@XZ
; public: void __cdecl <class <struct IWbemPathKeyList>,struct IWbemPathKeyList *__ptr64>::operator struct IWbemPathKeyList *__ptr64 const(...)const __ptr64 throw()
??B?$AutoCleanup@V?$AutoRelease@UIWbemPathKeyList@@@@PEAUIWbemPathKeyList@@@@QEBAQEAUIWbemPathKeyList@@XZ
; public: void __cdecl <class <struct IWbemQualifierSet>,struct IWbemQualifierSet *__ptr64>::operator struct IWbemQualifierSet *__ptr64(...)__ptr64 throw()
??B?$AutoCleanup@V?$AutoRelease@UIWbemQualifierSet@@@@PEAUIWbemQualifierSet@@@@QEAAPEAUIWbemQualifierSet@@XZ
; public: void __cdecl <class <struct IWbemQualifierSet>,struct IWbemQualifierSet *__ptr64>::operator struct IWbemQualifierSet *__ptr64 const(...)const __ptr64 throw()
??B?$AutoCleanup@V?$AutoRelease@UIWbemQualifierSet@@@@PEAUIWbemQualifierSet@@@@QEBAQEAUIWbemQualifierSet@@XZ
; public: void __cdecl <class <struct IWbemQuery>,struct IWbemQuery *__ptr64>::operator struct IWbemQuery *__ptr64(...)__ptr64 throw()
??B?$AutoCleanup@V?$AutoRelease@UIWbemQuery@@@@PEAUIWbemQuery@@@@QEAAPEAUIWbemQuery@@XZ
; public: void __cdecl <class <struct IWbemQuery>,struct IWbemQuery *__ptr64>::operator struct IWbemQuery *__ptr64 const(...)const __ptr64 throw()
??B?$AutoCleanup@V?$AutoRelease@UIWbemQuery@@@@PEAUIWbemQuery@@@@QEBAQEAUIWbemQuery@@XZ
; public: void __cdecl <class <struct IWbemServices>,struct IWbemServices *__ptr64>::operator struct IWbemServices *__ptr64(...)__ptr64 throw()
??B?$AutoCleanup@V?$AutoRelease@UIWbemServices@@@@PEAUIWbemServices@@@@QEAAPEAUIWbemServices@@XZ
; public: void __cdecl <class <struct IWbemServices>,struct IWbemServices *__ptr64>::operator struct IWbemServices *__ptr64 const(...)const __ptr64 throw()
??B?$AutoCleanup@V?$AutoRelease@UIWbemServices@@@@PEAUIWbemServices@@@@QEBAQEAUIWbemServices@@XZ
; public: void __cdecl <class <class CBaseConfigCache>,class CBaseConfigCache *__ptr64>::operator class CBaseConfigCache *__ptr64(...)__ptr64 throw()
??B?$AutoCleanup@V?$AutoRelease@VCBaseConfigCache@@@@PEAVCBaseConfigCache@@@@QEAAPEAVCBaseConfigCache@@XZ
; public: void __cdecl <class <class CClientConfigSettings>,class CClientConfigSettings *__ptr64>::operator class CClientConfigSettings *__ptr64(...)__ptr64 throw()
??B?$AutoCleanup@V?$AutoRelease@VCClientConfigSettings@@@@PEAVCClientConfigSettings@@@@QEAAPEAVCClientConfigSettings@@XZ
; public: void __cdecl <class <class CCommonConfigSettings>,class CCommonConfigSettings *__ptr64>::operator class CCommonConfigSettings *__ptr64(...)__ptr64 throw()
??B?$AutoCleanup@V?$AutoRelease@VCCommonConfigSettings@@@@PEAVCCommonConfigSettings@@@@QEAAPEAVCCommonConfigSettings@@XZ
; public: void __cdecl <class <class CBaseConfigCache::CConfigCacheMap>,class CBaseConfigCache::CConfigCacheMap *__ptr64>::operator class CBaseConfigCache::CConfigCacheMap *__ptr64(...)__ptr64 throw()
??B?$AutoCleanup@V?$AutoRelease@VCConfigCacheMap@CBaseConfigCache@@@@PEAVCConfigCacheMap@CBaseConfigCache@@@@QEAAPEAVCConfigCacheMap@CBaseConfigCache@@XZ
; public: void __cdecl <class <class CConfigManager>,class CConfigManager *__ptr64>::operator class CConfigManager *__ptr64(...)__ptr64 throw()
??B?$AutoCleanup@V?$AutoRelease@VCConfigManager@@@@PEAVCConfigManager@@@@QEAAPEAVCConfigManager@@XZ
; public: void __cdecl <class <class CRemoteSession>,class CRemoteSession *__ptr64>::operator class CRemoteSession *__ptr64(...)__ptr64 throw()
??B?$AutoCleanup@V?$AutoRelease@VCRemoteSession@@@@PEAVCRemoteSession@@@@QEAAPEAVCRemoteSession@@XZ
; public: void __cdecl <class <class CRequestContext>,class CRequestContext *__ptr64>::operator class CRequestContext *__ptr64(...)__ptr64 throw()
??B?$AutoCleanup@V?$AutoRelease@VCRequestContext@@@@PEAVCRequestContext@@@@QEAAPEAVCRequestContext@@XZ
; public: void __cdecl <class <class CServiceCommonConfigSettings>,class CServiceCommonConfigSettings *__ptr64>::operator class CServiceCommonConfigSettings *__ptr64(...)__ptr64 throw()
??B?$AutoCleanup@V?$AutoRelease@VCServiceCommonConfigSettings@@@@PEAVCServiceCommonConfigSettings@@@@QEAAPEAVCServiceCommonConfigSettings@@XZ
; public: void __cdecl <class <class CServiceConfigCache>,class CServiceConfigCache *__ptr64>::operator class CServiceConfigCache *__ptr64(...)__ptr64 throw()
??B?$AutoCleanup@V?$AutoRelease@VCServiceConfigCache@@@@PEAVCServiceConfigCache@@@@QEAAPEAVCServiceConfigCache@@XZ
; public: void __cdecl <class <class CServiceConfigSettings>,class CServiceConfigSettings *__ptr64>::operator class CServiceConfigSettings *__ptr64(...)__ptr64 throw()
??B?$AutoCleanup@V?$AutoRelease@VCServiceConfigSettings@@@@PEAVCServiceConfigSettings@@@@QEAAPEAVCServiceConfigSettings@@XZ
; public: void __cdecl <class <class CWSManEPR>,class CWSManEPR *__ptr64>::operator class CWSManEPR *__ptr64(...)__ptr64 throw()
??B?$AutoCleanup@V?$AutoRelease@VCWSManEPR@@@@PEAVCWSManEPR@@@@QEAAPEAVCWSManEPR@@XZ
; public: void __cdecl <class <class CWSManEPR>,class CWSManEPR *__ptr64>::operator class CWSManEPR *__ptr64 const(...)const __ptr64 throw()
??B?$AutoCleanup@V?$AutoRelease@VCWSManEPR@@@@PEAVCWSManEPR@@@@QEBAQEAVCWSManEPR@@XZ
; public: void __cdecl <class <class CWSManGroupPolicyCache>,class CWSManGroupPolicyCache *__ptr64>::operator class CWSManGroupPolicyCache *__ptr64(...)__ptr64 throw()
??B?$AutoCleanup@V?$AutoRelease@VCWSManGroupPolicyCache@@@@PEAVCWSManGroupPolicyCache@@@@QEAAPEAVCWSManGroupPolicyCache@@XZ
; public: void __cdecl <class <class CWSManGroupPolicyManager>,class CWSManGroupPolicyManager *__ptr64>::operator class CWSManGroupPolicyManager *__ptr64(...)__ptr64 throw()
??B?$AutoCleanup@V?$AutoRelease@VCWSManGroupPolicyManager@@@@PEAVCWSManGroupPolicyManager@@@@QEAAPEAVCWSManGroupPolicyManager@@XZ
; public: void __cdecl <class <class CWSManObject>,class CWSManObject *__ptr64>::operator class CWSManObject *__ptr64(...)__ptr64 throw()
??B?$AutoCleanup@V?$AutoRelease@VCWSManObject@@@@PEAVCWSManObject@@@@QEAAPEAVCWSManObject@@XZ
; public: void __cdecl <class <class CWSManResource>,class CWSManResource *__ptr64>::operator class CWSManResource *__ptr64(...)__ptr64 throw()
??B?$AutoCleanup@V?$AutoRelease@VCWSManResource@@@@PEAVCWSManResource@@@@QEAAPEAVCWSManResource@@XZ
; public: void __cdecl <class <class CWSManResource>,class CWSManResource *__ptr64>::operator class CWSManResource *__ptr64 const(...)const __ptr64 throw()
??B?$AutoCleanup@V?$AutoRelease@VCWSManResource@@@@PEAVCWSManResource@@@@QEBAQEAVCWSManResource@@XZ
; public: void __cdecl <class <class CWinRSPluginConfigCache>,class CWinRSPluginConfigCache *__ptr64>::operator class CWinRSPluginConfigCache *__ptr64(...)__ptr64 throw()
??B?$AutoCleanup@V?$AutoRelease@VCWinRSPluginConfigCache@@@@PEAVCWinRSPluginConfigCache@@@@QEAAPEAVCWinRSPluginConfigCache@@XZ
; public: void __cdecl <class <class CWinRSPluginConfigCache>,class CWinRSPluginConfigCache *__ptr64>::operator class CWinRSPluginConfigCache *__ptr64 const(...)const __ptr64 throw()
??B?$AutoCleanup@V?$AutoRelease@VCWinRSPluginConfigCache@@@@PEAVCWinRSPluginConfigCache@@@@QEBAQEAVCWinRSPluginConfigCache@@XZ
; public: void __cdecl <class <class CWinRSPluginConfigSettings>,class CWinRSPluginConfigSettings *__ptr64>::operator class CWinRSPluginConfigSettings *__ptr64(...)__ptr64 throw()
??B?$AutoCleanup@V?$AutoRelease@VCWinRSPluginConfigSettings@@@@PEAVCWinRSPluginConfigSettings@@@@QEAAPEAVCWinRSPluginConfigSettings@@XZ
; public: void __cdecl <class <class WSMan::Client::Command>,class WSMan::Client::Command *__ptr64>::operator class WSMan::Client::Command *__ptr64(...)__ptr64 throw()
??B?$AutoCleanup@V?$AutoRelease@VCommand@Client@WSMan@@@@PEAVCommand@Client@WSMan@@@@QEAAPEAVCommand@Client@WSMan@@XZ
; public: void __cdecl <class <class ConfigNotification>,class ConfigNotification *__ptr64>::operator class ConfigNotification *__ptr64(...)__ptr64 throw()
??B?$AutoCleanup@V?$AutoRelease@VConfigNotification@@@@PEAVConfigNotification@@@@QEAAPEAVConfigNotification@@XZ
; public: void __cdecl <class <class WSMan::Client::ConnectShellOperation>,class WSMan::Client::ConnectShellOperation *__ptr64>::operator class WSMan::Client::ConnectShellOperation *__ptr64(...)__ptr64 throw()
??B?$AutoCleanup@V?$AutoRelease@VConnectShellOperation@Client@WSMan@@@@PEAVConnectShellOperation@Client@WSMan@@@@QEAAPEAVConnectShellOperation@Client@WSMan@@XZ
; public: void __cdecl <class <class WSMan::Client::CreateShellOperation>,class WSMan::Client::CreateShellOperation *__ptr64>::operator class WSMan::Client::CreateShellOperation *__ptr64(...)__ptr64 throw()
??B?$AutoCleanup@V?$AutoRelease@VCreateShellOperation@Client@WSMan@@@@PEAVCreateShellOperation@Client@WSMan@@@@QEAAPEAVCreateShellOperation@Client@WSMan@@XZ
; public: void __cdecl <class <class WSMan::Client::DeleteShellOperation>,class WSMan::Client::DeleteShellOperation *__ptr64>::operator class WSMan::Client::DeleteShellOperation *__ptr64(...)__ptr64 throw()
??B?$AutoCleanup@V?$AutoRelease@VDeleteShellOperation@Client@WSMan@@@@PEAVDeleteShellOperation@Client@WSMan@@@@QEAAPEAVDeleteShellOperation@Client@WSMan@@XZ
; public: void __cdecl <class <class WSMan::Client::DisconnectOperation>,class WSMan::Client::DisconnectOperation *__ptr64>::operator class WSMan::Client::DisconnectOperation *__ptr64(...)__ptr64 throw()
??B?$AutoCleanup@V?$AutoRelease@VDisconnectOperation@Client@WSMan@@@@PEAVDisconnectOperation@Client@WSMan@@@@QEAAPEAVDisconnectOperation@Client@WSMan@@XZ
; public: void __cdecl <class <class EnumSinkEx>,class EnumSinkEx *__ptr64>::operator class EnumSinkEx *__ptr64(...)__ptr64 throw()
??B?$AutoCleanup@V?$AutoRelease@VEnumSinkEx@@@@PEAVEnumSinkEx@@@@QEAAPEAVEnumSinkEx@@XZ
; public: void __cdecl <class <class EnumSinkEx>,class EnumSinkEx *__ptr64>::operator class EnumSinkEx *__ptr64 const(...)const __ptr64 throw()
??B?$AutoCleanup@V?$AutoRelease@VEnumSinkEx@@@@PEAVEnumSinkEx@@@@QEBAQEAVEnumSinkEx@@XZ
; public: void __cdecl <class <class GeneralSinkEx>,class GeneralSinkEx *__ptr64>::operator class GeneralSinkEx *__ptr64(...)__ptr64 throw()
??B?$AutoCleanup@V?$AutoRelease@VGeneralSinkEx@@@@PEAVGeneralSinkEx@@@@QEAAPEAVGeneralSinkEx@@XZ
; public: void __cdecl <class <class GeneralSinkEx>,class GeneralSinkEx *__ptr64>::operator class GeneralSinkEx *__ptr64 const(...)const __ptr64 throw()
??B?$AutoCleanup@V?$AutoRelease@VGeneralSinkEx@@@@PEAVGeneralSinkEx@@@@QEBAQEAVGeneralSinkEx@@XZ
; public: void __cdecl <class <class IISConfigSettings>,class IISConfigSettings *__ptr64>::operator class IISConfigSettings *__ptr64(...)__ptr64 throw()
??B?$AutoCleanup@V?$AutoRelease@VIISConfigSettings@@@@PEAVIISConfigSettings@@@@QEAAPEAVIISConfigSettings@@XZ
; public: void __cdecl <class <class IPCSoapProcessor>,class IPCSoapProcessor *__ptr64>::operator class IPCSoapProcessor *__ptr64(...)__ptr64 throw()
??B?$AutoCleanup@V?$AutoRelease@VIPCSoapProcessor@@@@PEAVIPCSoapProcessor@@@@QEAAPEAVIPCSoapProcessor@@XZ
; public: void __cdecl <class <class IRequestContext>,class IRequestContext *__ptr64>::operator class IRequestContext *__ptr64(...)__ptr64 throw()
??B?$AutoCleanup@V?$AutoRelease@VIRequestContext@@@@PEAVIRequestContext@@@@QEAAPEAVIRequestContext@@XZ
; public: void __cdecl <class <class IRequestContext>,class IRequestContext *__ptr64>::operator class IRequestContext *__ptr64 const(...)const __ptr64 throw()
??B?$AutoCleanup@V?$AutoRelease@VIRequestContext@@@@PEAVIRequestContext@@@@QEBAQEAVIRequestContext@@XZ
; public: void __cdecl <class <class ISubscription>,class ISubscription *__ptr64>::operator class ISubscription *__ptr64(...)__ptr64 throw()
??B?$AutoCleanup@V?$AutoRelease@VISubscription@@@@PEAVISubscription@@@@QEAAPEAVISubscription@@XZ
; public: void __cdecl <class <class InboundRequestDetails>,class InboundRequestDetails *__ptr64>::operator class InboundRequestDetails *__ptr64(...)__ptr64 throw()
??B?$AutoCleanup@V?$AutoRelease@VInboundRequestDetails@@@@PEAVInboundRequestDetails@@@@QEAAPEAVInboundRequestDetails@@XZ
; public: void __cdecl <class <class InboundRequestDetails>,class InboundRequestDetails *__ptr64>::operator class InboundRequestDetails *__ptr64 const(...)const __ptr64 throw()
??B?$AutoCleanup@V?$AutoRelease@VInboundRequestDetails@@@@PEAVInboundRequestDetails@@@@QEBAQEAVInboundRequestDetails@@XZ
; public: void __cdecl <class <class WSMan::Client::ReceiveOperation>,class WSMan::Client::ReceiveOperation *__ptr64>::operator class WSMan::Client::ReceiveOperation *__ptr64(...)__ptr64 throw()
??B?$AutoCleanup@V?$AutoRelease@VReceiveOperation@Client@WSMan@@@@PEAVReceiveOperation@Client@WSMan@@@@QEAAPEAVReceiveOperation@Client@WSMan@@XZ
; public: void __cdecl <class <class WSMan::Client::ReconnectOperation>,class WSMan::Client::ReconnectOperation *__ptr64>::operator class WSMan::Client::ReconnectOperation *__ptr64(...)__ptr64 throw()
??B?$AutoCleanup@V?$AutoRelease@VReconnectOperation@Client@WSMan@@@@PEAVReconnectOperation@Client@WSMan@@@@QEAAPEAVReconnectOperation@Client@WSMan@@XZ
; public: void __cdecl <class <class WSMan::Client::SendOperation>,class WSMan::Client::SendOperation *__ptr64>::operator class WSMan::Client::SendOperation *__ptr64(...)__ptr64 throw()
??B?$AutoCleanup@V?$AutoRelease@VSendOperation@Client@WSMan@@@@PEAVSendOperation@Client@WSMan@@@@QEAAPEAVSendOperation@Client@WSMan@@XZ
; public: void __cdecl <class <class WSMan::Client::Shell>,class WSMan::Client::Shell *__ptr64>::operator class WSMan::Client::Shell *__ptr64(...)__ptr64 throw()
??B?$AutoCleanup@V?$AutoRelease@VShell@Client@WSMan@@@@PEAVShell@Client@WSMan@@@@QEAAPEAVShell@Client@WSMan@@XZ
; public: void __cdecl <class <class WSMan::Client::Shell>,class WSMan::Client::Shell *__ptr64>::operator class WSMan::Client::Shell *__ptr64 const(...)const __ptr64 throw()
??B?$AutoCleanup@V?$AutoRelease@VShell@Client@WSMan@@@@PEAVShell@Client@WSMan@@@@QEBAQEAVShell@Client@WSMan@@XZ
; public: void __cdecl <class <class WSMan::Client::SignalOperation>,class WSMan::Client::SignalOperation *__ptr64>::operator class WSMan::Client::SignalOperation *__ptr64(...)__ptr64 throw()
??B?$AutoCleanup@V?$AutoRelease@VSignalOperation@Client@WSMan@@@@PEAVSignalOperation@Client@WSMan@@@@QEAAPEAVSignalOperation@Client@WSMan@@XZ
; public: void __cdecl <class <class UserRecord>,class UserRecord *__ptr64>::operator class UserRecord *__ptr64(...)__ptr64 throw()
??B?$AutoCleanup@V?$AutoRelease@VUserRecord@@@@PEAVUserRecord@@@@QEAAPEAVUserRecord@@XZ
; public: void __cdecl <class <class UserRecord>,class UserRecord *__ptr64>::operator class UserRecord *__ptr64 const(...)const __ptr64 throw()
??B?$AutoCleanup@V?$AutoRelease@VUserRecord@@@@PEAVUserRecord@@@@QEBAQEAVUserRecord@@XZ
; public: void __cdecl <class AutoBstr,unsigned short *__ptr64>::operator unsigned short *__ptr64(...)__ptr64 throw()
??B?$AutoCleanup@VAutoBstr@@PEAG@@QEAAPEAGXZ
; public: void __cdecl <class AutoBstrNoAlloc,unsigned short *__ptr64>::operator unsigned short *__ptr64(...)__ptr64 throw()
??B?$AutoCleanup@VAutoBstrNoAlloc@@PEAG@@QEAAPEAGXZ
; public: void __cdecl <class AutoBstrNoAlloc,unsigned short *__ptr64>::operator unsigned short *__ptr64 const(...)const __ptr64 throw()
??B?$AutoCleanup@VAutoBstrNoAlloc@@PEAG@@QEBAQEAGXZ
; public: void __cdecl <class AutoCertContext,struct _CERT_CONTEXT const *__ptr64>::operator struct _CERT_CONTEXT const *__ptr64(...)__ptr64 throw()
??B?$AutoCleanup@VAutoCertContext@@PEBU_CERT_CONTEXT@@@@QEAAPEBU_CERT_CONTEXT@@XZ
; public: void __cdecl <class AutoHandle,void *__ptr64>::operator void *__ptr64(...)__ptr64 throw()
??B?$AutoCleanup@VAutoHandle@@PEAX@@QEAAPEAXXZ
; public: void __cdecl <class AutoHandle,void *__ptr64>::operator void *__ptr64 const(...)const __ptr64 throw()
??B?$AutoCleanup@VAutoHandle@@PEAX@@QEBAQEAXXZ
; public: void __cdecl <class AutoImpersonateUser,void *__ptr64>::operator void *__ptr64(...)__ptr64 throw()
??B?$AutoCleanup@VAutoImpersonateUser@@PEAX@@QEAAPEAXXZ
; public: void __cdecl <class AutoImpersonateUser,void *__ptr64>::operator void *__ptr64 const(...)const __ptr64 throw()
??B?$AutoCleanup@VAutoImpersonateUser@@PEAX@@QEBAQEAXXZ
; public: void __cdecl <class AutoLibrary,struct HINSTANCE__ *__ptr64>::operator struct HINSTANCE__ *__ptr64(...)__ptr64 throw()
??B?$AutoCleanup@VAutoLibrary@@PEAUHINSTANCE__@@@@QEAAPEAUHINSTANCE__@@XZ
; public: void __cdecl <class AutoLocalFree,void *__ptr64>::operator void *__ptr64(...)__ptr64 throw()
??B?$AutoCleanup@VAutoLocalFree@@PEAX@@QEAAPEAXXZ
; public: void __cdecl <class AutoMIClass,struct _MI_Class *__ptr64>::operator struct _MI_Class *__ptr64(...)__ptr64 throw()
??B?$AutoCleanup@VAutoMIClass@@PEAU_MI_Class@@@@QEAAPEAU_MI_Class@@XZ
; public: void __cdecl <class AutoMIInstance,struct _MI_Instance *__ptr64>::operator struct _MI_Instance *__ptr64(...)__ptr64 throw()
??B?$AutoCleanup@VAutoMIInstance@@PEAU_MI_Instance@@@@QEAAPEAU_MI_Instance@@XZ
; public: void __cdecl <class AutoRegKey,struct HKEY__ *__ptr64>::operator struct HKEY__ *__ptr64(...)__ptr64 throw()
??B?$AutoCleanup@VAutoRegKey@@PEAUHKEY__@@@@QEAAPEAUHKEY__@@XZ
; public: void __cdecl <class AutoSecurityDescriptor,void *__ptr64>::operator void *__ptr64(...)__ptr64 throw()
??B?$AutoCleanup@VAutoSecurityDescriptor@@PEAX@@QEAAPEAXXZ
; public: void __cdecl <class CCertMapping *__ptr64,struct Empty>::operator bool(...)const __ptr64 throw()
??B?$SafeMap_Iterator@PEAVCCertMapping@@UEmpty@@@@QEBA_NXZ
; public: void __cdecl <class CListenerOperation *__ptr64,struct Empty>::operator bool(...)const __ptr64 throw()
??B?$SafeMap_Iterator@PEAVCListenerOperation@@UEmpty@@@@QEBA_NXZ
; public: void __cdecl <class CShellUriSettings *__ptr64,struct Empty>::operator bool(...)const __ptr64 throw()
??B?$SafeMap_Iterator@PEAVCShellUriSettings@@UEmpty@@@@QEBA_NXZ
; public: void __cdecl <class CertThumbprintKey,class CServiceConfigSettings::CertThumbprintMappedSet>::operator bool(...)const __ptr64 throw()
??B?$SafeMap_Iterator@VCertThumbprintKey@@VCertThumbprintMappedSet@CServiceConfigSettings@@@@QEBA_NXZ
; public: void __cdecl <class Locale::Key,unsigned long>::operator bool(...)const __ptr64 throw()
??B?$SafeMap_Iterator@VKey@Locale@@K@@QEBA_NXZ
; public: void __cdecl <class StringKeyCI,unsigned long>::operator bool(...)const __ptr64 throw()
??B?$SafeMap_Iterator@VStringKeyCI@@K@@QEBA_NXZ
; public: void __cdecl <class StringKeyCI,struct WSManHttpListener::USER_CONTEXT_INFO>::operator bool(...)const __ptr64 throw()
??B?$SafeMap_Iterator@VStringKeyCI@@UUSER_CONTEXT_INFO@WSManHttpListener@@@@QEBA_NXZ
; public: void __cdecl <class StringKeyStore,class ExpiredOperationIdRecord *__ptr64>::operator bool(...)const __ptr64 throw()
??B?$SafeMap_Iterator@VStringKeyStore@@PEAVExpiredOperationIdRecord@@@@QEBA_NXZ
; public: void __cdecl <enum WSManSessionOption,class WSMan::Client::SessionOptions::OptionValue *__ptr64>::operator bool(...)const __ptr64 throw()
??B?$SafeMap_Iterator@W4WSManSessionOption@@PEAVOptionValue@SessionOptions@Client@WSMan@@@@QEBA_NXZ
; public: struct _WSMAN_STREAM_ID_SET *__ptr64 __cdecl <class <struct _WSMAN_STREAM_ID_SET>,struct _WSMAN_STREAM_ID_SET *__ptr64>::operator ->(void)__ptr64 
??C?$AutoCleanup@V?$AutoDelete@U_WSMAN_STREAM_ID_SET@@@@PEAU_WSMAN_STREAM_ID_SET@@@@QEAAPEAU_WSMAN_STREAM_ID_SET@@XZ
; public: class <class ISubscription> *__ptr64 __cdecl <class <class <class ISubscription>>,class <class ISubscription> *__ptr64>::operator ->(void)__ptr64 
??C?$AutoCleanup@V?$AutoDelete@V?$Handle@VISubscription@@@@@@PEAV?$Handle@VISubscription@@@@@@QEAAPEAV?$Handle@VISubscription@@@@XZ
; public: class <class StringKeyCI,unsigned long> *__ptr64 __cdecl <class <class <class StringKeyCI,unsigned long>>,class <class StringKeyCI,unsigned long> *__ptr64>::operator ->(void)__ptr64 
??C?$AutoCleanup@V?$AutoDelete@V?$SafeMap_Iterator@VStringKeyCI@@K@@@@PEAV?$SafeMap_Iterator@VStringKeyCI@@K@@@@QEAAPEAV?$SafeMap_Iterator@VStringKeyCI@@K@@XZ
; public: class <enum WSManSessionOption,class WSMan::Client::SessionOptions::OptionValue *__ptr64> *__ptr64 __cdecl <class <class <enum WSManSessionOption,class WSMan::Client::SessionOptions::OptionValue *__ptr64>>,class <enum WSManSessionOption,class WSMan::Client::SessionOptions::OptionValue *__ptr64> *__ptr64>::operator ->(void)__ptr64 
??C?$AutoCleanup@V?$AutoDelete@V?$SafeMap_Iterator@W4WSManSessionOption@@PEAVOptionValue@SessionOptions@Client@WSMan@@@@@@PEAV?$SafeMap_Iterator@W4WSManSessionOption@@PEAVOptionValue@SessionOptions@Client@WSMan@@@@@@QEAAPEAV?$SafeMap_Iterator@W4WSManSessionOption@@PEAVOptionValue@SessionOptions@Client@WSMan@@@@XZ
; public: class <class CCertMapping *__ptr64> *__ptr64 __cdecl <class <class <class CCertMapping *__ptr64>>,class <class CCertMapping *__ptr64> *__ptr64>::operator ->(void)__ptr64 
??C?$AutoCleanup@V?$AutoDelete@V?$SafeSet@PEAVCCertMapping@@@@@@PEAV?$SafeSet@PEAVCCertMapping@@@@@@QEAAPEAV?$SafeSet@PEAVCCertMapping@@@@XZ
; public: class <class CShellUriSettings *__ptr64> *__ptr64 __cdecl <class <class <class CShellUriSettings *__ptr64>>,class <class CShellUriSettings *__ptr64> *__ptr64>::operator ->(void)__ptr64 
??C?$AutoCleanup@V?$AutoDelete@V?$SafeSet@PEAVCShellUriSettings@@@@@@PEAV?$SafeSet@PEAVCShellUriSettings@@@@@@QEAAPEAV?$SafeSet@PEAVCShellUriSettings@@@@XZ
; public: class <class CListenerOperation *__ptr64> *__ptr64 __cdecl <class <class <class CListenerOperation *__ptr64>>,class <class CListenerOperation *__ptr64> *__ptr64>::operator ->(void)__ptr64 
??C?$AutoCleanup@V?$AutoDelete@V?$SafeSet_Iterator@PEAVCListenerOperation@@@@@@PEAV?$SafeSet_Iterator@PEAVCListenerOperation@@@@@@QEAAPEAV?$SafeSet_Iterator@PEAVCListenerOperation@@@@XZ
; public: class std::<class CListenerSettings *__ptr64,class CServiceConfigSettings::CListenerSettingsLessFunctor,class <class CListenerSettings *__ptr64>> *__ptr64 __cdecl <class <class std::<class CListenerSettings *__ptr64,class CServiceConfigSettings::CListenerSettingsLessFunctor,class <class CListenerSettings *__ptr64>>>,class std::<class CListenerSettings *__ptr64,class CServiceConfigSettings::CListenerSettingsLessFunctor,class <class CListenerSettings *__ptr64>> *__ptr64>::operator ->(void)__ptr64 
??C?$AutoCleanup@V?$AutoDelete@V?$set@PEAVCListenerSettings@@VCListenerSettingsLessFunctor@CServiceConfigSettings@@V?$transport_allocator@PEAVCListenerSettings@@@@@std@@@@PEAV?$set@PEAVCListenerSettings@@VCListenerSettingsLessFunctor@CServiceConfigSettings@@V?$transport_allocator@PEAVCListenerSettings@@@@@std@@@@QEAAPEAV?$set@PEAVCListenerSettings@@VCListenerSettingsLessFunctor@CServiceConfigSettings@@V?$transport_allocator@PEAVCListenerSettings@@@@@std@@XZ
; public: class std::<struct sockaddr_storage,class CListenerSettings::SockAddrLessFunctor,class <struct sockaddr_storage>> *__ptr64 __cdecl <class <class std::<struct sockaddr_storage,class CListenerSettings::SockAddrLessFunctor,class <struct sockaddr_storage>>>,class std::<struct sockaddr_storage,class CListenerSettings::SockAddrLessFunctor,class <struct sockaddr_storage>> *__ptr64>::operator ->(void)__ptr64 
??C?$AutoCleanup@V?$AutoDelete@V?$set@Usockaddr_storage@@VSockAddrLessFunctor@CListenerSettings@@V?$transport_allocator@Usockaddr_storage@@@@@std@@@@PEAV?$set@Usockaddr_storage@@VSockAddrLessFunctor@CListenerSettings@@V?$transport_allocator@Usockaddr_storage@@@@@std@@@@QEAAPEAV?$set@Usockaddr_storage@@VSockAddrLessFunctor@CListenerSettings@@V?$transport_allocator@Usockaddr_storage@@@@@std@@XZ
; public: class std::<class WSMan::Client::HandleImpl *__ptr64,class <class WSMan::Client::HandleImpl *__ptr64>> *__ptr64 __cdecl <class <class std::<class WSMan::Client::HandleImpl *__ptr64,class <class WSMan::Client::HandleImpl *__ptr64>>>,class std::<class WSMan::Client::HandleImpl *__ptr64,class <class WSMan::Client::HandleImpl *__ptr64>> *__ptr64>::operator ->(void)__ptr64 
??C?$AutoCleanup@V?$AutoDelete@V?$vector@PEAVHandleImpl@Client@WSMan@@V?$transport_allocator@PEAVHandleImpl@Client@WSMan@@@@@std@@@@PEAV?$vector@PEAVHandleImpl@Client@WSMan@@V?$transport_allocator@PEAVHandleImpl@Client@WSMan@@@@@std@@@@QEAAPEAV?$vector@PEAVHandleImpl@Client@WSMan@@V?$transport_allocator@PEAVHandleImpl@Client@WSMan@@@@@std@@XZ
; public: class std::<class IServiceConfigObserver *__ptr64,class <class IServiceConfigObserver *__ptr64>> *__ptr64 __cdecl <class <class std::<class IServiceConfigObserver *__ptr64,class <class IServiceConfigObserver *__ptr64>>>,class std::<class IServiceConfigObserver *__ptr64,class <class IServiceConfigObserver *__ptr64>> *__ptr64>::operator ->(void)__ptr64 
??C?$AutoCleanup@V?$AutoDelete@V?$vector@PEAVIServiceConfigObserver@@V?$transport_allocator@PEAVIServiceConfigObserver@@@@@std@@@@PEAV?$vector@PEAVIServiceConfigObserver@@V?$transport_allocator@PEAVIServiceConfigObserver@@@@@std@@@@QEAAPEAV?$vector@PEAVIServiceConfigObserver@@V?$transport_allocator@PEAVIServiceConfigObserver@@@@@std@@XZ
; public: class BlockedRecord *__ptr64 __cdecl <class <class BlockedRecord>,class BlockedRecord *__ptr64>::operator ->(void)__ptr64 
??C?$AutoCleanup@V?$AutoDelete@VBlockedRecord@@@@PEAVBlockedRecord@@@@QEAAPEAVBlockedRecord@@XZ
; public: class CBaseConfigCache *__ptr64 __cdecl <class <class CBaseConfigCache>,class CBaseConfigCache *__ptr64>::operator ->(void)__ptr64 
??C?$AutoCleanup@V?$AutoDelete@VCBaseConfigCache@@@@PEAVCBaseConfigCache@@@@QEAAPEAVCBaseConfigCache@@XZ
; public: class CCertMapping *__ptr64 __cdecl <class <class CCertMapping>,class CCertMapping *__ptr64>::operator ->(void)__ptr64 
??C?$AutoCleanup@V?$AutoDelete@VCCertMapping@@@@PEAVCCertMapping@@@@QEAAPEAVCCertMapping@@XZ
; public: class CConfigChangeSource *__ptr64 __cdecl <class <class CConfigChangeSource>,class CConfigChangeSource *__ptr64>::operator ->(void)__ptr64 
??C?$AutoCleanup@V?$AutoDelete@VCConfigChangeSource@@@@PEAVCConfigChangeSource@@@@QEAAPEAVCConfigChangeSource@@XZ
; public: class CListenerSettings *__ptr64 __cdecl <class <class CListenerSettings>,class CListenerSettings *__ptr64>::operator ->(void)__ptr64 
??C?$AutoCleanup@V?$AutoDelete@VCListenerSettings@@@@PEAVCListenerSettings@@@@QEAAPEAVCListenerSettings@@XZ
; public: class CServiceConfigCache::CServiceWatcher *__ptr64 __cdecl <class <class CServiceConfigCache::CServiceWatcher>,class CServiceConfigCache::CServiceWatcher *__ptr64>::operator ->(void)__ptr64 
??C?$AutoCleanup@V?$AutoDelete@VCServiceWatcher@CServiceConfigCache@@@@PEAVCServiceWatcher@CServiceConfigCache@@@@QEAAPEAVCServiceWatcher@CServiceConfigCache@@XZ
; public: class CShellUriSettings *__ptr64 __cdecl <class <class CShellUriSettings>,class CShellUriSettings *__ptr64>::operator ->(void)__ptr64 
??C?$AutoCleanup@V?$AutoDelete@VCShellUriSettings@@@@PEAVCShellUriSettings@@@@QEAAPEAVCShellUriSettings@@XZ
; public: class CWSManEPR *__ptr64 __cdecl <class <class CWSManEPR>,class CWSManEPR *__ptr64>::operator ->(void)__ptr64 
??C?$AutoCleanup@V?$AutoDelete@VCWSManEPR@@@@PEAVCWSManEPR@@@@QEAAPEAVCWSManEPR@@XZ
; public: class CWSManResource *__ptr64 __cdecl <class <class CWSManResource>,class CWSManResource *__ptr64>::operator ->(void)__ptr64 
??C?$AutoCleanup@V?$AutoDelete@VCWSManResource@@@@PEAVCWSManResource@@@@QEAAPEAVCWSManResource@@XZ
; public: class CertHash *__ptr64 __cdecl <class <class CertHash>,class CertHash *__ptr64>::operator ->(void)__ptr64 
??C?$AutoCleanup@V?$AutoDelete@VCertHash@@@@PEAVCertHash@@@@QEAAPEAVCertHash@@XZ
; public: class ConfigUpdate *__ptr64 __cdecl <class <class ConfigUpdate>,class ConfigUpdate *__ptr64>::operator ->(void)__ptr64 
??C?$AutoCleanup@V?$AutoDelete@VConfigUpdate@@@@PEAVConfigUpdate@@@@QEAAPEAVConfigUpdate@@XZ
; public: class EnumSinkEx *__ptr64 __cdecl <class <class EnumSinkEx>,class EnumSinkEx *__ptr64>::operator ->(void)__ptr64 
??C?$AutoCleanup@V?$AutoDelete@VEnumSinkEx@@@@PEAVEnumSinkEx@@@@QEAAPEAVEnumSinkEx@@XZ
; public: class EnumSinkEx *__ptr64 const __cdecl <class <class EnumSinkEx>,class EnumSinkEx *__ptr64>::operator ->(void)const __ptr64 
??C?$AutoCleanup@V?$AutoDelete@VEnumSinkEx@@@@PEAVEnumSinkEx@@@@QEBAQEAVEnumSinkEx@@XZ
; public: class ExpiredOperationIdRecord *__ptr64 __cdecl <class <class ExpiredOperationIdRecord>,class ExpiredOperationIdRecord *__ptr64>::operator ->(void)__ptr64 
??C?$AutoCleanup@V?$AutoDelete@VExpiredOperationIdRecord@@@@PEAVExpiredOperationIdRecord@@@@QEAAPEAVExpiredOperationIdRecord@@XZ
; public: class GPApiManager *__ptr64 __cdecl <class <class GPApiManager>,class GPApiManager *__ptr64>::operator ->(void)__ptr64 
??C?$AutoCleanup@V?$AutoDelete@VGPApiManager@@@@PEAVGPApiManager@@@@QEAAPEAVGPApiManager@@XZ
; public: class GeneralSinkEx *__ptr64 __cdecl <class <class GeneralSinkEx>,class GeneralSinkEx *__ptr64>::operator ->(void)__ptr64 
??C?$AutoCleanup@V?$AutoDelete@VGeneralSinkEx@@@@PEAVGeneralSinkEx@@@@QEAAPEAVGeneralSinkEx@@XZ
; public: class GeneralSinkEx *__ptr64 const __cdecl <class <class GeneralSinkEx>,class GeneralSinkEx *__ptr64>::operator ->(void)const __ptr64 
??C?$AutoCleanup@V?$AutoDelete@VGeneralSinkEx@@@@PEAVGeneralSinkEx@@@@QEBAQEAVGeneralSinkEx@@XZ
; public: class IChannelObserverFactory *__ptr64 __cdecl <class <class IChannelObserverFactory>,class IChannelObserverFactory *__ptr64>::operator ->(void)__ptr64 
??C?$AutoCleanup@V?$AutoDelete@VIChannelObserverFactory@@@@PEAVIChannelObserverFactory@@@@QEAAPEAVIChannelObserverFactory@@XZ
; public: class IQueryDASHSMASHInterface *__ptr64 __cdecl <class <class IQueryDASHSMASHInterface>,class IQueryDASHSMASHInterface *__ptr64>::operator ->(void)__ptr64 
??C?$AutoCleanup@V?$AutoDelete@VIQueryDASHSMASHInterface@@@@PEAVIQueryDASHSMASHInterface@@@@QEAAPEAVIQueryDASHSMASHInterface@@XZ
; public: class IQueryDASHSMASHInterface *__ptr64 const __cdecl <class <class IQueryDASHSMASHInterface>,class IQueryDASHSMASHInterface *__ptr64>::operator ->(void)const __ptr64 
??C?$AutoCleanup@V?$AutoDelete@VIQueryDASHSMASHInterface@@@@PEAVIQueryDASHSMASHInterface@@@@QEBAQEAVIQueryDASHSMASHInterface@@XZ
; public: class ISpecification *__ptr64 __cdecl <class <class ISpecification>,class ISpecification *__ptr64>::operator ->(void)__ptr64 
??C?$AutoCleanup@V?$AutoDelete@VISpecification@@@@PEAVISpecification@@@@QEAAPEAVISpecification@@XZ
; public: class ISpecification *__ptr64 const __cdecl <class <class ISpecification>,class ISpecification *__ptr64>::operator ->(void)const __ptr64 
??C?$AutoCleanup@V?$AutoDelete@VISpecification@@@@PEAVISpecification@@@@QEBAQEAVISpecification@@XZ
; public: class CListenerReceive::MasterReceiveData *__ptr64 __cdecl <class <class CListenerReceive::MasterReceiveData>,class CListenerReceive::MasterReceiveData *__ptr64>::operator ->(void)__ptr64 
??C?$AutoCleanup@V?$AutoDelete@VMasterReceiveData@CListenerReceive@@@@PEAVMasterReceiveData@CListenerReceive@@@@QEAAPEAVMasterReceiveData@CListenerReceive@@XZ
; public: class WSMan::Client::SessionOptions::OptionValue *__ptr64 __cdecl <class <class WSMan::Client::SessionOptions::OptionValue>,class WSMan::Client::SessionOptions::OptionValue *__ptr64>::operator ->(void)__ptr64 
??C?$AutoCleanup@V?$AutoDelete@VOptionValue@SessionOptions@Client@WSMan@@@@PEAVOptionValue@SessionOptions@Client@WSMan@@@@QEAAPEAVOptionValue@SessionOptions@Client@WSMan@@XZ
; public: class PacketCreator *__ptr64 __cdecl <class <class PacketCreator>,class PacketCreator *__ptr64>::operator ->(void)__ptr64 
??C?$AutoCleanup@V?$AutoDelete@VPacketCreator@@@@PEAVPacketCreator@@@@QEAAPEAVPacketCreator@@XZ
; public: class PacketParser *__ptr64 __cdecl <class <class PacketParser>,class PacketParser *__ptr64>::operator ->(void)__ptr64 
??C?$AutoCleanup@V?$AutoDelete@VPacketParser@@@@PEAVPacketParser@@@@QEAAPEAVPacketParser@@XZ
; public: class RunAsConfiguration *__ptr64 __cdecl <class <class RunAsConfiguration>,class RunAsConfiguration *__ptr64>::operator ->(void)__ptr64 
??C?$AutoCleanup@V?$AutoDelete@VRunAsConfiguration@@@@PEAVRunAsConfiguration@@@@QEAAPEAVRunAsConfiguration@@XZ
; public: class Catalog::SecurityEntry *__ptr64 __cdecl <class <class Catalog::SecurityEntry>,class Catalog::SecurityEntry *__ptr64>::operator ->(void)__ptr64 
??C?$AutoCleanup@V?$AutoDelete@VSecurityEntry@Catalog@@@@PEAVSecurityEntry@Catalog@@@@QEAAPEAVSecurityEntry@Catalog@@XZ
; public: class RobustConnectionBuffer::SendPacketArgs *__ptr64 __cdecl <class <class RobustConnectionBuffer::SendPacketArgs>,class RobustConnectionBuffer::SendPacketArgs *__ptr64>::operator ->(void)__ptr64 
??C?$AutoCleanup@V?$AutoDelete@VSendPacketArgs@RobustConnectionBuffer@@@@PEAVSendPacketArgs@RobustConnectionBuffer@@@@QEAAPEAVSendPacketArgs@RobustConnectionBuffer@@XZ
; public: class ServiceSoapProcessor *__ptr64 __cdecl <class <class ServiceSoapProcessor>,class ServiceSoapProcessor *__ptr64>::operator ->(void)__ptr64 
??C?$AutoCleanup@V?$AutoDelete@VServiceSoapProcessor@@@@PEAVServiceSoapProcessor@@@@QEAAPEAVServiceSoapProcessor@@XZ
; public: class SubscriptionEnumerator *__ptr64 __cdecl <class <class SubscriptionEnumerator>,class SubscriptionEnumerator *__ptr64>::operator ->(void)__ptr64 
??C?$AutoCleanup@V?$AutoDelete@VSubscriptionEnumerator@@@@PEAVSubscriptionEnumerator@@@@QEAAPEAVSubscriptionEnumerator@@XZ
; public: class TSTRBUFFER *__ptr64 __cdecl <class <class TSTRBUFFER>,class TSTRBUFFER *__ptr64>::operator ->(void)__ptr64 
??C?$AutoCleanup@V?$AutoDelete@VTSTRBUFFER@@@@PEAVTSTRBUFFER@@@@QEAAPEAVTSTRBUFFER@@XZ
; public: class TSTRBUFFER *__ptr64 const __cdecl <class <class TSTRBUFFER>,class TSTRBUFFER *__ptr64>::operator ->(void)const __ptr64 
??C?$AutoCleanup@V?$AutoDelete@VTSTRBUFFER@@@@PEAVTSTRBUFFER@@@@QEBAQEAVTSTRBUFFER@@XZ
; public: class UniqueStringOverflow *__ptr64 __cdecl <class <class UniqueStringOverflow>,class UniqueStringOverflow *__ptr64>::operator ->(void)__ptr64 
??C?$AutoCleanup@V?$AutoDelete@VUniqueStringOverflow@@@@PEAVUniqueStringOverflow@@@@QEAAPEAVUniqueStringOverflow@@XZ
; public: class WSMANCONFIGTABLE_IDENTITY *__ptr64 __cdecl <class <class WSMANCONFIGTABLE_IDENTITY>,class WSMANCONFIGTABLE_IDENTITY *__ptr64>::operator ->(void)__ptr64 
??C?$AutoCleanup@V?$AutoDelete@VWSMANCONFIGTABLE_IDENTITY@@@@PEAVWSMANCONFIGTABLE_IDENTITY@@@@QEAAPEAVWSMANCONFIGTABLE_IDENTITY@@XZ
; public: class WmiEnumContext *__ptr64 __cdecl <class <class WmiEnumContext>,class WmiEnumContext *__ptr64>::operator ->(void)__ptr64 
??C?$AutoCleanup@V?$AutoDelete@VWmiEnumContext@@@@PEAVWmiEnumContext@@@@QEAAPEAVWmiEnumContext@@XZ
; public: class WmiEnumContext *__ptr64 const __cdecl <class <class WmiEnumContext>,class WmiEnumContext *__ptr64>::operator ->(void)const __ptr64 
??C?$AutoCleanup@V?$AutoDelete@VWmiEnumContext@@@@PEAVWmiEnumContext@@@@QEBAQEAVWmiEnumContext@@XZ
; public: class XmlReader *__ptr64 __cdecl <class <class XmlReader>,class XmlReader *__ptr64>::operator ->(void)__ptr64 
??C?$AutoCleanup@V?$AutoDelete@VXmlReader@@@@PEAVXmlReader@@@@QEAAPEAVXmlReader@@XZ
; public: unsigned char *__ptr64 __cdecl <class <unsigned char>,unsigned char *__ptr64>::operator ->(void)__ptr64 
??C?$AutoCleanup@V?$AutoDeleteVector@E@@PEAE@@QEAAPEAEXZ
; public: unsigned char *__ptr64 const __cdecl <class <unsigned char>,unsigned char *__ptr64>::operator ->(void)const __ptr64 
??C?$AutoCleanup@V?$AutoDeleteVector@E@@PEAE@@QEBAQEAEXZ
; public: unsigned short *__ptr64 __cdecl <class <unsigned short>,unsigned short *__ptr64>::operator ->(void)__ptr64 
??C?$AutoCleanup@V?$AutoDeleteVector@G@@PEAG@@QEAAPEAGXZ
; public: unsigned short *__ptr64 const __cdecl <class <unsigned short>,unsigned short *__ptr64>::operator ->(void)const __ptr64 
??C?$AutoCleanup@V?$AutoDeleteVector@G@@PEAG@@QEBAQEAGXZ
; public: unsigned short *__ptr64 *__ptr64 __cdecl <class <unsigned short *__ptr64>,unsigned short *__ptr64 *__ptr64>::operator ->(void)__ptr64 
??C?$AutoCleanup@V?$AutoDeleteVector@PEAG@@PEAPEAG@@QEAAPEAPEAGXZ
; public: unsigned short *__ptr64 *__ptr64 const __cdecl <class <unsigned short *__ptr64>,unsigned short *__ptr64 *__ptr64>::operator ->(void)const __ptr64 
??C?$AutoCleanup@V?$AutoDeleteVector@PEAG@@PEAPEAG@@QEBAQEAPEAGXZ
; public: unsigned short const *__ptr64 *__ptr64 __cdecl <class <unsigned short const *__ptr64>,unsigned short const *__ptr64 *__ptr64>::operator ->(void)__ptr64 
??C?$AutoCleanup@V?$AutoDeleteVector@PEBG@@PEAPEBG@@QEAAPEAPEBGXZ
; public: unsigned short const *__ptr64 *__ptr64 const __cdecl <class <unsigned short const *__ptr64>,unsigned short const *__ptr64 *__ptr64>::operator ->(void)const __ptr64 
??C?$AutoCleanup@V?$AutoDeleteVector@PEBG@@PEAPEBG@@QEBAQEAPEBGXZ
; public: struct _WINRS_CREATE_SHELL_ENVIRONMENT_VARIABLE *__ptr64 __cdecl <class <struct _WINRS_CREATE_SHELL_ENVIRONMENT_VARIABLE>,struct _WINRS_CREATE_SHELL_ENVIRONMENT_VARIABLE *__ptr64>::operator ->(void)__ptr64 
??C?$AutoCleanup@V?$AutoDeleteVector@U_WINRS_CREATE_SHELL_ENVIRONMENT_VARIABLE@@@@PEAU_WINRS_CREATE_SHELL_ENVIRONMENT_VARIABLE@@@@QEAAPEAU_WINRS_CREATE_SHELL_ENVIRONMENT_VARIABLE@@XZ
; public: struct _WINRS_CREATE_SHELL_ENVIRONMENT_VARIABLE *__ptr64 const __cdecl <class <struct _WINRS_CREATE_SHELL_ENVIRONMENT_VARIABLE>,struct _WINRS_CREATE_SHELL_ENVIRONMENT_VARIABLE *__ptr64>::operator ->(void)const __ptr64 
??C?$AutoCleanup@V?$AutoDeleteVector@U_WINRS_CREATE_SHELL_ENVIRONMENT_VARIABLE@@@@PEAU_WINRS_CREATE_SHELL_ENVIRONMENT_VARIABLE@@@@QEBAQEAU_WINRS_CREATE_SHELL_ENVIRONMENT_VARIABLE@@XZ
; public: struct _WINRS_RUN_COMMAND_ARG *__ptr64 __cdecl <class <struct _WINRS_RUN_COMMAND_ARG>,struct _WINRS_RUN_COMMAND_ARG *__ptr64>::operator ->(void)__ptr64 
??C?$AutoCleanup@V?$AutoDeleteVector@U_WINRS_RUN_COMMAND_ARG@@@@PEAU_WINRS_RUN_COMMAND_ARG@@@@QEAAPEAU_WINRS_RUN_COMMAND_ARG@@XZ
; public: struct _WINRS_RUN_COMMAND_ARG *__ptr64 const __cdecl <class <struct _WINRS_RUN_COMMAND_ARG>,struct _WINRS_RUN_COMMAND_ARG *__ptr64>::operator ->(void)const __ptr64 
??C?$AutoCleanup@V?$AutoDeleteVector@U_WINRS_RUN_COMMAND_ARG@@@@PEAU_WINRS_RUN_COMMAND_ARG@@@@QEBAQEAU_WINRS_RUN_COMMAND_ARG@@XZ
; public: struct IAppHostAdminManager *__ptr64 __cdecl <class <struct IAppHostAdminManager>,struct IAppHostAdminManager *__ptr64>::operator ->(void)__ptr64 
??C?$AutoCleanup@V?$AutoRelease@UIAppHostAdminManager@@@@PEAUIAppHostAdminManager@@@@QEAAPEAUIAppHostAdminManager@@XZ
; public: struct IAppHostChildElementCollection *__ptr64 __cdecl <class <struct IAppHostChildElementCollection>,struct IAppHostChildElementCollection *__ptr64>::operator ->(void)__ptr64 
??C?$AutoCleanup@V?$AutoRelease@UIAppHostChildElementCollection@@@@PEAUIAppHostChildElementCollection@@@@QEAAPEAUIAppHostChildElementCollection@@XZ
; public: struct IAppHostConfigException *__ptr64 __cdecl <class <struct IAppHostConfigException>,struct IAppHostConfigException *__ptr64>::operator ->(void)__ptr64 
??C?$AutoCleanup@V?$AutoRelease@UIAppHostConfigException@@@@PEAUIAppHostConfigException@@@@QEAAPEAUIAppHostConfigException@@XZ
; public: struct IAppHostElementCollection *__ptr64 __cdecl <class <struct IAppHostElementCollection>,struct IAppHostElementCollection *__ptr64>::operator ->(void)__ptr64 
??C?$AutoCleanup@V?$AutoRelease@UIAppHostElementCollection@@@@PEAUIAppHostElementCollection@@@@QEAAPEAUIAppHostElementCollection@@XZ
; public: struct IAppHostProperty *__ptr64 __cdecl <class <struct IAppHostProperty>,struct IAppHostProperty *__ptr64>::operator ->(void)__ptr64 
??C?$AutoCleanup@V?$AutoRelease@UIAppHostProperty@@@@PEAUIAppHostProperty@@@@QEAAPEAUIAppHostProperty@@XZ
; public: struct IAppHostPropertyCollection *__ptr64 __cdecl <class <struct IAppHostPropertyCollection>,struct IAppHostPropertyCollection *__ptr64>::operator ->(void)__ptr64 
??C?$AutoCleanup@V?$AutoRelease@UIAppHostPropertyCollection@@@@PEAUIAppHostPropertyCollection@@@@QEAAPEAUIAppHostPropertyCollection@@XZ
; public: struct IClientSecurity *__ptr64 __cdecl <class <struct IClientSecurity>,struct IClientSecurity *__ptr64>::operator ->(void)__ptr64 
??C?$AutoCleanup@V?$AutoRelease@UIClientSecurity@@@@PEAUIClientSecurity@@@@QEAAPEAUIClientSecurity@@XZ
; public: struct IClientSecurity *__ptr64 const __cdecl <class <struct IClientSecurity>,struct IClientSecurity *__ptr64>::operator ->(void)const __ptr64 
??C?$AutoCleanup@V?$AutoRelease@UIClientSecurity@@@@PEAUIClientSecurity@@@@QEBAQEAUIClientSecurity@@XZ
; public: struct IEnumWbemClassObject *__ptr64 __cdecl <class <struct IEnumWbemClassObject>,struct IEnumWbemClassObject *__ptr64>::operator ->(void)__ptr64 
??C?$AutoCleanup@V?$AutoRelease@UIEnumWbemClassObject@@@@PEAUIEnumWbemClassObject@@@@QEAAPEAUIEnumWbemClassObject@@XZ
; public: struct IEnumWbemClassObject *__ptr64 const __cdecl <class <struct IEnumWbemClassObject>,struct IEnumWbemClassObject *__ptr64>::operator ->(void)const __ptr64 
??C?$AutoCleanup@V?$AutoRelease@UIEnumWbemClassObject@@@@PEAUIEnumWbemClassObject@@@@QEBAQEAUIEnumWbemClassObject@@XZ
; public: struct IErrorInfo *__ptr64 __cdecl <class <struct IErrorInfo>,struct IErrorInfo *__ptr64>::operator ->(void)__ptr64 
??C?$AutoCleanup@V?$AutoRelease@UIErrorInfo@@@@PEAUIErrorInfo@@@@QEAAPEAUIErrorInfo@@XZ
; public: struct IErrorInfo *__ptr64 const __cdecl <class <struct IErrorInfo>,struct IErrorInfo *__ptr64>::operator ->(void)const __ptr64 
??C?$AutoCleanup@V?$AutoRelease@UIErrorInfo@@@@PEAUIErrorInfo@@@@QEBAQEAUIErrorInfo@@XZ
; public: struct IUnknown *__ptr64 __cdecl <class <struct IUnknown>,struct IUnknown *__ptr64>::operator ->(void)__ptr64 
??C?$AutoCleanup@V?$AutoRelease@UIUnknown@@@@PEAUIUnknown@@@@QEAAPEAUIUnknown@@XZ
; public: struct IUnknown *__ptr64 const __cdecl <class <struct IUnknown>,struct IUnknown *__ptr64>::operator ->(void)const __ptr64 
??C?$AutoCleanup@V?$AutoRelease@UIUnknown@@@@PEAUIUnknown@@@@QEBAQEAUIUnknown@@XZ
; public: struct IWbemClassObject *__ptr64 __cdecl <class <struct IWbemClassObject>,struct IWbemClassObject *__ptr64>::operator ->(void)__ptr64 
??C?$AutoCleanup@V?$AutoRelease@UIWbemClassObject@@@@PEAUIWbemClassObject@@@@QEAAPEAUIWbemClassObject@@XZ
; public: struct IWbemClassObject *__ptr64 const __cdecl <class <struct IWbemClassObject>,struct IWbemClassObject *__ptr64>::operator ->(void)const __ptr64 
??C?$AutoCleanup@V?$AutoRelease@UIWbemClassObject@@@@PEAUIWbemClassObject@@@@QEBAQEAUIWbemClassObject@@XZ
; public: struct IWbemContext *__ptr64 __cdecl <class <struct IWbemContext>,struct IWbemContext *__ptr64>::operator ->(void)__ptr64 
??C?$AutoCleanup@V?$AutoRelease@UIWbemContext@@@@PEAUIWbemContext@@@@QEAAPEAUIWbemContext@@XZ
; public: struct IWbemContext *__ptr64 const __cdecl <class <struct IWbemContext>,struct IWbemContext *__ptr64>::operator ->(void)const __ptr64 
??C?$AutoCleanup@V?$AutoRelease@UIWbemContext@@@@PEAUIWbemContext@@@@QEBAQEAUIWbemContext@@XZ
; public: struct IWbemLocator *__ptr64 __cdecl <class <struct IWbemLocator>,struct IWbemLocator *__ptr64>::operator ->(void)__ptr64 
??C?$AutoCleanup@V?$AutoRelease@UIWbemLocator@@@@PEAUIWbemLocator@@@@QEAAPEAUIWbemLocator@@XZ
; public: struct IWbemLocator *__ptr64 const __cdecl <class <struct IWbemLocator>,struct IWbemLocator *__ptr64>::operator ->(void)const __ptr64 
??C?$AutoCleanup@V?$AutoRelease@UIWbemLocator@@@@PEAUIWbemLocator@@@@QEBAQEAUIWbemLocator@@XZ
; public: struct IWbemObjectTextSrc *__ptr64 __cdecl <class <struct IWbemObjectTextSrc>,struct IWbemObjectTextSrc *__ptr64>::operator ->(void)__ptr64 
??C?$AutoCleanup@V?$AutoRelease@UIWbemObjectTextSrc@@@@PEAUIWbemObjectTextSrc@@@@QEAAPEAUIWbemObjectTextSrc@@XZ
; public: struct IWbemObjectTextSrc *__ptr64 const __cdecl <class <struct IWbemObjectTextSrc>,struct IWbemObjectTextSrc *__ptr64>::operator ->(void)const __ptr64 
??C?$AutoCleanup@V?$AutoRelease@UIWbemObjectTextSrc@@@@PEAUIWbemObjectTextSrc@@@@QEBAQEAUIWbemObjectTextSrc@@XZ
; public: struct IWbemPath *__ptr64 __cdecl <class <struct IWbemPath>,struct IWbemPath *__ptr64>::operator ->(void)__ptr64 
??C?$AutoCleanup@V?$AutoRelease@UIWbemPath@@@@PEAUIWbemPath@@@@QEAAPEAUIWbemPath@@XZ
; public: struct IWbemPath *__ptr64 const __cdecl <class <struct IWbemPath>,struct IWbemPath *__ptr64>::operator ->(void)const __ptr64 
??C?$AutoCleanup@V?$AutoRelease@UIWbemPath@@@@PEAUIWbemPath@@@@QEBAQEAUIWbemPath@@XZ
; public: struct IWbemPathKeyList *__ptr64 __cdecl <class <struct IWbemPathKeyList>,struct IWbemPathKeyList *__ptr64>::operator ->(void)__ptr64 
??C?$AutoCleanup@V?$AutoRelease@UIWbemPathKeyList@@@@PEAUIWbemPathKeyList@@@@QEAAPEAUIWbemPathKeyList@@XZ
; public: struct IWbemPathKeyList *__ptr64 const __cdecl <class <struct IWbemPathKeyList>,struct IWbemPathKeyList *__ptr64>::operator ->(void)const __ptr64 
??C?$AutoCleanup@V?$AutoRelease@UIWbemPathKeyList@@@@PEAUIWbemPathKeyList@@@@QEBAQEAUIWbemPathKeyList@@XZ
; public: struct IWbemQualifierSet *__ptr64 __cdecl <class <struct IWbemQualifierSet>,struct IWbemQualifierSet *__ptr64>::operator ->(void)__ptr64 
??C?$AutoCleanup@V?$AutoRelease@UIWbemQualifierSet@@@@PEAUIWbemQualifierSet@@@@QEAAPEAUIWbemQualifierSet@@XZ
; public: struct IWbemQualifierSet *__ptr64 const __cdecl <class <struct IWbemQualifierSet>,struct IWbemQualifierSet *__ptr64>::operator ->(void)const __ptr64 
??C?$AutoCleanup@V?$AutoRelease@UIWbemQualifierSet@@@@PEAUIWbemQualifierSet@@@@QEBAQEAUIWbemQualifierSet@@XZ
; public: struct IWbemQuery *__ptr64 __cdecl <class <struct IWbemQuery>,struct IWbemQuery *__ptr64>::operator ->(void)__ptr64 
??C?$AutoCleanup@V?$AutoRelease@UIWbemQuery@@@@PEAUIWbemQuery@@@@QEAAPEAUIWbemQuery@@XZ
; public: struct IWbemQuery *__ptr64 const __cdecl <class <struct IWbemQuery>,struct IWbemQuery *__ptr64>::operator ->(void)const __ptr64 
??C?$AutoCleanup@V?$AutoRelease@UIWbemQuery@@@@PEAUIWbemQuery@@@@QEBAQEAUIWbemQuery@@XZ
; public: struct IWbemServices *__ptr64 __cdecl <class <struct IWbemServices>,struct IWbemServices *__ptr64>::operator ->(void)__ptr64 
??C?$AutoCleanup@V?$AutoRelease@UIWbemServices@@@@PEAUIWbemServices@@@@QEAAPEAUIWbemServices@@XZ
; public: struct IWbemServices *__ptr64 const __cdecl <class <struct IWbemServices>,struct IWbemServices *__ptr64>::operator ->(void)const __ptr64 
??C?$AutoCleanup@V?$AutoRelease@UIWbemServices@@@@PEAUIWbemServices@@@@QEBAQEAUIWbemServices@@XZ
; public: class CBaseConfigCache *__ptr64 __cdecl <class <class CBaseConfigCache>,class CBaseConfigCache *__ptr64>::operator ->(void)__ptr64 
??C?$AutoCleanup@V?$AutoRelease@VCBaseConfigCache@@@@PEAVCBaseConfigCache@@@@QEAAPEAVCBaseConfigCache@@XZ
; public: class CClientConfigSettings *__ptr64 __cdecl <class <class CClientConfigSettings>,class CClientConfigSettings *__ptr64>::operator ->(void)__ptr64 
??C?$AutoCleanup@V?$AutoRelease@VCClientConfigSettings@@@@PEAVCClientConfigSettings@@@@QEAAPEAVCClientConfigSettings@@XZ
; public: class CBaseConfigCache::CConfigCacheMap *__ptr64 __cdecl <class <class CBaseConfigCache::CConfigCacheMap>,class CBaseConfigCache::CConfigCacheMap *__ptr64>::operator ->(void)__ptr64 
??C?$AutoCleanup@V?$AutoRelease@VCConfigCacheMap@CBaseConfigCache@@@@PEAVCConfigCacheMap@CBaseConfigCache@@@@QEAAPEAVCConfigCacheMap@CBaseConfigCache@@XZ
; public: class CConfigManager *__ptr64 __cdecl <class <class CConfigManager>,class CConfigManager *__ptr64>::operator ->(void)__ptr64 
??C?$AutoCleanup@V?$AutoRelease@VCConfigManager@@@@PEAVCConfigManager@@@@QEAAPEAVCConfigManager@@XZ
; public: class CListenerReceive *__ptr64 __cdecl <class <class CListenerReceive>,class CListenerReceive *__ptr64>::operator ->(void)__ptr64 
??C?$AutoCleanup@V?$AutoRelease@VCListenerReceive@@@@PEAVCListenerReceive@@@@QEAAPEAVCListenerReceive@@XZ
; public: class CRemoteSession *__ptr64 __cdecl <class <class CRemoteSession>,class CRemoteSession *__ptr64>::operator ->(void)__ptr64 
??C?$AutoCleanup@V?$AutoRelease@VCRemoteSession@@@@PEAVCRemoteSession@@@@QEAAPEAVCRemoteSession@@XZ
; public: class CRemoteSession *__ptr64 const __cdecl <class <class CRemoteSession>,class CRemoteSession *__ptr64>::operator ->(void)const __ptr64 
??C?$AutoCleanup@V?$AutoRelease@VCRemoteSession@@@@PEAVCRemoteSession@@@@QEBAQEAVCRemoteSession@@XZ
; public: class CRequestContext *__ptr64 __cdecl <class <class CRequestContext>,class CRequestContext *__ptr64>::operator ->(void)__ptr64 
??C?$AutoCleanup@V?$AutoRelease@VCRequestContext@@@@PEAVCRequestContext@@@@QEAAPEAVCRequestContext@@XZ
; public: class CServiceCommonConfigSettings *__ptr64 __cdecl <class <class CServiceCommonConfigSettings>,class CServiceCommonConfigSettings *__ptr64>::operator ->(void)__ptr64 
??C?$AutoCleanup@V?$AutoRelease@VCServiceCommonConfigSettings@@@@PEAVCServiceCommonConfigSettings@@@@QEAAPEAVCServiceCommonConfigSettings@@XZ
; public: class CServiceConfigCache *__ptr64 __cdecl <class <class CServiceConfigCache>,class CServiceConfigCache *__ptr64>::operator ->(void)__ptr64 
??C?$AutoCleanup@V?$AutoRelease@VCServiceConfigCache@@@@PEAVCServiceConfigCache@@@@QEAAPEAVCServiceConfigCache@@XZ
; public: class CServiceConfigSettings *__ptr64 __cdecl <class <class CServiceConfigSettings>,class CServiceConfigSettings *__ptr64>::operator ->(void)__ptr64 
??C?$AutoCleanup@V?$AutoRelease@VCServiceConfigSettings@@@@PEAVCServiceConfigSettings@@@@QEAAPEAVCServiceConfigSettings@@XZ
; public: class CWSManEPR *__ptr64 __cdecl <class <class CWSManEPR>,class CWSManEPR *__ptr64>::operator ->(void)__ptr64 
??C?$AutoCleanup@V?$AutoRelease@VCWSManEPR@@@@PEAVCWSManEPR@@@@QEAAPEAVCWSManEPR@@XZ
; public: class CWSManEPR *__ptr64 const __cdecl <class <class CWSManEPR>,class CWSManEPR *__ptr64>::operator ->(void)const __ptr64 
??C?$AutoCleanup@V?$AutoRelease@VCWSManEPR@@@@PEAVCWSManEPR@@@@QEBAQEAVCWSManEPR@@XZ
; public: class CWSManGroupPolicyCache *__ptr64 __cdecl <class <class CWSManGroupPolicyCache>,class CWSManGroupPolicyCache *__ptr64>::operator ->(void)__ptr64 
??C?$AutoCleanup@V?$AutoRelease@VCWSManGroupPolicyCache@@@@PEAVCWSManGroupPolicyCache@@@@QEAAPEAVCWSManGroupPolicyCache@@XZ
; public: class CWSManGroupPolicyManager *__ptr64 __cdecl <class <class CWSManGroupPolicyManager>,class CWSManGroupPolicyManager *__ptr64>::operator ->(void)__ptr64 
??C?$AutoCleanup@V?$AutoRelease@VCWSManGroupPolicyManager@@@@PEAVCWSManGroupPolicyManager@@@@QEAAPEAVCWSManGroupPolicyManager@@XZ
; public: class CWSManObject *__ptr64 __cdecl <class <class CWSManObject>,class CWSManObject *__ptr64>::operator ->(void)__ptr64 
??C?$AutoCleanup@V?$AutoRelease@VCWSManObject@@@@PEAVCWSManObject@@@@QEAAPEAVCWSManObject@@XZ
; public: class CWSManResource *__ptr64 __cdecl <class <class CWSManResource>,class CWSManResource *__ptr64>::operator ->(void)__ptr64 
??C?$AutoCleanup@V?$AutoRelease@VCWSManResource@@@@PEAVCWSManResource@@@@QEAAPEAVCWSManResource@@XZ
; public: class CWinRSPluginConfigCache *__ptr64 __cdecl <class <class CWinRSPluginConfigCache>,class CWinRSPluginConfigCache *__ptr64>::operator ->(void)__ptr64 
??C?$AutoCleanup@V?$AutoRelease@VCWinRSPluginConfigCache@@@@PEAVCWinRSPluginConfigCache@@@@QEAAPEAVCWinRSPluginConfigCache@@XZ
; public: class CWinRSPluginConfigCache *__ptr64 const __cdecl <class <class CWinRSPluginConfigCache>,class CWinRSPluginConfigCache *__ptr64>::operator ->(void)const __ptr64 
??C?$AutoCleanup@V?$AutoRelease@VCWinRSPluginConfigCache@@@@PEAVCWinRSPluginConfigCache@@@@QEBAQEAVCWinRSPluginConfigCache@@XZ
; public: class CWinRSPluginConfigSettings *__ptr64 __cdecl <class <class CWinRSPluginConfigSettings>,class CWinRSPluginConfigSettings *__ptr64>::operator ->(void)__ptr64 
??C?$AutoCleanup@V?$AutoRelease@VCWinRSPluginConfigSettings@@@@PEAVCWinRSPluginConfigSettings@@@@QEAAPEAVCWinRSPluginConfigSettings@@XZ
; public: class WSMan::Client::Command *__ptr64 __cdecl <class <class WSMan::Client::Command>,class WSMan::Client::Command *__ptr64>::operator ->(void)__ptr64 
??C?$AutoCleanup@V?$AutoRelease@VCommand@Client@WSMan@@@@PEAVCommand@Client@WSMan@@@@QEAAPEAVCommand@Client@WSMan@@XZ
; public: class ConfigNotification *__ptr64 __cdecl <class <class ConfigNotification>,class ConfigNotification *__ptr64>::operator ->(void)__ptr64 
??C?$AutoCleanup@V?$AutoRelease@VConfigNotification@@@@PEAVConfigNotification@@@@QEAAPEAVConfigNotification@@XZ
; public: class WSMan::Client::ConnectShellOperation *__ptr64 __cdecl <class <class WSMan::Client::ConnectShellOperation>,class WSMan::Client::ConnectShellOperation *__ptr64>::operator ->(void)__ptr64 
??C?$AutoCleanup@V?$AutoRelease@VConnectShellOperation@Client@WSMan@@@@PEAVConnectShellOperation@Client@WSMan@@@@QEAAPEAVConnectShellOperation@Client@WSMan@@XZ
; public: class WSMan::Client::CreateShellOperation *__ptr64 __cdecl <class <class WSMan::Client::CreateShellOperation>,class WSMan::Client::CreateShellOperation *__ptr64>::operator ->(void)__ptr64 
??C?$AutoCleanup@V?$AutoRelease@VCreateShellOperation@Client@WSMan@@@@PEAVCreateShellOperation@Client@WSMan@@@@QEAAPEAVCreateShellOperation@Client@WSMan@@XZ
; public: class WSMan::Client::DeleteShellOperation *__ptr64 __cdecl <class <class WSMan::Client::DeleteShellOperation>,class WSMan::Client::DeleteShellOperation *__ptr64>::operator ->(void)__ptr64 
??C?$AutoCleanup@V?$AutoRelease@VDeleteShellOperation@Client@WSMan@@@@PEAVDeleteShellOperation@Client@WSMan@@@@QEAAPEAVDeleteShellOperation@Client@WSMan@@XZ
; public: class WSMan::Client::DisconnectOperation *__ptr64 __cdecl <class <class WSMan::Client::DisconnectOperation>,class WSMan::Client::DisconnectOperation *__ptr64>::operator ->(void)__ptr64 
??C?$AutoCleanup@V?$AutoRelease@VDisconnectOperation@Client@WSMan@@@@PEAVDisconnectOperation@Client@WSMan@@@@QEAAPEAVDisconnectOperation@Client@WSMan@@XZ
; public: class EnumSinkEx *__ptr64 __cdecl <class <class EnumSinkEx>,class EnumSinkEx *__ptr64>::operator ->(void)__ptr64 
??C?$AutoCleanup@V?$AutoRelease@VEnumSinkEx@@@@PEAVEnumSinkEx@@@@QEAAPEAVEnumSinkEx@@XZ
; public: class EnumSinkEx *__ptr64 const __cdecl <class <class EnumSinkEx>,class EnumSinkEx *__ptr64>::operator ->(void)const __ptr64 
??C?$AutoCleanup@V?$AutoRelease@VEnumSinkEx@@@@PEAVEnumSinkEx@@@@QEBAQEAVEnumSinkEx@@XZ
; public: class GeneralSinkEx *__ptr64 __cdecl <class <class GeneralSinkEx>,class GeneralSinkEx *__ptr64>::operator ->(void)__ptr64 
??C?$AutoCleanup@V?$AutoRelease@VGeneralSinkEx@@@@PEAVGeneralSinkEx@@@@QEAAPEAVGeneralSinkEx@@XZ
; public: class GeneralSinkEx *__ptr64 const __cdecl <class <class GeneralSinkEx>,class GeneralSinkEx *__ptr64>::operator ->(void)const __ptr64 
??C?$AutoCleanup@V?$AutoRelease@VGeneralSinkEx@@@@PEAVGeneralSinkEx@@@@QEBAQEAVGeneralSinkEx@@XZ
; public: class IPCSoapProcessor *__ptr64 __cdecl <class <class IPCSoapProcessor>,class IPCSoapProcessor *__ptr64>::operator ->(void)__ptr64 
??C?$AutoCleanup@V?$AutoRelease@VIPCSoapProcessor@@@@PEAVIPCSoapProcessor@@@@QEAAPEAVIPCSoapProcessor@@XZ
; public: class IRequestContext *__ptr64 __cdecl <class <class IRequestContext>,class IRequestContext *__ptr64>::operator ->(void)__ptr64 
??C?$AutoCleanup@V?$AutoRelease@VIRequestContext@@@@PEAVIRequestContext@@@@QEAAPEAVIRequestContext@@XZ
; public: class IRequestContext *__ptr64 const __cdecl <class <class IRequestContext>,class IRequestContext *__ptr64>::operator ->(void)const __ptr64 
??C?$AutoCleanup@V?$AutoRelease@VIRequestContext@@@@PEAVIRequestContext@@@@QEBAQEAVIRequestContext@@XZ
; public: class InboundRequestDetails *__ptr64 __cdecl <class <class InboundRequestDetails>,class InboundRequestDetails *__ptr64>::operator ->(void)__ptr64 
??C?$AutoCleanup@V?$AutoRelease@VInboundRequestDetails@@@@PEAVInboundRequestDetails@@@@QEAAPEAVInboundRequestDetails@@XZ
; public: class InboundRequestDetails *__ptr64 const __cdecl <class <class InboundRequestDetails>,class InboundRequestDetails *__ptr64>::operator ->(void)const __ptr64 
??C?$AutoCleanup@V?$AutoRelease@VInboundRequestDetails@@@@PEAVInboundRequestDetails@@@@QEBAQEAVInboundRequestDetails@@XZ
; public: class WSMan::Client::ReceiveOperation *__ptr64 __cdecl <class <class WSMan::Client::ReceiveOperation>,class WSMan::Client::ReceiveOperation *__ptr64>::operator ->(void)__ptr64 
??C?$AutoCleanup@V?$AutoRelease@VReceiveOperation@Client@WSMan@@@@PEAVReceiveOperation@Client@WSMan@@@@QEAAPEAVReceiveOperation@Client@WSMan@@XZ
; public: class WSMan::Client::ReconnectOperation *__ptr64 __cdecl <class <class WSMan::Client::ReconnectOperation>,class WSMan::Client::ReconnectOperation *__ptr64>::operator ->(void)__ptr64 
??C?$AutoCleanup@V?$AutoRelease@VReconnectOperation@Client@WSMan@@@@PEAVReconnectOperation@Client@WSMan@@@@QEAAPEAVReconnectOperation@Client@WSMan@@XZ
; public: class WSMan::Client::SendOperation *__ptr64 __cdecl <class <class WSMan::Client::SendOperation>,class WSMan::Client::SendOperation *__ptr64>::operator ->(void)__ptr64 
??C?$AutoCleanup@V?$AutoRelease@VSendOperation@Client@WSMan@@@@PEAVSendOperation@Client@WSMan@@@@QEAAPEAVSendOperation@Client@WSMan@@XZ
; public: class WSMan::Client::Shell *__ptr64 __cdecl <class <class WSMan::Client::Shell>,class WSMan::Client::Shell *__ptr64>::operator ->(void)__ptr64 
??C?$AutoCleanup@V?$AutoRelease@VShell@Client@WSMan@@@@PEAVShell@Client@WSMan@@@@QEAAPEAVShell@Client@WSMan@@XZ
; public: class WSMan::Client::Shell *__ptr64 const __cdecl <class <class WSMan::Client::Shell>,class WSMan::Client::Shell *__ptr64>::operator ->(void)const __ptr64 
??C?$AutoCleanup@V?$AutoRelease@VShell@Client@WSMan@@@@PEAVShell@Client@WSMan@@@@QEBAQEAVShell@Client@WSMan@@XZ
; public: class WSMan::Client::SignalOperation *__ptr64 __cdecl <class <class WSMan::Client::SignalOperation>,class WSMan::Client::SignalOperation *__ptr64>::operator ->(void)__ptr64 
??C?$AutoCleanup@V?$AutoRelease@VSignalOperation@Client@WSMan@@@@PEAVSignalOperation@Client@WSMan@@@@QEAAPEAVSignalOperation@Client@WSMan@@XZ
; public: class UserRecord *__ptr64 __cdecl <class <class UserRecord>,class UserRecord *__ptr64>::operator ->(void)__ptr64 
??C?$AutoCleanup@V?$AutoRelease@VUserRecord@@@@PEAVUserRecord@@@@QEAAPEAVUserRecord@@XZ
; public: class WSManHttpListener *__ptr64 __cdecl <class <class WSManHttpListener>,class WSManHttpListener *__ptr64>::operator ->(void)__ptr64 
??C?$AutoCleanup@V?$AutoRelease@VWSManHttpListener@@@@PEAVWSManHttpListener@@@@QEAAPEAVWSManHttpListener@@XZ
; public: unsigned short *__ptr64 __cdecl <class AutoBstrNoAlloc,unsigned short *__ptr64>::operator ->(void)__ptr64 
??C?$AutoCleanup@VAutoBstrNoAlloc@@PEAG@@QEAAPEAGXZ
; public: unsigned short *__ptr64 const __cdecl <class AutoBstrNoAlloc,unsigned short *__ptr64>::operator ->(void)const __ptr64 
??C?$AutoCleanup@VAutoBstrNoAlloc@@PEAG@@QEBAQEAGXZ
; public: struct _CERT_CHAIN_CONTEXT const *__ptr64 __cdecl <class AutoChainContext,struct _CERT_CHAIN_CONTEXT const *__ptr64>::operator ->(void)__ptr64 
??C?$AutoCleanup@VAutoChainContext@@PEBU_CERT_CHAIN_CONTEXT@@@@QEAAPEBU_CERT_CHAIN_CONTEXT@@XZ
; public: void *__ptr64 __cdecl <class AutoImpersonateUser,void *__ptr64>::operator ->(void)__ptr64 
??C?$AutoCleanup@VAutoImpersonateUser@@PEAX@@QEAAPEAXXZ
; public: void *__ptr64 const __cdecl <class AutoImpersonateUser,void *__ptr64>::operator ->(void)const __ptr64 
??C?$AutoCleanup@VAutoImpersonateUser@@PEAX@@QEBAQEAXXZ
; public: struct _MI_Class *__ptr64 __cdecl <class AutoMIClass,struct _MI_Class *__ptr64>::operator ->(void)__ptr64 
??C?$AutoCleanup@VAutoMIClass@@PEAU_MI_Class@@@@QEAAPEAU_MI_Class@@XZ
; public: class ExpiredOperationIdRecord *__ptr64 &__ptr64 __cdecl <class StringKeyStore,class ExpiredOperationIdRecord *__ptr64>::operator ->(void)const __ptr64 
??C?$SafeMap_Iterator@VStringKeyStore@@PEAVExpiredOperationIdRecord@@@@QEBAAEAPEAVExpiredOperationIdRecord@@XZ
; public: class CListenerOperation *__ptr64 const &__ptr64 __cdecl <class CListenerOperation *__ptr64>::operator ->(void)const __ptr64 
??C?$SafeSet_Iterator@PEAVCListenerOperation@@@@QEBAAEBQEAVCListenerOperation@@XZ
; public: class CServiceConfigSettings::CertThumbprintMappedSet &__ptr64 __cdecl <class CertThumbprintKey,class CServiceConfigSettings::CertThumbprintMappedSet>::operator *(void)const __ptr64 
??D?$SafeMap_Iterator@VCertThumbprintKey@@VCertThumbprintMappedSet@CServiceConfigSettings@@@@QEBAAEAVCertThumbprintMappedSet@CServiceConfigSettings@@XZ
; public: unsigned long &__ptr64 __cdecl <class Locale::Key,unsigned long>::operator *(void)const __ptr64 
??D?$SafeMap_Iterator@VKey@Locale@@K@@QEBAAEAKXZ
; public: class ExpiredOperationIdRecord *__ptr64 &__ptr64 __cdecl <class StringKeyStore,class ExpiredOperationIdRecord *__ptr64>::operator *(void)const __ptr64 
??D?$SafeMap_Iterator@VStringKeyStore@@PEAVExpiredOperationIdRecord@@@@QEBAAEAPEAVExpiredOperationIdRecord@@XZ
; public: class WSMan::Client::SessionOptions::OptionValue *__ptr64 &__ptr64 __cdecl <enum WSManSessionOption,class WSMan::Client::SessionOptions::OptionValue *__ptr64>::operator *(void)const __ptr64 
??D?$SafeMap_Iterator@W4WSManSessionOption@@PEAVOptionValue@SessionOptions@Client@WSMan@@@@QEBAAEAPEAVOptionValue@SessionOptions@Client@WSMan@@XZ
; public: class CCertMapping *__ptr64 const &__ptr64 __cdecl <class CCertMapping *__ptr64>::operator *(void)const __ptr64 
??D?$SafeSet_Iterator@PEAVCCertMapping@@@@QEBAAEBQEAVCCertMapping@@XZ
; public: class CListenerOperation *__ptr64 const &__ptr64 __cdecl <class CListenerOperation *__ptr64>::operator *(void)const __ptr64 
??D?$SafeSet_Iterator@PEAVCListenerOperation@@@@QEBAAEBQEAVCListenerOperation@@XZ
; public: class CShellUriSettings *__ptr64 const &__ptr64 __cdecl <class CShellUriSettings *__ptr64>::operator *(void)const __ptr64 
??D?$SafeSet_Iterator@PEAVCShellUriSettings@@@@QEBAAEBQEAVCShellUriSettings@@XZ
; public: void __cdecl <class CCertMapping *__ptr64,struct Empty>::operator ++(int)__ptr64 
??E?$SafeMap_Iterator@PEAVCCertMapping@@UEmpty@@@@QEAAXH@Z
; public: void __cdecl <class CListenerOperation *__ptr64,struct Empty>::operator ++(int)__ptr64 
??E?$SafeMap_Iterator@PEAVCListenerOperation@@UEmpty@@@@QEAAXH@Z
; public: void __cdecl <class CShellUriSettings *__ptr64,struct Empty>::operator ++(int)__ptr64 
??E?$SafeMap_Iterator@PEAVCShellUriSettings@@UEmpty@@@@QEAAXH@Z
; public: void __cdecl <class CertThumbprintKey,class CServiceConfigSettings::CertThumbprintMappedSet>::operator ++(int)__ptr64 
??E?$SafeMap_Iterator@VCertThumbprintKey@@VCertThumbprintMappedSet@CServiceConfigSettings@@@@QEAAXH@Z
; public: void __cdecl <class StringKeyCI,unsigned long>::operator ++(int)__ptr64 
??E?$SafeMap_Iterator@VStringKeyCI@@K@@QEAAXH@Z
; public: void __cdecl <class StringKeyCI,struct WSManHttpListener::USER_CONTEXT_INFO>::operator ++(int)__ptr64 
??E?$SafeMap_Iterator@VStringKeyCI@@UUSER_CONTEXT_INFO@WSManHttpListener@@@@QEAAXH@Z
; public: void __cdecl <class StringKeyStore,class ExpiredOperationIdRecord *__ptr64>::operator ++(int)__ptr64 
??E?$SafeMap_Iterator@VStringKeyStore@@PEAVExpiredOperationIdRecord@@@@QEAAXH@Z
; public: void __cdecl <enum WSManSessionOption,class WSMan::Client::SessionOptions::OptionValue *__ptr64>::operator ++(int)__ptr64 
??E?$SafeMap_Iterator@W4WSManSessionOption@@PEAVOptionValue@SessionOptions@Client@WSMan@@@@QEAAXH@Z
; const <class CCertMapping *__ptr64,struct Empty,class <class CCertMapping *__ptr64>>::$vftable
??_7?$SafeMap@PEAVCCertMapping@@UEmpty@@V?$SafeSet_Iterator@PEAVCCertMapping@@@@@@6B@ DATA
; const <class CListenerOperation *__ptr64,struct Empty,class <class CListenerOperation *__ptr64>>::$vftable
??_7?$SafeMap@PEAVCListenerOperation@@UEmpty@@V?$SafeSet_Iterator@PEAVCListenerOperation@@@@@@6B@ DATA
; const <class CShellUriSettings *__ptr64,struct Empty,class <class CShellUriSettings *__ptr64>>::$vftable
??_7?$SafeMap@PEAVCShellUriSettings@@UEmpty@@V?$SafeSet_Iterator@PEAVCShellUriSettings@@@@@@6B@ DATA
; const <class Collector *__ptr64,struct Empty,class <class Collector *__ptr64>>::$vftable
??_7?$SafeMap@PEAVCollector@@UEmpty@@V?$SafeSet_Iterator@PEAVCollector@@@@@@6B@ DATA
; const <class HostOperation *__ptr64,struct Empty,class <class HostOperation *__ptr64>>::$vftable
??_7?$SafeMap@PEAVHostOperation@@UEmpty@@V?$SafeSet_Iterator@PEAVHostOperation@@@@@@6B@ DATA
; const <class IOperation *__ptr64,struct Empty,class <class IOperation *__ptr64>>::$vftable
??_7?$SafeMap@PEAVIOperation@@UEmpty@@V?$SafeSet_Iterator@PEAVIOperation@@@@@@6B@ DATA
; const <class ListenerSourceSubscription *__ptr64,struct Empty,class <class ListenerSourceSubscription *__ptr64>>::$vftable
??_7?$SafeMap@PEAVListenerSourceSubscription@@UEmpty@@V?$SafeSet_Iterator@PEAVListenerSourceSubscription@@@@@@6B@ DATA
; const <class PushSubscription *__ptr64,struct Empty,class <class PushSubscription *__ptr64>>::$vftable
??_7?$SafeMap@PEAVPushSubscription@@UEmpty@@V?$SafeSet_Iterator@PEAVPushSubscription@@@@@@6B@ DATA
; const <void *__ptr64,struct Empty,class <void *__ptr64>>::$vftable
??_7?$SafeMap@PEAXUEmpty@@V?$SafeSet_Iterator@PEAX@@@@6B@ DATA
; const <struct PluginKey,unsigned long,class <struct PluginKey,unsigned long>>::$vftable
??_7?$SafeMap@UPluginKey@@KV?$SafeMap_Iterator@UPluginKey@@K@@@@6B@ DATA
; const <struct UserKey,class BlockedRecord *__ptr64,class <struct UserKey,class BlockedRecord *__ptr64>>::$vftable
??_7?$SafeMap@UUserKey@@PEAVBlockedRecord@@V?$SafeMap_Iterator@UUserKey@@PEAVBlockedRecord@@@@@@6B@ DATA
; const <class CertThumbprintKey,class CServiceConfigSettings::CertThumbprintMappedSet,class <class CertThumbprintKey,class CServiceConfigSettings::CertThumbprintMappedSet>>::$vftable
??_7?$SafeMap@VCertThumbprintKey@@VCertThumbprintMappedSet@CServiceConfigSettings@@V?$SafeMap_Iterator@VCertThumbprintKey@@VCertThumbprintMappedSet@CServiceConfigSettings@@@@@@6B@ DATA
; const <class Locale::Key,unsigned long,class <class Locale::Key,unsigned long>>::$vftable
??_7?$SafeMap@VKey@Locale@@KV?$SafeMap_Iterator@VKey@Locale@@K@@@@6B@ DATA
; const <class StringKeyCI,unsigned long,class <class StringKeyCI,unsigned long>>::$vftable
??_7?$SafeMap@VStringKeyCI@@KV?$SafeMap_Iterator@VStringKeyCI@@K@@@@6B@ DATA
; const <class StringKeyCI,struct Empty,class <class StringKeyCI>>::$vftable
??_7?$SafeMap@VStringKeyCI@@UEmpty@@V?$SafeSet_Iterator@VStringKeyCI@@@@@@6B@ DATA
; const <class StringKeyCI,struct WSManHttpListener::USER_CONTEXT_INFO,class <class StringKeyCI,struct WSManHttpListener::USER_CONTEXT_INFO>>::$vftable
??_7?$SafeMap@VStringKeyCI@@UUSER_CONTEXT_INFO@WSManHttpListener@@V?$SafeMap_Iterator@VStringKeyCI@@UUSER_CONTEXT_INFO@WSManHttpListener@@@@@@6B@ DATA
; const <class StringKeyStore,class ExpiredOperationIdRecord *__ptr64,class <class StringKeyStore,class ExpiredOperationIdRecord *__ptr64>>::$vftable
??_7?$SafeMap@VStringKeyStore@@PEAVExpiredOperationIdRecord@@V?$SafeMap_Iterator@VStringKeyStore@@PEAVExpiredOperationIdRecord@@@@@@6B@ DATA
; const <class StringKeyStore,class ServerFullDuplexChannel *__ptr64,class <class StringKeyStore,class ServerFullDuplexChannel *__ptr64>>::$vftable
??_7?$SafeMap@VStringKeyStore@@PEAVServerFullDuplexChannel@@V?$SafeMap_Iterator@VStringKeyStore@@PEAVServerFullDuplexChannel@@@@@@6B@ DATA
; const <enum WSManSessionOption,class WSMan::Client::SessionOptions::OptionValue *__ptr64,class <enum WSManSessionOption,class WSMan::Client::SessionOptions::OptionValue *__ptr64>>::$vftable
??_7?$SafeMap@W4WSManSessionOption@@PEAVOptionValue@SessionOptions@Client@WSMan@@V?$SafeMap_Iterator@W4WSManSessionOption@@PEAVOptionValue@SessionOptions@Client@WSMan@@@@@@6B@ DATA
; const <unsigned __int64,class RobustConnectionBuffer::SendPacketArgs *__ptr64,class <unsigned __int64,class RobustConnectionBuffer::SendPacketArgs *__ptr64>>::$vftable
??_7?$SafeMap@_KPEAVSendPacketArgs@RobustConnectionBuffer@@V?$SafeMap_Iterator@_KPEAVSendPacketArgs@RobustConnectionBuffer@@@@@@6B@ DATA
; const <class CCertMapping *__ptr64>::$vftable
??_7?$SafeSet@PEAVCCertMapping@@@@6B@ DATA
; const <class CListenerOperation *__ptr64>::$vftable
??_7?$SafeSet@PEAVCListenerOperation@@@@6B@ DATA
; const <class CShellUriSettings *__ptr64>::$vftable
??_7?$SafeSet@PEAVCShellUriSettings@@@@6B@ DATA
; const <void *__ptr64>::$vftable
??_7?$SafeSet@PEAX@@6B@ DATA
; const BufferFormatter::$vftable
??_7BufferFormatter@@6B@ DATA
; const CBaseConfigCache::$vftable {for 'IConfigChangeObserver' }
??_7CBaseConfigCache@@6BIConfigChangeObserver@@@ DATA
; const CBaseConfigCache::$vftable {for 'ILifeTimeMgmt' }
??_7CBaseConfigCache@@6BILifeTimeMgmt@@@ DATA
; const CClientConfigCache::$vftable {for 'IConfigChangeObserver' }
??_7CClientConfigCache@@6BIConfigChangeObserver@@@ DATA
; const CClientConfigCache::$vftable {for 'ILifeTimeMgmt' }
??_7CClientConfigCache@@6BILifeTimeMgmt@@@ DATA
; const CConfigManager::$vftable
??_7CConfigManager@@6B@ DATA
; const CErrorContext::$vftable
??_7CErrorContext@@6B@ DATA
; const CRequestContext::$vftable {for 'CErrorContext' }
??_7CRequestContext@@6BCErrorContext@@@ DATA
; const CRequestContext::$vftable {for 'EtwCorrelationHelper' }
??_7CRequestContext@@6BEtwCorrelationHelper@@@ DATA
; const CServiceConfigCache::$vftable {for 'IConfigChangeObserver' }
??_7CServiceConfigCache@@6BIConfigChangeObserver@@@ DATA
; const CServiceConfigCache::$vftable {for 'ILifeTimeMgmt' }
??_7CServiceConfigCache@@6BILifeTimeMgmt@@@ DATA
; const CWSManEPR::$vftable
??_7CWSManEPR@@6B@ DATA
; const CWSManGroupPolicyManager::$vftable
??_7CWSManGroupPolicyManager@@6B@ DATA
; const CWSManResource::$vftable
??_7CWSManResource@@6B@ DATA
; const CWSManResourceNoResourceUri::$vftable
??_7CWSManResourceNoResourceUri@@6B@ DATA
; const CWSManSecurityUI::$vftable
??_7CWSManSecurityUI@@6B@ DATA
; const CWinRSPluginConfigCache::$vftable {for 'IConfigChangeObserver' }
??_7CWinRSPluginConfigCache@@6BIConfigChangeObserver@@@ DATA
; const CWinRSPluginConfigCache::$vftable {for 'ILifeTimeMgmt' }
??_7CWinRSPluginConfigCache@@6BILifeTimeMgmt@@@ DATA
; const CircularBufferFormatter::$vftable
??_7CircularBufferFormatter@@6B@ DATA
; const EtwCorrelationHelper::$vftable
??_7EtwCorrelationHelper@@6B@ DATA
; const IConfigChangeObserver::$vftable
??_7IConfigChangeObserver@@6B@ DATA
; const ILifeTimeMgmt::$vftable
??_7ILifeTimeMgmt@@6B@ DATA
; const IRequestContext::$vftable
??_7IRequestContext@@6B@ DATA
; const IWSManGroupPolicyObserver::$vftable
??_7IWSManGroupPolicyObserver@@6B@ DATA
; const IWSManGroupPolicyPublisher::$vftable
??_7IWSManGroupPolicyPublisher@@6B@ DATA
; const PacketParser::$vftable
??_7PacketParser@@6B@ DATA
; const UserAuthzRecord::$vftable
??_7UserAuthzRecord@@6B@ DATA
; const UserRecord::$vftable
??_7UserRecord@@6B@ DATA
; public: void __cdecl CErrorContext::__dflt_ctor_closure(void)__ptr64 
??_FCErrorContext@@QEAAXXZ
; public: void __cdecl RBUFFER::__dflt_ctor_closure(void)__ptr64 
??_FRBUFFER@@QEAAXXZ
; public: virtual void __cdecl <class CCertMapping *__ptr64,struct Empty,class <class CCertMapping *__ptr64,struct Empty>>::Acquire(void)const __ptr64 
?Acquire@?$SafeMap@PEAVCCertMapping@@UEmpty@@V?$SafeMap_Iterator@PEAVCCertMapping@@UEmpty@@@@@@UEBAXXZ
; public: virtual void __cdecl <class CCertMapping *__ptr64,struct Empty,class <class CCertMapping *__ptr64>>::Acquire(void)const __ptr64 
?Acquire@?$SafeMap@PEAVCCertMapping@@UEmpty@@V?$SafeSet_Iterator@PEAVCCertMapping@@@@@@UEBAXXZ
; public: virtual void __cdecl <class CListenerConnect *__ptr64,class CListenerConnect *__ptr64,class <class CListenerConnect *__ptr64,class CListenerConnect *__ptr64>>::Acquire(void)const __ptr64 
?Acquire@?$SafeMap@PEAVCListenerConnect@@PEAV1@V?$SafeMap_Iterator@PEAVCListenerConnect@@PEAV1@@@@@UEBAXXZ
; public: virtual void __cdecl <class CListenerOperation *__ptr64,struct Empty,class <class CListenerOperation *__ptr64,struct Empty>>::Acquire(void)const __ptr64 
?Acquire@?$SafeMap@PEAVCListenerOperation@@UEmpty@@V?$SafeMap_Iterator@PEAVCListenerOperation@@UEmpty@@@@@@UEBAXXZ
; public: virtual void __cdecl <class CListenerOperation *__ptr64,struct Empty,class <class CListenerOperation *__ptr64>>::Acquire(void)const __ptr64 
?Acquire@?$SafeMap@PEAVCListenerOperation@@UEmpty@@V?$SafeSet_Iterator@PEAVCListenerOperation@@@@@@UEBAXXZ
; public: virtual void __cdecl <class CListenerReceive *__ptr64,class CListenerReceive *__ptr64,class <class CListenerReceive *__ptr64,class CListenerReceive *__ptr64>>::Acquire(void)const __ptr64 
?Acquire@?$SafeMap@PEAVCListenerReceive@@PEAV1@V?$SafeMap_Iterator@PEAVCListenerReceive@@PEAV1@@@@@UEBAXXZ
; public: virtual void __cdecl <class CListenerSend *__ptr64,class CListenerSend *__ptr64,class <class CListenerSend *__ptr64,class CListenerSend *__ptr64>>::Acquire(void)const __ptr64 
?Acquire@?$SafeMap@PEAVCListenerSend@@PEAV1@V?$SafeMap_Iterator@PEAVCListenerSend@@PEAV1@@@@@UEBAXXZ
; public: virtual void __cdecl <class CListenerSignal *__ptr64,class CListenerSignal *__ptr64,class <class CListenerSignal *__ptr64,class CListenerSignal *__ptr64>>::Acquire(void)const __ptr64 
?Acquire@?$SafeMap@PEAVCListenerSignal@@PEAV1@V?$SafeMap_Iterator@PEAVCListenerSignal@@PEAV1@@@@@UEBAXXZ
; public: virtual void __cdecl <class CShellUriSettings *__ptr64,struct Empty,class <class CShellUriSettings *__ptr64>>::Acquire(void)const __ptr64 
?Acquire@?$SafeMap@PEAVCShellUriSettings@@UEmpty@@V?$SafeSet_Iterator@PEAVCShellUriSettings@@@@@@UEBAXXZ
; public: virtual void __cdecl <class Collector *__ptr64,struct Empty,class <class Collector *__ptr64,struct Empty>>::Acquire(void)const __ptr64 
?Acquire@?$SafeMap@PEAVCollector@@UEmpty@@V?$SafeMap_Iterator@PEAVCollector@@UEmpty@@@@@@UEBAXXZ
; public: virtual void __cdecl <class Collector *__ptr64,struct Empty,class <class Collector *__ptr64>>::Acquire(void)const __ptr64 
?Acquire@?$SafeMap@PEAVCollector@@UEmpty@@V?$SafeSet_Iterator@PEAVCollector@@@@@@UEBAXXZ
; public: virtual void __cdecl <class HostOperation *__ptr64,struct Empty,class <class HostOperation *__ptr64,struct Empty>>::Acquire(void)const __ptr64 
?Acquire@?$SafeMap@PEAVHostOperation@@UEmpty@@V?$SafeMap_Iterator@PEAVHostOperation@@UEmpty@@@@@@UEBAXXZ
; public: virtual void __cdecl <class HostOperation *__ptr64,struct Empty,class <class HostOperation *__ptr64>>::Acquire(void)const __ptr64 
?Acquire@?$SafeMap@PEAVHostOperation@@UEmpty@@V?$SafeSet_Iterator@PEAVHostOperation@@@@@@UEBAXXZ
; public: virtual void __cdecl <class IOperation *__ptr64,struct Empty,class <class IOperation *__ptr64,struct Empty>>::Acquire(void)const __ptr64 
?Acquire@?$SafeMap@PEAVIOperation@@UEmpty@@V?$SafeMap_Iterator@PEAVIOperation@@UEmpty@@@@@@UEBAXXZ
; public: virtual void __cdecl <class IOperation *__ptr64,struct Empty,class <class IOperation *__ptr64>>::Acquire(void)const __ptr64 
?Acquire@?$SafeMap@PEAVIOperation@@UEmpty@@V?$SafeSet_Iterator@PEAVIOperation@@@@@@UEBAXXZ
; public: virtual void __cdecl <class ListenerSourceSubscription *__ptr64,struct Empty,class <class ListenerSourceSubscription *__ptr64,struct Empty>>::Acquire(void)const __ptr64 
?Acquire@?$SafeMap@PEAVListenerSourceSubscription@@UEmpty@@V?$SafeMap_Iterator@PEAVListenerSourceSubscription@@UEmpty@@@@@@UEBAXXZ
; public: virtual void __cdecl <class ListenerSourceSubscription *__ptr64,struct Empty,class <class ListenerSourceSubscription *__ptr64>>::Acquire(void)const __ptr64 
?Acquire@?$SafeMap@PEAVListenerSourceSubscription@@UEmpty@@V?$SafeSet_Iterator@PEAVListenerSourceSubscription@@@@@@UEBAXXZ
; public: virtual void __cdecl <class PushSubscription *__ptr64,struct Empty,class <class PushSubscription *__ptr64,struct Empty>>::Acquire(void)const __ptr64 
?Acquire@?$SafeMap@PEAVPushSubscription@@UEmpty@@V?$SafeMap_Iterator@PEAVPushSubscription@@UEmpty@@@@@@UEBAXXZ
; public: virtual void __cdecl <class PushSubscription *__ptr64,struct Empty,class <class PushSubscription *__ptr64>>::Acquire(void)const __ptr64 
?Acquire@?$SafeMap@PEAVPushSubscription@@UEmpty@@V?$SafeSet_Iterator@PEAVPushSubscription@@@@@@UEBAXXZ
; public: virtual void __cdecl <void *__ptr64,struct Empty,class <void *__ptr64>>::Acquire(void)const __ptr64 
?Acquire@?$SafeMap@PEAXUEmpty@@V?$SafeSet_Iterator@PEAX@@@@UEBAXXZ
; public: virtual void __cdecl <struct PluginKey,unsigned long,class <struct PluginKey,unsigned long>>::Acquire(void)const __ptr64 
?Acquire@?$SafeMap@UPluginKey@@KV?$SafeMap_Iterator@UPluginKey@@K@@@@UEBAXXZ
; public: virtual void __cdecl <struct UserKey,class BlockedRecord *__ptr64,class <struct UserKey,class BlockedRecord *__ptr64>>::Acquire(void)const __ptr64 
?Acquire@?$SafeMap@UUserKey@@PEAVBlockedRecord@@V?$SafeMap_Iterator@UUserKey@@PEAVBlockedRecord@@@@@@UEBAXXZ
; public: virtual void __cdecl <class CertThumbprintKey,class CServiceConfigSettings::CertThumbprintMappedSet,class <class CertThumbprintKey,class CServiceConfigSettings::CertThumbprintMappedSet>>::Acquire(void)const __ptr64 
?Acquire@?$SafeMap@VCertThumbprintKey@@VCertThumbprintMappedSet@CServiceConfigSettings@@V?$SafeMap_Iterator@VCertThumbprintKey@@VCertThumbprintMappedSet@CServiceConfigSettings@@@@@@UEBAXXZ
; public: virtual void __cdecl <class GuidKey,class CListenerCommand *__ptr64,class <class GuidKey,class CListenerCommand *__ptr64>>::Acquire(void)const __ptr64 
?Acquire@?$SafeMap@VGuidKey@@PEAVCListenerCommand@@V?$SafeMap_Iterator@VGuidKey@@PEAVCListenerCommand@@@@@@UEBAXXZ
; public: virtual void __cdecl <class CWmiPtrCache::Key,class CWmiPtrCache::Mapping,class <class CWmiPtrCache::Key,class CWmiPtrCache::Mapping>>::Acquire(void)const __ptr64 
?Acquire@?$SafeMap@VKey@CWmiPtrCache@@VMapping@2@V?$SafeMap_Iterator@VKey@CWmiPtrCache@@VMapping@2@@@@@UEBAXXZ
; public: virtual void __cdecl <class Locale::Key,unsigned long,class <class Locale::Key,unsigned long>>::Acquire(void)const __ptr64 
?Acquire@?$SafeMap@VKey@Locale@@KV?$SafeMap_Iterator@VKey@Locale@@K@@@@UEBAXXZ
; public: virtual void __cdecl <class StringKey,class ListenerEvents *__ptr64,class <class StringKey,class ListenerEvents *__ptr64>>::Acquire(void)const __ptr64 
?Acquire@?$SafeMap@VStringKey@@PEAVListenerEvents@@V?$SafeMap_Iterator@VStringKey@@PEAVListenerEvents@@@@@@UEBAXXZ
; public: virtual void __cdecl <class StringKey,class ListenerSourceSubscription *__ptr64,class <class StringKey,class ListenerSourceSubscription *__ptr64>>::Acquire(void)const __ptr64 
?Acquire@?$SafeMap@VStringKey@@PEAVListenerSourceSubscription@@V?$SafeMap_Iterator@VStringKey@@PEAVListenerSourceSubscription@@@@@@UEBAXXZ
; public: virtual void __cdecl <class StringKey,struct WinRM_OperationOptions::Option,class <class StringKey,struct WinRM_OperationOptions::Option>>::Acquire(void)const __ptr64 
?Acquire@?$SafeMap@VStringKey@@UOption@WinRM_OperationOptions@@V?$SafeMap_Iterator@VStringKey@@UOption@WinRM_OperationOptions@@@@@@UEBAXXZ
; public: virtual void __cdecl <class StringKeyCI,unsigned long,class <class StringKeyCI,unsigned long>>::Acquire(void)const __ptr64 
?Acquire@?$SafeMap@VStringKeyCI@@KV?$SafeMap_Iterator@VStringKeyCI@@K@@@@UEBAXXZ
; public: virtual void __cdecl <class StringKeyCI,class IISEndpoint *__ptr64,class <class StringKeyCI,class IISEndpoint *__ptr64>>::Acquire(void)const __ptr64 
?Acquire@?$SafeMap@VStringKeyCI@@PEAVIISEndpoint@@V?$SafeMap_Iterator@VStringKeyCI@@PEAVIISEndpoint@@@@@@UEBAXXZ
; public: virtual void __cdecl <class StringKeyCI,struct Empty,class <class StringKeyCI,struct Empty>>::Acquire(void)const __ptr64 
?Acquire@?$SafeMap@VStringKeyCI@@UEmpty@@V?$SafeMap_Iterator@VStringKeyCI@@UEmpty@@@@@@UEBAXXZ
; public: virtual void __cdecl <class StringKeyCI,struct Empty,class <class StringKeyCI>>::Acquire(void)const __ptr64 
?Acquire@?$SafeMap@VStringKeyCI@@UEmpty@@V?$SafeSet_Iterator@VStringKeyCI@@@@@@UEBAXXZ
; public: virtual void __cdecl <class StringKeyCI,struct WSManHttpListener::USER_CONTEXT_INFO,class <class StringKeyCI,struct WSManHttpListener::USER_CONTEXT_INFO>>::Acquire(void)const __ptr64 
?Acquire@?$SafeMap@VStringKeyCI@@UUSER_CONTEXT_INFO@WSManHttpListener@@V?$SafeMap_Iterator@VStringKeyCI@@UUSER_CONTEXT_INFO@WSManHttpListener@@@@@@UEBAXXZ
; public: virtual void __cdecl <class StringKeyStore,class ExpiredOperationIdRecord *__ptr64,class <class StringKeyStore,class ExpiredOperationIdRecord *__ptr64>>::Acquire(void)const __ptr64 
?Acquire@?$SafeMap@VStringKeyStore@@PEAVExpiredOperationIdRecord@@V?$SafeMap_Iterator@VStringKeyStore@@PEAVExpiredOperationIdRecord@@@@@@UEBAXXZ
; public: virtual void __cdecl <class StringKeyStore,class ServerFullDuplexChannel *__ptr64,class <class StringKeyStore,class ServerFullDuplexChannel *__ptr64>>::Acquire(void)const __ptr64 
?Acquire@?$SafeMap@VStringKeyStore@@PEAVServerFullDuplexChannel@@V?$SafeMap_Iterator@VStringKeyStore@@PEAVServerFullDuplexChannel@@@@@@UEBAXXZ
; public: virtual void __cdecl <class ServiceSoapProcessor::TokenCacheKey,class ServiceSoapProcessor::TokenCacheMapping,class <class ServiceSoapProcessor::TokenCacheKey,class ServiceSoapProcessor::TokenCacheMapping>>::Acquire(void)const __ptr64 
?Acquire@?$SafeMap@VTokenCacheKey@ServiceSoapProcessor@@VTokenCacheMapping@2@V?$SafeMap_Iterator@VTokenCacheKey@ServiceSoapProcessor@@VTokenCacheMapping@2@@@@@UEBAXXZ
; public: virtual void __cdecl <enum WSManSessionOption,class WSMan::Client::SessionOptions::OptionValue *__ptr64,class <enum WSManSessionOption,class WSMan::Client::SessionOptions::OptionValue *__ptr64>>::Acquire(void)const __ptr64 
?Acquire@?$SafeMap@W4WSManSessionOption@@PEAVOptionValue@SessionOptions@Client@WSMan@@V?$SafeMap_Iterator@W4WSManSessionOption@@PEAVOptionValue@SessionOptions@Client@WSMan@@@@@@UEBAXXZ
; public: virtual void __cdecl <unsigned __int64,class RobustConnectionBuffer::SendPacketArgs *__ptr64,class <unsigned __int64,class RobustConnectionBuffer::SendPacketArgs *__ptr64>>::Acquire(void)const __ptr64 
?Acquire@?$SafeMap@_KPEAVSendPacketArgs@RobustConnectionBuffer@@V?$SafeMap_Iterator@_KPEAVSendPacketArgs@RobustConnectionBuffer@@@@@@UEBAXXZ
; public: void __cdecl <class CCertMapping *__ptr64,struct Empty,class <class CCertMapping *__ptr64,struct Empty>>::Acquire(void)__ptr64 
?Acquire@?$SafeMap_Lock@PEAVCCertMapping@@UEmpty@@V?$SafeMap_Iterator@PEAVCCertMapping@@UEmpty@@@@@@QEAAXXZ
; public: void __cdecl <class CCertMapping *__ptr64,struct Empty,class <class CCertMapping *__ptr64>>::Acquire(void)__ptr64 
?Acquire@?$SafeMap_Lock@PEAVCCertMapping@@UEmpty@@V?$SafeSet_Iterator@PEAVCCertMapping@@@@@@QEAAXXZ
; public: void __cdecl <class CListenerOperation *__ptr64,struct Empty,class <class CListenerOperation *__ptr64,struct Empty>>::Acquire(void)__ptr64 
?Acquire@?$SafeMap_Lock@PEAVCListenerOperation@@UEmpty@@V?$SafeMap_Iterator@PEAVCListenerOperation@@UEmpty@@@@@@QEAAXXZ
; public: void __cdecl <class CListenerOperation *__ptr64,struct Empty,class <class CListenerOperation *__ptr64>>::Acquire(void)__ptr64 
?Acquire@?$SafeMap_Lock@PEAVCListenerOperation@@UEmpty@@V?$SafeSet_Iterator@PEAVCListenerOperation@@@@@@QEAAXXZ
; public: void __cdecl <class CShellUriSettings *__ptr64,struct Empty,class <class CShellUriSettings *__ptr64,struct Empty>>::Acquire(void)__ptr64 
?Acquire@?$SafeMap_Lock@PEAVCShellUriSettings@@UEmpty@@V?$SafeMap_Iterator@PEAVCShellUriSettings@@UEmpty@@@@@@QEAAXXZ
; public: void __cdecl <class CShellUriSettings *__ptr64,struct Empty,class <class CShellUriSettings *__ptr64>>::Acquire(void)__ptr64 
?Acquire@?$SafeMap_Lock@PEAVCShellUriSettings@@UEmpty@@V?$SafeSet_Iterator@PEAVCShellUriSettings@@@@@@QEAAXXZ
; public: void __cdecl <void *__ptr64,struct Empty,class <void *__ptr64,struct Empty>>::Acquire(void)__ptr64 
?Acquire@?$SafeMap_Lock@PEAXUEmpty@@V?$SafeMap_Iterator@PEAXUEmpty@@@@@@QEAAXXZ
; public: void __cdecl <void *__ptr64,struct Empty,class <void *__ptr64>>::Acquire(void)__ptr64 
?Acquire@?$SafeMap_Lock@PEAXUEmpty@@V?$SafeSet_Iterator@PEAX@@@@QEAAXXZ
; public: void __cdecl <struct PluginKey,unsigned long,class <struct PluginKey,unsigned long>>::Acquire(void)__ptr64 
?Acquire@?$SafeMap_Lock@UPluginKey@@KV?$SafeMap_Iterator@UPluginKey@@K@@@@QEAAXXZ
; public: void __cdecl <struct UserKey,class BlockedRecord *__ptr64,class <struct UserKey,class BlockedRecord *__ptr64>>::Acquire(void)__ptr64 
?Acquire@?$SafeMap_Lock@UUserKey@@PEAVBlockedRecord@@V?$SafeMap_Iterator@UUserKey@@PEAVBlockedRecord@@@@@@QEAAXXZ
; public: void __cdecl <class CertThumbprintKey,class CServiceConfigSettings::CertThumbprintMappedSet,class <class CertThumbprintKey,class CServiceConfigSettings::CertThumbprintMappedSet>>::Acquire(void)__ptr64 
?Acquire@?$SafeMap_Lock@VCertThumbprintKey@@VCertThumbprintMappedSet@CServiceConfigSettings@@V?$SafeMap_Iterator@VCertThumbprintKey@@VCertThumbprintMappedSet@CServiceConfigSettings@@@@@@QEAAXXZ
; public: void __cdecl <class Locale::Key,unsigned long,class <class Locale::Key,unsigned long>>::Acquire(void)__ptr64 
?Acquire@?$SafeMap_Lock@VKey@Locale@@KV?$SafeMap_Iterator@VKey@Locale@@K@@@@QEAAXXZ
; public: void __cdecl <class StringKeyCI,unsigned long,class <class StringKeyCI,unsigned long>>::Acquire(void)__ptr64 
?Acquire@?$SafeMap_Lock@VStringKeyCI@@KV?$SafeMap_Iterator@VStringKeyCI@@K@@@@QEAAXXZ
; public: void __cdecl <class StringKeyCI,struct Empty,class <class StringKeyCI>>::Acquire(void)__ptr64 
?Acquire@?$SafeMap_Lock@VStringKeyCI@@UEmpty@@V?$SafeSet_Iterator@VStringKeyCI@@@@@@QEAAXXZ
; public: void __cdecl <class StringKeyCI,struct WSManHttpListener::USER_CONTEXT_INFO,class <class StringKeyCI,struct WSManHttpListener::USER_CONTEXT_INFO>>::Acquire(void)__ptr64 
?Acquire@?$SafeMap_Lock@VStringKeyCI@@UUSER_CONTEXT_INFO@WSManHttpListener@@V?$SafeMap_Iterator@VStringKeyCI@@UUSER_CONTEXT_INFO@WSManHttpListener@@@@@@QEAAXXZ
; public: void __cdecl <class StringKeyStore,class ExpiredOperationIdRecord *__ptr64,class <class StringKeyStore,class ExpiredOperationIdRecord *__ptr64>>::Acquire(void)__ptr64 
?Acquire@?$SafeMap_Lock@VStringKeyStore@@PEAVExpiredOperationIdRecord@@V?$SafeMap_Iterator@VStringKeyStore@@PEAVExpiredOperationIdRecord@@@@@@QEAAXXZ
; public: void __cdecl <class StringKeyStore,class ServerFullDuplexChannel *__ptr64,class <class StringKeyStore,class ServerFullDuplexChannel *__ptr64>>::Acquire(void)__ptr64 
?Acquire@?$SafeMap_Lock@VStringKeyStore@@PEAVServerFullDuplexChannel@@V?$SafeMap_Iterator@VStringKeyStore@@PEAVServerFullDuplexChannel@@@@@@QEAAXXZ
; public: void __cdecl <enum WSManSessionOption,class WSMan::Client::SessionOptions::OptionValue *__ptr64,class <enum WSManSessionOption,class WSMan::Client::SessionOptions::OptionValue *__ptr64>>::Acquire(void)__ptr64 
?Acquire@?$SafeMap_Lock@W4WSManSessionOption@@PEAVOptionValue@SessionOptions@Client@WSMan@@V?$SafeMap_Iterator@W4WSManSessionOption@@PEAVOptionValue@SessionOptions@Client@WSMan@@@@@@QEAAXXZ
; public: void __cdecl <unsigned __int64,class RobustConnectionBuffer::SendPacketArgs *__ptr64,class <unsigned __int64,class RobustConnectionBuffer::SendPacketArgs *__ptr64>>::Acquire(void)__ptr64 
?Acquire@?$SafeMap_Lock@_KPEAVSendPacketArgs@RobustConnectionBuffer@@V?$SafeMap_Iterator@_KPEAVSendPacketArgs@RobustConnectionBuffer@@@@@@QEAAXXZ
; public: void __cdecl CWSManCriticalSection::Acquire(void)__ptr64 
?Acquire@CWSManCriticalSection@@QEAAXXZ
; public: void __cdecl FastLock::AcquireExclusive(void)__ptr64 
?AcquireExclusive@FastLock@@QEAAXXZ
; public: void __cdecl FastLock::AcquireShared(void)__ptr64 
?AcquireShared@FastLock@@QEAAXXZ
; public: bool __cdecl <class CCertMapping *__ptr64,struct Empty,class <class CCertMapping *__ptr64,struct Empty>>::Acquired(void)__ptr64 
?Acquired@?$SafeMap_Lock@PEAVCCertMapping@@UEmpty@@V?$SafeMap_Iterator@PEAVCCertMapping@@UEmpty@@@@@@QEAA_NXZ
; public: bool __cdecl <class CListenerConnect *__ptr64,class CListenerConnect *__ptr64,class <class CListenerConnect *__ptr64,class CListenerConnect *__ptr64>>::Acquired(void)__ptr64 
?Acquired@?$SafeMap_Lock@PEAVCListenerConnect@@PEAV1@V?$SafeMap_Iterator@PEAVCListenerConnect@@PEAV1@@@@@QEAA_NXZ
; public: bool __cdecl <class CListenerOperation *__ptr64,struct Empty,class <class CListenerOperation *__ptr64,struct Empty>>::Acquired(void)__ptr64 
?Acquired@?$SafeMap_Lock@PEAVCListenerOperation@@UEmpty@@V?$SafeMap_Iterator@PEAVCListenerOperation@@UEmpty@@@@@@QEAA_NXZ
; public: bool __cdecl <class CListenerReceive *__ptr64,class CListenerReceive *__ptr64,class <class CListenerReceive *__ptr64,class CListenerReceive *__ptr64>>::Acquired(void)__ptr64 
?Acquired@?$SafeMap_Lock@PEAVCListenerReceive@@PEAV1@V?$SafeMap_Iterator@PEAVCListenerReceive@@PEAV1@@@@@QEAA_NXZ
; public: bool __cdecl <class CListenerSend *__ptr64,class CListenerSend *__ptr64,class <class CListenerSend *__ptr64,class CListenerSend *__ptr64>>::Acquired(void)__ptr64 
?Acquired@?$SafeMap_Lock@PEAVCListenerSend@@PEAV1@V?$SafeMap_Iterator@PEAVCListenerSend@@PEAV1@@@@@QEAA_NXZ
; public: bool __cdecl <class CListenerSignal *__ptr64,class CListenerSignal *__ptr64,class <class CListenerSignal *__ptr64,class CListenerSignal *__ptr64>>::Acquired(void)__ptr64 
?Acquired@?$SafeMap_Lock@PEAVCListenerSignal@@PEAV1@V?$SafeMap_Iterator@PEAVCListenerSignal@@PEAV1@@@@@QEAA_NXZ
; public: bool __cdecl <class CShellUriSettings *__ptr64,struct Empty,class <class CShellUriSettings *__ptr64,struct Empty>>::Acquired(void)__ptr64 
?Acquired@?$SafeMap_Lock@PEAVCShellUriSettings@@UEmpty@@V?$SafeMap_Iterator@PEAVCShellUriSettings@@UEmpty@@@@@@QEAA_NXZ
; public: bool __cdecl <class Collector *__ptr64,struct Empty,class <class Collector *__ptr64,struct Empty>>::Acquired(void)__ptr64 
?Acquired@?$SafeMap_Lock@PEAVCollector@@UEmpty@@V?$SafeMap_Iterator@PEAVCollector@@UEmpty@@@@@@QEAA_NXZ
; public: bool __cdecl <class HostOperation *__ptr64,struct Empty,class <class HostOperation *__ptr64,struct Empty>>::Acquired(void)__ptr64 
?Acquired@?$SafeMap_Lock@PEAVHostOperation@@UEmpty@@V?$SafeMap_Iterator@PEAVHostOperation@@UEmpty@@@@@@QEAA_NXZ
; public: bool __cdecl <class IOperation *__ptr64,struct Empty,class <class IOperation *__ptr64,struct Empty>>::Acquired(void)__ptr64 
?Acquired@?$SafeMap_Lock@PEAVIOperation@@UEmpty@@V?$SafeMap_Iterator@PEAVIOperation@@UEmpty@@@@@@QEAA_NXZ
; public: bool __cdecl <class ListenerSourceSubscription *__ptr64,struct Empty,class <class ListenerSourceSubscription *__ptr64,struct Empty>>::Acquired(void)__ptr64 
?Acquired@?$SafeMap_Lock@PEAVListenerSourceSubscription@@UEmpty@@V?$SafeMap_Iterator@PEAVListenerSourceSubscription@@UEmpty@@@@@@QEAA_NXZ
; public: bool __cdecl <class PushSubscription *__ptr64,struct Empty,class <class PushSubscription *__ptr64,struct Empty>>::Acquired(void)__ptr64 
?Acquired@?$SafeMap_Lock@PEAVPushSubscription@@UEmpty@@V?$SafeMap_Iterator@PEAVPushSubscription@@UEmpty@@@@@@QEAA_NXZ
; public: bool __cdecl <void *__ptr64,struct Empty,class <void *__ptr64,struct Empty>>::Acquired(void)__ptr64 
?Acquired@?$SafeMap_Lock@PEAXUEmpty@@V?$SafeMap_Iterator@PEAXUEmpty@@@@@@QEAA_NXZ
; public: bool __cdecl <struct PluginKey,unsigned long,class <struct PluginKey,unsigned long>>::Acquired(void)__ptr64 
?Acquired@?$SafeMap_Lock@UPluginKey@@KV?$SafeMap_Iterator@UPluginKey@@K@@@@QEAA_NXZ
; public: bool __cdecl <struct UserKey,class BlockedRecord *__ptr64,class <struct UserKey,class BlockedRecord *__ptr64>>::Acquired(void)__ptr64 
?Acquired@?$SafeMap_Lock@UUserKey@@PEAVBlockedRecord@@V?$SafeMap_Iterator@UUserKey@@PEAVBlockedRecord@@@@@@QEAA_NXZ
; public: bool __cdecl <class CertThumbprintKey,class CServiceConfigSettings::CertThumbprintMappedSet,class <class CertThumbprintKey,class CServiceConfigSettings::CertThumbprintMappedSet>>::Acquired(void)__ptr64 
?Acquired@?$SafeMap_Lock@VCertThumbprintKey@@VCertThumbprintMappedSet@CServiceConfigSettings@@V?$SafeMap_Iterator@VCertThumbprintKey@@VCertThumbprintMappedSet@CServiceConfigSettings@@@@@@QEAA_NXZ
; public: bool __cdecl <class GuidKey,class CListenerCommand *__ptr64,class <class GuidKey,class CListenerCommand *__ptr64>>::Acquired(void)__ptr64 
?Acquired@?$SafeMap_Lock@VGuidKey@@PEAVCListenerCommand@@V?$SafeMap_Iterator@VGuidKey@@PEAVCListenerCommand@@@@@@QEAA_NXZ
; public: bool __cdecl <class Locale::Key,unsigned long,class <class Locale::Key,unsigned long>>::Acquired(void)__ptr64 
?Acquired@?$SafeMap_Lock@VKey@Locale@@KV?$SafeMap_Iterator@VKey@Locale@@K@@@@QEAA_NXZ
; public: bool __cdecl <class StringKeyCI,unsigned long,class <class StringKeyCI,unsigned long>>::Acquired(void)__ptr64 
?Acquired@?$SafeMap_Lock@VStringKeyCI@@KV?$SafeMap_Iterator@VStringKeyCI@@K@@@@QEAA_NXZ
; public: bool __cdecl <class StringKeyCI,struct Empty,class <class StringKeyCI,struct Empty>>::Acquired(void)__ptr64 
?Acquired@?$SafeMap_Lock@VStringKeyCI@@UEmpty@@V?$SafeMap_Iterator@VStringKeyCI@@UEmpty@@@@@@QEAA_NXZ
; public: bool __cdecl <class StringKeyCI,struct WSManHttpListener::USER_CONTEXT_INFO,class <class StringKeyCI,struct WSManHttpListener::USER_CONTEXT_INFO>>::Acquired(void)__ptr64 
?Acquired@?$SafeMap_Lock@VStringKeyCI@@UUSER_CONTEXT_INFO@WSManHttpListener@@V?$SafeMap_Iterator@VStringKeyCI@@UUSER_CONTEXT_INFO@WSManHttpListener@@@@@@QEAA_NXZ
; public: bool __cdecl <class StringKeyStore,class ExpiredOperationIdRecord *__ptr64,class <class StringKeyStore,class ExpiredOperationIdRecord *__ptr64>>::Acquired(void)__ptr64 
?Acquired@?$SafeMap_Lock@VStringKeyStore@@PEAVExpiredOperationIdRecord@@V?$SafeMap_Iterator@VStringKeyStore@@PEAVExpiredOperationIdRecord@@@@@@QEAA_NXZ
; public: bool __cdecl <class StringKeyStore,class ServerFullDuplexChannel *__ptr64,class <class StringKeyStore,class ServerFullDuplexChannel *__ptr64>>::Acquired(void)__ptr64 
?Acquired@?$SafeMap_Lock@VStringKeyStore@@PEAVServerFullDuplexChannel@@V?$SafeMap_Iterator@VStringKeyStore@@PEAVServerFullDuplexChannel@@@@@@QEAA_NXZ
; public: bool __cdecl <enum WSManSessionOption,class WSMan::Client::SessionOptions::OptionValue *__ptr64,class <enum WSManSessionOption,class WSMan::Client::SessionOptions::OptionValue *__ptr64>>::Acquired(void)__ptr64 
?Acquired@?$SafeMap_Lock@W4WSManSessionOption@@PEAVOptionValue@SessionOptions@Client@WSMan@@V?$SafeMap_Iterator@W4WSManSessionOption@@PEAVOptionValue@SessionOptions@Client@WSMan@@@@@@QEAA_NXZ
; public: bool __cdecl <unsigned __int64,class RobustConnectionBuffer::SendPacketArgs *__ptr64,class <unsigned __int64,class RobustConnectionBuffer::SendPacketArgs *__ptr64>>::Acquired(void)__ptr64 
?Acquired@?$SafeMap_Lock@_KPEAVSendPacketArgs@RobustConnectionBuffer@@V?$SafeMap_Iterator@_KPEAVSendPacketArgs@RobustConnectionBuffer@@@@@@QEAA_NXZ
; public: bool __cdecl <class CCertMapping *__ptr64,struct Empty,class <class CCertMapping *__ptr64>>::Add(class CCertMapping *__ptr64 const &__ptr64 ,struct Empty const &__ptr64 ,class IRequestContext &__ptr64 )__ptr64 
?Add@?$SafeMap@PEAVCCertMapping@@UEmpty@@V?$SafeSet_Iterator@PEAVCCertMapping@@@@@@QEAA_NAEBQEAVCCertMapping@@AEBUEmpty@@AEAVIRequestContext@@@Z
; public: bool __cdecl <class CListenerOperation *__ptr64,struct Empty,class <class CListenerOperation *__ptr64>>::Add(class CListenerOperation *__ptr64 const &__ptr64 ,struct Empty const &__ptr64 ,class IRequestContext &__ptr64 )__ptr64 
?Add@?$SafeMap@PEAVCListenerOperation@@UEmpty@@V?$SafeSet_Iterator@PEAVCListenerOperation@@@@@@QEAA_NAEBQEAVCListenerOperation@@AEBUEmpty@@AEAVIRequestContext@@@Z
; public: bool __cdecl <class CShellUriSettings *__ptr64,struct Empty,class <class CShellUriSettings *__ptr64>>::Add(class CShellUriSettings *__ptr64 const &__ptr64 ,struct Empty const &__ptr64 ,class IRequestContext &__ptr64 )__ptr64 
?Add@?$SafeMap@PEAVCShellUriSettings@@UEmpty@@V?$SafeSet_Iterator@PEAVCShellUriSettings@@@@@@QEAA_NAEBQEAVCShellUriSettings@@AEBUEmpty@@AEAVIRequestContext@@@Z
; public: bool __cdecl <void *__ptr64,struct Empty,class <void *__ptr64>>::Add(void *__ptr64 const &__ptr64 ,struct Empty const &__ptr64 ,class IRequestContext &__ptr64 )__ptr64 
?Add@?$SafeMap@PEAXUEmpty@@V?$SafeSet_Iterator@PEAX@@@@QEAA_NAEBQEAXAEBUEmpty@@AEAVIRequestContext@@@Z
; public: bool __cdecl <struct PluginKey,unsigned long,class <struct PluginKey,unsigned long>>::Add(struct PluginKey const &__ptr64 ,unsigned long const &__ptr64 ,class IRequestContext &__ptr64 )__ptr64 
?Add@?$SafeMap@UPluginKey@@KV?$SafeMap_Iterator@UPluginKey@@K@@@@QEAA_NAEBUPluginKey@@AEBKAEAVIRequestContext@@@Z
; public: bool __cdecl <struct UserKey,class BlockedRecord *__ptr64,class <struct UserKey,class BlockedRecord *__ptr64>>::Add(struct UserKey const &__ptr64 ,class BlockedRecord *__ptr64 const &__ptr64 ,class IRequestContext &__ptr64 )__ptr64 
?Add@?$SafeMap@UUserKey@@PEAVBlockedRecord@@V?$SafeMap_Iterator@UUserKey@@PEAVBlockedRecord@@@@@@QEAA_NAEBUUserKey@@AEBQEAVBlockedRecord@@AEAVIRequestContext@@@Z
; public: bool __cdecl <class CertThumbprintKey,class CServiceConfigSettings::CertThumbprintMappedSet,class <class CertThumbprintKey,class CServiceConfigSettings::CertThumbprintMappedSet>>::Add(class CertThumbprintKey const &__ptr64 ,class CServiceConfigSettings::CertThumbprintMappedSet const &__ptr64 ,class IRequestContext &__ptr64 )__ptr64 
?Add@?$SafeMap@VCertThumbprintKey@@VCertThumbprintMappedSet@CServiceConfigSettings@@V?$SafeMap_Iterator@VCertThumbprintKey@@VCertThumbprintMappedSet@CServiceConfigSettings@@@@@@QEAA_NAEBVCertThumbprintKey@@AEBVCertThumbprintMappedSet@CServiceConfigSettings@@AEAVIRequestContext@@@Z
; public: bool __cdecl <class Locale::Key,unsigned long,class <class Locale::Key,unsigned long>>::Add(class Locale::Key const &__ptr64 ,unsigned long const &__ptr64 ,class IRequestContext &__ptr64 )__ptr64 
?Add@?$SafeMap@VKey@Locale@@KV?$SafeMap_Iterator@VKey@Locale@@K@@@@QEAA_NAEBVKey@Locale@@AEBKAEAVIRequestContext@@@Z
; public: bool __cdecl <class StringKeyCI,unsigned long,class <class StringKeyCI,unsigned long>>::Add(class StringKeyCI const &__ptr64 ,unsigned long const &__ptr64 ,class IRequestContext &__ptr64 )__ptr64 
?Add@?$SafeMap@VStringKeyCI@@KV?$SafeMap_Iterator@VStringKeyCI@@K@@@@QEAA_NAEBVStringKeyCI@@AEBKAEAVIRequestContext@@@Z
; public: bool __cdecl <class StringKeyCI,struct Empty,class <class StringKeyCI>>::Add(class StringKeyCI const &__ptr64 ,struct Empty const &__ptr64 ,class IRequestContext &__ptr64 )__ptr64 
?Add@?$SafeMap@VStringKeyCI@@UEmpty@@V?$SafeSet_Iterator@VStringKeyCI@@@@@@QEAA_NAEBVStringKeyCI@@AEBUEmpty@@AEAVIRequestContext@@@Z
; public: bool __cdecl <class StringKeyCI,struct WSManHttpListener::USER_CONTEXT_INFO,class <class StringKeyCI,struct WSManHttpListener::USER_CONTEXT_INFO>>::Add(class StringKeyCI const &__ptr64 ,struct WSManHttpListener::USER_CONTEXT_INFO const &__ptr64 ,class IRequestContext &__ptr64 )__ptr64 
?Add@?$SafeMap@VStringKeyCI@@UUSER_CONTEXT_INFO@WSManHttpListener@@V?$SafeMap_Iterator@VStringKeyCI@@UUSER_CONTEXT_INFO@WSManHttpListener@@@@@@QEAA_NAEBVStringKeyCI@@AEBUUSER_CONTEXT_INFO@WSManHttpListener@@AEAVIRequestContext@@@Z
; public: bool __cdecl <class StringKeyStore,class ExpiredOperationIdRecord *__ptr64,class <class StringKeyStore,class ExpiredOperationIdRecord *__ptr64>>::Add(class StringKeyStore const &__ptr64 ,class ExpiredOperationIdRecord *__ptr64 const &__ptr64 ,class IRequestContext &__ptr64 )__ptr64 
?Add@?$SafeMap@VStringKeyStore@@PEAVExpiredOperationIdRecord@@V?$SafeMap_Iterator@VStringKeyStore@@PEAVExpiredOperationIdRecord@@@@@@QEAA_NAEBVStringKeyStore@@AEBQEAVExpiredOperationIdRecord@@AEAVIRequestContext@@@Z
; public: bool __cdecl <class StringKeyStore,class ServerFullDuplexChannel *__ptr64,class <class StringKeyStore,class ServerFullDuplexChannel *__ptr64>>::Add(class StringKeyStore const &__ptr64 ,class ServerFullDuplexChannel *__ptr64 const &__ptr64 ,class IRequestContext &__ptr64 )__ptr64 
?Add@?$SafeMap@VStringKeyStore@@PEAVServerFullDuplexChannel@@V?$SafeMap_Iterator@VStringKeyStore@@PEAVServerFullDuplexChannel@@@@@@QEAA_NAEBVStringKeyStore@@AEBQEAVServerFullDuplexChannel@@AEAVIRequestContext@@@Z
; public: bool __cdecl <enum WSManSessionOption,class WSMan::Client::SessionOptions::OptionValue *__ptr64,class <enum WSManSessionOption,class WSMan::Client::SessionOptions::OptionValue *__ptr64>>::Add(enum WSManSessionOption const &__ptr64 ,class WSMan::Client::SessionOptions::OptionValue *__ptr64 const &__ptr64 ,class IRequestContext &__ptr64 )__ptr64 
?Add@?$SafeMap@W4WSManSessionOption@@PEAVOptionValue@SessionOptions@Client@WSMan@@V?$SafeMap_Iterator@W4WSManSessionOption@@PEAVOptionValue@SessionOptions@Client@WSMan@@@@@@QEAA_NAEBW4WSManSessionOption@@AEBQEAVOptionValue@SessionOptions@Client@WSMan@@AEAVIRequestContext@@@Z
; public: bool __cdecl <unsigned __int64,class RobustConnectionBuffer::SendPacketArgs *__ptr64,class <unsigned __int64,class RobustConnectionBuffer::SendPacketArgs *__ptr64>>::Add(unsigned __int64 const &__ptr64 ,class RobustConnectionBuffer::SendPacketArgs *__ptr64 const &__ptr64 ,class IRequestContext &__ptr64 )__ptr64 
?Add@?$SafeMap@_KPEAVSendPacketArgs@RobustConnectionBuffer@@V?$SafeMap_Iterator@_KPEAVSendPacketArgs@RobustConnectionBuffer@@@@@@QEAA_NAEB_KAEBQEAVSendPacketArgs@RobustConnectionBuffer@@AEAVIRequestContext@@@Z
; public: bool __cdecl <class CCertMapping *__ptr64>::Add(class CCertMapping *__ptr64 const &__ptr64 ,class IRequestContext &__ptr64 )__ptr64 
?Add@?$SafeSet@PEAVCCertMapping@@@@QEAA_NAEBQEAVCCertMapping@@AEAVIRequestContext@@@Z
; public: bool __cdecl <class CListenerOperation *__ptr64>::Add(class CListenerOperation *__ptr64 const &__ptr64 ,class IRequestContext &__ptr64 )__ptr64 
?Add@?$SafeSet@PEAVCListenerOperation@@@@QEAA_NAEBQEAVCListenerOperation@@AEAVIRequestContext@@@Z
; public: bool __cdecl <class CShellUriSettings *__ptr64>::Add(class CShellUriSettings *__ptr64 const &__ptr64 ,class IRequestContext &__ptr64 )__ptr64 
?Add@?$SafeSet@PEAVCShellUriSettings@@@@QEAA_NAEBQEAVCShellUriSettings@@AEAVIRequestContext@@@Z
; public: bool __cdecl <void *__ptr64>::Add(void *__ptr64 const &__ptr64 ,class IRequestContext &__ptr64 )__ptr64 
?Add@?$SafeSet@PEAX@@QEAA_NAEBQEAXAEAVIRequestContext@@@Z
; public: bool __cdecl <class StringKeyCI>::Add(class StringKeyCI const &__ptr64 ,class IRequestContext &__ptr64 )__ptr64 
?Add@?$SafeSet@VStringKeyCI@@@@QEAA_NAEBVStringKeyCI@@AEAVIRequestContext@@@Z
; public: static int __cdecl ConfigUpdate::AddDefaultPlugins(class IRequestContext *__ptr64,int)
?AddDefaultPlugins@ConfigUpdate@@SAHPEAVIRequestContext@@H@Z
; public: int __cdecl CWSManResourceNoResourceUri::AddKey(unsigned short const *__ptr64,unsigned short const *__ptr64,class IRequestContext *__ptr64)__ptr64 
?AddKey@CWSManResourceNoResourceUri@@QEAAHPEBG0PEAVIRequestContext@@@Z
; private: int __cdecl CRequestContext::AddMessage(unsigned short const *__ptr64,char *__ptr64 *__ptr64)__ptr64 
?AddMessage@CRequestContext@@AEAAHPEBGPEAPEAD@Z
; public: int __cdecl CWSManResourceNoResourceUri::AddOption(unsigned short const *__ptr64,unsigned short const *__ptr64,int,class IRequestContext *__ptr64)__ptr64 
?AddOption@CWSManResourceNoResourceUri@@QEAAHPEBG0HPEAVIRequestContext@@@Z
; public: int __cdecl CWSManResourceNoResourceUri::AddOptionSet(struct _WSMAN_OPTION_SET *__ptr64,class IRequestContext *__ptr64)__ptr64 
?AddOptionSet@CWSManResourceNoResourceUri@@QEAAHPEAU_WSMAN_OPTION_SET@@PEAVIRequestContext@@@Z
; public: bool __cdecl PacketParser::AddPacket(class Packet *__ptr64,bool,bool,bool)__ptr64 
?AddPacket@PacketParser@@QEAA_NPEAVPacket@@_N11@Z
; public: virtual unsigned long __cdecl CWSManSecurityUI::AddRef(void)__ptr64 
?AddRef@CWSManSecurityUI@@UEAAKXZ
; public: virtual long __cdecl ILifeTimeMgmt::AddRef(void)__ptr64 
?AddRef@ILifeTimeMgmt@@UEAAJXZ
; public: bool __cdecl UserRecord::AddRef(class IRequestContext &__ptr64 )__ptr64 
?AddRef@UserRecord@@QEAA_NAEAVIRequestContext@@@Z
; protected: int __cdecl CBaseConfigCache::AddSource(class IRequestContext *__ptr64,class CConfigChangeSource *__ptr64)__ptr64 
?AddSource@CBaseConfigCache@@IEAAHPEAVIRequestContext@@PEAVCConfigChangeSource@@@Z
; private: int __cdecl CBaseConfigCache::AddToMap(class IRequestContext *__ptr64,class AutoLocalFree &__ptr64 )__ptr64 
?AddToMap@CBaseConfigCache@@AEAAHPEAVIRequestContext@@AEAVAutoLocalFree@@@Z
; public: static void *__ptr64 __cdecl WSManMemory::Alloc(unsigned __int64,int,enum _NitsFaultMode)
?Alloc@WSManMemory@@SAPEAX_KHW4_NitsFaultMode@@@Z
; public: static unsigned short *__ptr64 __cdecl WSManMemory::AllocBstr(unsigned short const *__ptr64,int,int)
?AllocBstr@WSManMemory@@SAPEAGPEBGHH@Z
; public: static unsigned short *__ptr64 __cdecl WSManMemory::AllocBstrLen(unsigned short const *__ptr64,unsigned int,int,int)
?AllocBstrLen@WSManMemory@@SAPEAGPEBGIHH@Z
; private: static class CBaseConfigCache *__ptr64 __cdecl CClientConfigCache::AllocCache(void)
?AllocCache@CClientConfigCache@@CAPEAVCBaseConfigCache@@XZ
; private: static class CBaseConfigCache *__ptr64 __cdecl CServiceConfigCache::AllocCache(void)
?AllocCache@CServiceConfigCache@@CAPEAVCBaseConfigCache@@XZ
; private: static class CBaseConfigCache *__ptr64 __cdecl CWinRSPluginConfigCache::AllocCache(void)
?AllocCache@CWinRSPluginConfigCache@@CAPEAVCBaseConfigCache@@XZ
; public: long __cdecl TSTRBUFFER::AllocSysString(unsigned short *__ptr64 *__ptr64)const __ptr64 
?AllocSysString@TSTRBUFFER@@QEBAJPEAPEAG@Z
; public: virtual int __cdecl CCommonConfigSettings::AllowBasic(void)const __ptr64 
?AllowBasic@CCommonConfigSettings@@UEBAHXZ
; public: virtual int __cdecl CCommonConfigSettings::AllowClientCertificate(void)const __ptr64 
?AllowClientCertificate@CCommonConfigSettings@@UEBAHXZ
; public: virtual int __cdecl CCommonConfigSettings::AllowCredSsp(void)const __ptr64 
?AllowCredSsp@CCommonConfigSettings@@UEBAHXZ
; public: virtual int __cdecl CCommonConfigSettings::AllowKerberos(void)const __ptr64 
?AllowKerberos@CCommonConfigSettings@@UEBAHXZ
; public: virtual int __cdecl CCommonConfigSettings::AllowNegotiate(void)const __ptr64 
?AllowNegotiate@CCommonConfigSettings@@UEBAHXZ
; public: virtual int __cdecl CCommonConfigSettings::AllowUnencrypted(void)const __ptr64 
?AllowUnencrypted@CCommonConfigSettings@@UEBAHXZ
; public: long __cdecl SBUFFER::Append(unsigned char *__ptr64,unsigned int)__ptr64 
?Append@SBUFFER@@QEAAJPEAEI@Z
; public: long __cdecl SBUFFER::Append(class SBUFFER *__ptr64)__ptr64 
?Append@SBUFFER@@QEAAJPEAV1@@Z
; public: long __cdecl TSTRBUFFER::Append(unsigned short const *__ptr64)__ptr64 
?Append@TSTRBUFFER@@QEAAJPEBG@Z
; public: long __cdecl TSTRBUFFER::Append(unsigned short const *__ptr64,unsigned int,unsigned int)__ptr64 
?Append@TSTRBUFFER@@QEAAJPEBGII@Z
; public: long __cdecl TSTRBUFFER::AppendChar(unsigned short)__ptr64 
?AppendChar@TSTRBUFFER@@QEAAJG@Z
; public: long __cdecl TSTRBUFFER::AppendEscapeXmlAttribute(unsigned short const *__ptr64,unsigned short)__ptr64 
?AppendEscapeXmlAttribute@TSTRBUFFER@@QEAAJPEBGG@Z
; public: long __cdecl TSTRBUFFER::AppendEscapeXmlContent(unsigned short const *__ptr64,bool)__ptr64 
?AppendEscapeXmlContent@TSTRBUFFER@@QEAAJPEBG_N@Z
; public: long __cdecl TSTRBUFFER::AppendXmlElem(unsigned short const *__ptr64,unsigned short const *__ptr64,int,unsigned long,struct _XML_ATTRIB *__ptr64)__ptr64 
?AppendXmlElem@TSTRBUFFER@@QEAAJPEBG0HKPEAU_XML_ATTRIB@@@Z
; public: long __cdecl TSTRBUFFER::AppendXmlElemWithNamespace(unsigned short const *__ptr64,unsigned short const *__ptr64,unsigned short const *__ptr64,int,unsigned long,struct _XML_ATTRIB *__ptr64)__ptr64 
?AppendXmlElemWithNamespace@TSTRBUFFER@@QEAAJPEBG00HKPEAU_XML_ATTRIB@@@Z
; public: long __cdecl TSTRBUFFER::AppendXmlElemWithNamespaceAndPrefix(unsigned short const *__ptr64,unsigned short const *__ptr64,unsigned short const *__ptr64,unsigned short const *__ptr64,int,unsigned long,struct _XML_ATTRIB *__ptr64)__ptr64 
?AppendXmlElemWithNamespaceAndPrefix@TSTRBUFFER@@QEAAJPEBG000HKPEAU_XML_ATTRIB@@@Z
; public: long __cdecl TSTRBUFFER::AppendXmlElemWithPrefix(unsigned short const *__ptr64,unsigned short const *__ptr64,unsigned short const *__ptr64,int,unsigned long,struct _XML_ATTRIB *__ptr64)__ptr64 
?AppendXmlElemWithPrefix@TSTRBUFFER@@QEAAJPEBG00HKPEAU_XML_ATTRIB@@@Z
; public: long __cdecl TSTRBUFFER::AppendXmlEndElem(unsigned short const *__ptr64)__ptr64 
?AppendXmlEndElem@TSTRBUFFER@@QEAAJPEBG@Z
; public: long __cdecl TSTRBUFFER::AppendXmlEndElemWithPrefix(unsigned short const *__ptr64,unsigned short const *__ptr64)__ptr64 
?AppendXmlEndElemWithPrefix@TSTRBUFFER@@QEAAJPEBG0@Z
; public: long __cdecl TSTRBUFFER::AppendXmlEndFragment(void)__ptr64 
?AppendXmlEndFragment@TSTRBUFFER@@QEAAJXZ
; public: long __cdecl TSTRBUFFER::AppendXmlEndItem(void)__ptr64 
?AppendXmlEndItem@TSTRBUFFER@@QEAAJXZ
; public: long __cdecl TSTRBUFFER::AppendXmlStartElem(unsigned short const *__ptr64,int,unsigned long,struct _XML_ATTRIB *__ptr64)__ptr64 
?AppendXmlStartElem@TSTRBUFFER@@QEAAJPEBGHKPEAU_XML_ATTRIB@@@Z
; public: long __cdecl TSTRBUFFER::AppendXmlStartElemWithNamespace(unsigned short const *__ptr64,unsigned short const *__ptr64,int,unsigned long,struct _XML_ATTRIB *__ptr64)__ptr64 
?AppendXmlStartElemWithNamespace@TSTRBUFFER@@QEAAJPEBG0HKPEAU_XML_ATTRIB@@@Z
; public: long __cdecl TSTRBUFFER::AppendXmlStartElemWithNamespaceAndPrefix(unsigned short const *__ptr64,unsigned short const *__ptr64,unsigned short const *__ptr64,int,unsigned long,struct _XML_ATTRIB *__ptr64)__ptr64 
?AppendXmlStartElemWithNamespaceAndPrefix@TSTRBUFFER@@QEAAJPEBG00HKPEAU_XML_ATTRIB@@@Z
; public: long __cdecl TSTRBUFFER::AppendXmlStartElemWithNamespaces(unsigned short const *__ptr64,unsigned long,struct _XML_NAMESPACE_PREFIX *__ptr64,int,unsigned long,struct _XML_ATTRIB *__ptr64)__ptr64 
?AppendXmlStartElemWithNamespaces@TSTRBUFFER@@QEAAJPEBGKPEAU_XML_NAMESPACE_PREFIX@@HKPEAU_XML_ATTRIB@@@Z
; public: long __cdecl TSTRBUFFER::AppendXmlStartElemWithNamespacesAndPrefixes(unsigned short const *__ptr64,unsigned short const *__ptr64,unsigned long,struct _XML_NAMESPACE_PREFIX *__ptr64,int,unsigned long,struct _XML_ATTRIB *__ptr64)__ptr64 
?AppendXmlStartElemWithNamespacesAndPrefixes@TSTRBUFFER@@QEAAJPEBG0KPEAU_XML_NAMESPACE_PREFIX@@HKPEAU_XML_ATTRIB@@@Z
; public: long __cdecl TSTRBUFFER::AppendXmlStartElemWithPrefix(unsigned short const *__ptr64,unsigned short const *__ptr64,int,unsigned long,struct _XML_ATTRIB *__ptr64)__ptr64 
?AppendXmlStartElemWithPrefix@TSTRBUFFER@@QEAAJPEBG0HKPEAU_XML_ATTRIB@@@Z
; public: long __cdecl TSTRBUFFER::AppendXmlStartFragment(void)__ptr64 
?AppendXmlStartFragment@TSTRBUFFER@@QEAAJXZ
; public: long __cdecl TSTRBUFFER::AppendXmlStartItem(void)__ptr64 
?AppendXmlStartItem@TSTRBUFFER@@QEAAJXZ
; public: bool __cdecl UserRecord::ApplyQuota(enum OperationType,class IRequestContext &__ptr64 ,class Catalog::Provider const *__ptr64,class CServiceConfigSettings *__ptr64)__ptr64 
?ApplyQuota@UserRecord@@QEAA_NW4OperationType@@AEAVIRequestContext@@PEBVProvider@Catalog@@PEAVCServiceConfigSettings@@@Z
; protected: int __cdecl ConfigRegistry::ApplySecurity(class IRequestContext *__ptr64,struct HKEY__ *__ptr64,unsigned short const *__ptr64,unsigned short const *__ptr64)__ptr64 
?ApplySecurity@ConfigRegistry@@IEAAHPEAVIRequestContext@@PEAUHKEY__@@PEBG2@Z
; public: class <class CCertMapping *__ptr64,struct Empty,class <class CCertMapping *__ptr64>> &__ptr64 __cdecl <class CCertMapping *__ptr64,struct Empty,class <class CCertMapping *__ptr64>>::AsReference(void)__ptr64 
?AsReference@?$SafeMap@PEAVCCertMapping@@UEmpty@@V?$SafeSet_Iterator@PEAVCCertMapping@@@@@@QEAAAEAV1@XZ
; public: class <class CListenerOperation *__ptr64,struct Empty,class <class CListenerOperation *__ptr64>> &__ptr64 __cdecl <class CListenerOperation *__ptr64,struct Empty,class <class CListenerOperation *__ptr64>>::AsReference(void)__ptr64 
?AsReference@?$SafeMap@PEAVCListenerOperation@@UEmpty@@V?$SafeSet_Iterator@PEAVCListenerOperation@@@@@@QEAAAEAV1@XZ
; public: class <class CShellUriSettings *__ptr64,struct Empty,class <class CShellUriSettings *__ptr64>> &__ptr64 __cdecl <class CShellUriSettings *__ptr64,struct Empty,class <class CShellUriSettings *__ptr64>>::AsReference(void)__ptr64 
?AsReference@?$SafeMap@PEAVCShellUriSettings@@UEmpty@@V?$SafeSet_Iterator@PEAVCShellUriSettings@@@@@@QEAAAEAV1@XZ
; public: class <void *__ptr64,struct Empty,class <void *__ptr64>> &__ptr64 __cdecl <void *__ptr64,struct Empty,class <void *__ptr64>>::AsReference(void)__ptr64 
?AsReference@?$SafeMap@PEAXUEmpty@@V?$SafeSet_Iterator@PEAX@@@@QEAAAEAV1@XZ
; public: class <struct PluginKey,unsigned long,class <struct PluginKey,unsigned long>> &__ptr64 __cdecl <struct PluginKey,unsigned long,class <struct PluginKey,unsigned long>>::AsReference(void)__ptr64 
?AsReference@?$SafeMap@UPluginKey@@KV?$SafeMap_Iterator@UPluginKey@@K@@@@QEAAAEAV1@XZ
; public: class <struct UserKey,class BlockedRecord *__ptr64,class <struct UserKey,class BlockedRecord *__ptr64>> &__ptr64 __cdecl <struct UserKey,class BlockedRecord *__ptr64,class <struct UserKey,class BlockedRecord *__ptr64>>::AsReference(void)__ptr64 
?AsReference@?$SafeMap@UUserKey@@PEAVBlockedRecord@@V?$SafeMap_Iterator@UUserKey@@PEAVBlockedRecord@@@@@@QEAAAEAV1@XZ
; public: class <class CertThumbprintKey,class CServiceConfigSettings::CertThumbprintMappedSet,class <class CertThumbprintKey,class CServiceConfigSettings::CertThumbprintMappedSet>> &__ptr64 __cdecl <class CertThumbprintKey,class CServiceConfigSettings::CertThumbprintMappedSet,class <class CertThumbprintKey,class CServiceConfigSettings::CertThumbprintMappedSet>>::AsReference(void)__ptr64 
?AsReference@?$SafeMap@VCertThumbprintKey@@VCertThumbprintMappedSet@CServiceConfigSettings@@V?$SafeMap_Iterator@VCertThumbprintKey@@VCertThumbprintMappedSet@CServiceConfigSettings@@@@@@QEAAAEAV1@XZ
; public: class <class Locale::Key,unsigned long,class <class Locale::Key,unsigned long>> &__ptr64 __cdecl <class Locale::Key,unsigned long,class <class Locale::Key,unsigned long>>::AsReference(void)__ptr64 
?AsReference@?$SafeMap@VKey@Locale@@KV?$SafeMap_Iterator@VKey@Locale@@K@@@@QEAAAEAV1@XZ
; public: class <class StringKeyCI,unsigned long,class <class StringKeyCI,unsigned long>> &__ptr64 __cdecl <class StringKeyCI,unsigned long,class <class StringKeyCI,unsigned long>>::AsReference(void)__ptr64 
?AsReference@?$SafeMap@VStringKeyCI@@KV?$SafeMap_Iterator@VStringKeyCI@@K@@@@QEAAAEAV1@XZ
; public: class <class StringKeyCI,struct WSManHttpListener::USER_CONTEXT_INFO,class <class StringKeyCI,struct WSManHttpListener::USER_CONTEXT_INFO>> &__ptr64 __cdecl <class StringKeyCI,struct WSManHttpListener::USER_CONTEXT_INFO,class <class StringKeyCI,struct WSManHttpListener::USER_CONTEXT_INFO>>::AsReference(void)__ptr64 
?AsReference@?$SafeMap@VStringKeyCI@@UUSER_CONTEXT_INFO@WSManHttpListener@@V?$SafeMap_Iterator@VStringKeyCI@@UUSER_CONTEXT_INFO@WSManHttpListener@@@@@@QEAAAEAV1@XZ
; public: class <class StringKeyStore,class ExpiredOperationIdRecord *__ptr64,class <class StringKeyStore,class ExpiredOperationIdRecord *__ptr64>> &__ptr64 __cdecl <class StringKeyStore,class ExpiredOperationIdRecord *__ptr64,class <class StringKeyStore,class ExpiredOperationIdRecord *__ptr64>>::AsReference(void)__ptr64 
?AsReference@?$SafeMap@VStringKeyStore@@PEAVExpiredOperationIdRecord@@V?$SafeMap_Iterator@VStringKeyStore@@PEAVExpiredOperationIdRecord@@@@@@QEAAAEAV1@XZ
; public: class <class StringKeyStore,class ServerFullDuplexChannel *__ptr64,class <class StringKeyStore,class ServerFullDuplexChannel *__ptr64>> &__ptr64 __cdecl <class StringKeyStore,class ServerFullDuplexChannel *__ptr64,class <class StringKeyStore,class ServerFullDuplexChannel *__ptr64>>::AsReference(void)__ptr64 
?AsReference@?$SafeMap@VStringKeyStore@@PEAVServerFullDuplexChannel@@V?$SafeMap_Iterator@VStringKeyStore@@PEAVServerFullDuplexChannel@@@@@@QEAAAEAV1@XZ
; public: class <enum WSManSessionOption,class WSMan::Client::SessionOptions::OptionValue *__ptr64,class <enum WSManSessionOption,class WSMan::Client::SessionOptions::OptionValue *__ptr64>> &__ptr64 __cdecl <enum WSManSessionOption,class WSMan::Client::SessionOptions::OptionValue *__ptr64,class <enum WSManSessionOption,class WSMan::Client::SessionOptions::OptionValue *__ptr64>>::AsReference(void)__ptr64 
?AsReference@?$SafeMap@W4WSManSessionOption@@PEAVOptionValue@SessionOptions@Client@WSMan@@V?$SafeMap_Iterator@W4WSManSessionOption@@PEAVOptionValue@SessionOptions@Client@WSMan@@@@@@QEAAAEAV1@XZ
; public: class <unsigned __int64,class RobustConnectionBuffer::SendPacketArgs *__ptr64,class <unsigned __int64,class RobustConnectionBuffer::SendPacketArgs *__ptr64>> &__ptr64 __cdecl <unsigned __int64,class RobustConnectionBuffer::SendPacketArgs *__ptr64,class <unsigned __int64,class RobustConnectionBuffer::SendPacketArgs *__ptr64>>::AsReference(void)__ptr64 
?AsReference@?$SafeMap@_KPEAVSendPacketArgs@RobustConnectionBuffer@@V?$SafeMap_Iterator@_KPEAVSendPacketArgs@RobustConnectionBuffer@@@@@@QEAAAEAV1@XZ
; public: virtual unsigned long __cdecl UserRecord::AuthzComplete(void *__ptr64,void *__ptr64,enum UserAuthzRecord::AdministratorType,unsigned long,unsigned short const *__ptr64)__ptr64 
?AuthzComplete@UserRecord@@UEAAKPEAX0W4AdministratorType@UserAuthzRecord@@KPEBG@Z
; private: static struct PacketFormatter::BOMInfo const *const const PacketFormatter::BOMS
?BOMS@PacketFormatter@@0QBUBOMInfo@1@B DATA
; public: static int __cdecl CSecurity::BeginRevertToSelf(void *__ptr64 *__ptr64,unsigned long)
?BeginRevertToSelf@CSecurity@@SAHPEAPEAXK@Z
; public: virtual int __cdecl CWSManResourceNoResourceUri::BuildFragmentTransfer(class BufferFormatter &__ptr64 )__ptr64 
?BuildFragmentTransfer@CWSManResourceNoResourceUri@@UEAAHAEAVBufferFormatter@@@Z
; public: int __cdecl CWSManResourceNoResourceUri::BuildOptionSet(class BufferFormatter &__ptr64 )__ptr64 
?BuildOptionSet@CWSManResourceNoResourceUri@@QEAAHAEAVBufferFormatter@@@Z
; public: virtual int __cdecl CWSManEPR::BuildSelectorSet(class BufferFormatter &__ptr64 )__ptr64 
?BuildSelectorSet@CWSManEPR@@UEAAHAEAVBufferFormatter@@@Z
; public: virtual int __cdecl CWSManResourceNoResourceUri::BuildSelectorSet(class BufferFormatter &__ptr64 )__ptr64 
?BuildSelectorSet@CWSManResourceNoResourceUri@@UEAAHAEAVBufferFormatter@@@Z
; private: static struct PacketFormatter::CharsetInfo const *const const PacketFormatter::CHARSETS
?CHARSETS@PacketFormatter@@0QBUCharsetInfo@1@B DATA
; public: void __cdecl CServiceConfigCache::ChangeLogging(enum ErrorLogging)__ptr64 
?ChangeLogging@CServiceConfigCache@@QEAAXW4ErrorLogging@@@Z
; protected: int __cdecl ConfigRegistry::CheckSharedSSLConfiguration(class IRequestContext *__ptr64,unsigned short const *__ptr64,unsigned short const *__ptr64,int,int *__ptr64)__ptr64 
?CheckSharedSSLConfiguration@ConfigRegistry@@IEAAHPEAVIRequestContext@@PEBG1HPEAH@Z
; public: void __cdecl <struct PluginKey,unsigned long,class <struct PluginKey,unsigned long>>::Clear(void)__ptr64 
?Clear@?$SafeMap@UPluginKey@@KV?$SafeMap_Iterator@UPluginKey@@K@@@@QEAAXXZ
; public: void __cdecl <class StringKeyCI,unsigned long,class <class StringKeyCI,unsigned long>>::Clear(void)__ptr64 
?Clear@?$SafeMap@VStringKeyCI@@KV?$SafeMap_Iterator@VStringKeyCI@@K@@@@QEAAXXZ
; public: void __cdecl <class StringKeyCI,struct WSManHttpListener::USER_CONTEXT_INFO,class <class StringKeyCI,struct WSManHttpListener::USER_CONTEXT_INFO>>::Clear(void)__ptr64 
?Clear@?$SafeMap@VStringKeyCI@@UUSER_CONTEXT_INFO@WSManHttpListener@@V?$SafeMap_Iterator@VStringKeyCI@@UUSER_CONTEXT_INFO@WSManHttpListener@@@@@@QEAAXXZ
; public: void __cdecl <class StringKeyStore,class ExpiredOperationIdRecord *__ptr64,class <class StringKeyStore,class ExpiredOperationIdRecord *__ptr64>>::Clear(void)__ptr64 
?Clear@?$SafeMap@VStringKeyStore@@PEAVExpiredOperationIdRecord@@V?$SafeMap_Iterator@VStringKeyStore@@PEAVExpiredOperationIdRecord@@@@@@QEAAXXZ
; public: int __cdecl CWSManResourceNoResourceUri::ClearKeys(void)__ptr64 
?ClearKeys@CWSManResourceNoResourceUri@@QEAAHXZ
; public: int __cdecl CWSManResourceNoResourceUri::ClearOptions(void)__ptr64 
?ClearOptions@CWSManResourceNoResourceUri@@QEAAHXZ
; protected: int __cdecl ConfigRegistry::ClearRegistryKeys(class IRequestContext *__ptr64)__ptr64 
?ClearRegistryKeys@ConfigRegistry@@IEAAHPEAVIRequestContext@@@Z
; int __cdecl ClearSubKeys(struct HKEY__ *__ptr64,class IRequestContext *__ptr64)
?ClearSubKeys@@YAHPEAUHKEY__@@PEAVIRequestContext@@@Z
; public: void __cdecl CRequestContext::CompleteWithErrorContext(struct _WSMAN_PLUGIN_REQUEST *__ptr64)__ptr64 
?CompleteWithErrorContext@CRequestContext@@QEAAXPEAU_WSMAN_PLUGIN_REQUEST@@@Z
; public: static unsigned long const ExtendedSemantic::Confirm
?Confirm@ExtendedSemantic@@2KB
; public: long __cdecl TSTRBUFFER::Copy(unsigned short const *__ptr64)__ptr64 
?Copy@TSTRBUFFER@@QEAAJPEBG@Z
; unsigned short *__ptr64 __cdecl CopyString(class IRequestContext *__ptr64,enum CallSiteId,unsigned short const *__ptr64)
?CopyString@@YAPEAGPEAVIRequestContext@@W4CallSiteId@@PEBG@Z
; unsigned short *__ptr64 __cdecl CopyString(unsigned short const *__ptr64,int const &__ptr64 ,class IRequestContext &__ptr64 )
?CopyString@@YAPEAGPEBGAEBHAEAVIRequestContext@@@Z
; public: unsigned long __cdecl PacketParser::MessageId::CopyString(unsigned short const *__ptr64,int)__ptr64 
?CopyString@MessageId@PacketParser@@QEAAKPEBGH@Z
; public: virtual void __cdecl CErrorContext::CopyTo(class IRequestContext *__ptr64)const __ptr64 
?CopyTo@CErrorContext@@UEBAXPEAVIRequestContext@@@Z
; public: virtual void __cdecl CRequestContext::CopyTo(class IRequestContext *__ptr64)const __ptr64 
?CopyTo@CRequestContext@@UEBAXPEAVIRequestContext@@@Z
; public: static void __cdecl WSMan::EventHandler::CreateActivityId(struct _GUID &__ptr64 )
?CreateActivityId@EventHandler@WSMan@@SAXAEAU_GUID@@@Z
; public: unsigned long __cdecl SoapSemanticConverter::CreateAnEvent(unsigned long,class SemanticMessage *__ptr64,class BufferFormatter &__ptr64 ,class IRequestContext *__ptr64)__ptr64 
?CreateAnEvent@SoapSemanticConverter@@QEAAKKPEAVSemanticMessage@@AEAVBufferFormatter@@PEAVIRequestContext@@@Z
; private: int __cdecl CConfigManager::CreateAutoConfiguredListener(class IRequestContext *__ptr64,class LISTENER_IDENTITY *__ptr64)__ptr64 
?CreateAutoConfiguredListener@CConfigManager@@AEAAHPEAVIRequestContext@@PEAVLISTENER_IDENTITY@@@Z
; protected: bool __cdecl <class CSecurity::AdminSid>::CreateInstance(class IRequestContext &__ptr64 )__ptr64 
?CreateInstance@?$ILoader@VAdminSid@CSecurity@@@@IEAA_NAEAVIRequestContext@@@Z
; protected: bool __cdecl <class CredUIDllLoader>::CreateInstance(class IRequestContext &__ptr64 )__ptr64 
?CreateInstance@?$ILoader@VCredUIDllLoader@@@@IEAA_NAEAVIRequestContext@@@Z
; protected: bool __cdecl <class WSMan::EventHandler>::CreateInstance(class IRequestContext &__ptr64 )__ptr64 
?CreateInstance@?$ILoader@VEventHandler@WSMan@@@@IEAA_NAEAVIRequestContext@@@Z
; protected: bool __cdecl <class CSecurity::InteractiveSid>::CreateInstance(class IRequestContext &__ptr64 )__ptr64 
?CreateInstance@?$ILoader@VInteractiveSid@CSecurity@@@@IEAA_NAEAVIRequestContext@@@Z
; protected: bool __cdecl <class IpHlpApiDllLoader>::CreateInstance(class IRequestContext &__ptr64 )__ptr64 
?CreateInstance@?$ILoader@VIpHlpApiDllLoader@@@@IEAA_NAEAVIRequestContext@@@Z
; protected: bool __cdecl <class MachineName>::CreateInstance(class IRequestContext &__ptr64 )__ptr64 
?CreateInstance@?$ILoader@VMachineName@@@@IEAA_NAEAVIRequestContext@@@Z
; protected: bool __cdecl <class CSecurity::NetworkServiceSid>::CreateInstance(class IRequestContext &__ptr64 )__ptr64 
?CreateInstance@?$ILoader@VNetworkServiceSid@CSecurity@@@@IEAA_NAEAVIRequestContext@@@Z
; protected: bool __cdecl <class NtDsApiDllLoader>::CreateInstance(class IRequestContext &__ptr64 )__ptr64 
?CreateInstance@?$ILoader@VNtDsApiDllLoader@@@@IEAA_NAEAVIRequestContext@@@Z
; protected: bool __cdecl <class Locale::Resources>::CreateInstance(class IRequestContext &__ptr64 )__ptr64 
?CreateInstance@?$ILoader@VResources@Locale@@@@IEAA_NAEAVIRequestContext@@@Z
; protected: bool __cdecl <class Shell32DllLoader>::CreateInstance(class IRequestContext &__ptr64 )__ptr64 
?CreateInstance@?$ILoader@VShell32DllLoader@@@@IEAA_NAEAVIRequestContext@@@Z
; protected: bool __cdecl <class ShlWApiDllLoader>::CreateInstance(class IRequestContext &__ptr64 )__ptr64 
?CreateInstance@?$ILoader@VShlWApiDllLoader@@@@IEAA_NAEAVIRequestContext@@@Z
; protected: bool __cdecl <class SubscriptionManager>::CreateInstance(class IRequestContext &__ptr64 )__ptr64 
?CreateInstance@?$ILoader@VSubscriptionManager@@@@IEAA_NAEAVIRequestContext@@@Z
; protected: bool __cdecl <class User32DllLoader>::CreateInstance(class IRequestContext &__ptr64 )__ptr64 
?CreateInstance@?$ILoader@VUser32DllLoader@@@@IEAA_NAEAVIRequestContext@@@Z
; protected: bool __cdecl <class WSManMemCryptManager>::CreateInstance(class IRequestContext &__ptr64 )__ptr64 
?CreateInstance@?$ILoader@VWSManMemCryptManager@@@@IEAA_NAEAVIRequestContext@@@Z
; protected: int __cdecl ConfigRegistry::CreateKey(class IRequestContext *__ptr64,unsigned short const *__ptr64,struct HKEY__ *__ptr64 *__ptr64,unsigned short const *__ptr64,unsigned long,unsigned long *__ptr64)__ptr64 
?CreateKey@ConfigRegistry@@IEAAHPEAVIRequestContext@@PEBGPEAPEAUHKEY__@@1KPEAK@Z
; private: static class CBaseConfigCache *__ptr64 __cdecl CBaseConfigCache::CreateNew(class IRequestContext *__ptr64,class CBaseConfigCache::CConfigCacheMap *__ptr64,class CBaseConfigCache *__ptr64(__cdecl *)(void),enum ErrorLogging,int)
?CreateNew@CBaseConfigCache@@CAPEAV1@PEAVIRequestContext@@PEAVCConfigCacheMap@1@P6APEAV1@XZW4ErrorLogging@@H@Z
CreateProvHost
; private: int __cdecl CWSManSecurityUI::CreateRenderingInformation(class IRequestContext *__ptr64)__ptr64 
?CreateRenderingInformation@CWSManSecurityUI@@AEAAHPEAVIRequestContext@@@Z
; public: unsigned long __cdecl SoapSemanticConverter::CreateResponse(unsigned long,enum _MI_OperationCallback_ResponseType,class BufferFormatter &__ptr64 ,class IRequestContext *__ptr64)__ptr64 
?CreateResponse@SoapSemanticConverter@@QEAAKKW4_MI_OperationCallback_ResponseType@@AEAVBufferFormatter@@PEAVIRequestContext@@@Z
; public: unsigned long __cdecl PacketParser::SessionId::CreateSessionGuid(unsigned short const *__ptr64,int)__ptr64 
?CreateSessionGuid@SessionId@PacketParser@@QEAAKPEBGH@Z
; protected: class <class CCertMapping *__ptr64,struct Empty> &__ptr64 __cdecl <class CCertMapping *__ptr64,struct Empty>::Data(void)const __ptr64 
?Data@?$SafeMap_Iterator@PEAVCCertMapping@@UEmpty@@@@IEBAAEAV?$STLMap@PEAVCCertMapping@@UEmpty@@@@XZ
; protected: class <class CListenerOperation *__ptr64,struct Empty> &__ptr64 __cdecl <class CListenerOperation *__ptr64,struct Empty>::Data(void)const __ptr64 
?Data@?$SafeMap_Iterator@PEAVCListenerOperation@@UEmpty@@@@IEBAAEAV?$STLMap@PEAVCListenerOperation@@UEmpty@@@@XZ
; protected: class <class CShellUriSettings *__ptr64,struct Empty> &__ptr64 __cdecl <class CShellUriSettings *__ptr64,struct Empty>::Data(void)const __ptr64 
?Data@?$SafeMap_Iterator@PEAVCShellUriSettings@@UEmpty@@@@IEBAAEAV?$STLMap@PEAVCShellUriSettings@@UEmpty@@@@XZ
; protected: class <void *__ptr64,struct Empty> &__ptr64 __cdecl <void *__ptr64,struct Empty>::Data(void)const __ptr64 
?Data@?$SafeMap_Iterator@PEAXUEmpty@@@@IEBAAEAV?$STLMap@PEAXUEmpty@@@@XZ
; protected: class <struct PluginKey,unsigned long> &__ptr64 __cdecl <struct PluginKey,unsigned long>::Data(void)const __ptr64 
?Data@?$SafeMap_Iterator@UPluginKey@@K@@IEBAAEAV?$STLMap@UPluginKey@@K@@XZ
; protected: class <struct UserKey,class BlockedRecord *__ptr64> &__ptr64 __cdecl <struct UserKey,class BlockedRecord *__ptr64>::Data(void)const __ptr64 
?Data@?$SafeMap_Iterator@UUserKey@@PEAVBlockedRecord@@@@IEBAAEAV?$STLMap@UUserKey@@PEAVBlockedRecord@@@@XZ
; protected: class <class CertThumbprintKey,class CServiceConfigSettings::CertThumbprintMappedSet> &__ptr64 __cdecl <class CertThumbprintKey,class CServiceConfigSettings::CertThumbprintMappedSet>::Data(void)const __ptr64 
?Data@?$SafeMap_Iterator@VCertThumbprintKey@@VCertThumbprintMappedSet@CServiceConfigSettings@@@@IEBAAEAV?$STLMap@VCertThumbprintKey@@VCertThumbprintMappedSet@CServiceConfigSettings@@@@XZ
; protected: class <class Locale::Key,unsigned long> &__ptr64 __cdecl <class Locale::Key,unsigned long>::Data(void)const __ptr64 
?Data@?$SafeMap_Iterator@VKey@Locale@@K@@IEBAAEAV?$STLMap@VKey@Locale@@K@@XZ
; protected: class <class StringKeyCI,unsigned long> &__ptr64 __cdecl <class StringKeyCI,unsigned long>::Data(void)const __ptr64 
?Data@?$SafeMap_Iterator@VStringKeyCI@@K@@IEBAAEAV?$STLMap@VStringKeyCI@@K@@XZ
; protected: class <class StringKeyCI,struct WSManHttpListener::USER_CONTEXT_INFO> &__ptr64 __cdecl <class StringKeyCI,struct WSManHttpListener::USER_CONTEXT_INFO>::Data(void)const __ptr64 
?Data@?$SafeMap_Iterator@VStringKeyCI@@UUSER_CONTEXT_INFO@WSManHttpListener@@@@IEBAAEAV?$STLMap@VStringKeyCI@@UUSER_CONTEXT_INFO@WSManHttpListener@@@@XZ
; protected: class <class StringKeyStore,class ExpiredOperationIdRecord *__ptr64> &__ptr64 __cdecl <class StringKeyStore,class ExpiredOperationIdRecord *__ptr64>::Data(void)const __ptr64 
?Data@?$SafeMap_Iterator@VStringKeyStore@@PEAVExpiredOperationIdRecord@@@@IEBAAEAV?$STLMap@VStringKeyStore@@PEAVExpiredOperationIdRecord@@@@XZ
; protected: class <class StringKeyStore,class ServerFullDuplexChannel *__ptr64> &__ptr64 __cdecl <class StringKeyStore,class ServerFullDuplexChannel *__ptr64>::Data(void)const __ptr64 
?Data@?$SafeMap_Iterator@VStringKeyStore@@PEAVServerFullDuplexChannel@@@@IEBAAEAV?$STLMap@VStringKeyStore@@PEAVServerFullDuplexChannel@@@@XZ
; protected: class <enum WSManSessionOption,class WSMan::Client::SessionOptions::OptionValue *__ptr64> &__ptr64 __cdecl <enum WSManSessionOption,class WSMan::Client::SessionOptions::OptionValue *__ptr64>::Data(void)const __ptr64 
?Data@?$SafeMap_Iterator@W4WSManSessionOption@@PEAVOptionValue@SessionOptions@Client@WSMan@@@@IEBAAEAV?$STLMap@W4WSManSessionOption@@PEAVOptionValue@SessionOptions@Client@WSMan@@@@XZ
; protected: class <unsigned __int64,class RobustConnectionBuffer::SendPacketArgs *__ptr64> &__ptr64 __cdecl <unsigned __int64,class RobustConnectionBuffer::SendPacketArgs *__ptr64>::Data(void)const __ptr64 
?Data@?$SafeMap_Iterator@_KPEAVSendPacketArgs@RobustConnectionBuffer@@@@IEBAAEAV?$STLMap@_KPEAVSendPacketArgs@RobustConnectionBuffer@@@@XZ
; public: virtual bool __cdecl <class CCertMapping *__ptr64,struct Empty,class <class CCertMapping *__ptr64,struct Empty>>::DeInitialize(class IRequestContext &__ptr64 )__ptr64 
?DeInitialize@?$SafeMap@PEAVCCertMapping@@UEmpty@@V?$SafeMap_Iterator@PEAVCCertMapping@@UEmpty@@@@@@UEAA_NAEAVIRequestContext@@@Z
; public: virtual bool __cdecl <class CCertMapping *__ptr64,struct Empty,class <class CCertMapping *__ptr64>>::DeInitialize(class IRequestContext &__ptr64 )__ptr64 
?DeInitialize@?$SafeMap@PEAVCCertMapping@@UEmpty@@V?$SafeSet_Iterator@PEAVCCertMapping@@@@@@UEAA_NAEAVIRequestContext@@@Z
; public: virtual bool __cdecl <class CListenerConnect *__ptr64,class CListenerConnect *__ptr64,class <class CListenerConnect *__ptr64,class CListenerConnect *__ptr64>>::DeInitialize(class IRequestContext &__ptr64 )__ptr64 
?DeInitialize@?$SafeMap@PEAVCListenerConnect@@PEAV1@V?$SafeMap_Iterator@PEAVCListenerConnect@@PEAV1@@@@@UEAA_NAEAVIRequestContext@@@Z
; public: virtual bool __cdecl <class CListenerOperation *__ptr64,struct Empty,class <class CListenerOperation *__ptr64,struct Empty>>::DeInitialize(class IRequestContext &__ptr64 )__ptr64 
?DeInitialize@?$SafeMap@PEAVCListenerOperation@@UEmpty@@V?$SafeMap_Iterator@PEAVCListenerOperation@@UEmpty@@@@@@UEAA_NAEAVIRequestContext@@@Z
; public: virtual bool __cdecl <class CListenerOperation *__ptr64,struct Empty,class <class CListenerOperation *__ptr64>>::DeInitialize(class IRequestContext &__ptr64 )__ptr64 
?DeInitialize@?$SafeMap@PEAVCListenerOperation@@UEmpty@@V?$SafeSet_Iterator@PEAVCListenerOperation@@@@@@UEAA_NAEAVIRequestContext@@@Z
; public: virtual bool __cdecl <class CListenerReceive *__ptr64,class CListenerReceive *__ptr64,class <class CListenerReceive *__ptr64,class CListenerReceive *__ptr64>>::DeInitialize(class IRequestContext &__ptr64 )__ptr64 
?DeInitialize@?$SafeMap@PEAVCListenerReceive@@PEAV1@V?$SafeMap_Iterator@PEAVCListenerReceive@@PEAV1@@@@@UEAA_NAEAVIRequestContext@@@Z
; public: virtual bool __cdecl <class CListenerSend *__ptr64,class CListenerSend *__ptr64,class <class CListenerSend *__ptr64,class CListenerSend *__ptr64>>::DeInitialize(class IRequestContext &__ptr64 )__ptr64 
?DeInitialize@?$SafeMap@PEAVCListenerSend@@PEAV1@V?$SafeMap_Iterator@PEAVCListenerSend@@PEAV1@@@@@UEAA_NAEAVIRequestContext@@@Z
; public: virtual bool __cdecl <class CListenerSignal *__ptr64,class CListenerSignal *__ptr64,class <class CListenerSignal *__ptr64,class CListenerSignal *__ptr64>>::DeInitialize(class IRequestContext &__ptr64 )__ptr64 
?DeInitialize@?$SafeMap@PEAVCListenerSignal@@PEAV1@V?$SafeMap_Iterator@PEAVCListenerSignal@@PEAV1@@@@@UEAA_NAEAVIRequestContext@@@Z
; public: virtual bool __cdecl <class CShellUriSettings *__ptr64,struct Empty,class <class CShellUriSettings *__ptr64>>::DeInitialize(class IRequestContext &__ptr64 )__ptr64 
?DeInitialize@?$SafeMap@PEAVCShellUriSettings@@UEmpty@@V?$SafeSet_Iterator@PEAVCShellUriSettings@@@@@@UEAA_NAEAVIRequestContext@@@Z
; public: virtual bool __cdecl <class Collector *__ptr64,struct Empty,class <class Collector *__ptr64,struct Empty>>::DeInitialize(class IRequestContext &__ptr64 )__ptr64 
?DeInitialize@?$SafeMap@PEAVCollector@@UEmpty@@V?$SafeMap_Iterator@PEAVCollector@@UEmpty@@@@@@UEAA_NAEAVIRequestContext@@@Z
; public: virtual bool __cdecl <class Collector *__ptr64,struct Empty,class <class Collector *__ptr64>>::DeInitialize(class IRequestContext &__ptr64 )__ptr64 
?DeInitialize@?$SafeMap@PEAVCollector@@UEmpty@@V?$SafeSet_Iterator@PEAVCollector@@@@@@UEAA_NAEAVIRequestContext@@@Z
; public: virtual bool __cdecl <class HostOperation *__ptr64,struct Empty,class <class HostOperation *__ptr64,struct Empty>>::DeInitialize(class IRequestContext &__ptr64 )__ptr64 
?DeInitialize@?$SafeMap@PEAVHostOperation@@UEmpty@@V?$SafeMap_Iterator@PEAVHostOperation@@UEmpty@@@@@@UEAA_NAEAVIRequestContext@@@Z
; public: virtual bool __cdecl <class HostOperation *__ptr64,struct Empty,class <class HostOperation *__ptr64>>::DeInitialize(class IRequestContext &__ptr64 )__ptr64 
?DeInitialize@?$SafeMap@PEAVHostOperation@@UEmpty@@V?$SafeSet_Iterator@PEAVHostOperation@@@@@@UEAA_NAEAVIRequestContext@@@Z
; public: virtual bool __cdecl <class IOperation *__ptr64,struct Empty,class <class IOperation *__ptr64,struct Empty>>::DeInitialize(class IRequestContext &__ptr64 )__ptr64 
?DeInitialize@?$SafeMap@PEAVIOperation@@UEmpty@@V?$SafeMap_Iterator@PEAVIOperation@@UEmpty@@@@@@UEAA_NAEAVIRequestContext@@@Z
; public: virtual bool __cdecl <class IOperation *__ptr64,struct Empty,class <class IOperation *__ptr64>>::DeInitialize(class IRequestContext &__ptr64 )__ptr64 
?DeInitialize@?$SafeMap@PEAVIOperation@@UEmpty@@V?$SafeSet_Iterator@PEAVIOperation@@@@@@UEAA_NAEAVIRequestContext@@@Z
; public: virtual bool __cdecl <class ListenerSourceSubscription *__ptr64,struct Empty,class <class ListenerSourceSubscription *__ptr64,struct Empty>>::DeInitialize(class IRequestContext &__ptr64 )__ptr64 
?DeInitialize@?$SafeMap@PEAVListenerSourceSubscription@@UEmpty@@V?$SafeMap_Iterator@PEAVListenerSourceSubscription@@UEmpty@@@@@@UEAA_NAEAVIRequestContext@@@Z
; public: virtual bool __cdecl <class ListenerSourceSubscription *__ptr64,struct Empty,class <class ListenerSourceSubscription *__ptr64>>::DeInitialize(class IRequestContext &__ptr64 )__ptr64 
?DeInitialize@?$SafeMap@PEAVListenerSourceSubscription@@UEmpty@@V?$SafeSet_Iterator@PEAVListenerSourceSubscription@@@@@@UEAA_NAEAVIRequestContext@@@Z
; public: virtual bool __cdecl <class PushSubscription *__ptr64,struct Empty,class <class PushSubscription *__ptr64,struct Empty>>::DeInitialize(class IRequestContext &__ptr64 )__ptr64 
?DeInitialize@?$SafeMap@PEAVPushSubscription@@UEmpty@@V?$SafeMap_Iterator@PEAVPushSubscription@@UEmpty@@@@@@UEAA_NAEAVIRequestContext@@@Z
; public: virtual bool __cdecl <class PushSubscription *__ptr64,struct Empty,class <class PushSubscription *__ptr64>>::DeInitialize(class IRequestContext &__ptr64 )__ptr64 
?DeInitialize@?$SafeMap@PEAVPushSubscription@@UEmpty@@V?$SafeSet_Iterator@PEAVPushSubscription@@@@@@UEAA_NAEAVIRequestContext@@@Z
; public: virtual bool __cdecl <void *__ptr64,struct Empty,class <void *__ptr64>>::DeInitialize(class IRequestContext &__ptr64 )__ptr64 
?DeInitialize@?$SafeMap@PEAXUEmpty@@V?$SafeSet_Iterator@PEAX@@@@UEAA_NAEAVIRequestContext@@@Z
; public: virtual bool __cdecl <struct PluginKey,unsigned long,class <struct PluginKey,unsigned long>>::DeInitialize(class IRequestContext &__ptr64 )__ptr64 
?DeInitialize@?$SafeMap@UPluginKey@@KV?$SafeMap_Iterator@UPluginKey@@K@@@@UEAA_NAEAVIRequestContext@@@Z
